
ass-bios.elf:     file format elf32-m68k


Disassembly of section .text:

00000000 <initialize-0x100>:
       0:	0100           	btst %d0,%d0
       2:	0000 0000      	orib #0,%d0
       6:	0100           	btst %d0,%d0
       8:	0000 025e      	orib #94,%d0
       c:	0000 0286      	orib #-122,%d0
      10:	0000 02ae      	orib #-82,%d0
      14:	0000 02d6      	orib #-42,%d0
      18:	0000 0134      	orib #52,%d0
      1c:	0000 0134      	orib #52,%d0
      20:	0000 0134      	orib #52,%d0
      24:	0000 0134      	orib #52,%d0
      28:	0000 0134      	orib #52,%d0
      2c:	0000 0134      	orib #52,%d0
      30:	0000 0134      	orib #52,%d0
      34:	0000 0134      	orib #52,%d0
      38:	0000 0134      	orib #52,%d0
      3c:	0000 0134      	orib #52,%d0
      40:	0000 0134      	orib #52,%d0
      44:	0000 0134      	orib #52,%d0
      48:	0000 0134      	orib #52,%d0
      4c:	0000 0134      	orib #52,%d0
      50:	0000 0134      	orib #52,%d0
      54:	0000 0134      	orib #52,%d0
      58:	0000 0134      	orib #52,%d0
      5c:	0000 0134      	orib #52,%d0
      60:	0000 0134      	orib #52,%d0
      64:	0000 0134      	orib #52,%d0
      68:	0000 0134      	orib #52,%d0
      6c:	0000 0134      	orib #52,%d0
      70:	0000 0310      	orib #16,%d0
      74:	0000 0134      	orib #52,%d0
      78:	0000 02fe      	orib #-2,%d0
      7c:	0000 0134      	orib #52,%d0
      80:	0000 0134      	orib #52,%d0
      84:	0000 0134      	orib #52,%d0
      88:	0000 0134      	orib #52,%d0
      8c:	0000 0134      	orib #52,%d0
      90:	0000 0134      	orib #52,%d0
      94:	0000 0134      	orib #52,%d0
      98:	0000 0134      	orib #52,%d0
      9c:	0000 0134      	orib #52,%d0
      a0:	0000 0134      	orib #52,%d0
      a4:	0000 0134      	orib #52,%d0
      a8:	0000 0134      	orib #52,%d0
      ac:	0000 0134      	orib #52,%d0
      b0:	0000 0134      	orib #52,%d0
      b4:	0000 0134      	orib #52,%d0
      b8:	0000 0134      	orib #52,%d0
      bc:	0000 0134      	orib #52,%d0
      c0:	0000 0134      	orib #52,%d0
      c4:	0000 0134      	orib #52,%d0
      c8:	0000 0134      	orib #52,%d0
      cc:	0000 0134      	orib #52,%d0
      d0:	0000 0134      	orib #52,%d0
      d4:	0000 0134      	orib #52,%d0
      d8:	0000 0134      	orib #52,%d0
      dc:	0000 0134      	orib #52,%d0
      e0:	0000 0134      	orib #52,%d0
      e4:	0000 0134      	orib #52,%d0
      e8:	0000 0134      	orib #52,%d0
      ec:	0000 0134      	orib #52,%d0
      f0:	0000 0134      	orib #52,%d0
      f4:	0000 0134      	orib #52,%d0
      f8:	0000 0134      	orib #52,%d0
      fc:	0000 0134      	orib #52,%d0

00000100 <initialize>:
     100:	46fc 2700      	movew #9984,%sr
     104:	41f9 0000 9344 	lea 9344 <_etext>,%a0
     10a:	43f9 0100 0000 	lea 1000000 <interface>,%a1
     110:	203c 0000 002c 	movel #44,%d0
     116:	e288           	lsrl #1,%d0
     118:	5340           	subqw #1,%d0
     11a:	32d8           	movew %a0@+,%a1@+
     11c:	51c8 fffc      	dbf %d0,11a <initialize+0x1a>
     120:	41f9 01ff 0000 	lea 1ff0000 <__end+0xfefd70>,%a0
     126:	2e48           	moveal %a0,%sp
     128:	4e56 fff8      	linkw %fp,#-8
     12c:	4eb9 0000 0322 	jsr 322 <main>
     132:	60fe           	bras 132 <initialize+0x32>

00000134 <nullHandler>:
     134:	4e73           	rte
	...

00000140 <UpdateChelsie>:
     140:	2039 0100 0278 	movel 1000278 <chelsieTimer>,%d0
     146:	5280           	addql #1,%d0
     148:	7210           	moveq #16,%d1
     14a:	b280           	cmpl %d0,%d1
     14c:	6708           	beqs 156 <UpdateChelsie+0x16>
     14e:	23c0 0100 0278 	movel %d0,1000278 <chelsieTimer>
     154:	6006           	bras 15c <UpdateChelsie+0x1c>
     156:	42b9 0100 0278 	clrl 1000278 <chelsieTimer>
     15c:	2039 0100 0278 	movel 1000278 <chelsieTimer>,%d0
     162:	6a02           	bpls 166 <UpdateChelsie+0x26>
     164:	5280           	addql #1,%d0
     166:	e280           	asrl #1,%d0
     168:	23c0 0100 0274 	movel %d0,1000274 <chelsieFrame>
     16e:	2239 0100 026c 	movel 100026c <chelsiePos>,%d1
     174:	5481           	addql #2,%d1
     176:	0c81 0000 0280 	cmpil #640,%d1
     17c:	6f02           	bles 180 <UpdateChelsie+0x40>
     17e:	72e0           	moveq #-32,%d1
     180:	23c1 0100 026c 	movel %d1,100026c <chelsiePos>
     186:	e948           	lslw #4,%d0
     188:	0240 01f0      	andiw #496,%d0
     18c:	0040 0800      	oriw #2048,%d0
     190:	33c0 0e10 8000 	movew %d0,e108000 <__end+0xd107d70>
     196:	2039 0100 026c 	movel 100026c <chelsiePos>,%d0
     19c:	0280 0000 07ff 	andil #2047,%d0
     1a2:	0080 130e 6000 	oril #319709184,%d0
     1a8:	23c0 0e10 8200 	movel %d0,e108200 <__end+0xd107f70>
     1ae:	4e75           	rts

000001b0 <Logo>:
     1b0:	43f9 0000 89e8 	lea 89e8 <logo>,%a1
     1b6:	207c 0e00 02b8 	moveal #234881720,%a0
     1bc:	7000           	moveq #0,%d0
     1be:	31b1 0800 0800 	movew %a1@(00000000,%d0:l),%a0@(00000000,%d0:l)
     1c4:	5480           	addql #2,%d0
     1c6:	722e           	moveq #46,%d1
     1c8:	b280           	cmpl %d0,%d1
     1ca:	66f2           	bnes 1be <Logo+0xe>
     1cc:	43e9 002e      	lea %a1@(46),%a1
     1d0:	41e8 00a0      	lea %a0@(160),%a0
     1d4:	b1fc 0e00 0718 	cmpal #234882840,%a0
     1da:	66e0           	bnes 1bc <Logo+0xc>
     1dc:	4e75           	rts

000001de <SetupChelsie>:
     1de:	70e0           	moveq #-32,%d0
     1e0:	23c0 0100 026c 	movel %d0,100026c <chelsiePos>
     1e6:	42b9 0100 0274 	clrl 1000274 <chelsieFrame>
     1ec:	42b9 0100 0278 	clrl 1000278 <chelsieTimer>
     1f2:	4878 0002      	pea 2 <__DYNAMIC+0x2>
     1f6:	4878 0800      	pea 800 <WriteChar+0x22>
     1fa:	4879 0000 776c 	pea 776c <chelsieTiles>
     200:	2f3c 0e08 0000 	movel #235405312,%sp@-
     206:	4eb9 0000 0ffa 	jsr ffa <DmaCopy>
     20c:	33fc 0800 0e10 	movew #2048,e108000 <__end+0xd107d70>
     212:	8000 
     214:	2039 0100 026c 	movel 100026c <chelsiePos>,%d0
     21a:	0280 0000 07ff 	andil #2047,%d0
     220:	0080 130e 6000 	oril #319709184,%d0
     226:	23c0 0e10 8200 	movel %d0,e108200 <__end+0xd107f70>
     22c:	4fef 0010      	lea %sp@(16),%sp
     230:	4e75           	rts

00000232 <TriggerTest>:
     232:	33fc 1234 0e10 	movew #4660,e10001c <__end+0xd0ffd8c>
     238:	001c 
     23a:	207c 0d80 0040 	moveal #226492480,%a0
     240:	20bc 0000 58c2 	movel #22722,%a0@
     246:	20bc 0050 3c92 	movel #5258386,%a0@
     24c:	13fc 0020 0d80 	moveb #32,d80000c <__end+0xc7ffd7c>
     252:	000c 
     254:	4e75           	rts

00000256 <HideChelsie>:
     256:	4279 0e10 8000 	clrw e108000 <__end+0xd107d70>
     25c:	4e75           	rts

0000025e <ExHandler>:
     25e:	2f0a           	movel %a2,%sp@-
     260:	13fc 004e 0100 	moveb #78,1000281 <attribs>
     266:	0281 
     268:	42b9 0100 0288 	clrl 1000288 <cursorPos>
     26e:	4879 0000 89a0 	pea 89a0 <hdma1+0x234>
     274:	4eb9 0000 0894 	jsr 894 <Write>
     27a:	588f           	addql #4,%sp
     27c:	45f9 0000 0fbe 	lea fbe <WaitForVBlank>,%a2
     282:	4e92           	jsr %a2@
     284:	60fc           	bras 282 <ExHandler+0x24>

00000286 <AddressHandler>:
     286:	2f0a           	movel %a2,%sp@-
     288:	13fc 004e 0100 	moveb #78,1000281 <attribs>
     28e:	0281 
     290:	42b9 0100 0288 	clrl 1000288 <cursorPos>
     296:	4879 0000 89af 	pea 89af <hdma1+0x243>
     29c:	4eb9 0000 0894 	jsr 894 <Write>
     2a2:	588f           	addql #4,%sp
     2a4:	45f9 0000 0fbe 	lea fbe <WaitForVBlank>,%a2
     2aa:	4e92           	jsr %a2@
     2ac:	60fc           	bras 2aa <AddressHandler+0x24>

000002ae <InstructionHandler>:
     2ae:	2f0a           	movel %a2,%sp@-
     2b0:	13fc 004e 0100 	moveb #78,1000281 <attribs>
     2b6:	0281 
     2b8:	42b9 0100 0288 	clrl 1000288 <cursorPos>
     2be:	4879 0000 89be 	pea 89be <hdma1+0x252>
     2c4:	4eb9 0000 0894 	jsr 894 <Write>
     2ca:	588f           	addql #4,%sp
     2cc:	45f9 0000 0fbe 	lea fbe <WaitForVBlank>,%a2
     2d2:	4e92           	jsr %a2@
     2d4:	60fc           	bras 2d2 <InstructionHandler+0x24>

000002d6 <ZeroHandler>:
     2d6:	2f0a           	movel %a2,%sp@-
     2d8:	13fc 004e 0100 	moveb #78,1000281 <attribs>
     2de:	0281 
     2e0:	42b9 0100 0288 	clrl 1000288 <cursorPos>
     2e6:	4879 0000 89d0 	pea 89d0 <hdma1+0x264>
     2ec:	4eb9 0000 0894 	jsr 894 <Write>
     2f2:	588f           	addql #4,%sp
     2f4:	45f9 0000 0fbe 	lea fbe <WaitForVBlank>,%a2
     2fa:	4e92           	jsr %a2@
     2fc:	60fc           	bras 2fa <ZeroHandler+0x24>

000002fe <VBlankHandler>:
     2fe:	2079 0100 000c 	moveal 100000c <interface+0xc>,%a0
     304:	b0fc 0000      	cmpaw #0,%a0
     308:	6702           	beqs 30c <VBlankHandler+0xe>
     30a:	4e90           	jsr %a0@
     30c:	4e73           	rte
     30e:	4e75           	rts

00000310 <TriggerLineHandler>:
     310:	2079 0100 0010 	moveal 1000010 <interface+0x10>,%a0
     316:	b0fc 0000      	cmpaw #0,%a0
     31a:	6702           	beqs 31e <TriggerLineHandler+0xe>
     31c:	4e90           	jsr %a0@
     31e:	4e73           	rte
     320:	4e75           	rts

00000322 <main>:
     322:	4fef fd94      	lea %sp@(-620),%sp
     326:	48e7 3f3e      	moveml %d2-%d7/%a2-%fp,%sp@-
     32a:	47f9 0000 0fbe 	lea fbe <WaitForVBlank>,%a3
     330:	4e93           	jsr %a3@
     332:	4878 00b0      	pea b0 <_sdata+0x84>
     336:	4eb9 0000 0ee8 	jsr ee8 <SetTextMode>
     33c:	4878 0002      	pea 2 <__DYNAMIC+0x2>
     340:	4878 3000      	pea 3000 <f_open+0xd2>
     344:	4879 0000 476c 	pea 476c <fontTiles>
     34a:	2f3c 0e10 0200 	movel #235930112,%sp@-
     350:	4eb9 0000 0ffa 	jsr ffa <DmaCopy>
     356:	42b9 0100 0288 	clrl 1000288 <cursorPos>
     35c:	13fc 0007 0100 	moveb #7,1000281 <attribs>
     362:	0281 
     364:	4bf9 0000 0638 	lea 638 <ClearScreen>,%a5
     36a:	4e95           	jsr %a5@
     36c:	4239 0d80 000c 	clrb d80000c <__end+0xc7ffd7c>
     372:	49f9 0000 08f4 	lea 8f4 <ResetPalette>,%a4
     378:	4e94           	jsr %a4@
     37a:	4eb9 0000 01de 	jsr 1de <SetupChelsie>
     380:	13fc 0001 0d80 	moveb #1,d800005 <__end+0xc7ffd75>
     386:	0005 
     388:	23fc 0000 0140 	movel #320,100000c <interface+0xc>
     38e:	0100 000c 
     392:	23fc 0000 876c 	movel #34668,d8000a0 <__end+0xc7ffe10>
     398:	0d80 00a0 
     39c:	23fc 0e10 0000 	movel #235929600,d8000c0 <__end+0xc7ffe30>
     3a2:	0d80 00c0 
     3a6:	23fc 1e00 0091 	movel #503316625,d800080 <__end+0xc7ffdf0>
     3ac:	0d80 0080 
     3b0:	3039 0100 0004 	movew 1000004 <interface+0x4>,%d0
     3b6:	7200           	moveq #0,%d1
     3b8:	1200           	moveb %d0,%d1
     3ba:	2f01           	movel %d1,%sp@-
     3bc:	e048           	lsrw #8,%d0
     3be:	3040           	moveaw %d0,%a0
     3c0:	2f08           	movel %a0,%sp@-
     3c2:	4879 0000 894c 	pea 894c <hdma1+0x1e0>
     3c8:	4eb9 0000 068a 	jsr 68a <dpf>
     3ce:	3039 0100 0004 	movew 1000004 <interface+0x4>,%d0
     3d4:	4fef 0020      	lea %sp@(32),%sp
     3d8:	7200           	moveq #0,%d1
     3da:	1200           	moveb %d0,%d1
     3dc:	2f01           	movel %d1,%sp@-
     3de:	e048           	lsrw #8,%d0
     3e0:	3040           	moveaw %d0,%a0
     3e2:	2f08           	movel %a0,%sp@-
     3e4:	4879 0000 894c 	pea 894c <hdma1+0x1e0>
     3ea:	45f9 0000 0894 	lea 894 <Write>,%a2
     3f0:	4e92           	jsr %a2@
     3f2:	4eb9 0000 01b0 	jsr 1b0 <Logo>
     3f8:	23fc 0000 7ac1 	movel #31425,d800040 <__end+0xc7ffdb0>
     3fe:	0d80 0040 
     402:	23fc 0050 3c91 	movel #5258385,d800040 <__end+0xc7ffdb0>
     408:	0d80 0040 
     40c:	13fc 000f 0100 	moveb #15,1000281 <attribs>
     412:	0281 
     414:	23fc 0000 03e0 	movel #992,1000288 <cursorPos>
     41a:	0100 0288 
     41e:	4879 0000 8959 	pea 8959 <hdma1+0x1ed>
     424:	4e92           	jsr %a2@
     426:	4fef 0010      	lea %sp@(16),%sp
     42a:	243c 0002 0008 	movel #131080,%d2
     430:	2e3c 0000 104e 	movel #4174,%d7
     436:	2c3c 0000 1426 	movel #5158,%d6
     43c:	7842           	moveq #66,%d4
     43e:	d88f           	addl %sp,%d4
     440:	7672           	moveq #114,%d3
     442:	d68f           	addl %sp,%d3
     444:	0cb9 4153 5321 	cmpil #1095979809,20000 <_etext+0x16cbc>
     44a:	0002 0000 
     44e:	6700 00a2      	beqw 4f2 <main+0x1d0>
     452:	1039 0d80 0032 	moveb d800032 <__end+0xc7ffda2>,%d0
     458:	0800 0000      	btst #0,%d0
     45c:	67e6           	beqs 444 <main+0x122>
     45e:	4879 0000 8971 	pea 8971 <hdma1+0x205>
     464:	4879 0000 896a 	pea 896a <hdma1+0x1fe>
     46a:	486f 0034      	pea %sp@(52)
     46e:	2f04           	movel %d4,%sp@-
     470:	4eb9 0000 12a0 	jsr 12a0 <FindFirst>
     476:	2c40           	moveal %d0,%fp
     478:	2f04           	movel %d4,%sp@-
     47a:	4eb9 0000 1202 	jsr 1202 <CloseDir>
     480:	4fef 0014      	lea %sp@(20),%sp
     484:	bcfc 0000      	cmpaw #0,%fp
     488:	66ba           	bnes 444 <main+0x122>
     48a:	4a2f 0035      	tstb %sp@(53)
     48e:	67b4           	beqs 444 <main+0x122>
     490:	4878 0001      	pea 1 <__DYNAMIC+0x1>
     494:	4879 0000 896e 	pea 896e <hdma1+0x202>
     49a:	2f03           	movel %d3,%sp@-
     49c:	4eb9 0000 1250 	jsr 1250 <OpenFile>
     4a2:	4fef 000c      	lea %sp@(12),%sp
     4a6:	4a80           	tstl %d0
     4a8:	6708           	beqs 4b2 <main+0x190>
     4aa:	4879 0000 897b 	pea 897b <hdma1+0x20f>
     4b0:	6020           	bras 4d2 <main+0x1b0>
     4b2:	2f2f 002c      	movel %sp@(44),%sp@-
     4b6:	2f3c 0100 2000 	movel #16785408,%sp@-
     4bc:	2f03           	movel %d3,%sp@-
     4be:	4eb9 0000 115c 	jsr 115c <ReadFile>
     4c4:	4fef 000c      	lea %sp@(12),%sp
     4c8:	4a80           	tstl %d0
     4ca:	6c0e           	bges 4da <main+0x1b8>
     4cc:	4879 0000 898c 	pea 898c <hdma1+0x220>
     4d2:	4e92           	jsr %a2@
     4d4:	588f           	addql #4,%sp
     4d6:	6000 ff6c      	braw 444 <main+0x122>
     4da:	2f03           	movel %d3,%sp@-
     4dc:	4eb9 0000 1156 	jsr 1156 <CloseFile>
     4e2:	588f           	addql #4,%sp
     4e4:	243c 0100 2008 	movel #16785416,%d2
     4ea:	2c7c 0100 2020 	moveal #16785440,%fp
     4f0:	6022           	bras 514 <main+0x1f2>
     4f2:	13fc 000f 0100 	moveb #15,1000281 <attribs>
     4f8:	0281 
     4fa:	23fc 0000 03e0 	movel #992,1000288 <cursorPos>
     500:	0100 0288 
     504:	4879 0000 8959 	pea 8959 <hdma1+0x1ed>
     50a:	4e92           	jsr %a2@
     50c:	588f           	addql #4,%sp
     50e:	2c7c 0002 0004 	moveal #131076,%fp
     514:	2047           	moveal %d7,%a0
     516:	4e90           	jsr %a0@
     518:	23fc 0000 78c1 	movel #30913,d800040 <__end+0xc7ffdb0>
     51e:	0d80 0040 
     522:	23fc 0050 3c91 	movel #5258385,d800040 <__end+0xc7ffdb0>
     528:	0d80 0040 
     52c:	23fc 0000 03d8 	movel #984,1000288 <cursorPos>
     532:	0100 0288 
     536:	7220           	moveq #32,%d1
     538:	2039 0100 0288 	movel 1000288 <cursorPos>,%d0
     53e:	2a00           	movel %d0,%d5
     540:	5285           	addql #1,%d5
     542:	23c5 0100 0288 	movel %d5,1000288 <cursorPos>
     548:	d080           	addl %d0,%d0
     54a:	207c 0e00 0000 	moveal #234881024,%a0
     550:	4270 0800      	clrw %a0@(00000000,%d0:l)
     554:	5381           	subql #1,%d1
     556:	66e0           	bnes 538 <main+0x216>
     558:	4878 0080      	pea 80 <_sdata+0x54>
     55c:	2f02           	movel %d2,%sp@-
     55e:	2046           	moveal %d6,%a0
     560:	4e90           	jsr %a0@
     562:	2000           	movel %d0,%d0
     564:	6a02           	bpls 568 <main+0x246>
     566:	5280           	addql #1,%d0
     568:	e280           	asrl #1,%d0
     56a:	223c 0000 03e8 	movel #1000,%d1
     570:	9280           	subl %d0,%d1
     572:	23c1 0100 0288 	movel %d1,1000288 <cursorPos>
     578:	13fc 000e 0100 	moveb #14,1000281 <attribs>
     57e:	0281 
     580:	2f02           	movel %d2,%sp@-
     582:	4879 0000 899d 	pea 899d <hdma1+0x231>
     588:	4e92           	jsr %a2@
     58a:	4eb9 0000 0a7c 	jsr a7c <FadeToBlack>
     590:	4279 0e10 8000 	clrw e108000 <__end+0xd107d70>
     596:	42b9 0d80 0080 	clrl d800080 <__end+0xc7ffdf0>
     59c:	42b9 0100 000c 	clrl 100000c <interface+0xc>
     5a2:	42b9 0100 0010 	clrl 1000010 <interface+0x10>
     5a8:	13fc 000f 0100 	moveb #15,1000281 <attribs>
     5ae:	0281 
     5b0:	4e95           	jsr %a5@
     5b2:	4e94           	jsr %a4@
     5b4:	4e93           	jsr %a3@
     5b6:	4239 0d80 000c 	clrb d80000c <__end+0xc7ffd7c>
     5bc:	4e96           	jsr %fp@
     5be:	4fef 0010      	lea %sp@(16),%sp
     5c2:	6000 fe80      	braw 444 <main+0x122>
	...

000005c8 <SetCursor>:
     5c8:	1039 0100 0282 	moveb 1000282 <textWidth>,%d0
     5ce:	4880           	extw %d0
     5d0:	2f2f 0008      	movel %sp@(8),%sp@-
     5d4:	3040           	moveaw %d0,%a0
     5d6:	2f08           	movel %a0,%sp@-
     5d8:	4eb9 0000 468c 	jsr 468c <__mulsi3>
     5de:	508f           	addql #8,%sp
     5e0:	d0af 0004      	addl %sp@(4),%d0
     5e4:	23c0 0100 0288 	movel %d0,1000288 <cursorPos>
     5ea:	4e75           	rts

000005ec <SetTextColor>:
     5ec:	202f 0004      	movel %sp@(4),%d0
     5f0:	e988           	lsll #4,%d0
     5f2:	122f 000b      	moveb %sp@(11),%d1
     5f6:	8200           	orb %d0,%d1
     5f8:	13c1 0100 0281 	moveb %d1,1000281 <attribs>
     5fe:	4e75           	rts

00000600 <Format>:
     600:	4e56 0000      	linkw %fp,#0
     604:	486e 0010      	pea %fp@(16)
     608:	2f2e 000c      	movel %fp@(12),%sp@-
     60c:	2f2e 0008      	movel %fp@(8),%sp@-
     610:	4eb9 0000 1898 	jsr 1898 <vsprintf>
     616:	4fef 000c      	lea %sp@(12),%sp
     61a:	4e5e           	unlk %fp
     61c:	4e75           	rts

0000061e <SetBold>:
     61e:	4aaf 0004      	tstl %sp@(4)
     622:	670a           	beqs 62e <SetBold+0x10>
     624:	0039 ff80 0d80 	orib #-128,d800004 <__end+0xc7ffd74>
     62a:	0004 
     62c:	4e75           	rts
     62e:	0239 007f 0d80 	andib #127,d800004 <__end+0xc7ffd74>
     634:	0004 
     636:	4e75           	rts

00000638 <ClearScreen>:
     638:	1039 0d80 0004 	moveb d800004 <__end+0xc7ffd74>,%d0
     63e:	0200 0003      	andib #3,%d0
     642:	41f9 0000 1024 	lea 1024 <DmaClear>,%a0
     648:	6628           	bnes 672 <ClearScreen+0x3a>
     64a:	4878 0001      	pea 1 <__DYNAMIC+0x1>
     64e:	4878 2580      	pea 2580 <dir_clear+0x2e>
     652:	1039 0100 0281 	moveb 1000281 <attribs>,%d0
     658:	4880           	extw %d0
     65a:	48c0           	extl %d0
     65c:	0040 2000      	oriw #8192,%d0
     660:	2f00           	movel %d0,%sp@-
     662:	2f3c 0e00 0000 	movel #234881024,%sp@-
     668:	4e90           	jsr %a0@
     66a:	42b9 0100 0288 	clrl 1000288 <cursorPos>
     670:	6012           	bras 684 <ClearScreen+0x4c>
     672:	42a7           	clrl %sp@-
     674:	2f3c 0004 b000 	movel #307200,%sp@-
     67a:	42a7           	clrl %sp@-
     67c:	2f3c 0e00 0000 	movel #234881024,%sp@-
     682:	4e90           	jsr %a0@
     684:	4fef 0010      	lea %sp@(16),%sp
     688:	4e75           	rts

0000068a <dpf>:
     68a:	4e56 fc00      	linkw %fp,#-1024
     68e:	2f0a           	movel %a2,%sp@-
     690:	2f02           	movel %d2,%sp@-
     692:	45ee fc00      	lea %fp@(-1024),%a2
     696:	4878 0009      	pea 9 <__DYNAMIC+0x9>
     69a:	4879 0000 8b2a 	pea 8b2a <logo+0x142>
     6a0:	2f0a           	movel %a2,%sp@-
     6a2:	4eb9 0000 1490 	jsr 1490 <memcpy>
     6a8:	4878 03f7      	pea 3f7 <main+0xd5>
     6ac:	42a7           	clrl %sp@-
     6ae:	486e fc09      	pea %fp@(-1015)
     6b2:	4eb9 0000 14ae 	jsr 14ae <memset>
     6b8:	1439 0d80 0005 	moveb d800005 <__end+0xc7ffd75>,%d2
     6be:	4239 0d80 0005 	clrb d800005 <__end+0xc7ffd75>
     6c4:	486e 000c      	pea %fp@(12)
     6c8:	2f2e 0008      	movel %fp@(8),%sp@-
     6cc:	486a 0008      	pea %a2@(8)
     6d0:	4eb9 0000 1898 	jsr 1898 <vsprintf>
     6d6:	4fef 0024      	lea %sp@(36),%sp
     6da:	101a           	moveb %a2@+,%d0
     6dc:	6708           	beqs 6e6 <dpf+0x5c>
     6de:	13c0 0d80 000e 	moveb %d0,d80000e <__end+0xc7ffd7e>
     6e4:	60f4           	bras 6da <dpf+0x50>
     6e6:	13fc 000a 0d80 	moveb #10,d80000e <__end+0xc7ffd7e>
     6ec:	000e 
     6ee:	13c2 0d80 0005 	moveb %d2,d800005 <__end+0xc7ffd75>
     6f4:	242e fbf8      	movel %fp@(-1032),%d2
     6f8:	246e fbfc      	moveal %fp@(-1028),%a2
     6fc:	4e5e           	unlk %fp
     6fe:	4e75           	rts

00000700 <ScrollIfNeeded>:
     700:	48e7 2038      	moveml %d2/%a2-%a4,%sp@-
     704:	1439 0100 0282 	moveb 1000282 <textWidth>,%d2
     70a:	1002           	moveb %d2,%d0
     70c:	4880           	extw %d0
     70e:	3040           	moveaw %d0,%a0
     710:	2f08           	movel %a0,%sp@-
     712:	2f39 0100 0288 	movel 1000288 <cursorPos>,%sp@-
     718:	4eb9 0000 470c 	jsr 470c <__divsi3>
     71e:	508f           	addql #8,%sp
     720:	1239 0100 0280 	moveb 1000280 <textHeight>,%d1
     726:	4881           	extw %d1
     728:	3041           	moveaw %d1,%a0
     72a:	2208           	movel %a0,%d1
     72c:	5381           	subql #1,%d1
     72e:	b280           	cmpl %d0,%d1
     730:	6e00 00a6      	bgtw 7d8 <ScrollIfNeeded+0xd8>
     734:	1002           	moveb %d2,%d0
     736:	ee08           	lsrb #7,%d0
     738:	d400           	addb %d0,%d2
     73a:	e202           	asrb #1,%d2
     73c:	4882           	extw %d2
     73e:	3442           	moveaw %d2,%a2
     740:	d5ca           	addal %a2,%a2
     742:	d5ca           	addal %a2,%a2
     744:	d5fc 0e00 0000 	addal #234881024,%a2
     74a:	267c 0e00 0000 	moveal #234881024,%a3
     750:	7400           	moveq #0,%d2
     752:	49f9 0000 468c 	lea 468c <__mulsi3>,%a4
     758:	1039 0100 0280 	moveb 1000280 <textHeight>,%d0
     75e:	4880           	extw %d0
     760:	3040           	moveaw %d0,%a0
     762:	1039 0100 0282 	moveb 1000282 <textWidth>,%d0
     768:	4880           	extw %d0
     76a:	3240           	moveaw %d0,%a1
     76c:	2f09           	movel %a1,%sp@-
     76e:	4868 ffff      	pea %a0@(-1)
     772:	4e94           	jsr %a4@
     774:	508f           	addql #8,%sp
     776:	2200           	movel %d0,%d1
     778:	6a02           	bpls 77c <ScrollIfNeeded+0x7c>
     77a:	5281           	addql #1,%d1
     77c:	e281           	asrl #1,%d1
     77e:	b282           	cmpl %d2,%d1
     780:	6f06           	bles 788 <ScrollIfNeeded+0x88>
     782:	26da           	movel %a2@+,%a3@+
     784:	5282           	addql #1,%d2
     786:	60d0           	bras 758 <ScrollIfNeeded+0x58>
     788:	d080           	addl %d0,%d0
     78a:	2040           	moveal %d0,%a0
     78c:	d1fc 0e00 0000 	addal #234881024,%a0
     792:	7000           	moveq #0,%d0
     794:	1239 0100 0282 	moveb 1000282 <textWidth>,%d1
     79a:	4881           	extw %d1
     79c:	3241           	moveaw %d1,%a1
     79e:	b3c0           	cmpal %d0,%a1
     7a0:	6f18           	bles 7ba <ScrollIfNeeded+0xba>
     7a2:	2200           	movel %d0,%d1
     7a4:	d280           	addl %d0,%d1
     7a6:	1439 0100 0281 	moveb 1000281 <attribs>,%d2
     7ac:	4882           	extw %d2
     7ae:	0042 2000      	oriw #8192,%d2
     7b2:	3182 1800      	movew %d2,%a0@(00000000,%d1:l)
     7b6:	5280           	addql #1,%d0
     7b8:	60da           	bras 794 <ScrollIfNeeded+0x94>
     7ba:	1039 0100 0280 	moveb 1000280 <textHeight>,%d0
     7c0:	4880           	extw %d0
     7c2:	3040           	moveaw %d0,%a0
     7c4:	2f09           	movel %a1,%sp@-
     7c6:	4868 fffe      	pea %a0@(-2)
     7ca:	4eb9 0000 468c 	jsr 468c <__mulsi3>
     7d0:	508f           	addql #8,%sp
     7d2:	23c0 0100 0288 	movel %d0,1000288 <cursorPos>
     7d8:	4cdf 1c04      	moveml %sp@+,%d2/%a2-%a4
     7dc:	4e75           	rts

000007de <WriteChar>:
     7de:	48e7 3020      	moveml %d2-%d3/%a2,%sp@-
     7e2:	222f 0010      	movel %sp@(16),%d1
     7e6:	0c01 000d      	cmpib #13,%d1
     7ea:	6700 00a0      	beqw 88c <WriteChar+0xae>
     7ee:	0c01 000a      	cmpib #10,%d1
     7f2:	662a           	bnes 81e <WriteChar+0x40>
     7f4:	1039 0100 0282 	moveb 1000282 <textWidth>,%d0
     7fa:	4880           	extw %d0
     7fc:	3440           	moveaw %d0,%a2
     7fe:	2f0a           	movel %a2,%sp@-
     800:	2f39 0100 0288 	movel 1000288 <cursorPos>,%sp@-
     806:	4eb9 0000 470c 	jsr 470c <__divsi3>
     80c:	588f           	addql #4,%sp
     80e:	2e8a           	movel %a2,%sp@
     810:	5280           	addql #1,%d0
     812:	2f00           	movel %d0,%sp@-
     814:	4eb9 0000 468c 	jsr 468c <__mulsi3>
     81a:	508f           	addql #8,%sp
     81c:	6016           	bras 834 <WriteChar+0x56>
     81e:	0c01 0009      	cmpib #9,%d1
     822:	6618           	bnes 83c <WriteChar+0x5e>
     824:	2039 0100 0288 	movel 1000288 <cursorPos>,%d0
     82a:	6c02           	bges 82e <WriteChar+0x50>
     82c:	5e80           	addql #7,%d0
     82e:	72f8           	moveq #-8,%d1
     830:	c081           	andl %d1,%d0
     832:	5080           	addql #8,%d0
     834:	23c0 0100 0288 	movel %d0,1000288 <cursorPos>
     83a:	6050           	bras 88c <WriteChar+0xae>
     83c:	1439 0100 0281 	moveb 1000281 <attribs>,%d2
     842:	4882           	extw %d2
     844:	0c01 0008      	cmpib #8,%d1
     848:	6622           	bnes 86c <WriteChar+0x8e>
     84a:	2039 0100 0288 	movel 1000288 <cursorPos>,%d0
     850:	5380           	subql #1,%d0
     852:	23c0 0100 0288 	movel %d0,1000288 <cursorPos>
     858:	2040           	moveal %d0,%a0
     85a:	d1c0           	addal %d0,%a0
     85c:	227c 0e00 0000 	moveal #234881024,%a1
     862:	0042 2000      	oriw #8192,%d2
     866:	3182 9800      	movew %d2,%a0@(00000000,%a1:l)
     86a:	6020           	bras 88c <WriteChar+0xae>
     86c:	2039 0100 0288 	movel 1000288 <cursorPos>,%d0
     872:	2600           	movel %d0,%d3
     874:	5283           	addql #1,%d3
     876:	23c3 0100 0288 	movel %d3,1000288 <cursorPos>
     87c:	d080           	addl %d0,%d0
     87e:	e149           	lslw #8,%d1
     880:	207c 0e00 0000 	moveal #234881024,%a0
     886:	8242           	orw %d2,%d1
     888:	3181 0800      	movew %d1,%a0@(00000000,%d0:l)
     88c:	4cdf 040c      	moveml %sp@+,%d2-%d3/%a2
     890:	6000 fe6e      	braw 700 <ScrollIfNeeded>

00000894 <Write>:
     894:	4e56 fc00      	linkw %fp,#-1024
     898:	48e7 3030      	moveml %d2-%d3/%a2-%a3,%sp@-
     89c:	1639 0d80 0005 	moveb d800005 <__end+0xc7ffd75>,%d3
     8a2:	4239 0d80 0005 	clrb d800005 <__end+0xc7ffd75>
     8a8:	486e 000c      	pea %fp@(12)
     8ac:	2f2e 0008      	movel %fp@(8),%sp@-
     8b0:	240e           	movel %fp,%d2
     8b2:	0682 ffff fc00 	addil #-1024,%d2
     8b8:	2f02           	movel %d2,%sp@-
     8ba:	4eb9 0000 1898 	jsr 1898 <vsprintf>
     8c0:	2202           	movel %d2,%d1
     8c2:	4fef 000c      	lea %sp@(12),%sp
     8c6:	47fa ff16      	lea %pc@(7de <WriteChar>),%a3
     8ca:	2441           	moveal %d1,%a2
     8cc:	101a           	moveb %a2@+,%d0
     8ce:	670e           	beqs 8de <Write+0x4a>
     8d0:	4880           	extw %d0
     8d2:	3040           	moveaw %d0,%a0
     8d4:	2f08           	movel %a0,%sp@-
     8d6:	4e93           	jsr %a3@
     8d8:	588f           	addql #4,%sp
     8da:	220a           	movel %a2,%d1
     8dc:	60ec           	bras 8ca <Write+0x36>
     8de:	13c3 0d80 0005 	moveb %d3,d800005 <__end+0xc7ffd75>
     8e4:	2002           	movel %d2,%d0
     8e6:	9081           	subl %d1,%d0
     8e8:	4cee 0c0c fbf0 	moveml %fp@(-1040),%d2-%d3/%a2-%a3
     8ee:	4e5e           	unlk %fp
     8f0:	4e75           	rts
	...

000008f4 <ResetPalette>:
     8f4:	207c 0e10 0000 	moveal #235929600,%a0
     8fa:	2248           	moveal %a0,%a1
     8fc:	d3fc f1f0 8f46 	addal #-235892922,%a1
     902:	30d1           	movew %a1@,%a0@+
     904:	b1fc 0e10 0020 	cmpal #235929632,%a0
     90a:	66ee           	bnes 8fa <ResetPalette+0x6>
     90c:	4e75           	rts

0000090e <DrawChar>:
     90e:	102f 0007      	moveb %sp@(7),%d0
     912:	4880           	extw %d0
     914:	3040           	moveaw %d0,%a0
     916:	2f48 0004      	movel %a0,%sp@(4)
     91a:	2279 0100 0014 	moveal 1000014 <interface+0x14>,%a1
     920:	4ed1           	jmp %a1@

00000922 <DrawString>:
     922:	48e7 2030      	moveml %d2/%a2-%a3,%sp@-
     926:	242f 0014      	movel %sp@(20),%d2
     92a:	4ab9 0100 0014 	tstl 1000014 <interface+0x14>
     930:	6726           	beqs 958 <DrawString+0x36>
     932:	246f 0010      	moveal %sp@(16),%a2
     936:	47fa ffd6      	lea %pc@(90e <DrawChar>),%a3
     93a:	101a           	moveb %a2@+,%d0
     93c:	671a           	beqs 958 <DrawString+0x36>
     93e:	2f2f 001c      	movel %sp@(28),%sp@-
     942:	2f2f 001c      	movel %sp@(28),%sp@-
     946:	2f02           	movel %d2,%sp@-
     948:	4880           	extw %d0
     94a:	3040           	moveaw %d0,%a0
     94c:	2f08           	movel %a0,%sp@-
     94e:	4e93           	jsr %a3@
     950:	5082           	addql #8,%d2
     952:	4fef 0010      	lea %sp@(16),%sp
     956:	60e2           	bras 93a <DrawString+0x18>
     958:	4cdf 0c04      	moveml %sp@+,%d2/%a2-%a3
     95c:	4e75           	rts

0000095e <DisplayPicture>:
     95e:	48e7 2030      	moveml %d2/%a2-%a3,%sp@-
     962:	246f 0010      	moveal %sp@(16),%a2
     966:	302a 0006      	movew %a2@(6),%d0
     96a:	0c40 0140      	cmpiw #320,%d0
     96e:	6626           	bnes 996 <DisplayPicture+0x38>
     970:	302a 0008      	movew %a2@(8),%d0
     974:	0c40 00f0      	cmpiw #240,%d0
     978:	6700 00f6      	beqw a70 <DisplayPicture+0x112>
     97c:	0c40 00c8      	cmpiw #200,%d0
     980:	6700 00ee      	beqw a70 <DisplayPicture+0x112>
     984:	0c40 01e0      	cmpiw #480,%d0
     988:	6700 00ec      	beqw a76 <DisplayPicture+0x118>
     98c:	0c40 0190      	cmpiw #400,%d0
     990:	6666           	bnes 9f8 <DisplayPicture+0x9a>
     992:	6000 00e2      	braw a76 <DisplayPicture+0x118>
     996:	0c40 0280      	cmpiw #640,%d0
     99a:	665c           	bnes 9f8 <DisplayPicture+0x9a>
     99c:	322a 0008      	movew %a2@(8),%d1
     9a0:	0c41 00f0      	cmpiw #240,%d1
     9a4:	672c           	beqs 9d2 <DisplayPicture+0x74>
     9a6:	0c41 00c8      	cmpiw #200,%d1
     9aa:	6718           	beqs 9c4 <DisplayPicture+0x66>
     9ac:	0c41 01e0      	cmpiw #480,%d1
     9b0:	6724           	beqs 9d6 <DisplayPicture+0x78>
     9b2:	0c41 0190      	cmpiw #400,%d1
     9b6:	56c0           	sne %d0
     9b8:	4880           	extw %d0
     9ba:	48c0           	extl %d0
     9bc:	0c41 0190      	cmpiw #400,%d1
     9c0:	6704           	beqs 9c6 <DisplayPicture+0x68>
     9c2:	6008           	bras 9cc <DisplayPicture+0x6e>
     9c4:	7020           	moveq #32,%d0
     9c6:	727f           	moveq #127,%d1
     9c8:	4601           	notb %d1
     9ca:	8081           	orl %d1,%d0
     9cc:	4a80           	tstl %d0
     9ce:	6c08           	bges 9d8 <DisplayPicture+0x7a>
     9d0:	6026           	bras 9f8 <DisplayPicture+0x9a>
     9d2:	7020           	moveq #32,%d0
     9d4:	6002           	bras 9d8 <DisplayPicture+0x7a>
     9d6:	7000           	moveq #0,%d0
     9d8:	0c2a 0008 0004 	cmpib #8,%a2@(4)
     9de:	660e           	bnes 9ee <DisplayPicture+0x90>
     9e0:	7210           	moveq #16,%d1
     9e2:	8280           	orl %d0,%d1
     9e4:	2f01           	movel %d1,%sp@-
     9e6:	4eb9 0000 0f6e 	jsr f6e <SetBitmapMode256>
     9ec:	6008           	bras 9f6 <DisplayPicture+0x98>
     9ee:	2f00           	movel %d0,%sp@-
     9f0:	4eb9 0000 0f1e 	jsr f1e <SetBitmapMode16>
     9f6:	588f           	addql #4,%sp
     9f8:	243c 0000 0100 	movel #256,%d2
     9fe:	0c2a 0008 0004 	cmpib #8,%a2@(4)
     a04:	6702           	beqs a08 <DisplayPicture+0xaa>
     a06:	7410           	moveq #16,%d2
     a08:	47f9 0000 0ffa 	lea ffa <DmaCopy>,%a3
     a0e:	082a 0000 0005 	btst #0,%a2@(5)
     a14:	6720           	beqs a36 <DisplayPicture+0xd8>
     a16:	202a 0014      	movel %a2@(20),%d0
     a1a:	2200           	movel %d0,%d1
     a1c:	d280           	addl %d0,%d1
     a1e:	d081           	addl %d1,%d0
     a20:	e788           	lsll #3,%d0
     a22:	4872 0800      	pea %a2@(00000000,%d0:l)
     a26:	2f3c 0e00 0000 	movel #234881024,%sp@-
     a2c:	4eb9 0000 1072 	jsr 1072 <RleUnpack>
     a32:	508f           	addql #8,%sp
     a34:	601c           	bras a52 <DisplayPicture+0xf4>
     a36:	4878 0002      	pea 2 <__DYNAMIC+0x2>
     a3a:	2f2a 000c      	movel %a2@(12),%sp@-
     a3e:	200a           	movel %a2,%d0
     a40:	d0aa 0014      	addl %a2@(20),%d0
     a44:	2f00           	movel %d0,%sp@-
     a46:	2f3c 0e00 0000 	movel #234881024,%sp@-
     a4c:	4e93           	jsr %a3@
     a4e:	4fef 0010      	lea %sp@(16),%sp
     a52:	4878 0001      	pea 1 <__DYNAMIC+0x1>
     a56:	2f02           	movel %d2,%sp@-
     a58:	d5ea 0010      	addal %a2@(16),%a2
     a5c:	2f0a           	movel %a2,%sp@-
     a5e:	2f3c 0e10 0000 	movel #235929600,%sp@-
     a64:	4e93           	jsr %a3@
     a66:	4fef 0010      	lea %sp@(16),%sp
     a6a:	4cdf 0c04      	moveml %sp@+,%d2/%a2-%a3
     a6e:	4e75           	rts
     a70:	7060           	moveq #96,%d0
     a72:	6000 ff64      	braw 9d8 <DisplayPicture+0x7a>
     a76:	7040           	moveq #64,%d0
     a78:	6000 ff5e      	braw 9d8 <DisplayPicture+0x7a>

00000a7c <FadeToBlack>:
     a7c:	2f0a           	movel %a2,%sp@-
     a7e:	2f02           	movel %d2,%sp@-
     a80:	7400           	moveq #0,%d2
     a82:	45f9 0000 0fbe 	lea fbe <WaitForVBlank>,%a2
     a88:	13c2 0d80 000c 	moveb %d2,d80000c <__end+0xc7ffd7c>
     a8e:	4e92           	jsr %a2@
     a90:	5282           	addql #1,%d2
     a92:	7020           	moveq #32,%d0
     a94:	b082           	cmpl %d2,%d0
     a96:	66f0           	bnes a88 <FadeToBlack+0xc>
     a98:	241f           	movel %sp@+,%d2
     a9a:	245f           	moveal %sp@+,%a2
     a9c:	4e75           	rts

00000a9e <FadeFromBlack>:
     a9e:	2f0a           	movel %a2,%sp@-
     aa0:	2f02           	movel %d2,%sp@-
     aa2:	741f           	moveq #31,%d2
     aa4:	45f9 0000 0fbe 	lea fbe <WaitForVBlank>,%a2
     aaa:	13c2 0d80 000c 	moveb %d2,d80000c <__end+0xc7ffd7c>
     ab0:	4e92           	jsr %a2@
     ab2:	51ca fff6      	dbf %d2,aaa <FadeFromBlack+0xc>
     ab6:	4242           	clrw %d2
     ab8:	5382           	subql #1,%d2
     aba:	64ee           	bccs aaa <FadeFromBlack+0xc>
     abc:	241f           	movel %sp@+,%d2
     abe:	245f           	moveal %sp@+,%a2
     ac0:	4e75           	rts

00000ac2 <FadeToWhite>:
     ac2:	2f0b           	movel %a3,%sp@-
     ac4:	2f0a           	movel %a2,%sp@-
     ac6:	247c 0d80 000c 	moveal #226492428,%a2
     acc:	14bc ff82      	moveb #-126,%a2@
     ad0:	47f9 0000 0fbe 	lea fbe <WaitForVBlank>,%a3
     ad6:	4e93           	jsr %a3@
     ad8:	14bc ff84      	moveb #-124,%a2@
     adc:	4e93           	jsr %a3@
     ade:	14bc ff86      	moveb #-122,%a2@
     ae2:	4e93           	jsr %a3@
     ae4:	14bc ff88      	moveb #-120,%a2@
     ae8:	4e93           	jsr %a3@
     aea:	14bc ff8a      	moveb #-118,%a2@
     aee:	4e93           	jsr %a3@
     af0:	14bc ff8c      	moveb #-116,%a2@
     af4:	4e93           	jsr %a3@
     af6:	14bc ff8e      	moveb #-114,%a2@
     afa:	4e93           	jsr %a3@
     afc:	14bc ff90      	moveb #-112,%a2@
     b00:	4e93           	jsr %a3@
     b02:	14bc ff92      	moveb #-110,%a2@
     b06:	4e93           	jsr %a3@
     b08:	14bc ff94      	moveb #-108,%a2@
     b0c:	4e93           	jsr %a3@
     b0e:	14bc ff96      	moveb #-106,%a2@
     b12:	4e93           	jsr %a3@
     b14:	14bc ff98      	moveb #-104,%a2@
     b18:	4e93           	jsr %a3@
     b1a:	14bc ff9a      	moveb #-102,%a2@
     b1e:	4e93           	jsr %a3@
     b20:	14bc ff9c      	moveb #-100,%a2@
     b24:	4e93           	jsr %a3@
     b26:	14bc ff9e      	moveb #-98,%a2@
     b2a:	4e93           	jsr %a3@
     b2c:	14bc ff9f      	moveb #-97,%a2@
     b30:	245f           	moveal %sp@+,%a2
     b32:	265f           	moveal %sp@+,%a3
     b34:	4ef9 0000 0fbe 	jmp fbe <WaitForVBlank>

00000b3a <FadeFromWhite>:
     b3a:	2f0b           	movel %a3,%sp@-
     b3c:	2f0a           	movel %a2,%sp@-
     b3e:	247c 0d80 000c 	moveal #226492428,%a2
     b44:	14bc ff9f      	moveb #-97,%a2@
     b48:	47f9 0000 0fbe 	lea fbe <WaitForVBlank>,%a3
     b4e:	4e93           	jsr %a3@
     b50:	14bc ff9e      	moveb #-98,%a2@
     b54:	4e93           	jsr %a3@
     b56:	14bc ff9c      	moveb #-100,%a2@
     b5a:	4e93           	jsr %a3@
     b5c:	14bc ff9a      	moveb #-102,%a2@
     b60:	4e93           	jsr %a3@
     b62:	14bc ff98      	moveb #-104,%a2@
     b66:	4e93           	jsr %a3@
     b68:	14bc ff96      	moveb #-106,%a2@
     b6c:	4e93           	jsr %a3@
     b6e:	14bc ff94      	moveb #-108,%a2@
     b72:	4e93           	jsr %a3@
     b74:	14bc ff92      	moveb #-110,%a2@
     b78:	4e93           	jsr %a3@
     b7a:	14bc ff90      	moveb #-112,%a2@
     b7e:	4e93           	jsr %a3@
     b80:	14bc ff8e      	moveb #-114,%a2@
     b84:	4e93           	jsr %a3@
     b86:	14bc ff8c      	moveb #-116,%a2@
     b8a:	4e93           	jsr %a3@
     b8c:	14bc ff8a      	moveb #-118,%a2@
     b90:	4e93           	jsr %a3@
     b92:	14bc ff88      	moveb #-120,%a2@
     b96:	4e93           	jsr %a3@
     b98:	14bc ff86      	moveb #-122,%a2@
     b9c:	4e93           	jsr %a3@
     b9e:	14bc ff84      	moveb #-124,%a2@
     ba2:	4e93           	jsr %a3@
     ba4:	14bc ff82      	moveb #-126,%a2@
     ba8:	245f           	moveal %sp@+,%a2
     baa:	265f           	moveal %sp@+,%a3
     bac:	4ef9 0000 0fbe 	jmp fbe <WaitForVBlank>

00000bb2 <DrawFormat>:
     bb2:	4e56 fc00      	linkw %fp,#-1024
     bb6:	48e7 2030      	moveml %d2/%a2-%a3,%sp@-
     bba:	242e 000c      	movel %fp@(12),%d2
     bbe:	4ab9 0100 0014 	tstl 1000014 <interface+0x14>
     bc4:	673a           	beqs c00 <DrawFormat+0x4e>
     bc6:	486e 000c      	pea %fp@(12)
     bca:	2f2e 0008      	movel %fp@(8),%sp@-
     bce:	45ee fc00      	lea %fp@(-1024),%a2
     bd2:	2f0a           	movel %a2,%sp@-
     bd4:	4eb9 0000 1898 	jsr 1898 <vsprintf>
     bda:	4fef 000c      	lea %sp@(12),%sp
     bde:	47fa fd2e      	lea %pc@(90e <DrawChar>),%a3
     be2:	101a           	moveb %a2@+,%d0
     be4:	671a           	beqs c00 <DrawFormat+0x4e>
     be6:	2f2e 0014      	movel %fp@(20),%sp@-
     bea:	2f2e 0010      	movel %fp@(16),%sp@-
     bee:	2f02           	movel %d2,%sp@-
     bf0:	4880           	extw %d0
     bf2:	3040           	moveaw %d0,%a0
     bf4:	2f08           	movel %a0,%sp@-
     bf6:	4e93           	jsr %a3@
     bf8:	5082           	addql #8,%d2
     bfa:	4fef 0010      	lea %sp@(16),%sp
     bfe:	60e2           	bras be2 <DrawFormat+0x30>
     c00:	4cee 0c04 fbf4 	moveml %fp@(-1036),%d2/%a2-%a3
     c06:	4e5e           	unlk %fp
     c08:	4e75           	rts

00000c0a <DrawChar4_320>:
     c0a:	48e7 3f30      	moveml %d2-%d7/%a2-%a3,%sp@-
     c0e:	262f 0028      	movel %sp@(40),%d3
     c12:	202f 002c      	movel %sp@(44),%d0
     c16:	242f 0030      	movel %sp@(48),%d2
     c1a:	122f 0027      	moveb %sp@(39),%d1
     c1e:	4881           	extw %d1
     c20:	3441           	moveaw %d1,%a2
     c22:	220a           	movel %a2,%d1
     c24:	e789           	lsll #3,%d1
     c26:	2441           	moveal %d1,%a2
     c28:	d5fc 0e10 0a00 	addal #235932160,%a2
     c2e:	2040           	moveal %d0,%a0
     c30:	d1c0           	addal %d0,%a0
     c32:	d1c8           	addal %a0,%a0
     c34:	d088           	addl %a0,%d0
     c36:	eb88           	lsll #5,%d0
     c38:	2203           	movel %d3,%d1
     c3a:	6a02           	bpls c3e <DrawChar4_320+0x34>
     c3c:	5281           	addql #1,%d1
     c3e:	e281           	asrl #1,%d1
     c40:	d081           	addl %d1,%d0
     c42:	2040           	moveal %d0,%a0
     c44:	d1fc 0e00 0000 	addal #234881024,%a0
     c4a:	2002           	movel %d2,%d0
     c4c:	e988           	lsll #4,%d0
     c4e:	0803 0000      	btst #0,%d3
     c52:	6656           	bnes caa <DrawChar4_320+0xa0>
     c54:	1200           	moveb %d0,%d1
     c56:	93c9           	subal %a1,%a1
     c58:	7000           	moveq #0,%d0
     c5a:	1632 9800      	moveb %a2@(00000000,%a1:l),%d3
     c5e:	4883           	extw %d3
     c60:	48c3           	extl %d3
     c62:	2800           	movel %d0,%d4
     c64:	d880           	addl %d0,%d4
     c66:	2a03           	movel %d3,%d5
     c68:	e8a5           	asrl %d4,%d5
     c6a:	2805           	movel %d5,%d4
     c6c:	0805 0000      	btst #0,%d5
     c70:	670e           	beqs c80 <DrawChar4_320+0x76>
     c72:	1a30 0800      	moveb %a0@(00000000,%d0:l),%d5
     c76:	0205 000f      	andib #15,%d5
     c7a:	8a01           	orb %d1,%d5
     c7c:	1185 0800      	moveb %d5,%a0@(00000000,%d0:l)
     c80:	0804 0001      	btst #1,%d4
     c84:	670e           	beqs c94 <DrawChar4_320+0x8a>
     c86:	1830 0800      	moveb %a0@(00000000,%d0:l),%d4
     c8a:	0204 fff0      	andib #-16,%d4
     c8e:	8802           	orb %d2,%d4
     c90:	1184 0800      	moveb %d4,%a0@(00000000,%d0:l)
     c94:	5280           	addql #1,%d0
     c96:	7c04           	moveq #4,%d6
     c98:	bc80           	cmpl %d0,%d6
     c9a:	66c6           	bnes c62 <DrawChar4_320+0x58>
     c9c:	41e8 00a0      	lea %a0@(160),%a0
     ca0:	5289           	addql #1,%a1
     ca2:	7008           	moveq #8,%d0
     ca4:	b089           	cmpl %a1,%d0
     ca6:	66b0           	bnes c58 <DrawChar4_320+0x4e>
     ca8:	6070           	bras d1a <DrawChar4_320+0x110>
     caa:	47e8 0004      	lea %a0@(4),%a3
     cae:	7200           	moveq #0,%d1
     cb0:	1832 1800      	moveb %a2@(00000000,%d1:l),%d4
     cb4:	0804 0000      	btst #0,%d4
     cb8:	670a           	beqs cc4 <DrawChar4_320+0xba>
     cba:	1610           	moveb %a0@,%d3
     cbc:	0203 fff0      	andib #-16,%d3
     cc0:	8602           	orb %d2,%d3
     cc2:	1083           	moveb %d3,%a0@
     cc4:	2248           	moveal %a0,%a1
     cc6:	7601           	moveq #1,%d3
     cc8:	1a04           	moveb %d4,%d5
     cca:	4885           	extw %d5
     ccc:	48c5           	extl %d5
     cce:	5289           	addql #1,%a1
     cd0:	2c05           	movel %d5,%d6
     cd2:	e6a6           	asrl %d3,%d6
     cd4:	0806 0000      	btst #0,%d6
     cd8:	670a           	beqs ce4 <DrawChar4_320+0xda>
     cda:	1e11           	moveb %a1@,%d7
     cdc:	0207 000f      	andib #15,%d7
     ce0:	8e00           	orb %d0,%d7
     ce2:	1287           	moveb %d7,%a1@
     ce4:	0806 0001      	btst #1,%d6
     ce8:	670a           	beqs cf4 <DrawChar4_320+0xea>
     cea:	1c11           	moveb %a1@,%d6
     cec:	0206 fff0      	andib #-16,%d6
     cf0:	8c02           	orb %d2,%d6
     cf2:	1286           	moveb %d6,%a1@
     cf4:	5483           	addql #2,%d3
     cf6:	7c07           	moveq #7,%d6
     cf8:	bc83           	cmpl %d3,%d6
     cfa:	66d2           	bnes cce <DrawChar4_320+0xc4>
     cfc:	4a04           	tstb %d4
     cfe:	6c0a           	bges d0a <DrawChar4_320+0x100>
     d00:	1613           	moveb %a3@,%d3
     d02:	0203 000f      	andib #15,%d3
     d06:	8600           	orb %d0,%d3
     d08:	1683           	moveb %d3,%a3@
     d0a:	41e8 00a0      	lea %a0@(160),%a0
     d0e:	5281           	addql #1,%d1
     d10:	47eb 00a0      	lea %a3@(160),%a3
     d14:	7608           	moveq #8,%d3
     d16:	b681           	cmpl %d1,%d3
     d18:	6696           	bnes cb0 <DrawChar4_320+0xa6>
     d1a:	4cdf 0cfc      	moveml %sp@+,%d2-%d7/%a2-%a3
     d1e:	4e75           	rts

00000d20 <DrawChar4_640>:
     d20:	48e7 3f30      	moveml %d2-%d7/%a2-%a3,%sp@-
     d24:	262f 0028      	movel %sp@(40),%d3
     d28:	202f 002c      	movel %sp@(44),%d0
     d2c:	242f 0030      	movel %sp@(48),%d2
     d30:	122f 0027      	moveb %sp@(39),%d1
     d34:	4881           	extw %d1
     d36:	3441           	moveaw %d1,%a2
     d38:	220a           	movel %a2,%d1
     d3a:	e789           	lsll #3,%d1
     d3c:	2441           	moveal %d1,%a2
     d3e:	d5fc 0e10 0a00 	addal #235932160,%a2
     d44:	2040           	moveal %d0,%a0
     d46:	d1c0           	addal %d0,%a0
     d48:	d1c8           	addal %a0,%a0
     d4a:	d088           	addl %a0,%d0
     d4c:	ed88           	lsll #6,%d0
     d4e:	2203           	movel %d3,%d1
     d50:	6a02           	bpls d54 <DrawChar4_640+0x34>
     d52:	5281           	addql #1,%d1
     d54:	e281           	asrl #1,%d1
     d56:	d081           	addl %d1,%d0
     d58:	2040           	moveal %d0,%a0
     d5a:	d1fc 0e00 0000 	addal #234881024,%a0
     d60:	2002           	movel %d2,%d0
     d62:	e988           	lsll #4,%d0
     d64:	0803 0000      	btst #0,%d3
     d68:	6656           	bnes dc0 <DrawChar4_640+0xa0>
     d6a:	1200           	moveb %d0,%d1
     d6c:	93c9           	subal %a1,%a1
     d6e:	7000           	moveq #0,%d0
     d70:	1632 9800      	moveb %a2@(00000000,%a1:l),%d3
     d74:	4883           	extw %d3
     d76:	48c3           	extl %d3
     d78:	2800           	movel %d0,%d4
     d7a:	d880           	addl %d0,%d4
     d7c:	2a03           	movel %d3,%d5
     d7e:	e8a5           	asrl %d4,%d5
     d80:	2805           	movel %d5,%d4
     d82:	0805 0000      	btst #0,%d5
     d86:	670e           	beqs d96 <DrawChar4_640+0x76>
     d88:	1a30 0800      	moveb %a0@(00000000,%d0:l),%d5
     d8c:	0205 000f      	andib #15,%d5
     d90:	8a01           	orb %d1,%d5
     d92:	1185 0800      	moveb %d5,%a0@(00000000,%d0:l)
     d96:	0804 0001      	btst #1,%d4
     d9a:	670e           	beqs daa <DrawChar4_640+0x8a>
     d9c:	1830 0800      	moveb %a0@(00000000,%d0:l),%d4
     da0:	0204 fff0      	andib #-16,%d4
     da4:	8802           	orb %d2,%d4
     da6:	1184 0800      	moveb %d4,%a0@(00000000,%d0:l)
     daa:	5280           	addql #1,%d0
     dac:	7c04           	moveq #4,%d6
     dae:	bc80           	cmpl %d0,%d6
     db0:	66c6           	bnes d78 <DrawChar4_640+0x58>
     db2:	41e8 0140      	lea %a0@(320),%a0
     db6:	5289           	addql #1,%a1
     db8:	7008           	moveq #8,%d0
     dba:	b089           	cmpl %a1,%d0
     dbc:	66b0           	bnes d6e <DrawChar4_640+0x4e>
     dbe:	6070           	bras e30 <DrawChar4_640+0x110>
     dc0:	47e8 0004      	lea %a0@(4),%a3
     dc4:	7200           	moveq #0,%d1
     dc6:	1832 1800      	moveb %a2@(00000000,%d1:l),%d4
     dca:	0804 0000      	btst #0,%d4
     dce:	670a           	beqs dda <DrawChar4_640+0xba>
     dd0:	1610           	moveb %a0@,%d3
     dd2:	0203 fff0      	andib #-16,%d3
     dd6:	8602           	orb %d2,%d3
     dd8:	1083           	moveb %d3,%a0@
     dda:	2248           	moveal %a0,%a1
     ddc:	7601           	moveq #1,%d3
     dde:	1a04           	moveb %d4,%d5
     de0:	4885           	extw %d5
     de2:	48c5           	extl %d5
     de4:	5289           	addql #1,%a1
     de6:	2c05           	movel %d5,%d6
     de8:	e6a6           	asrl %d3,%d6
     dea:	0806 0000      	btst #0,%d6
     dee:	670a           	beqs dfa <DrawChar4_640+0xda>
     df0:	1e11           	moveb %a1@,%d7
     df2:	0207 000f      	andib #15,%d7
     df6:	8e00           	orb %d0,%d7
     df8:	1287           	moveb %d7,%a1@
     dfa:	0806 0001      	btst #1,%d6
     dfe:	670a           	beqs e0a <DrawChar4_640+0xea>
     e00:	1c11           	moveb %a1@,%d6
     e02:	0206 fff0      	andib #-16,%d6
     e06:	8c02           	orb %d2,%d6
     e08:	1286           	moveb %d6,%a1@
     e0a:	5483           	addql #2,%d3
     e0c:	7c07           	moveq #7,%d6
     e0e:	bc83           	cmpl %d3,%d6
     e10:	66d2           	bnes de4 <DrawChar4_640+0xc4>
     e12:	4a04           	tstb %d4
     e14:	6c0a           	bges e20 <DrawChar4_640+0x100>
     e16:	1613           	moveb %a3@,%d3
     e18:	0203 000f      	andib #15,%d3
     e1c:	8600           	orb %d0,%d3
     e1e:	1683           	moveb %d3,%a3@
     e20:	41e8 0140      	lea %a0@(320),%a0
     e24:	5281           	addql #1,%d1
     e26:	47eb 0140      	lea %a3@(320),%a3
     e2a:	7608           	moveq #8,%d3
     e2c:	b681           	cmpl %d1,%d3
     e2e:	6696           	bnes dc6 <DrawChar4_640+0xa6>
     e30:	4cdf 0cfc      	moveml %sp@+,%d2-%d7/%a2-%a3
     e34:	4e75           	rts

00000e36 <DrawChar8_320>:
     e36:	2f02           	movel %d2,%sp@-
     e38:	202f 0010      	movel %sp@(16),%d0
     e3c:	122f 000b      	moveb %sp@(11),%d1
     e40:	4881           	extw %d1
     e42:	48c1           	extl %d1
     e44:	e789           	lsll #3,%d1
     e46:	0681 0e10 0a00 	addil #235932160,%d1
     e4c:	2040           	moveal %d0,%a0
     e4e:	d1c0           	addal %d0,%a0
     e50:	d1c8           	addal %a0,%a0
     e52:	d088           	addl %a0,%d0
     e54:	ed88           	lsll #6,%d0
     e56:	2040           	moveal %d0,%a0
     e58:	d1ef 000c      	addal %sp@(12),%a0
     e5c:	d1fc 0e00 0000 	addal #234881024,%a0
     e62:	93c9           	subal %a1,%a1
     e64:	7000           	moveq #0,%d0
     e66:	1431 1800      	moveb %a1@(00000000,%d1:l),%d2
     e6a:	4882           	extw %d2
     e6c:	48c2           	extl %d2
     e6e:	0102           	btst %d0,%d2
     e70:	6706           	beqs e78 <DrawChar8_320+0x42>
     e72:	11af 0017 0800 	moveb %sp@(23),%a0@(00000000,%d0:l)
     e78:	5280           	addql #1,%d0
     e7a:	7408           	moveq #8,%d2
     e7c:	b480           	cmpl %d0,%d2
     e7e:	66e6           	bnes e66 <DrawChar8_320+0x30>
     e80:	41e8 0140      	lea %a0@(320),%a0
     e84:	5289           	addql #1,%a1
     e86:	b489           	cmpl %a1,%d2
     e88:	66da           	bnes e64 <DrawChar8_320+0x2e>
     e8a:	241f           	movel %sp@+,%d2
     e8c:	4e75           	rts

00000e8e <DrawChar8_640>:
     e8e:	2f02           	movel %d2,%sp@-
     e90:	202f 0010      	movel %sp@(16),%d0
     e94:	122f 000b      	moveb %sp@(11),%d1
     e98:	4881           	extw %d1
     e9a:	48c1           	extl %d1
     e9c:	e789           	lsll #3,%d1
     e9e:	0681 0e10 0a00 	addil #235932160,%d1
     ea4:	2040           	moveal %d0,%a0
     ea6:	d1c0           	addal %d0,%a0
     ea8:	d1c8           	addal %a0,%a0
     eaa:	d088           	addl %a0,%d0
     eac:	ef88           	lsll #7,%d0
     eae:	2040           	moveal %d0,%a0
     eb0:	d1ef 000c      	addal %sp@(12),%a0
     eb4:	d1fc 0e00 0000 	addal #234881024,%a0
     eba:	93c9           	subal %a1,%a1
     ebc:	7000           	moveq #0,%d0
     ebe:	1431 1800      	moveb %a1@(00000000,%d1:l),%d2
     ec2:	4882           	extw %d2
     ec4:	48c2           	extl %d2
     ec6:	0102           	btst %d0,%d2
     ec8:	6706           	beqs ed0 <DrawChar8_640+0x42>
     eca:	11af 0017 0800 	moveb %sp@(23),%a0@(00000000,%d0:l)
     ed0:	5280           	addql #1,%d0
     ed2:	7408           	moveq #8,%d2
     ed4:	b480           	cmpl %d0,%d2
     ed6:	66e6           	bnes ebe <DrawChar8_640+0x30>
     ed8:	41e8 0280      	lea %a0@(640),%a0
     edc:	5289           	addql #1,%a1
     ede:	b489           	cmpl %a1,%d2
     ee0:	66da           	bnes ebc <DrawChar8_640+0x2e>
     ee2:	241f           	movel %sp@+,%d2
     ee4:	4e75           	rts
	...

00000ee8 <SetTextMode>:
     ee8:	202f 0004      	movel %sp@(4),%d0
     eec:	13c0 0d80 0004 	moveb %d0,d800004 <__end+0xc7ffd74>
     ef2:	0800 0006      	btst #6,%d0
     ef6:	6604           	bnes efc <SetTextMode+0x14>
     ef8:	7250           	moveq #80,%d1
     efa:	6002           	bras efe <SetTextMode+0x16>
     efc:	7228           	moveq #40,%d1
     efe:	13c1 0100 0282 	moveb %d1,1000282 <textWidth>
     f04:	0800 0005      	btst #5,%d0
     f08:	6604           	bnes f0e <SetTextMode+0x26>
     f0a:	703c           	moveq #60,%d0
     f0c:	6002           	bras f10 <SetTextMode+0x28>
     f0e:	701e           	moveq #30,%d0
     f10:	13c0 0100 0280 	moveb %d0,1000280 <textHeight>
     f16:	42b9 0100 0014 	clrl 1000014 <interface+0x14>
     f1c:	4e75           	rts

00000f1e <SetBitmapMode16>:
     f1e:	2f02           	movel %d2,%sp@-
     f20:	202f 0008      	movel %sp@(8),%d0
     f24:	1200           	moveb %d0,%d1
     f26:	0001 0001      	orib #1,%d1
     f2a:	13c1 0d80 0004 	moveb %d1,d800004 <__end+0xc7ffd74>
     f30:	7240           	moveq #64,%d1
     f32:	c280           	andl %d0,%d1
     f34:	6604           	bnes f3a <SetBitmapMode16+0x1c>
     f36:	7450           	moveq #80,%d2
     f38:	6002           	bras f3c <SetBitmapMode16+0x1e>
     f3a:	7428           	moveq #40,%d2
     f3c:	13c2 0100 0282 	moveb %d2,1000282 <textWidth>
     f42:	0800 0005      	btst #5,%d0
     f46:	6604           	bnes f4c <SetBitmapMode16+0x2e>
     f48:	703c           	moveq #60,%d0
     f4a:	6002           	bras f4e <SetBitmapMode16+0x30>
     f4c:	701e           	moveq #30,%d0
     f4e:	13c0 0100 0280 	moveb %d0,1000280 <textHeight>
     f54:	203c 0000 0c0a 	movel #3082,%d0
     f5a:	4a81           	tstl %d1
     f5c:	6606           	bnes f64 <SetBitmapMode16+0x46>
     f5e:	203c 0000 0d20 	movel #3360,%d0
     f64:	23c0 0100 0014 	movel %d0,1000014 <interface+0x14>
     f6a:	241f           	movel %sp@+,%d2
     f6c:	4e75           	rts

00000f6e <SetBitmapMode256>:
     f6e:	2f02           	movel %d2,%sp@-
     f70:	202f 0008      	movel %sp@(8),%d0
     f74:	1200           	moveb %d0,%d1
     f76:	0001 0002      	orib #2,%d1
     f7a:	13c1 0d80 0004 	moveb %d1,d800004 <__end+0xc7ffd74>
     f80:	7240           	moveq #64,%d1
     f82:	c280           	andl %d0,%d1
     f84:	6604           	bnes f8a <SetBitmapMode256+0x1c>
     f86:	7450           	moveq #80,%d2
     f88:	6002           	bras f8c <SetBitmapMode256+0x1e>
     f8a:	7428           	moveq #40,%d2
     f8c:	13c2 0100 0282 	moveb %d2,1000282 <textWidth>
     f92:	0800 0005      	btst #5,%d0
     f96:	6604           	bnes f9c <SetBitmapMode256+0x2e>
     f98:	703c           	moveq #60,%d0
     f9a:	6002           	bras f9e <SetBitmapMode256+0x30>
     f9c:	701e           	moveq #30,%d0
     f9e:	13c0 0100 0280 	moveb %d0,1000280 <textHeight>
     fa4:	203c 0000 0e36 	movel #3638,%d0
     faa:	4a81           	tstl %d1
     fac:	6606           	bnes fb4 <SetBitmapMode256+0x46>
     fae:	203c 0000 0e8e 	movel #3726,%d0
     fb4:	23c0 0100 0014 	movel %d0,1000014 <interface+0x14>
     fba:	241f           	movel %sp@+,%d2
     fbc:	4e75           	rts

00000fbe <WaitForVBlank>:
     fbe:	2239 0d80 0008 	movel d800008 <__end+0xc7ffd78>,%d1
     fc4:	2039 0d80 0008 	movel d800008 <__end+0xc7ffd78>,%d0
     fca:	b081           	cmpl %d1,%d0
     fcc:	67f6           	beqs fc4 <WaitForVBlank+0x6>
     fce:	2279 0100 000c 	moveal 100000c <interface+0xc>,%a1
     fd4:	b2fc 0000      	cmpaw #0,%a1
     fd8:	6702           	beqs fdc <WaitForVBlank+0x1e>
     fda:	4ed1           	jmp %a1@
     fdc:	4e75           	rts

00000fde <WaitForVBlanks>:
     fde:	2f0a           	movel %a2,%sp@-
     fe0:	2f02           	movel %d2,%sp@-
     fe2:	242f 000c      	movel %sp@(12),%d2
     fe6:	45fa ffd6      	lea %pc@(fbe <WaitForVBlank>),%a2
     fea:	4a82           	tstl %d2
     fec:	6706           	beqs ff4 <WaitForVBlanks+0x16>
     fee:	4e92           	jsr %a2@
     ff0:	5382           	subql #1,%d2
     ff2:	60f6           	bras fea <WaitForVBlanks+0xc>
     ff4:	241f           	movel %sp@+,%d2
     ff6:	245f           	moveal %sp@+,%a2
     ff8:	4e75           	rts

00000ffa <DmaCopy>:
     ffa:	23ef 0008 0d80 	movel %sp@(8),d800020 <__end+0xc7ffd90>
    1000:	0020 
    1002:	23ef 0004 0d80 	movel %sp@(4),d800024 <__end+0xc7ffd94>
    1008:	0024 
    100a:	23ef 000c 0d80 	movel %sp@(12),d800028 <__end+0xc7ffd98>
    1010:	0028 
    1012:	202f 0010      	movel %sp@(16),%d0
    1016:	e988           	lsll #4,%d0
    1018:	0000 0007      	orib #7,%d0
    101c:	13c0 0d80 002a 	moveb %d0,d80002a <__end+0xc7ffd9a>
    1022:	4e75           	rts

00001024 <DmaClear>:
    1024:	23ef 0008 0d80 	movel %sp@(8),d800020 <__end+0xc7ffd90>
    102a:	0020 
    102c:	23ef 0004 0d80 	movel %sp@(4),d800024 <__end+0xc7ffd94>
    1032:	0024 
    1034:	23ef 000c 0d80 	movel %sp@(12),d800028 <__end+0xc7ffd98>
    103a:	0028 
    103c:	202f 0010      	movel %sp@(16),%d0
    1040:	e988           	lsll #4,%d0
    1042:	0000 000d      	orib #13,%d0
    1046:	13c0 0d80 002a 	moveb %d0,d80002a <__end+0xc7ffd9a>
    104c:	4e75           	rts

0000104e <MidiReset>:
    104e:	7000           	moveq #0,%d0
    1050:	2200           	movel %d0,%d1
    1052:	0041 79b0      	oriw #31152,%d1
    1056:	23c1 0d80 0040 	movel %d1,d800040 <__end+0xc7ffdb0>
    105c:	2200           	movel %d0,%d1
    105e:	0041 7bb0      	oriw #31664,%d1
    1062:	23c1 0d80 0040 	movel %d1,d800040 <__end+0xc7ffdb0>
    1068:	5280           	addql #1,%d0
    106a:	7210           	moveq #16,%d1
    106c:	b280           	cmpl %d0,%d1
    106e:	66e0           	bnes 1050 <MidiReset+0x2>
    1070:	4e75           	rts

00001072 <RleUnpack>:
    1072:	48e7 3c00      	moveml %d2-%d5,%sp@-
    1076:	242f 0014      	movel %sp@(20),%d2
    107a:	226f 0018      	moveal %sp@(24),%a1
    107e:	1839 0d80 0005 	moveb d800005 <__end+0xc7ffd75>,%d4
    1084:	4239 0d80 0005 	clrb d800005 <__end+0xc7ffd75>
    108a:	41e9 0001      	lea %a1@(1),%a0
    108e:	1029 0001      	moveb %a1@(1),%d0
    1092:	4880           	extw %d0
    1094:	3600           	movew %d0,%d3
    1096:	48c3           	extl %d3
    1098:	2203           	movel %d3,%d1
    109a:	4841           	swap %d1
    109c:	4241           	clrw %d1
    109e:	2003           	movel %d3,%d0
    10a0:	e188           	lsll #8,%d0
    10a2:	8081           	orl %d1,%d0
    10a4:	8083           	orl %d3,%d0
    10a6:	4a80           	tstl %d0
    10a8:	6f42           	bles 10ec <RleUnpack+0x7a>
    10aa:	1610           	moveb %a0@,%d3
    10ac:	727f           	moveq #127,%d1
    10ae:	c283           	andl %d3,%d1
    10b0:	4a03           	tstb %d3
    10b2:	6c1a           	bges 10ce <RleUnpack+0x5c>
    10b4:	1a28 0001      	moveb %a0@(1),%d5
    10b8:	5681           	addql #3,%d1
    10ba:	2242           	moveal %d2,%a1
    10bc:	12c5           	moveb %d5,%a1@+
    10be:	5380           	subql #1,%d0
    10c0:	6716           	beqs 10d8 <RleUnpack+0x66>
    10c2:	2609           	movel %a1,%d3
    10c4:	9682           	subl %d2,%d3
    10c6:	b283           	cmpl %d3,%d1
    10c8:	6ef2           	bgts 10bc <RleUnpack+0x4a>
    10ca:	5488           	addql #2,%a0
    10cc:	601a           	bras 10e8 <RleUnpack+0x76>
    10ce:	5288           	addql #1,%a0
    10d0:	2242           	moveal %d2,%a1
    10d2:	12d8           	moveb %a0@+,%a1@+
    10d4:	5380           	subql #1,%d0
    10d6:	6608           	bnes 10e0 <RleUnpack+0x6e>
    10d8:	13c4 0d80 0005 	moveb %d4,d800005 <__end+0xc7ffd75>
    10de:	600c           	bras 10ec <RleUnpack+0x7a>
    10e0:	2609           	movel %a1,%d3
    10e2:	9682           	subl %d2,%d3
    10e4:	b681           	cmpl %d1,%d3
    10e6:	6fea           	bles 10d2 <RleUnpack+0x60>
    10e8:	2409           	movel %a1,%d2
    10ea:	60ba           	bras 10a6 <RleUnpack+0x34>
    10ec:	4cdf 003c      	moveml %sp@+,%d2-%d5
    10f0:	4e75           	rts

000010f2 <EnableSprites>:
    10f2:	4aaf 0004      	tstl %sp@(4)
    10f6:	670a           	beqs 1102 <EnableSprites+0x10>
    10f8:	0039 0010 0d80 	orib #16,d800004 <__end+0xc7ffd74>
    10fe:	0004 
    1100:	4e75           	rts
    1102:	0239 ffef 0d80 	andib #-17,d800004 <__end+0xc7ffd74>
    1108:	0004 
    110a:	4e75           	rts

0000110c <FilePosition>:
    110c:	206f 0004      	moveal %sp@(4),%a0
    1110:	2028 0012      	movel %a0@(18),%d0
    1114:	4e75           	rts

00001116 <FileEnd>:
    1116:	206f 0004      	moveal %sp@(4),%a0
    111a:	2028 0012      	movel %a0@(18),%d0
    111e:	b0a8 000c      	cmpl %a0@(12),%d0
    1122:	5cc0           	sge %d0
    1124:	4880           	extw %d0
    1126:	48c0           	extl %d0
    1128:	4480           	negl %d0
    112a:	4e75           	rts

0000112c <FileSize>:
    112c:	206f 0004      	moveal %sp@(4),%a0
    1130:	2028 000c      	movel %a0@(12),%d0
    1134:	4e75           	rts

00001136 <FileTouch>:
    1136:	7000           	moveq #0,%d0
    1138:	4e75           	rts

0000113a <FileErrStr>:
    113a:	202f 0004      	movel %sp@(4),%d0
    113e:	7213           	moveq #19,%d1
    1140:	b280           	cmpl %d0,%d1
    1142:	6c02           	bges 1146 <FileErrStr+0xc>
    1144:	7014           	moveq #20,%d0
    1146:	d080           	addl %d0,%d0
    1148:	d080           	addl %d0,%d0
    114a:	41f9 0000 91b0 	lea 91b0 <FSErrors>,%a0
    1150:	2030 0800      	movel %a0@(00000000,%d0:l),%d0
    1154:	4e75           	rts

00001156 <CloseFile>:
    1156:	4ef9 0000 36bc 	jmp 36bc <f_close>

0000115c <ReadFile>:
    115c:	4e56 fffc      	linkw %fp,#-4
    1160:	486e fffc      	pea %fp@(-4)
    1164:	2f2e 0010      	movel %fp@(16),%sp@-
    1168:	2f2e 000c      	movel %fp@(12),%sp@-
    116c:	2f2e 0008      	movel %fp@(8),%sp@-
    1170:	4eb9 0000 31b0 	jsr 31b0 <f_read>
    1176:	4fef 0010      	lea %sp@(16),%sp
    117a:	4a80           	tstl %d0
    117c:	6704           	beqs 1182 <ReadFile+0x26>
    117e:	4480           	negl %d0
    1180:	6004           	bras 1186 <ReadFile+0x2a>
    1182:	202e fffc      	movel %fp@(-4),%d0
    1186:	4e5e           	unlk %fp
    1188:	4e75           	rts

0000118a <WriteFile>:
    118a:	4e56 fffc      	linkw %fp,#-4
    118e:	486e fffc      	pea %fp@(-4)
    1192:	2f2e 0010      	movel %fp@(16),%sp@-
    1196:	2f2e 000c      	movel %fp@(12),%sp@-
    119a:	2f2e 0008      	movel %fp@(8),%sp@-
    119e:	4eb9 0000 33a4 	jsr 33a4 <f_write>
    11a4:	4fef 0010      	lea %sp@(16),%sp
    11a8:	4a80           	tstl %d0
    11aa:	6704           	beqs 11b0 <WriteFile+0x26>
    11ac:	4480           	negl %d0
    11ae:	6004           	bras 11b4 <WriteFile+0x2a>
    11b0:	202e fffc      	movel %fp@(-4),%d0
    11b4:	4e5e           	unlk %fp
    11b6:	4e75           	rts

000011b8 <SeekFile>:
    11b8:	2f0a           	movel %a2,%sp@-
    11ba:	2f02           	movel %d2,%sp@-
    11bc:	246f 000c      	moveal %sp@(12),%a2
    11c0:	202f 0010      	movel %sp@(16),%d0
    11c4:	222f 0014      	movel %sp@(20),%d1
    11c8:	41f9 0000 38f4 	lea 38f4 <f_lseek>,%a0
    11ce:	7401           	moveq #1,%d2
    11d0:	b481           	cmpl %d1,%d2
    11d2:	6606           	bnes 11da <SeekFile+0x22>
    11d4:	d0aa 0012      	addl %a2@(18),%d0
    11d8:	600a           	bras 11e4 <SeekFile+0x2c>
    11da:	7402           	moveq #2,%d2
    11dc:	b481           	cmpl %d1,%d2
    11de:	6604           	bnes 11e4 <SeekFile+0x2c>
    11e0:	d0aa 000c      	addl %a2@(12),%d0
    11e4:	2f00           	movel %d0,%sp@-
    11e6:	2f0a           	movel %a2,%sp@-
    11e8:	4e90           	jsr %a0@
    11ea:	508f           	addql #8,%sp
    11ec:	202a 0012      	movel %a2@(18),%d0
    11f0:	241f           	movel %sp@+,%d2
    11f2:	245f           	moveal %sp@+,%a2
    11f4:	4e75           	rts

000011f6 <TruncateFile>:
    11f6:	4ef9 0000 3e10 	jmp 3e10 <f_truncate>

000011fc <FlushFile>:
    11fc:	4ef9 0000 35d2 	jmp 35d2 <f_sync>

00001202 <CloseDir>:
    1202:	4ef9 0000 3b76 	jmp 3b76 <f_closedir>

00001208 <ReadDir>:
    1208:	4ef9 0000 3b9a 	jmp 3b9a <f_readdir>

0000120e <FindNext>:
    120e:	4ef9 0000 3c10 	jmp 3c10 <f_findnext>

00001214 <GetLabel>:
    1214:	42a7           	clrl %sp@-
    1216:	2f2f 0008      	movel %sp@(8),%sp@-
    121a:	4879 0000 8958 	pea 8958 <hdma1+0x1ec>
    1220:	4eb9 0000 432a 	jsr 432a <f_getlabel>
    1226:	4fef 000c      	lea %sp@(12),%sp
    122a:	4e75           	rts

0000122c <MountIfNeeded>:
    122c:	4a39 0100 002c 	tstb 100002c <_edata>
    1232:	661a           	bnes 124e <MountIfNeeded+0x22>
    1234:	4878 0001      	pea 1 <__DYNAMIC+0x1>
    1238:	4879 0000 8958 	pea 8958 <hdma1+0x1ec>
    123e:	4879 0100 002c 	pea 100002c <_edata>
    1244:	4eb9 0000 2ec0 	jsr 2ec0 <f_mount>
    124a:	4fef 000c      	lea %sp@(12),%sp
    124e:	4e75           	rts

00001250 <OpenFile>:
    1250:	48e7 3800      	moveml %d2-%d4,%sp@-
    1254:	262f 0010      	movel %sp@(16),%d3
    1258:	282f 0014      	movel %sp@(20),%d4
    125c:	242f 0018      	movel %sp@(24),%d2
    1260:	4eba ffca      	jsr %pc@(122c <MountIfNeeded>)
    1264:	4882           	extw %d2
    1266:	3042           	moveaw %d2,%a0
    1268:	2f48 0018      	movel %a0,%sp@(24)
    126c:	2f44 0014      	movel %d4,%sp@(20)
    1270:	2f43 0010      	movel %d3,%sp@(16)
    1274:	4cdf 001c      	moveml %sp@+,%d2-%d4
    1278:	4ef9 0000 2f2e 	jmp 2f2e <f_open>

0000127e <OpenDir>:
    127e:	2f03           	movel %d3,%sp@-
    1280:	2f02           	movel %d2,%sp@-
    1282:	242f 000c      	movel %sp@(12),%d2
    1286:	262f 0010      	movel %sp@(16),%d3
    128a:	4eba ffa0      	jsr %pc@(122c <MountIfNeeded>)
    128e:	2f43 0010      	movel %d3,%sp@(16)
    1292:	2f42 000c      	movel %d2,%sp@(12)
    1296:	241f           	movel %sp@+,%d2
    1298:	261f           	movel %sp@+,%d3
    129a:	4ef9 0000 3ad6 	jmp 3ad6 <f_opendir>

000012a0 <FindFirst>:
    12a0:	48e7 3c00      	moveml %d2-%d5,%sp@-
    12a4:	242f 0014      	movel %sp@(20),%d2
    12a8:	262f 0018      	movel %sp@(24),%d3
    12ac:	282f 001c      	movel %sp@(28),%d4
    12b0:	2a2f 0020      	movel %sp@(32),%d5
    12b4:	4eba ff76      	jsr %pc@(122c <MountIfNeeded>)
    12b8:	2f45 0020      	movel %d5,%sp@(32)
    12bc:	2f44 001c      	movel %d4,%sp@(28)
    12c0:	2f43 0018      	movel %d3,%sp@(24)
    12c4:	2f42 0014      	movel %d2,%sp@(20)
    12c8:	4cdf 003c      	moveml %sp@+,%d2-%d5
    12cc:	4ef9 0000 3c5c 	jmp 3c5c <f_findfirst>

000012d2 <FileStat>:
    12d2:	2f03           	movel %d3,%sp@-
    12d4:	2f02           	movel %d2,%sp@-
    12d6:	242f 000c      	movel %sp@(12),%d2
    12da:	262f 0010      	movel %sp@(16),%d3
    12de:	4eba ff4c      	jsr %pc@(122c <MountIfNeeded>)
    12e2:	2f43 0010      	movel %d3,%sp@(16)
    12e6:	2f42 000c      	movel %d2,%sp@(12)
    12ea:	241f           	movel %sp@+,%d2
    12ec:	261f           	movel %sp@+,%d3
    12ee:	4ef9 0000 3c92 	jmp 3c92 <f_stat>

000012f4 <UnlinkFile>:
    12f4:	2f02           	movel %d2,%sp@-
    12f6:	242f 0008      	movel %sp@(8),%d2
    12fa:	4eba ff30      	jsr %pc@(122c <MountIfNeeded>)
    12fe:	2f42 0008      	movel %d2,%sp@(8)
    1302:	241f           	movel %sp@+,%d2
    1304:	4ef9 0000 3f08 	jmp 3f08 <f_unlink>

0000130a <RenameFile>:
    130a:	2f03           	movel %d3,%sp@-
    130c:	2f02           	movel %d2,%sp@-
    130e:	242f 000c      	movel %sp@(12),%d2
    1312:	262f 0010      	movel %sp@(16),%d3
    1316:	4eba ff14      	jsr %pc@(122c <MountIfNeeded>)
    131a:	2f43 0010      	movel %d3,%sp@(16)
    131e:	2f42 000c      	movel %d2,%sp@(12)
    1322:	241f           	movel %sp@+,%d2
    1324:	261f           	movel %sp@+,%d3
    1326:	4ef9 0000 4198 	jmp 4198 <f_rename>

0000132c <MakeDir>:
    132c:	2f02           	movel %d2,%sp@-
    132e:	242f 0008      	movel %sp@(8),%d2
    1332:	4eba fef8      	jsr %pc@(122c <MountIfNeeded>)
    1336:	2f42 0008      	movel %d2,%sp@(8)
    133a:	241f           	movel %sp@+,%d2
    133c:	4ef9 0000 400a 	jmp 400a <f_mkdir>

00001342 <ChangeDir>:
    1342:	2f02           	movel %d2,%sp@-
    1344:	242f 0008      	movel %sp@(8),%d2
    1348:	4eba fee2      	jsr %pc@(122c <MountIfNeeded>)
    134c:	2f42 0008      	movel %d2,%sp@(8)
    1350:	241f           	movel %sp@+,%d2
    1352:	4ef9 0000 36ec 	jmp 36ec <f_chdir>

00001358 <GetCurrentDir>:
    1358:	2f03           	movel %d3,%sp@-
    135a:	2f02           	movel %d2,%sp@-
    135c:	242f 000c      	movel %sp@(12),%d2
    1360:	262f 0010      	movel %sp@(16),%d3
    1364:	4eba fec6      	jsr %pc@(122c <MountIfNeeded>)
    1368:	2f43 0010      	movel %d3,%sp@(16)
    136c:	2f42 000c      	movel %d2,%sp@(12)
    1370:	241f           	movel %sp@+,%d2
    1372:	261f           	movel %sp@+,%d3
    1374:	4ef9 0000 376c 	jmp 376c <f_getcwd>
	...

0000137c <strcpy_s>:
    137c:	2f02           	movel %d2,%sp@-
    137e:	206f 0008      	moveal %sp@(8),%a0
    1382:	222f 000c      	movel %sp@(12),%d1
    1386:	226f 0010      	moveal %sp@(16),%a1
    138a:	b0fc 0000      	cmpaw #0,%a0
    138e:	6728           	beqs 13b8 <strcpy_s+0x3c>
    1390:	4a81           	tstl %d1
    1392:	6724           	beqs 13b8 <strcpy_s+0x3c>
    1394:	b2fc 0000      	cmpaw #0,%a1
    1398:	6704           	beqs 139e <strcpy_s+0x22>
    139a:	7000           	moveq #0,%d0
    139c:	6010           	bras 13ae <strcpy_s+0x32>
    139e:	4210           	clrb %a0@
    13a0:	6016           	bras 13b8 <strcpy_s+0x3c>
    13a2:	1431 0800      	moveb %a1@(00000000,%d0:l),%d2
    13a6:	1182 0800      	moveb %d2,%a0@(00000000,%d0:l)
    13aa:	6710           	beqs 13bc <strcpy_s+0x40>
    13ac:	5280           	addql #1,%d0
    13ae:	b280           	cmpl %d0,%d1
    13b0:	6ef0           	bgts 13a2 <strcpy_s+0x26>
    13b2:	4210           	clrb %a0@
    13b4:	7002           	moveq #2,%d0
    13b6:	6006           	bras 13be <strcpy_s+0x42>
    13b8:	7001           	moveq #1,%d0
    13ba:	6002           	bras 13be <strcpy_s+0x42>
    13bc:	7000           	moveq #0,%d0
    13be:	241f           	movel %sp@+,%d2
    13c0:	4e75           	rts

000013c2 <strcat_s>:
    13c2:	48e7 3030      	moveml %d2-%d3/%a2-%a3,%sp@-
    13c6:	206f 0014      	moveal %sp@(20),%a0
    13ca:	222f 0018      	movel %sp@(24),%d1
    13ce:	246f 001c      	moveal %sp@(28),%a2
    13d2:	b0fc 0000      	cmpaw #0,%a0
    13d6:	6742           	beqs 141a <strcat_s+0x58>
    13d8:	4a81           	tstl %d1
    13da:	673e           	beqs 141a <strcat_s+0x58>
    13dc:	b4fc 0000      	cmpaw #0,%a2
    13e0:	6704           	beqs 13e6 <strcat_s+0x24>
    13e2:	7000           	moveq #0,%d0
    13e4:	600c           	bras 13f2 <strcat_s+0x30>
    13e6:	4210           	clrb %a0@
    13e8:	6030           	bras 141a <strcat_s+0x58>
    13ea:	4a30 0800      	tstb %a0@(00000000,%d0:l)
    13ee:	6708           	beqs 13f8 <strcat_s+0x36>
    13f0:	5280           	addql #1,%d0
    13f2:	b280           	cmpl %d0,%d1
    13f4:	6ef4           	bgts 13ea <strcat_s+0x28>
    13f6:	601c           	bras 1414 <strcat_s+0x52>
    13f8:	2601           	movel %d1,%d3
    13fa:	9680           	subl %d0,%d3
    13fc:	93c9           	subal %a1,%a1
    13fe:	47f0 0800      	lea %a0@(00000000,%d0:l),%a3
    1402:	b689           	cmpl %a1,%d3
    1404:	67ea           	beqs 13f0 <strcat_s+0x2e>
    1406:	1432 9800      	moveb %a2@(00000000,%a1:l),%d2
    140a:	1782 9800      	moveb %d2,%a3@(00000000,%a1:l)
    140e:	670e           	beqs 141e <strcat_s+0x5c>
    1410:	5289           	addql #1,%a1
    1412:	60ee           	bras 1402 <strcat_s+0x40>
    1414:	4210           	clrb %a0@
    1416:	7002           	moveq #2,%d0
    1418:	6006           	bras 1420 <strcat_s+0x5e>
    141a:	7001           	moveq #1,%d0
    141c:	6002           	bras 1420 <strcat_s+0x5e>
    141e:	7000           	moveq #0,%d0
    1420:	4cdf 0c0c      	moveml %sp@+,%d2-%d3/%a2-%a3
    1424:	4e75           	rts

00001426 <strnlen_s>:
    1426:	206f 0004      	moveal %sp@(4),%a0
    142a:	7000           	moveq #0,%d0
    142c:	b0fc 0000      	cmpaw #0,%a0
    1430:	6712           	beqs 1444 <strnlen_s+0x1e>
    1432:	b0af 0008      	cmpl %sp@(8),%d0
    1436:	6c0c           	bges 1444 <strnlen_s+0x1e>
    1438:	4a30 0800      	tstb %a0@(00000000,%d0:l)
    143c:	6704           	beqs 1442 <strnlen_s+0x1c>
    143e:	5280           	addql #1,%d0
    1440:	60f0           	bras 1432 <strnlen_s+0xc>
    1442:	4e75           	rts
    1444:	4e75           	rts

00001446 <strkitten_s>:
    1446:	48e7 3020      	moveml %d2-%d3/%a2,%sp@-
    144a:	246f 0010      	moveal %sp@(16),%a2
    144e:	242f 0014      	movel %sp@(20),%d2
    1452:	262f 0018      	movel %sp@(24),%d3
    1456:	b4fc 0000      	cmpaw #0,%a2
    145a:	672c           	beqs 1488 <strkitten_s+0x42>
    145c:	4a82           	tstl %d2
    145e:	6728           	beqs 1488 <strkitten_s+0x42>
    1460:	4a03           	tstb %d3
    1462:	6604           	bnes 1468 <strkitten_s+0x22>
    1464:	4212           	clrb %a2@
    1466:	6020           	bras 1488 <strkitten_s+0x42>
    1468:	2f02           	movel %d2,%sp@-
    146a:	2f0a           	movel %a2,%sp@-
    146c:	4eba ffb8      	jsr %pc@(1426 <strnlen_s>)
    1470:	508f           	addql #8,%sp
    1472:	b082           	cmpl %d2,%d0
    1474:	6c0c           	bges 1482 <strkitten_s+0x3c>
    1476:	1583 0800      	moveb %d3,%a2@(00000000,%d0:l)
    147a:	4232 0801      	clrb %a2@(00000001,%d0:l)
    147e:	7000           	moveq #0,%d0
    1480:	6008           	bras 148a <strkitten_s+0x44>
    1482:	4212           	clrb %a2@
    1484:	7002           	moveq #2,%d0
    1486:	6002           	bras 148a <strkitten_s+0x44>
    1488:	7001           	moveq #1,%d0
    148a:	4cdf 040c      	moveml %sp@+,%d2-%d3/%a2
    148e:	4e75           	rts

00001490 <memcpy>:
    1490:	202f 0004      	movel %sp@(4),%d0
    1494:	206f 0008      	moveal %sp@(8),%a0
    1498:	7200           	moveq #0,%d1
    149a:	b2af 000c      	cmpl %sp@(12),%d1
    149e:	670c           	beqs 14ac <memcpy+0x1c>
    14a0:	2240           	moveal %d0,%a1
    14a2:	13b0 1800 1800 	moveb %a0@(00000000,%d1:l),%a1@(00000000,%d1:l)
    14a8:	5281           	addql #1,%d1
    14aa:	60ee           	bras 149a <memcpy+0xa>
    14ac:	4e75           	rts

000014ae <memset>:
    14ae:	202f 0004      	movel %sp@(4),%d0
    14b2:	2200           	movel %d0,%d1
    14b4:	d2af 000c      	addl %sp@(12),%d1
    14b8:	2040           	moveal %d0,%a0
    14ba:	b288           	cmpl %a0,%d1
    14bc:	6706           	beqs 14c4 <memset+0x16>
    14be:	10ef 000b      	moveb %sp@(11),%a0@+
    14c2:	60f6           	bras 14ba <memset+0xc>
    14c4:	4e75           	rts

000014c6 <memcmp>:
    14c6:	2f0a           	movel %a2,%sp@-
    14c8:	226f 0008      	moveal %sp@(8),%a1
    14cc:	7200           	moveq #0,%d1
    14ce:	7000           	moveq #0,%d0
    14d0:	b2af 0010      	cmpl %sp@(16),%d1
    14d4:	671e           	beqs 14f4 <memcmp+0x2e>
    14d6:	4a80           	tstl %d0
    14d8:	661a           	bnes 14f4 <memcmp+0x2e>
    14da:	1031 1800      	moveb %a1@(00000000,%d1:l),%d0
    14de:	4880           	extw %d0
    14e0:	3040           	moveaw %d0,%a0
    14e2:	246f 000c      	moveal %sp@(12),%a2
    14e6:	1032 1800      	moveb %a2@(00000000,%d1:l),%d0
    14ea:	4880           	extw %d0
    14ec:	90c0           	subaw %d0,%a0
    14ee:	2008           	movel %a0,%d0
    14f0:	5281           	addql #1,%d1
    14f2:	60dc           	bras 14d0 <memcmp+0xa>
    14f4:	245f           	moveal %sp@+,%a2
    14f6:	4e75           	rts

000014f8 <sbrk>:
    14f8:	222f 0004      	movel %sp@(4),%d1
    14fc:	6608           	bnes 1506 <sbrk+0xe>
    14fe:	2039 0100 0028 	movel 1000028 <heap>,%d0
    1504:	4e75           	rts
    1506:	4ab9 0100 0028 	tstl 1000028 <heap>
    150c:	660a           	bnes 1518 <sbrk+0x20>
    150e:	23fc 0300 0000 	movel #50331648,1000028 <heap>
    1514:	0100 0028 
    1518:	2039 0100 0028 	movel 1000028 <heap>,%d0
    151e:	d280           	addl %d0,%d1
    1520:	0c81 03ff ffff 	cmpil #67108863,%d1
    1526:	6206           	bhis 152e <sbrk+0x36>
    1528:	23c1 0100 0028 	movel %d1,1000028 <heap>
    152e:	4e75           	rts

00001530 <brk>:
    1530:	2039 0100 0028 	movel 1000028 <heap>,%d0
    1536:	23ef 0004 0100 	movel %sp@(4),1000028 <heap>
    153c:	0028 
    153e:	4e75           	rts

00001540 <malloc_find_free_block>:
    1540:	226f 0004      	moveal %sp@(4),%a1
    1544:	202f 0008      	movel %sp@(8),%d0
    1548:	2079 0100 0260 	moveal 1000260 <malloc_global_base>,%a0
    154e:	b0fc 0000      	cmpaw #0,%a0
    1552:	6712           	beqs 1566 <malloc_find_free_block+0x26>
    1554:	4aa8 0008      	tstl %a0@(8)
    1558:	6608           	bnes 1562 <malloc_find_free_block+0x22>
    155a:	2288           	movel %a0,%a1@
    155c:	2068 0004      	moveal %a0@(4),%a0
    1560:	60ec           	bras 154e <malloc_find_free_block+0xe>
    1562:	b090           	cmpl %a0@,%d0
    1564:	6ef4           	bgts 155a <malloc_find_free_block+0x1a>
    1566:	2008           	movel %a0,%d0
    1568:	4e75           	rts

0000156a <malloc_request_space>:
    156a:	48e7 0038      	moveml %a2-%a4,%sp@-
    156e:	286f 0010      	moveal %sp@(16),%a4
    1572:	266f 0014      	moveal %sp@(20),%a3
    1576:	2479 0100 0028 	moveal 1000028 <heap>,%a2
    157c:	486b 000c      	pea %a3@(12)
    1580:	4eba ff76      	jsr %pc@(14f8 <sbrk>)
    1584:	588f           	addql #4,%sp
    1586:	72ff           	moveq #-1,%d1
    1588:	b280           	cmpl %d0,%d1
    158a:	6718           	beqs 15a4 <malloc_request_space+0x3a>
    158c:	b8fc 0000      	cmpaw #0,%a4
    1590:	6704           	beqs 1596 <malloc_request_space+0x2c>
    1592:	294a 0004      	movel %a2,%a4@(4)
    1596:	248b           	movel %a3,%a2@
    1598:	42aa 0004      	clrl %a2@(4)
    159c:	42aa 0008      	clrl %a2@(8)
    15a0:	200a           	movel %a2,%d0
    15a2:	6002           	bras 15a6 <malloc_request_space+0x3c>
    15a4:	7000           	moveq #0,%d0
    15a6:	4cdf 1c00      	moveml %sp@+,%a2-%a4
    15aa:	4e75           	rts

000015ac <malloc>:
    15ac:	598f           	subql #4,%sp
    15ae:	2f0e           	movel %fp,%sp@-
    15b0:	2f02           	movel %d2,%sp@-
    15b2:	242f 0010      	movel %sp@(16),%d2
    15b6:	5382           	subql #1,%d2
    15b8:	70fc           	moveq #-4,%d0
    15ba:	c480           	andl %d0,%d2
    15bc:	5882           	addql #4,%d2
    15be:	6604           	bnes 15c4 <malloc+0x18>
    15c0:	7000           	moveq #0,%d0
    15c2:	6062           	bras 1626 <malloc+0x7a>
    15c4:	2039 0100 0260 	movel 1000260 <malloc_global_base>,%d0
    15ca:	662a           	bnes 15f6 <malloc+0x4a>
    15cc:	23fc 0300 0000 	movel #50331648,1000260 <malloc_global_base>
    15d2:	0100 0260 
    15d6:	23fc 0300 0000 	movel #50331648,1000028 <heap>
    15dc:	0100 0028 
    15e0:	2f02           	movel %d2,%sp@-
    15e2:	42a7           	clrl %sp@-
    15e4:	4eba ff84      	jsr %pc@(156a <malloc_request_space>)
    15e8:	508f           	addql #8,%sp
    15ea:	4a80           	tstl %d0
    15ec:	67d2           	beqs 15c0 <malloc+0x14>
    15ee:	23c0 0100 0260 	movel %d0,1000260 <malloc_global_base>
    15f4:	602c           	bras 1622 <malloc+0x76>
    15f6:	4def 000c      	lea %sp@(12),%fp
    15fa:	2d00           	movel %d0,%fp@-
    15fc:	2f02           	movel %d2,%sp@-
    15fe:	2f0e           	movel %fp,%sp@-
    1600:	4eba ff3e      	jsr %pc@(1540 <malloc_find_free_block>)
    1604:	508f           	addql #8,%sp
    1606:	4a80           	tstl %d0
    1608:	6612           	bnes 161c <malloc+0x70>
    160a:	2f02           	movel %d2,%sp@-
    160c:	2f2f 000c      	movel %sp@(12),%sp@-
    1610:	4eba ff58      	jsr %pc@(156a <malloc_request_space>)
    1614:	508f           	addql #8,%sp
    1616:	4a80           	tstl %d0
    1618:	6608           	bnes 1622 <malloc+0x76>
    161a:	600a           	bras 1626 <malloc+0x7a>
    161c:	2040           	moveal %d0,%a0
    161e:	42a8 0008      	clrl %a0@(8)
    1622:	720c           	moveq #12,%d1
    1624:	d081           	addl %d1,%d0
    1626:	241f           	movel %sp@+,%d2
    1628:	2c5f           	moveal %sp@+,%fp
    162a:	588f           	addql #4,%sp
    162c:	4e75           	rts

0000162e <malloc_get_block_ptr>:
    162e:	70f4           	moveq #-12,%d0
    1630:	d0af 0004      	addl %sp@(4),%d0
    1634:	4e75           	rts

00001636 <free>:
    1636:	206f 0004      	moveal %sp@(4),%a0
    163a:	b0fc 0000      	cmpaw #0,%a0
    163e:	6706           	beqs 1646 <free+0x10>
    1640:	7001           	moveq #1,%d0
    1642:	2140 fffc      	movel %d0,%a0@(-4)
    1646:	4e75           	rts

00001648 <realloc>:
    1648:	48e7 3020      	moveml %d2-%d3/%a2,%sp@-
    164c:	246f 0010      	moveal %sp@(16),%a2
    1650:	202f 0014      	movel %sp@(20),%d0
    1654:	b4fc 0000      	cmpaw #0,%a2
    1658:	660c           	bnes 1666 <realloc+0x1e>
    165a:	2f40 0010      	movel %d0,%sp@(16)
    165e:	4cdf 040c      	moveml %sp@+,%d2-%d3/%a2
    1662:	6000 ff48      	braw 15ac <malloc>
    1666:	262a fff4      	movel %a2@(-12),%d3
    166a:	b680           	cmpl %d0,%d3
    166c:	6c24           	bges 1692 <realloc+0x4a>
    166e:	2f00           	movel %d0,%sp@-
    1670:	4eba ff3a      	jsr %pc@(15ac <malloc>)
    1674:	2400           	movel %d0,%d2
    1676:	588f           	addql #4,%sp
    1678:	671c           	beqs 1696 <realloc+0x4e>
    167a:	2f03           	movel %d3,%sp@-
    167c:	2f0a           	movel %a2,%sp@-
    167e:	2f00           	movel %d0,%sp@-
    1680:	4eba fe0e      	jsr %pc@(1490 <memcpy>)
    1684:	2f0a           	movel %a2,%sp@-
    1686:	4eba ffae      	jsr %pc@(1636 <free>)
    168a:	4fef 0010      	lea %sp@(16),%sp
    168e:	2002           	movel %d2,%d0
    1690:	6006           	bras 1698 <realloc+0x50>
    1692:	200a           	movel %a2,%d0
    1694:	6002           	bras 1698 <realloc+0x50>
    1696:	7000           	moveq #0,%d0
    1698:	4cdf 040c      	moveml %sp@+,%d2-%d3/%a2
    169c:	4e75           	rts

0000169e <calloc>:
    169e:	2f03           	movel %d3,%sp@-
    16a0:	2f02           	movel %d2,%sp@-
    16a2:	2f2f 0010      	movel %sp@(16),%sp@-
    16a6:	2f2f 0010      	movel %sp@(16),%sp@-
    16aa:	4eb9 0000 468c 	jsr 468c <__mulsi3>
    16b0:	508f           	addql #8,%sp
    16b2:	2600           	movel %d0,%d3
    16b4:	2f00           	movel %d0,%sp@-
    16b6:	4eba fef4      	jsr %pc@(15ac <malloc>)
    16ba:	2400           	movel %d0,%d2
    16bc:	2f03           	movel %d3,%sp@-
    16be:	42a7           	clrl %sp@-
    16c0:	2f00           	movel %d0,%sp@-
    16c2:	4eba fdea      	jsr %pc@(14ae <memset>)
    16c6:	4fef 0010      	lea %sp@(16),%sp
    16ca:	2002           	movel %d2,%d0
    16cc:	241f           	movel %sp@+,%d2
    16ce:	261f           	movel %sp@+,%d3
    16d0:	4e75           	rts
	...

000016d4 <number>:
    16d4:	4fef ffb8      	lea %sp@(-72),%sp
    16d8:	48e7 3f3e      	moveml %d2-%d7/%a2-%fp,%sp@-
    16dc:	246f 0078      	moveal %sp@(120),%a2
    16e0:	2c2f 007c      	movel %sp@(124),%d6
    16e4:	2a2f 0080      	movel %sp@(128),%d5
    16e8:	242f 0084      	movel %sp@(132),%d2
    16ec:	282f 008c      	movel %sp@(140),%d4
    16f0:	0804 0004      	btst #4,%d4
    16f4:	6704           	beqs 16fa <number+0x26>
    16f6:	70fe           	moveq #-2,%d0
    16f8:	c880           	andl %d0,%d4
    16fa:	2005           	movel %d5,%d0
    16fc:	5580           	subql #2,%d0
    16fe:	7222           	moveq #34,%d1
    1700:	b280           	cmpl %d0,%d1
    1702:	6500 0166      	bcsw 186a <number+0x196>
    1706:	0804 0000      	btst #0,%d4
    170a:	6604           	bnes 1710 <number+0x3c>
    170c:	7220           	moveq #32,%d1
    170e:	6002           	bras 1712 <number+0x3e>
    1710:	7230           	moveq #48,%d1
    1712:	0804 0001      	btst #1,%d4
    1716:	6720           	beqs 1738 <number+0x64>
    1718:	4a86           	tstl %d6
    171a:	6c08           	bges 1724 <number+0x50>
    171c:	4486           	negl %d6
    171e:	5382           	subql #1,%d2
    1720:	7e2d           	moveq #45,%d7
    1722:	6016           	bras 173a <number+0x66>
    1724:	44c4           	movew %d4,%ccr
    1726:	6606           	bnes 172e <number+0x5a>
    1728:	5382           	subql #1,%d2
    172a:	7e2b           	moveq #43,%d7
    172c:	600c           	bras 173a <number+0x66>
    172e:	44c4           	movew %d4,%ccr
    1730:	6a06           	bpls 1738 <number+0x64>
    1732:	5382           	subql #1,%d2
    1734:	7e20           	moveq #32,%d7
    1736:	6002           	bras 173a <number+0x66>
    1738:	4207           	clrb %d7
    173a:	7020           	moveq #32,%d0
    173c:	c084           	andl %d4,%d0
    173e:	2840           	moveal %d0,%a4
    1740:	6712           	beqs 1754 <number+0x80>
    1742:	7010           	moveq #16,%d0
    1744:	b085           	cmpl %d5,%d0
    1746:	6604           	bnes 174c <number+0x78>
    1748:	5582           	subql #2,%d2
    174a:	6008           	bras 1754 <number+0x80>
    174c:	7008           	moveq #8,%d0
    174e:	b085           	cmpl %d5,%d0
    1750:	6602           	bnes 1754 <number+0x80>
    1752:	5382           	subql #1,%d2
    1754:	4a86           	tstl %d6
    1756:	660a           	bnes 1762 <number+0x8e>
    1758:	1f7c 0030 0032 	moveb #48,%sp@(50)
    175e:	7601           	moveq #1,%d3
    1760:	603e           	bras 17a0 <number+0xcc>
    1762:	97cb           	subal %a3,%a3
    1764:	4df9 0000 46b0 	lea 46b0 <__udivsi3>,%fp
    176a:	260b           	movel %a3,%d3
    176c:	5283           	addql #1,%d3
    176e:	2a46           	moveal %d6,%a5
    1770:	2f05           	movel %d5,%sp@-
    1772:	2f06           	movel %d6,%sp@-
    1774:	2f41 0036      	movel %d1,%sp@(54)
    1778:	4e96           	jsr %fp@
    177a:	508f           	addql #8,%sp
    177c:	2c00           	movel %d0,%d6
    177e:	2f05           	movel %d5,%sp@-
    1780:	2f0d           	movel %a5,%sp@-
    1782:	4eb9 0000 473c 	jsr 473c <__umodsi3>
    1788:	508f           	addql #8,%sp
    178a:	41f9 0000 9260 	lea 9260 <diskLibrary+0x60>,%a0
    1790:	1fb0 0800 b832 	moveb %a0@(00000000,%d0:l),%sp@(00000032,%a3:l)
    1796:	2643           	moveal %d3,%a3
    1798:	222f 002e      	movel %sp@(46),%d1
    179c:	4a86           	tstl %d6
    179e:	66ca           	bnes 176a <number+0x96>
    17a0:	2243           	moveal %d3,%a1
    17a2:	b6af 0088      	cmpl %sp@(136),%d3
    17a6:	6c04           	bges 17ac <number+0xd8>
    17a8:	226f 0088      	moveal %sp@(136),%a1
    17ac:	9489           	subl %a1,%d2
    17ae:	7011           	moveq #17,%d0
    17b0:	c084           	andl %d4,%d0
    17b2:	661e           	bnes 17d2 <number+0xfe>
    17b4:	264a           	moveal %a2,%a3
    17b6:	2002           	movel %d2,%d0
    17b8:	908b           	subl %a3,%d0
    17ba:	d08a           	addl %a2,%d0
    17bc:	4a80           	tstl %d0
    17be:	6f06           	bles 17c6 <number+0xf2>
    17c0:	16fc 0020      	moveb #32,%a3@+
    17c4:	60f0           	bras 17b6 <number+0xe2>
    17c6:	2c02           	movel %d2,%d6
    17c8:	6c02           	bges 17cc <number+0xf8>
    17ca:	7c00           	moveq #0,%d6
    17cc:	d5c6           	addal %d6,%a2
    17ce:	5382           	subql #1,%d2
    17d0:	9486           	subl %d6,%d2
    17d2:	4a07           	tstb %d7
    17d4:	6704           	beqs 17da <number+0x106>
    17d6:	1487           	moveb %d7,%a2@
    17d8:	528a           	addql #1,%a2
    17da:	b8fc 0000      	cmpaw #0,%a4
    17de:	6720           	beqs 1800 <number+0x12c>
    17e0:	7008           	moveq #8,%d0
    17e2:	b085           	cmpl %d5,%d0
    17e4:	6608           	bnes 17ee <number+0x11a>
    17e6:	14bc 0030      	moveb #48,%a2@
    17ea:	528a           	addql #1,%a2
    17ec:	6012           	bras 1800 <number+0x12c>
    17ee:	7010           	moveq #16,%d0
    17f0:	b085           	cmpl %d5,%d0
    17f2:	660c           	bnes 1800 <number+0x12c>
    17f4:	14bc 0030      	moveb #48,%a2@
    17f8:	157c 0078 0001 	moveb #120,%a2@(1)
    17fe:	548a           	addql #2,%a2
    1800:	0804 0004      	btst #4,%d4
    1804:	661c           	bnes 1822 <number+0x14e>
    1806:	204a           	moveal %a2,%a0
    1808:	2002           	movel %d2,%d0
    180a:	9088           	subl %a0,%d0
    180c:	d08a           	addl %a2,%d0
    180e:	4a80           	tstl %d0
    1810:	6f04           	bles 1816 <number+0x142>
    1812:	10c1           	moveb %d1,%a0@+
    1814:	60f2           	bras 1808 <number+0x134>
    1816:	2202           	movel %d2,%d1
    1818:	6c02           	bges 181c <number+0x148>
    181a:	7200           	moveq #0,%d1
    181c:	d5c1           	addal %d1,%a2
    181e:	5382           	subql #1,%d2
    1820:	9481           	subl %d1,%d2
    1822:	204a           	moveal %a2,%a0
    1824:	2009           	movel %a1,%d0
    1826:	9088           	subl %a0,%d0
    1828:	d08a           	addl %a2,%d0
    182a:	b680           	cmpl %d0,%d3
    182c:	6c06           	bges 1834 <number+0x160>
    182e:	10fc 0030      	moveb #48,%a0@+
    1832:	60f0           	bras 1824 <number+0x150>
    1834:	2248           	moveal %a0,%a1
    1836:	2003           	movel %d3,%d0
    1838:	51c8 0010      	dbf %d0,184a <number+0x176>
    183c:	4240           	clrw %d0
    183e:	5380           	subql #1,%d0
    1840:	6408           	bccs 184a <number+0x176>
    1842:	2008           	movel %a0,%d0
    1844:	d083           	addl %d3,%d0
    1846:	2040           	moveal %d0,%a0
    1848:	6006           	bras 1850 <number+0x17c>
    184a:	12f7 0832      	moveb %sp@(00000032,%d0:l),%a1@+
    184e:	60e8           	bras 1838 <number+0x164>
    1850:	2202           	movel %d2,%d1
    1852:	9288           	subl %a0,%d1
    1854:	d280           	addl %d0,%d1
    1856:	4a81           	tstl %d1
    1858:	6f06           	bles 1860 <number+0x18c>
    185a:	10fc 0020      	moveb #32,%a0@+
    185e:	60f0           	bras 1850 <number+0x17c>
    1860:	4a82           	tstl %d2
    1862:	6c02           	bges 1866 <number+0x192>
    1864:	7400           	moveq #0,%d2
    1866:	d082           	addl %d2,%d0
    1868:	6002           	bras 186c <number+0x198>
    186a:	7000           	moveq #0,%d0
    186c:	4cdf 7cfc      	moveml %sp@+,%d2-%d7/%a2-%fp
    1870:	4fef 0048      	lea %sp@(72),%sp
    1874:	4e75           	rts

00001876 <strnlen>:
    1876:	202f 0004      	movel %sp@(4),%d0
    187a:	2040           	moveal %d0,%a0
    187c:	2240           	moveal %d0,%a1
    187e:	d3ef 0008      	addal %sp@(8),%a1
    1882:	b3c8           	cmpal %a0,%a1
    1884:	6606           	bnes 188c <strnlen+0x16>
    1886:	91c0           	subal %d0,%a0
    1888:	2008           	movel %a0,%d0
    188a:	4e75           	rts
    188c:	2208           	movel %a0,%d1
    188e:	5281           	addql #1,%d1
    1890:	4a10           	tstb %a0@
    1892:	67f2           	beqs 1886 <strnlen+0x10>
    1894:	2041           	moveal %d1,%a0
    1896:	60ea           	bras 1882 <strnlen+0xc>

00001898 <vsprintf>:
    1898:	48e7 3e3e      	moveml %d2-%d6/%a2-%fp,%sp@-
    189c:	282f 002c      	movel %sp@(44),%d4
    18a0:	286f 0030      	moveal %sp@(48),%a4
    18a4:	266f 0034      	moveal %sp@(52),%a3
    18a8:	2444           	moveal %d4,%a2
    18aa:	4bfa fe28      	lea %pc@(16d4 <number>),%a5
    18ae:	4dfa ffc6      	lea %pc@(1876 <strnlen>),%fp
    18b2:	1014           	moveb %a4@,%d0
    18b4:	6700 02a8      	beqw 1b5e <vsprintf+0x2c6>
    18b8:	0c00 0025      	cmpib #37,%d0
    18bc:	6600 026e      	bnew 1b2c <vsprintf+0x294>
    18c0:	7600           	moveq #0,%d3
    18c2:	204c           	moveal %a4,%a0
    18c4:	5288           	addql #1,%a0
    18c6:	1010           	moveb %a0@,%d0
    18c8:	0c00 002b      	cmpib #43,%d0
    18cc:	6726           	beqs 18f4 <vsprintf+0x5c>
    18ce:	6e10           	bgts 18e0 <vsprintf+0x48>
    18d0:	0c00 0020      	cmpib #32,%d0
    18d4:	6722           	beqs 18f8 <vsprintf+0x60>
    18d6:	0c00 0023      	cmpib #35,%d0
    18da:	662a           	bnes 1906 <vsprintf+0x6e>
    18dc:	7020           	moveq #32,%d0
    18de:	601e           	bras 18fe <vsprintf+0x66>
    18e0:	0c00 002d      	cmpib #45,%d0
    18e4:	670a           	beqs 18f0 <vsprintf+0x58>
    18e6:	0c00 0030      	cmpib #48,%d0
    18ea:	661a           	bnes 1906 <vsprintf+0x6e>
    18ec:	7201           	moveq #1,%d1
    18ee:	6012           	bras 1902 <vsprintf+0x6a>
    18f0:	7010           	moveq #16,%d0
    18f2:	600a           	bras 18fe <vsprintf+0x66>
    18f4:	7204           	moveq #4,%d1
    18f6:	600a           	bras 1902 <vsprintf+0x6a>
    18f8:	7c08           	moveq #8,%d6
    18fa:	8686           	orl %d6,%d3
    18fc:	60c6           	bras 18c4 <vsprintf+0x2c>
    18fe:	8680           	orl %d0,%d3
    1900:	60c2           	bras 18c4 <vsprintf+0x2c>
    1902:	8681           	orl %d1,%d3
    1904:	60be           	bras 18c4 <vsprintf+0x2c>
    1906:	1200           	moveb %d0,%d1
    1908:	0601 ffd0      	addib #-48,%d1
    190c:	0c01 0009      	cmpib #9,%d1
    1910:	622a           	bhis 193c <vsprintf+0xa4>
    1912:	2248           	moveal %a0,%a1
    1914:	7400           	moveq #0,%d2
    1916:	2049           	moveal %a1,%a0
    1918:	1219           	moveb %a1@+,%d1
    191a:	1001           	moveb %d1,%d0
    191c:	0600 ffd0      	addib #-48,%d0
    1920:	0c00 0009      	cmpib #9,%d0
    1924:	6234           	bhis 195a <vsprintf+0xc2>
    1926:	2002           	movel %d2,%d0
    1928:	d082           	addl %d2,%d0
    192a:	d080           	addl %d0,%d0
    192c:	d480           	addl %d0,%d2
    192e:	2042           	moveal %d2,%a0
    1930:	d1c2           	addal %d2,%a0
    1932:	4881           	extw %d1
    1934:	41f0 10d0      	lea %a0@(ffffffd0,%d1:w),%a0
    1938:	2408           	movel %a0,%d2
    193a:	60da           	bras 1916 <vsprintf+0x7e>
    193c:	0c00 002a      	cmpib #42,%d0
    1940:	6612           	bnes 1954 <vsprintf+0xbc>
    1942:	5288           	addql #1,%a0
    1944:	200b           	movel %a3,%d0
    1946:	5880           	addql #4,%d0
    1948:	2413           	movel %a3@,%d2
    194a:	6c0c           	bges 1958 <vsprintf+0xc0>
    194c:	4482           	negl %d2
    194e:	7c10           	moveq #16,%d6
    1950:	8686           	orl %d6,%d3
    1952:	6004           	bras 1958 <vsprintf+0xc0>
    1954:	74ff           	moveq #-1,%d2
    1956:	6002           	bras 195a <vsprintf+0xc2>
    1958:	2640           	moveal %d0,%a3
    195a:	0c10 002e      	cmpib #46,%a0@
    195e:	6654           	bnes 19b4 <vsprintf+0x11c>
    1960:	49e8 0001      	lea %a0@(1),%a4
    1964:	1028 0001      	moveb %a0@(1),%d0
    1968:	1200           	moveb %d0,%d1
    196a:	0601 ffd0      	addib #-48,%d1
    196e:	0c01 0009      	cmpib #9,%d1
    1972:	6226           	bhis 199a <vsprintf+0x102>
    1974:	224c           	moveal %a4,%a1
    1976:	91c8           	subal %a0,%a0
    1978:	2849           	moveal %a1,%a4
    197a:	1219           	moveb %a1@+,%d1
    197c:	1001           	moveb %d1,%d0
    197e:	0600 ffd0      	addib #-48,%d0
    1982:	0c00 0009      	cmpib #9,%d0
    1986:	6236           	bhis 19be <vsprintf+0x126>
    1988:	2008           	movel %a0,%d0
    198a:	d088           	addl %a0,%d0
    198c:	d080           	addl %d0,%d0
    198e:	d1c0           	addal %d0,%a0
    1990:	d1c8           	addal %a0,%a0
    1992:	4881           	extw %d1
    1994:	41f0 10d0      	lea %a0@(ffffffd0,%d1:w),%a0
    1998:	60de           	bras 1978 <vsprintf+0xe0>
    199a:	0c00 002a      	cmpib #42,%d0
    199e:	661c           	bnes 19bc <vsprintf+0x124>
    19a0:	49e8 0002      	lea %a0@(2),%a4
    19a4:	200b           	movel %a3,%d0
    19a6:	5880           	addql #4,%d0
    19a8:	2053           	moveal %a3@,%a0
    19aa:	2640           	moveal %d0,%a3
    19ac:	b0fc 0000      	cmpaw #0,%a0
    19b0:	6c0c           	bges 19be <vsprintf+0x126>
    19b2:	6008           	bras 19bc <vsprintf+0x124>
    19b4:	2848           	moveal %a0,%a4
    19b6:	307c ffff      	moveaw #-1,%a0
    19ba:	6002           	bras 19be <vsprintf+0x126>
    19bc:	91c8           	subal %a0,%a0
    19be:	1014           	moveb %a4@,%d0
    19c0:	0c00 0068      	cmpib #104,%d0
    19c4:	670c           	beqs 19d2 <vsprintf+0x13a>
    19c6:	1200           	moveb %d0,%d1
    19c8:	0201 ffdf      	andib #-33,%d1
    19cc:	0c01 004c      	cmpib #76,%d1
    19d0:	6608           	bnes 19da <vsprintf+0x142>
    19d2:	4880           	extw %d0
    19d4:	3240           	moveaw %d0,%a1
    19d6:	528c           	addql #1,%a4
    19d8:	6004           	bras 19de <vsprintf+0x146>
    19da:	327c ffff      	moveaw #-1,%a1
    19de:	1014           	moveb %a4@,%d0
    19e0:	0c00 006e      	cmpib #110,%d0
    19e4:	6700 010e      	beqw 1af4 <vsprintf+0x25c>
    19e8:	6e2c           	bgts 1a16 <vsprintf+0x17e>
    19ea:	0c00 0063      	cmpib #99,%d0
    19ee:	6756           	beqs 1a46 <vsprintf+0x1ae>
    19f0:	6e10           	bgts 1a02 <vsprintf+0x16a>
    19f2:	0c00 0058      	cmpib #88,%d0
    19f6:	6600 0124      	bnew 1b1c <vsprintf+0x284>
    19fa:	7040           	moveq #64,%d0
    19fc:	8680           	orl %d0,%d3
    19fe:	6000 0112      	braw 1b12 <vsprintf+0x27a>
    1a02:	0c00 0064      	cmpib #100,%d0
    1a06:	6700 010e      	beqw 1b16 <vsprintf+0x27e>
    1a0a:	0c00 0069      	cmpib #105,%d0
    1a0e:	6700 0106      	beqw 1b16 <vsprintf+0x27e>
    1a12:	6000 0108      	braw 1b1c <vsprintf+0x284>
    1a16:	0c00 0073      	cmpib #115,%d0
    1a1a:	6754           	beqs 1a70 <vsprintf+0x1d8>
    1a1c:	6e14           	bgts 1a32 <vsprintf+0x19a>
    1a1e:	0c00 006f      	cmpib #111,%d0
    1a22:	6700 0116      	beqw 1b3a <vsprintf+0x2a2>
    1a26:	0c00 0070      	cmpib #112,%d0
    1a2a:	6700 009e      	beqw 1aca <vsprintf+0x232>
    1a2e:	6000 00ec      	braw 1b1c <vsprintf+0x284>
    1a32:	0c00 0075      	cmpib #117,%d0
    1a36:	6700 00fe      	beqw 1b36 <vsprintf+0x29e>
    1a3a:	0c00 0078      	cmpib #120,%d0
    1a3e:	6700 00d2      	beqw 1b12 <vsprintf+0x27a>
    1a42:	6000 00d8      	braw 1b1c <vsprintf+0x284>
    1a46:	0803 0004      	btst #4,%d3
    1a4a:	660c           	bnes 1a58 <vsprintf+0x1c0>
    1a4c:	5382           	subql #1,%d2
    1a4e:	4a82           	tstl %d2
    1a50:	6f06           	bles 1a58 <vsprintf+0x1c0>
    1a52:	14fc 0020      	moveb #32,%a2@+
    1a56:	60f4           	bras 1a4c <vsprintf+0x1b4>
    1a58:	200b           	movel %a3,%d0
    1a5a:	5880           	addql #4,%d0
    1a5c:	14ab 0003      	moveb %a3@(3),%a2@
    1a60:	528a           	addql #1,%a2
    1a62:	5382           	subql #1,%d2
    1a64:	4a82           	tstl %d2
    1a66:	6f00 009e      	blew 1b06 <vsprintf+0x26e>
    1a6a:	14fc 0020      	moveb #32,%a2@+
    1a6e:	60f2           	bras 1a62 <vsprintf+0x1ca>
    1a70:	2a0b           	movel %a3,%d5
    1a72:	5885           	addql #4,%d5
    1a74:	2653           	moveal %a3@,%a3
    1a76:	b6fc 0000      	cmpaw #0,%a3
    1a7a:	6606           	bnes 1a82 <vsprintf+0x1ea>
    1a7c:	47f9 0000 9285 	lea 9285 <diskLibrary+0x85>,%a3
    1a82:	2f08           	movel %a0,%sp@-
    1a84:	2f0b           	movel %a3,%sp@-
    1a86:	4e96           	jsr %fp@
    1a88:	508f           	addql #8,%sp
    1a8a:	0803 0004      	btst #4,%d3
    1a8e:	6610           	bnes 1aa0 <vsprintf+0x208>
    1a90:	5382           	subql #1,%d2
    1a92:	2202           	movel %d2,%d1
    1a94:	5281           	addql #1,%d1
    1a96:	b081           	cmpl %d1,%d0
    1a98:	6c06           	bges 1aa0 <vsprintf+0x208>
    1a9a:	14fc 0020      	moveb #32,%a2@+
    1a9e:	60f0           	bras 1a90 <vsprintf+0x1f8>
    1aa0:	7200           	moveq #0,%d1
    1aa2:	b081           	cmpl %d1,%d0
    1aa4:	6f0a           	bles 1ab0 <vsprintf+0x218>
    1aa6:	15b3 1800 1800 	moveb %a3@(00000000,%d1:l),%a2@(00000000,%d1:l)
    1aac:	5281           	addql #1,%d1
    1aae:	60f2           	bras 1aa2 <vsprintf+0x20a>
    1ab0:	2200           	movel %d0,%d1
    1ab2:	6c02           	bges 1ab6 <vsprintf+0x21e>
    1ab4:	7200           	moveq #0,%d1
    1ab6:	d5c1           	addal %d1,%a2
    1ab8:	204a           	moveal %a2,%a0
    1aba:	2202           	movel %d2,%d1
    1abc:	928a           	subl %a2,%d1
    1abe:	d288           	addl %a0,%d1
    1ac0:	b081           	cmpl %d1,%d0
    1ac2:	6c2c           	bges 1af0 <vsprintf+0x258>
    1ac4:	14fc 0020      	moveb #32,%a2@+
    1ac8:	60f0           	bras 1aba <vsprintf+0x222>
    1aca:	70ff           	moveq #-1,%d0
    1acc:	b082           	cmpl %d2,%d0
    1ace:	6606           	bnes 1ad6 <vsprintf+0x23e>
    1ad0:	7201           	moveq #1,%d1
    1ad2:	8681           	orl %d1,%d3
    1ad4:	7408           	moveq #8,%d2
    1ad6:	2a0b           	movel %a3,%d5
    1ad8:	5885           	addql #4,%d5
    1ada:	2f03           	movel %d3,%sp@-
    1adc:	2f08           	movel %a0,%sp@-
    1ade:	2f02           	movel %d2,%sp@-
    1ae0:	4878 0010      	pea 10 <__DYNAMIC+0x10>
    1ae4:	2f13           	movel %a3@,%sp@-
    1ae6:	2f0a           	movel %a2,%sp@-
    1ae8:	4e95           	jsr %a5@
    1aea:	2440           	moveal %d0,%a2
    1aec:	4fef 0018      	lea %sp@(24),%sp
    1af0:	2645           	moveal %d5,%a3
    1af2:	6064           	bras 1b58 <vsprintf+0x2c0>
    1af4:	200b           	movel %a3,%d0
    1af6:	5880           	addql #4,%d0
    1af8:	7c6c           	moveq #108,%d6
    1afa:	2053           	moveal %a3@,%a0
    1afc:	bc89           	cmpl %a1,%d6
    1afe:	660a           	bnes 1b0a <vsprintf+0x272>
    1b00:	220a           	movel %a2,%d1
    1b02:	9284           	subl %d4,%d1
    1b04:	2081           	movel %d1,%a0@
    1b06:	2640           	moveal %d0,%a3
    1b08:	604e           	bras 1b58 <vsprintf+0x2c0>
    1b0a:	2c0a           	movel %a2,%d6
    1b0c:	9c84           	subl %d4,%d6
    1b0e:	2086           	movel %d6,%a0@
    1b10:	60f4           	bras 1b06 <vsprintf+0x26e>
    1b12:	7210           	moveq #16,%d1
    1b14:	6026           	bras 1b3c <vsprintf+0x2a4>
    1b16:	7202           	moveq #2,%d1
    1b18:	8681           	orl %d1,%d3
    1b1a:	601a           	bras 1b36 <vsprintf+0x29e>
    1b1c:	0c00 0025      	cmpib #37,%d0
    1b20:	6706           	beqs 1b28 <vsprintf+0x290>
    1b22:	14bc 0025      	moveb #37,%a2@
    1b26:	528a           	addql #1,%a2
    1b28:	1014           	moveb %a4@,%d0
    1b2a:	6706           	beqs 1b32 <vsprintf+0x29a>
    1b2c:	1480           	moveb %d0,%a2@
    1b2e:	528a           	addql #1,%a2
    1b30:	6026           	bras 1b58 <vsprintf+0x2c0>
    1b32:	538c           	subql #1,%a4
    1b34:	6022           	bras 1b58 <vsprintf+0x2c0>
    1b36:	720a           	moveq #10,%d1
    1b38:	6002           	bras 1b3c <vsprintf+0x2a4>
    1b3a:	7208           	moveq #8,%d1
    1b3c:	2a0b           	movel %a3,%d5
    1b3e:	5885           	addql #4,%d5
    1b40:	2013           	movel %a3@,%d0
    1b42:	2645           	moveal %d5,%a3
    1b44:	2f03           	movel %d3,%sp@-
    1b46:	2f08           	movel %a0,%sp@-
    1b48:	2f02           	movel %d2,%sp@-
    1b4a:	2f01           	movel %d1,%sp@-
    1b4c:	2f00           	movel %d0,%sp@-
    1b4e:	2f0a           	movel %a2,%sp@-
    1b50:	4e95           	jsr %a5@
    1b52:	2440           	moveal %d0,%a2
    1b54:	4fef 0018      	lea %sp@(24),%sp
    1b58:	528c           	addql #1,%a4
    1b5a:	6000 fd56      	braw 18b2 <vsprintf+0x1a>
    1b5e:	4212           	clrb %a2@
    1b60:	200a           	movel %a2,%d0
    1b62:	9084           	subl %d4,%d0
    1b64:	4cdf 7c7c      	moveml %sp@+,%d2-%d6/%a2-%fp
    1b68:	4e75           	rts

00001b6a <sprintf>:
    1b6a:	4e56 0000      	linkw %fp,#0
    1b6e:	486e 0010      	pea %fp@(16)
    1b72:	2f2e 000c      	movel %fp@(12),%sp@-
    1b76:	2f2e 0008      	movel %fp@(8),%sp@-
    1b7a:	4eba fd1c      	jsr %pc@(1898 <vsprintf>)
    1b7e:	4fef 000c      	lea %sp@(12),%sp
    1b82:	4e5e           	unlk %fp
    1b84:	4e75           	rts
	...

00001b88 <ld_dword>:
    1b88:	206f 0004      	moveal %sp@(4),%a0
    1b8c:	7000           	moveq #0,%d0
    1b8e:	1028 0003      	moveb %a0@(3),%d0
    1b92:	e188           	lsll #8,%d0
    1b94:	8028 0002      	orb %a0@(2),%d0
    1b98:	e188           	lsll #8,%d0
    1b9a:	8028 0001      	orb %a0@(1),%d0
    1b9e:	e188           	lsll #8,%d0
    1ba0:	8010           	orb %a0@,%d0
    1ba2:	4e75           	rts

00001ba4 <mem_cmp>:
    1ba4:	2f0a           	movel %a2,%sp@-
    1ba6:	2f02           	movel %d2,%sp@-
    1ba8:	226f 000c      	moveal %sp@(12),%a1
    1bac:	206f 0014      	moveal %sp@(20),%a0
    1bb0:	5388           	subql #1,%a0
    1bb2:	7200           	moveq #0,%d1
    1bb4:	7000           	moveq #0,%d0
    1bb6:	1031 1800      	moveb %a1@(00000000,%d1:l),%d0
    1bba:	246f 0010      	moveal %sp@(16),%a2
    1bbe:	7400           	moveq #0,%d2
    1bc0:	1432 1800      	moveb %a2@(00000000,%d1:l),%d2
    1bc4:	9082           	subl %d2,%d0
    1bc6:	b288           	cmpl %a0,%d1
    1bc8:	6706           	beqs 1bd0 <mem_cmp+0x2c>
    1bca:	5281           	addql #1,%d1
    1bcc:	4a80           	tstl %d0
    1bce:	67e4           	beqs 1bb4 <mem_cmp+0x10>
    1bd0:	241f           	movel %sp@+,%d2
    1bd2:	245f           	moveal %sp@+,%a2
    1bd4:	4e75           	rts

00001bd6 <clst2sect>:
    1bd6:	2f0a           	movel %a2,%sp@-
    1bd8:	246f 0008      	moveal %sp@(8),%a2
    1bdc:	202f 000c      	movel %sp@(12),%d0
    1be0:	5580           	subql #2,%d0
    1be2:	222a 0018      	movel %a2@(24),%d1
    1be6:	5581           	subql #2,%d1
    1be8:	b280           	cmpl %d0,%d1
    1bea:	6318           	blss 1c04 <clst2sect+0x2e>
    1bec:	7200           	moveq #0,%d1
    1bee:	322a 000a      	movew %a2@(10),%d1
    1bf2:	2f00           	movel %d0,%sp@-
    1bf4:	2f01           	movel %d1,%sp@-
    1bf6:	4eb9 0000 468c 	jsr 468c <__mulsi3>
    1bfc:	508f           	addql #8,%sp
    1bfe:	d0aa 002c      	addl %a2@(44),%d0
    1c02:	6002           	bras 1c06 <clst2sect+0x30>
    1c04:	7000           	moveq #0,%d0
    1c06:	245f           	moveal %sp@+,%a2
    1c08:	4e75           	rts

00001c0a <get_achar>:
    1c0a:	206f 0004      	moveal %sp@(4),%a0
    1c0e:	2010           	movel %a0@,%d0
    1c10:	2200           	movel %d0,%d1
    1c12:	5281           	addql #1,%d1
    1c14:	2081           	movel %d1,%a0@
    1c16:	2040           	moveal %d0,%a0
    1c18:	7000           	moveq #0,%d0
    1c1a:	1010           	moveb %a0@,%d0
    1c1c:	307c ff9f      	moveaw #-97,%a0
    1c20:	d1c0           	addal %d0,%a0
    1c22:	7219           	moveq #25,%d1
    1c24:	b288           	cmpl %a0,%d1
    1c26:	6506           	bcss 1c2e <get_achar+0x24>
    1c28:	72e0           	moveq #-32,%d1
    1c2a:	d081           	addl %d1,%d0
    1c2c:	4e75           	rts
    1c2e:	727f           	moveq #127,%d1
    1c30:	b280           	cmpl %d0,%d1
    1c32:	6410           	bccs 1c44 <get_achar+0x3a>
    1c34:	41f9 0000 92b4 	lea 92b4 <ExCvt>,%a0
    1c3a:	1030 0880      	moveb %a0@(ffffff80,%d0:l),%d0
    1c3e:	0280 0000 00ff 	andil #255,%d0
    1c44:	4e75           	rts

00001c46 <pattern_matching>:
    1c46:	518f           	subql #8,%sp
    1c48:	48e7 383e      	moveml %d2-%d4/%a2-%fp,%sp@-
    1c4c:	286f 002c      	moveal %sp@(44),%a4
    1c50:	242f 0038      	movel %sp@(56),%d2
    1c54:	246f 0034      	moveal %sp@(52),%a2
    1c58:	47ef 0030      	lea %sp@(48),%a3
    1c5c:	4bfa ffac      	lea %pc@(1c0a <get_achar>),%a5
    1c60:	b4fc 0000      	cmpaw #0,%a2
    1c64:	6712           	beqs 1c78 <pattern_matching+0x32>
    1c66:	2f0b           	movel %a3,%sp@-
    1c68:	4e95           	jsr %a5@
    1c6a:	538a           	subql #1,%a2
    1c6c:	588f           	addql #4,%sp
    1c6e:	4a80           	tstl %d0
    1c70:	66ee           	bnes 1c60 <pattern_matching+0x1a>
    1c72:	7000           	moveq #0,%d0
    1c74:	6000 00bc      	braw 1d32 <pattern_matching+0xec>
    1c78:	4a14           	tstb %a4@
    1c7a:	660a           	bnes 1c86 <pattern_matching+0x40>
    1c7c:	4a82           	tstl %d2
    1c7e:	6706           	beqs 1c86 <pattern_matching+0x40>
    1c80:	7001           	moveq #1,%d0
    1c82:	6000 00ae      	braw 1d32 <pattern_matching+0xec>
    1c86:	47fa ff82      	lea %pc@(1c0a <get_achar>),%a3
    1c8a:	7624           	moveq #36,%d3
    1c8c:	d68f           	addl %sp,%d3
    1c8e:	4bfa ffb6      	lea %pc@(1c46 <pattern_matching>),%a5
    1c92:	4def 0030      	lea %sp@(48),%fp
    1c96:	2f4c 0020      	movel %a4,%sp@(32)
    1c9a:	2f6f 0030 0024 	movel %sp@(48),%sp@(36)
    1ca0:	206f 0020      	moveal %sp@(32),%a0
    1ca4:	1010           	moveb %a0@,%d0
    1ca6:	0c00 003f      	cmpib #63,%d0
    1caa:	6706           	beqs 1cb2 <pattern_matching+0x6c>
    1cac:	0c00 002a      	cmpib #42,%d0
    1cb0:	664c           	bnes 1cfe <pattern_matching+0xb8>
    1cb2:	7200           	moveq #0,%d1
    1cb4:	7000           	moveq #0,%d0
    1cb6:	206f 0020      	moveal %sp@(32),%a0
    1cba:	43e8 0001      	lea %a0@(1),%a1
    1cbe:	2f49 0020      	movel %a1,%sp@(32)
    1cc2:	0c10 003f      	cmpib #63,%a0@
    1cc6:	6604           	bnes 1ccc <pattern_matching+0x86>
    1cc8:	5280           	addql #1,%d0
    1cca:	6002           	bras 1cce <pattern_matching+0x88>
    1ccc:	7201           	moveq #1,%d1
    1cce:	1828 0001      	moveb %a0@(1),%d4
    1cd2:	0c04 003f      	cmpib #63,%d4
    1cd6:	67de           	beqs 1cb6 <pattern_matching+0x70>
    1cd8:	0c04 002a      	cmpib #42,%d4
    1cdc:	67d8           	beqs 1cb6 <pattern_matching+0x70>
    1cde:	2f01           	movel %d1,%sp@-
    1ce0:	2f00           	movel %d0,%sp@-
    1ce2:	2f2f 002c      	movel %sp@(44),%sp@-
    1ce6:	2f09           	movel %a1,%sp@-
    1ce8:	4e95           	jsr %a5@
    1cea:	4fef 0010      	lea %sp@(16),%sp
    1cee:	4a80           	tstl %d0
    1cf0:	668e           	bnes 1c80 <pattern_matching+0x3a>
    1cf2:	206f 0024      	moveal %sp@(36),%a0
    1cf6:	1010           	moveb %a0@,%d0
    1cf8:	4880           	extw %d0
    1cfa:	3440           	moveaw %d0,%a2
    1cfc:	601c           	bras 1d1a <pattern_matching+0xd4>
    1cfe:	486f 0020      	pea %sp@(32)
    1d02:	4e93           	jsr %a3@
    1d04:	2800           	movel %d0,%d4
    1d06:	2f03           	movel %d3,%sp@-
    1d08:	4e93           	jsr %a3@
    1d0a:	2440           	moveal %d0,%a2
    1d0c:	508f           	addql #8,%sp
    1d0e:	b084           	cmpl %d4,%d0
    1d10:	6608           	bnes 1d1a <pattern_matching+0xd4>
    1d12:	4a84           	tstl %d4
    1d14:	668a           	bnes 1ca0 <pattern_matching+0x5a>
    1d16:	6000 ff68      	braw 1c80 <pattern_matching+0x3a>
    1d1a:	2f0e           	movel %fp,%sp@-
    1d1c:	4e93           	jsr %a3@
    1d1e:	588f           	addql #4,%sp
    1d20:	4a82           	tstl %d2
    1d22:	6700 ff4e      	beqw 1c72 <pattern_matching+0x2c>
    1d26:	b4fc 0000      	cmpaw #0,%a2
    1d2a:	6600 ff6a      	bnew 1c96 <pattern_matching+0x50>
    1d2e:	6000 ff42      	braw 1c72 <pattern_matching+0x2c>
    1d32:	4cdf 7c1c      	moveml %sp@+,%d2-%d4/%a2-%fp
    1d36:	508f           	addql #8,%sp
    1d38:	4e75           	rts

00001d3a <get_ldnumber>:
    1d3a:	2f0a           	movel %a2,%sp@-
    1d3c:	246f 0008      	moveal %sp@(8),%a2
    1d40:	2052           	moveal %a2@,%a0
    1d42:	b0fc 0000      	cmpaw #0,%a0
    1d46:	6728           	beqs 1d70 <get_ldnumber+0x36>
    1d48:	2248           	moveal %a0,%a1
    1d4a:	2009           	movel %a1,%d0
    1d4c:	1219           	moveb %a1@+,%d1
    1d4e:	0c01 0020      	cmpib #32,%d1
    1d52:	6318           	blss 1d6c <get_ldnumber+0x32>
    1d54:	0c01 003a      	cmpib #58,%d1
    1d58:	66f0           	bnes 1d4a <get_ldnumber+0x10>
    1d5a:	2208           	movel %a0,%d1
    1d5c:	5281           	addql #1,%d1
    1d5e:	b280           	cmpl %d0,%d1
    1d60:	660e           	bnes 1d70 <get_ldnumber+0x36>
    1d62:	0c10 0030      	cmpib #48,%a0@
    1d66:	6608           	bnes 1d70 <get_ldnumber+0x36>
    1d68:	5280           	addql #1,%d0
    1d6a:	2480           	movel %d0,%a2@
    1d6c:	7000           	moveq #0,%d0
    1d6e:	6002           	bras 1d72 <get_ldnumber+0x38>
    1d70:	70ff           	moveq #-1,%d0
    1d72:	245f           	moveal %sp@+,%a2
    1d74:	4e75           	rts

00001d76 <validate>:
    1d76:	226f 0004      	moveal %sp@(4),%a1
    1d7a:	b2fc 0000      	cmpaw #0,%a1
    1d7e:	671e           	beqs 1d9e <validate+0x28>
    1d80:	2051           	moveal %a1@,%a0
    1d82:	b0fc 0000      	cmpaw #0,%a0
    1d86:	6712           	beqs 1d9a <validate+0x24>
    1d88:	4a10           	tstb %a0@
    1d8a:	6712           	beqs 1d9e <validate+0x28>
    1d8c:	3028 0006      	movew %a0@(6),%d0
    1d90:	b069 0004      	cmpw %a1@(4),%d0
    1d94:	6608           	bnes 1d9e <validate+0x28>
    1d96:	7000           	moveq #0,%d0
    1d98:	6008           	bras 1da2 <validate+0x2c>
    1d9a:	7009           	moveq #9,%d0
    1d9c:	6004           	bras 1da2 <validate+0x2c>
    1d9e:	7009           	moveq #9,%d0
    1da0:	91c8           	subal %a0,%a0
    1da2:	226f 0008      	moveal %sp@(8),%a1
    1da6:	2288           	movel %a0,%a1@
    1da8:	4e75           	rts

00001daa <mem_cpy.part.0>:
    1daa:	206f 0004      	moveal %sp@(4),%a0
    1dae:	226f 0008      	moveal %sp@(8),%a1
    1db2:	7000           	moveq #0,%d0
    1db4:	11b1 0800 0800 	moveb %a1@(00000000,%d0:l),%a0@(00000000,%d0:l)
    1dba:	5280           	addql #1,%d0
    1dbc:	b0af 000c      	cmpl %sp@(12),%d0
    1dc0:	66f2           	bnes 1db4 <mem_cpy.part.0+0xa>
    1dc2:	4e75           	rts

00001dc4 <ld_clust.isra.1>:
    1dc4:	2f02           	movel %d2,%sp@-
    1dc6:	206f 000c      	moveal %sp@(12),%a0
    1dca:	7000           	moveq #0,%d0
    1dcc:	1028 001b      	moveb %a0@(27),%d0
    1dd0:	e188           	lsll #8,%d0
    1dd2:	4241           	clrw %d1
    1dd4:	1228 001a      	moveb %a0@(26),%d1
    1dd8:	8041           	orw %d1,%d0
    1dda:	0280 0000 ffff 	andil #65535,%d0
    1de0:	0c2f 0003 000b 	cmpib #3,%sp@(11)
    1de6:	6616           	bnes 1dfe <ld_clust.isra.1+0x3a>
    1de8:	7200           	moveq #0,%d1
    1dea:	1228 0015      	moveb %a0@(21),%d1
    1dee:	e189           	lsll #8,%d1
    1df0:	4242           	clrw %d2
    1df2:	1428 0014      	moveb %a0@(20),%d2
    1df6:	8242           	orw %d2,%d1
    1df8:	4841           	swap %d1
    1dfa:	4241           	clrw %d1
    1dfc:	8081           	orl %d1,%d0
    1dfe:	241f           	movel %sp@+,%d2
    1e00:	4e75           	rts

00001e02 <st_clust.isra.2>:
    1e02:	206f 0008      	moveal %sp@(8),%a0
    1e06:	202f 000c      	movel %sp@(12),%d0
    1e0a:	1140 001a      	moveb %d0,%a0@(26)
    1e0e:	3200           	movew %d0,%d1
    1e10:	e049           	lsrw #8,%d1
    1e12:	1141 001b      	moveb %d1,%a0@(27)
    1e16:	226f 0004      	moveal %sp@(4),%a1
    1e1a:	0c11 0003      	cmpib #3,%a1@
    1e1e:	660e           	bnes 1e2e <st_clust.isra.2+0x2c>
    1e20:	4240           	clrw %d0
    1e22:	4840           	swap %d0
    1e24:	1140 0014      	moveb %d0,%a0@(20)
    1e28:	e048           	lsrw #8,%d0
    1e2a:	1140 0015      	moveb %d0,%a0@(21)
    1e2e:	4e75           	rts

00001e30 <get_fileinfo.part.3>:
    1e30:	48e7 2030      	moveml %d2/%a2-%a3,%sp@-
    1e34:	266f 0010      	moveal %sp@(16),%a3
    1e38:	246f 0014      	moveal %sp@(20),%a2
    1e3c:	7000           	moveq #0,%d0
    1e3e:	7200           	moveq #0,%d1
    1e40:	2041           	moveal %d1,%a0
    1e42:	5288           	addql #1,%a0
    1e44:	226b 001c      	moveal %a3@(28),%a1
    1e48:	1231 1800      	moveb %a1@(00000000,%d1:l),%d1
    1e4c:	0c01 0020      	cmpib #32,%d1
    1e50:	671c           	beqs 1e6e <get_fileinfo.part.3+0x3e>
    1e52:	0c01 0005      	cmpib #5,%d1
    1e56:	6602           	bnes 1e5a <get_fileinfo.part.3+0x2a>
    1e58:	72e5           	moveq #-27,%d1
    1e5a:	7409           	moveq #9,%d2
    1e5c:	b488           	cmpl %a0,%d2
    1e5e:	6608           	bnes 1e68 <get_fileinfo.part.3+0x38>
    1e60:	15bc 002e 0809 	moveb #46,%a2@(00000009,%d0:l)
    1e66:	5280           	addql #1,%d0
    1e68:	1581 0809      	moveb %d1,%a2@(00000009,%d0:l)
    1e6c:	5280           	addql #1,%d0
    1e6e:	2208           	movel %a0,%d1
    1e70:	740b           	moveq #11,%d2
    1e72:	b488           	cmpl %a0,%d2
    1e74:	66ca           	bnes 1e40 <get_fileinfo.part.3+0x10>
    1e76:	4232 0809      	clrb %a2@(00000009,%d0:l)
    1e7a:	206b 001c      	moveal %a3@(28),%a0
    1e7e:	1568 000b 0008 	moveb %a0@(11),%a2@(8)
    1e84:	701c           	moveq #28,%d0
    1e86:	d0ab 001c      	addl %a3@(28),%d0
    1e8a:	2f00           	movel %d0,%sp@-
    1e8c:	4eba fcfa      	jsr %pc@(1b88 <ld_dword>)
    1e90:	588f           	addql #4,%sp
    1e92:	2480           	movel %d0,%a2@
    1e94:	206b 001c      	moveal %a3@(28),%a0
    1e98:	7000           	moveq #0,%d0
    1e9a:	1028 0017      	moveb %a0@(23),%d0
    1e9e:	e188           	lsll #8,%d0
    1ea0:	4241           	clrw %d1
    1ea2:	1228 0016      	moveb %a0@(22),%d1
    1ea6:	8240           	orw %d0,%d1
    1ea8:	3541 0006      	movew %d1,%a2@(6)
    1eac:	206b 001c      	moveal %a3@(28),%a0
    1eb0:	7000           	moveq #0,%d0
    1eb2:	1028 0019      	moveb %a0@(25),%d0
    1eb6:	e188           	lsll #8,%d0
    1eb8:	4241           	clrw %d1
    1eba:	1228 0018      	moveb %a0@(24),%d1
    1ebe:	8240           	orw %d0,%d1
    1ec0:	3541 0004      	movew %d1,%a2@(4)
    1ec4:	4cdf 0c04      	moveml %sp@+,%d2/%a2-%a3
    1ec8:	4e75           	rts

00001eca <sync_window>:
    1eca:	48e7 0038      	moveml %a2-%a4,%sp@-
    1ece:	246f 0010      	moveal %sp@(16),%a2
    1ed2:	4a2a 0003      	tstb %a2@(3)
    1ed6:	675c           	beqs 1f34 <sync_window+0x6a>
    1ed8:	49ea 0034      	lea %a2@(52),%a4
    1edc:	4878 0001      	pea 1 <__DYNAMIC+0x1>
    1ee0:	2f2a 0030      	movel %a2@(48),%sp@-
    1ee4:	2f0c           	movel %a4,%sp@-
    1ee6:	7000           	moveq #0,%d0
    1ee8:	102a 0001      	moveb %a2@(1),%d0
    1eec:	2f00           	movel %d0,%sp@-
    1eee:	47f9 0000 45f8 	lea 45f8 <disk_write>,%a3
    1ef4:	4e93           	jsr %a3@
    1ef6:	4fef 0010      	lea %sp@(16),%sp
    1efa:	4a80           	tstl %d0
    1efc:	663a           	bnes 1f38 <sync_window+0x6e>
    1efe:	422a 0003      	clrb %a2@(3)
    1f02:	226a 0030      	moveal %a2@(48),%a1
    1f06:	206a 001c      	moveal %a2@(28),%a0
    1f0a:	2009           	movel %a1,%d0
    1f0c:	90aa 0024      	subl %a2@(36),%d0
    1f10:	b1c0           	cmpal %d0,%a0
    1f12:	6320           	blss 1f34 <sync_window+0x6a>
    1f14:	0c2a 0002 0002 	cmpib #2,%a2@(2)
    1f1a:	6618           	bnes 1f34 <sync_window+0x6a>
    1f1c:	4878 0001      	pea 1 <__DYNAMIC+0x1>
    1f20:	4871 8800      	pea %a1@(00000000,%a0:l)
    1f24:	2f0c           	movel %a4,%sp@-
    1f26:	7000           	moveq #0,%d0
    1f28:	102a 0001      	moveb %a2@(1),%d0
    1f2c:	2f00           	movel %d0,%sp@-
    1f2e:	4e93           	jsr %a3@
    1f30:	4fef 0010      	lea %sp@(16),%sp
    1f34:	7000           	moveq #0,%d0
    1f36:	6002           	bras 1f3a <sync_window+0x70>
    1f38:	7001           	moveq #1,%d0
    1f3a:	4cdf 1c00      	moveml %sp@+,%a2-%a4
    1f3e:	4e75           	rts

00001f40 <move_window>:
    1f40:	48e7 3020      	moveml %d2-%d3/%a2,%sp@-
    1f44:	246f 0010      	moveal %sp@(16),%a2
    1f48:	262f 0014      	movel %sp@(20),%d3
    1f4c:	b6aa 0030      	cmpl %a2@(48),%d3
    1f50:	6736           	beqs 1f88 <move_window+0x48>
    1f52:	2f0a           	movel %a2,%sp@-
    1f54:	4eba ff74      	jsr %pc@(1eca <sync_window>)
    1f58:	2400           	movel %d0,%d2
    1f5a:	588f           	addql #4,%sp
    1f5c:	662c           	bnes 1f8a <move_window+0x4a>
    1f5e:	4878 0001      	pea 1 <__DYNAMIC+0x1>
    1f62:	2f03           	movel %d3,%sp@-
    1f64:	486a 0034      	pea %a2@(52)
    1f68:	7000           	moveq #0,%d0
    1f6a:	102a 0001      	moveb %a2@(1),%d0
    1f6e:	2f00           	movel %d0,%sp@-
    1f70:	4eb9 0000 4594 	jsr 4594 <disk_read>
    1f76:	4fef 0010      	lea %sp@(16),%sp
    1f7a:	4a80           	tstl %d0
    1f7c:	6704           	beqs 1f82 <move_window+0x42>
    1f7e:	7401           	moveq #1,%d2
    1f80:	76ff           	moveq #-1,%d3
    1f82:	2543 0030      	movel %d3,%a2@(48)
    1f86:	6002           	bras 1f8a <move_window+0x4a>
    1f88:	7400           	moveq #0,%d2
    1f8a:	2002           	movel %d2,%d0
    1f8c:	4cdf 040c      	moveml %sp@+,%d2-%d3/%a2
    1f90:	4e75           	rts

00001f92 <check_fs>:
    1f92:	2f0b           	movel %a3,%sp@-
    1f94:	2f0a           	movel %a2,%sp@-
    1f96:	246f 000c      	moveal %sp@(12),%a2
    1f9a:	422a 0003      	clrb %a2@(3)
    1f9e:	70ff           	moveq #-1,%d0
    1fa0:	2540 0030      	movel %d0,%a2@(48)
    1fa4:	2f2f 0010      	movel %sp@(16),%sp@-
    1fa8:	2f0a           	movel %a2,%sp@-
    1faa:	4eba ff94      	jsr %pc@(1f40 <move_window>)
    1fae:	508f           	addql #8,%sp
    1fb0:	4a80           	tstl %d0
    1fb2:	6660           	bnes 2014 <check_fs+0x82>
    1fb4:	7000           	moveq #0,%d0
    1fb6:	102a 0233      	moveb %a2@(563),%d0
    1fba:	e188           	lsll #8,%d0
    1fbc:	4241           	clrw %d1
    1fbe:	122a 0232      	moveb %a2@(562),%d1
    1fc2:	8041           	orw %d1,%d0
    1fc4:	0c40 aa55      	cmpiw #-21931,%d0
    1fc8:	664e           	bnes 2018 <check_fs+0x86>
    1fca:	102a 0034      	moveb %a2@(52),%d0
    1fce:	0c00 ffeb      	cmpib #-21,%d0
    1fd2:	670a           	beqs 1fde <check_fs+0x4c>
    1fd4:	0600 0018      	addib #24,%d0
    1fd8:	0c00 0001      	cmpib #1,%d0
    1fdc:	6242           	bhis 2020 <check_fs+0x8e>
    1fde:	4878 0003      	pea 3 <__DYNAMIC+0x3>
    1fe2:	4879 0000 928b 	pea 928b <diskLibrary+0x8b>
    1fe8:	486a 006a      	pea %a2@(106)
    1fec:	47fa fbb6      	lea %pc@(1ba4 <mem_cmp>),%a3
    1ff0:	4e93           	jsr %a3@
    1ff2:	4fef 000c      	lea %sp@(12),%sp
    1ff6:	4a80           	tstl %d0
    1ff8:	6722           	beqs 201c <check_fs+0x8a>
    1ffa:	4878 0005      	pea 5 <__DYNAMIC+0x5>
    1ffe:	4879 0000 928f 	pea 928f <diskLibrary+0x8f>
    2004:	486a 0086      	pea %a2@(134)
    2008:	4e93           	jsr %a3@
    200a:	4fef 000c      	lea %sp@(12),%sp
    200e:	4a80           	tstl %d0
    2010:	660e           	bnes 2020 <check_fs+0x8e>
    2012:	600e           	bras 2022 <check_fs+0x90>
    2014:	7004           	moveq #4,%d0
    2016:	600a           	bras 2022 <check_fs+0x90>
    2018:	7003           	moveq #3,%d0
    201a:	6006           	bras 2022 <check_fs+0x90>
    201c:	4200           	clrb %d0
    201e:	6002           	bras 2022 <check_fs+0x90>
    2020:	7002           	moveq #2,%d0
    2022:	245f           	moveal %sp@+,%a2
    2024:	265f           	moveal %sp@+,%a3
    2026:	4e75           	rts

00002028 <find_volume>:
    2028:	4fef fff0      	lea %sp@(-16),%sp
    202c:	48e7 3f3c      	moveml %d2-%d7/%a2-%a5,%sp@-
    2030:	266f 0040      	moveal %sp@(64),%a3
    2034:	4293           	clrl %a3@
    2036:	2f2f 003c      	movel %sp@(60),%sp@-
    203a:	4eba fcfe      	jsr %pc@(1d3a <get_ldnumber>)
    203e:	588f           	addql #4,%sp
    2040:	4a80           	tstl %d0
    2042:	6d00 0314      	bltw 2358 <find_volume+0x330>
    2046:	2200           	movel %d0,%d1
    2048:	d280           	addl %d0,%d1
    204a:	d281           	addl %d1,%d1
    204c:	41f9 0100 0266 	lea 1000266 <FatFs>,%a0
    2052:	2470 1800      	moveal %a0@(00000000,%d1:l),%a2
    2056:	b4fc 0000      	cmpaw #0,%a2
    205a:	6700 0300      	beqw 235c <find_volume+0x334>
    205e:	268a           	movel %a2,%a3@
    2060:	4a12           	tstb %a2@
    2062:	670e           	beqs 2072 <find_volume+0x4a>
    2064:	1239 0d80 0032 	moveb d800032 <__end+0xc7ffda2>,%d1
    206a:	0801 0000      	btst #0,%d1
    206e:	6600 02f0      	bnew 2360 <find_volume+0x338>
    2072:	4212           	clrb %a2@
    2074:	1540 0001      	moveb %d0,%a2@(1)
    2078:	1039 0d80 0032 	moveb d800032 <__end+0xc7ffda2>,%d0
    207e:	0800 0000      	btst #0,%d0
    2082:	6700 02e0      	beqw 2364 <find_volume+0x33c>
    2086:	42a7           	clrl %sp@-
    2088:	2f0a           	movel %a2,%sp@-
    208a:	47fa ff06      	lea %pc@(1f92 <check_fs>),%a3
    208e:	4e93           	jsr %a3@
    2090:	508f           	addql #8,%sp
    2092:	284b           	moveal %a3,%a4
    2094:	0c00 0002      	cmpib #2,%d0
    2098:	6654           	bnes 20ee <find_volume+0xc6>
    209a:	47ea 01f6      	lea %a2@(502),%a3
    209e:	7400           	moveq #0,%d2
    20a0:	4bfa fae6      	lea %pc@(1b88 <ld_dword>),%a5
    20a4:	4a13           	tstb %a3@
    20a6:	670a           	beqs 20b2 <find_volume+0x8a>
    20a8:	486b 0004      	pea %a3@(4)
    20ac:	4e95           	jsr %a5@
    20ae:	588f           	addql #4,%sp
    20b0:	6002           	bras 20b4 <find_volume+0x8c>
    20b2:	7000           	moveq #0,%d0
    20b4:	2f80 2828      	movel %d0,%sp@(00000028,%d2:l)
    20b8:	47eb 0010      	lea %a3@(16),%a3
    20bc:	5882           	addql #4,%d2
    20be:	7010           	moveq #16,%d0
    20c0:	b082           	cmpl %d2,%d0
    20c2:	66e0           	bnes 20a4 <find_volume+0x7c>
    20c4:	7400           	moveq #0,%d2
    20c6:	2677 2828      	moveal %sp@(00000028,%d2:l),%a3
    20ca:	b6fc 0000      	cmpaw #0,%a3
    20ce:	6710           	beqs 20e0 <find_volume+0xb8>
    20d0:	2f0b           	movel %a3,%sp@-
    20d2:	2f0a           	movel %a2,%sp@-
    20d4:	4e94           	jsr %a4@
    20d6:	508f           	addql #8,%sp
    20d8:	0c00 0001      	cmpib #1,%d0
    20dc:	6204           	bhis 20e2 <find_volume+0xba>
    20de:	6024           	bras 2104 <find_volume+0xdc>
    20e0:	7003           	moveq #3,%d0
    20e2:	5882           	addql #4,%d2
    20e4:	7210           	moveq #16,%d1
    20e6:	b282           	cmpl %d2,%d1
    20e8:	66dc           	bnes 20c6 <find_volume+0x9e>
    20ea:	6000 027c      	braw 2368 <find_volume+0x340>
    20ee:	0c00 0004      	cmpib #4,%d0
    20f2:	6700 027c      	beqw 2370 <find_volume+0x348>
    20f6:	0c00 0001      	cmpib #1,%d0
    20fa:	6306           	blss 2102 <find_volume+0xda>
    20fc:	700d           	moveq #13,%d0
    20fe:	6000 0272      	braw 2372 <find_volume+0x34a>
    2102:	97cb           	subal %a3,%a3
    2104:	7000           	moveq #0,%d0
    2106:	102a 0040      	moveb %a2@(64),%d0
    210a:	e188           	lsll #8,%d0
    210c:	4241           	clrw %d1
    210e:	122a 003f      	moveb %a2@(63),%d1
    2112:	8041           	orw %d1,%d0
    2114:	0c40 0200      	cmpiw #512,%d0
    2118:	66e2           	bnes 20fc <find_volume+0xd4>
    211a:	7400           	moveq #0,%d2
    211c:	142a 004b      	moveb %a2@(75),%d2
    2120:	e18a           	lsll #8,%d2
    2122:	4240           	clrw %d0
    2124:	102a 004a      	moveb %a2@(74),%d0
    2128:	8440           	orw %d0,%d2
    212a:	6708           	beqs 2134 <find_volume+0x10c>
    212c:	0282 0000 ffff 	andil #65535,%d2
    2132:	600c           	bras 2140 <find_volume+0x118>
    2134:	486a 0058      	pea %a2@(88)
    2138:	4eba fa4e      	jsr %pc@(1b88 <ld_dword>)
    213c:	588f           	addql #4,%sp
    213e:	2400           	movel %d0,%d2
    2140:	2542 001c      	movel %d2,%a2@(28)
    2144:	182a 0044      	moveb %a2@(68),%d4
    2148:	1544 0002      	moveb %d4,%a2@(2)
    214c:	1004           	moveb %d4,%d0
    214e:	5300           	subqb #1,%d0
    2150:	0c00 0001      	cmpib #1,%d0
    2154:	62a6           	bhis 20fc <find_volume+0xd4>
    2156:	162a 0041      	moveb %a2@(65),%d3
    215a:	4240           	clrw %d0
    215c:	1003           	moveb %d3,%d0
    215e:	3540 000a      	movew %d0,%a2@(10)
    2162:	6798           	beqs 20fc <find_volume+0xd4>
    2164:	0283 0000 00ff 	andil #255,%d3
    216a:	2003           	movel %d3,%d0
    216c:	5380           	subql #1,%d0
    216e:	c083           	andl %d3,%d0
    2170:	668a           	bnes 20fc <find_volume+0xd4>
    2172:	7e00           	moveq #0,%d7
    2174:	1e2a 0046      	moveb %a2@(70),%d7
    2178:	e18f           	lsll #8,%d7
    217a:	4240           	clrw %d0
    217c:	102a 0045      	moveb %a2@(69),%d0
    2180:	8e40           	orw %d0,%d7
    2182:	3547 0008      	movew %d7,%a2@(8)
    2186:	3007           	movew %d7,%d0
    2188:	0240 000f      	andiw #15,%d0
    218c:	6600 ff6e      	bnew 20fc <find_volume+0xd4>
    2190:	7000           	moveq #0,%d0
    2192:	102a 0048      	moveb %a2@(72),%d0
    2196:	e188           	lsll #8,%d0
    2198:	4241           	clrw %d1
    219a:	122a 0047      	moveb %a2@(71),%d1
    219e:	8041           	orw %d1,%d0
    21a0:	7200           	moveq #0,%d1
    21a2:	3200           	movew %d0,%d1
    21a4:	2841           	moveal %d1,%a4
    21a6:	660c           	bnes 21b4 <find_volume+0x18c>
    21a8:	486a 0054      	pea %a2@(84)
    21ac:	4eba f9da      	jsr %pc@(1b88 <ld_dword>)
    21b0:	588f           	addql #4,%sp
    21b2:	2840           	moveal %d0,%a4
    21b4:	7a00           	moveq #0,%d5
    21b6:	1a2a 0043      	moveb %a2@(67),%d5
    21ba:	e18d           	lsll #8,%d5
    21bc:	4240           	clrw %d0
    21be:	102a 0042      	moveb %a2@(66),%d0
    21c2:	8a40           	orw %d0,%d5
    21c4:	6700 ff36      	beqw 20fc <find_volume+0xd4>
    21c8:	0284 0000 00ff 	andil #255,%d4
    21ce:	2f02           	movel %d2,%sp@-
    21d0:	2f04           	movel %d4,%sp@-
    21d2:	4eb9 0000 468c 	jsr 468c <__mulsi3>
    21d8:	508f           	addql #8,%sp
    21da:	2a40           	moveal %d0,%a5
    21dc:	0285 0000 ffff 	andil #65535,%d5
    21e2:	3c07           	movew %d7,%d6
    21e4:	e84e           	lsrw #4,%d6
    21e6:	0286 0000 ffff 	andil #65535,%d6
    21ec:	dc85           	addl %d5,%d6
    21ee:	dc80           	addl %d0,%d6
    21f0:	bc8c           	cmpl %a4,%d6
    21f2:	6200 ff08      	bhiw 20fc <find_volume+0xd4>
    21f6:	2f03           	movel %d3,%sp@-
    21f8:	99c6           	subal %d6,%a4
    21fa:	2f0c           	movel %a4,%sp@-
    21fc:	4eb9 0000 46b0 	jsr 46b0 <__udivsi3>
    2202:	508f           	addql #8,%sp
    2204:	2200           	movel %d0,%d1
    2206:	5381           	subql #1,%d1
    2208:	0c81 0fff fff4 	cmpil #268435444,%d1
    220e:	6200 feec      	bhiw 20fc <find_volume+0xd4>
    2212:	0c80 0000 fff5 	cmpil #65525,%d0
    2218:	6210           	bhis 222a <find_volume+0x202>
    221a:	0c80 0000 0ff5 	cmpil #4085,%d0
    2220:	52c3           	shi %d3
    2222:	7201           	moveq #1,%d1
    2224:	9203           	subb %d3,%d1
    2226:	1601           	moveb %d1,%d3
    2228:	6002           	bras 222c <find_volume+0x204>
    222a:	7603           	moveq #3,%d3
    222c:	2800           	movel %d0,%d4
    222e:	5484           	addql #2,%d4
    2230:	2544 0018      	movel %d4,%a2@(24)
    2234:	254b 0020      	movel %a3,%a2@(32)
    2238:	da8b           	addl %a3,%d5
    223a:	2545 0024      	movel %d5,%a2@(36)
    223e:	dc8b           	addl %a3,%d6
    2240:	2546 002c      	movel %d6,%a2@(44)
    2244:	0c03 0003      	cmpib #3,%d3
    2248:	6630           	bnes 227a <find_volume+0x252>
    224a:	7000           	moveq #0,%d0
    224c:	102a 005f      	moveb %a2@(95),%d0
    2250:	e188           	lsll #8,%d0
    2252:	4241           	clrw %d1
    2254:	122a 005e      	moveb %a2@(94),%d1
    2258:	8041           	orw %d1,%d0
    225a:	6600 fea0      	bnew 20fc <find_volume+0xd4>
    225e:	4a47           	tstw %d7
    2260:	6600 fe9a      	bnew 20fc <find_volume+0xd4>
    2264:	486a 0060      	pea %a2@(96)
    2268:	4eba f91e      	jsr %pc@(1b88 <ld_dword>)
    226c:	588f           	addql #4,%sp
    226e:	2540 0028      	movel %d0,%a2@(40)
    2272:	2004           	movel %d4,%d0
    2274:	d084           	addl %d4,%d0
    2276:	d080           	addl %d0,%d0
    2278:	6022           	bras 229c <find_volume+0x274>
    227a:	4a47           	tstw %d7
    227c:	6700 fe7e      	beqw 20fc <find_volume+0xd4>
    2280:	da8d           	addl %a5,%d5
    2282:	2545 0028      	movel %d5,%a2@(40)
    2286:	2004           	movel %d4,%d0
    2288:	d084           	addl %d4,%d0
    228a:	0c03 0002      	cmpib #2,%d3
    228e:	670c           	beqs 229c <find_volume+0x274>
    2290:	d084           	addl %d4,%d0
    2292:	2200           	movel %d0,%d1
    2294:	e289           	lsrl #1,%d1
    2296:	7001           	moveq #1,%d0
    2298:	c084           	andl %d4,%d0
    229a:	d081           	addl %d1,%d0
    229c:	0680 0000 01ff 	addil #511,%d0
    22a2:	7209           	moveq #9,%d1
    22a4:	e2a8           	lsrl %d1,%d0
    22a6:	b082           	cmpl %d2,%d0
    22a8:	6200 fe52      	bhiw 20fc <find_volume+0xd4>
    22ac:	70ff           	moveq #-1,%d0
    22ae:	2540 0010      	movel %d0,%a2@(16)
    22b2:	2540 000c      	movel %d0,%a2@(12)
    22b6:	157c ff80 0004 	moveb #-128,%a2@(4)
    22bc:	0c03 0003      	cmpib #3,%d3
    22c0:	667c           	bnes 233e <find_volume+0x316>
    22c2:	7000           	moveq #0,%d0
    22c4:	102a 0065      	moveb %a2@(101),%d0
    22c8:	e188           	lsll #8,%d0
    22ca:	4241           	clrw %d1
    22cc:	122a 0064      	moveb %a2@(100),%d1
    22d0:	8041           	orw %d1,%d0
    22d2:	0c40 0001      	cmpiw #1,%d0
    22d6:	6666           	bnes 233e <find_volume+0x316>
    22d8:	486b 0001      	pea %a3@(1)
    22dc:	2f0a           	movel %a2,%sp@-
    22de:	4eba fc60      	jsr %pc@(1f40 <move_window>)
    22e2:	508f           	addql #8,%sp
    22e4:	4a80           	tstl %d0
    22e6:	6656           	bnes 233e <find_volume+0x316>
    22e8:	422a 0004      	clrb %a2@(4)
    22ec:	7000           	moveq #0,%d0
    22ee:	102a 0233      	moveb %a2@(563),%d0
    22f2:	e188           	lsll #8,%d0
    22f4:	4241           	clrw %d1
    22f6:	122a 0232      	moveb %a2@(562),%d1
    22fa:	8041           	orw %d1,%d0
    22fc:	0c40 aa55      	cmpiw #-21931,%d0
    2300:	663c           	bnes 233e <find_volume+0x316>
    2302:	486a 0034      	pea %a2@(52)
    2306:	47fa f880      	lea %pc@(1b88 <ld_dword>),%a3
    230a:	4e93           	jsr %a3@
    230c:	588f           	addql #4,%sp
    230e:	0c80 4161 5252 	cmpil #1096897106,%d0
    2314:	6628           	bnes 233e <find_volume+0x316>
    2316:	486a 0218      	pea %a2@(536)
    231a:	4e93           	jsr %a3@
    231c:	588f           	addql #4,%sp
    231e:	0c80 6141 7272 	cmpil #1631679090,%d0
    2324:	6618           	bnes 233e <find_volume+0x316>
    2326:	486a 021c      	pea %a2@(540)
    232a:	4e93           	jsr %a3@
    232c:	588f           	addql #4,%sp
    232e:	2540 0010      	movel %d0,%a2@(16)
    2332:	486a 0220      	pea %a2@(544)
    2336:	4e93           	jsr %a3@
    2338:	588f           	addql #4,%sp
    233a:	2540 000c      	movel %d0,%a2@(12)
    233e:	1483           	moveb %d3,%a2@
    2340:	3039 0100 0264 	movew 1000264 <Fsid>,%d0
    2346:	5240           	addqw #1,%d0
    2348:	33c0 0100 0264 	movew %d0,1000264 <Fsid>
    234e:	3540 0006      	movew %d0,%a2@(6)
    2352:	42aa 0014      	clrl %a2@(20)
    2356:	6008           	bras 2360 <find_volume+0x338>
    2358:	700b           	moveq #11,%d0
    235a:	6016           	bras 2372 <find_volume+0x34a>
    235c:	700c           	moveq #12,%d0
    235e:	6012           	bras 2372 <find_volume+0x34a>
    2360:	7000           	moveq #0,%d0
    2362:	600e           	bras 2372 <find_volume+0x34a>
    2364:	7003           	moveq #3,%d0
    2366:	600a           	bras 2372 <find_volume+0x34a>
    2368:	0c00 0004      	cmpib #4,%d0
    236c:	6600 fd8e      	bnew 20fc <find_volume+0xd4>
    2370:	7001           	moveq #1,%d0
    2372:	4cdf 3cfc      	moveml %sp@+,%d2-%d7/%a2-%a5
    2376:	4fef 0010      	lea %sp@(16),%sp
    237a:	4e75           	rts

0000237c <get_fat.isra.8>:
    237c:	48e7 3830      	moveml %d2-%d4/%a2-%a3,%sp@-
    2380:	246f 0018      	moveal %sp@(24),%a2
    2384:	242f 001c      	movel %sp@(28),%d2
    2388:	7001           	moveq #1,%d0
    238a:	b082           	cmpl %d2,%d0
    238c:	6400 00fa      	bccw 2488 <get_fat.isra.8+0x10c>
    2390:	b4aa 0018      	cmpl %a2@(24),%d2
    2394:	6400 00f2      	bccw 2488 <get_fat.isra.8+0x10c>
    2398:	1012           	moveb %a2@,%d0
    239a:	0c00 0002      	cmpib #2,%d0
    239e:	677c           	beqs 241c <get_fat.isra.8+0xa0>
    23a0:	0c00 0003      	cmpib #3,%d0
    23a4:	6700 00ae      	beqw 2454 <get_fat.isra.8+0xd8>
    23a8:	0c00 0001      	cmpib #1,%d0
    23ac:	6600 00da      	bnew 2488 <get_fat.isra.8+0x10c>
    23b0:	2602           	movel %d2,%d3
    23b2:	e28b           	lsrl #1,%d3
    23b4:	d682           	addl %d2,%d3
    23b6:	2003           	movel %d3,%d0
    23b8:	7209           	moveq #9,%d1
    23ba:	e2a8           	lsrl %d1,%d0
    23bc:	d0aa 0024      	addl %a2@(36),%d0
    23c0:	2f00           	movel %d0,%sp@-
    23c2:	2f0a           	movel %a2,%sp@-
    23c4:	47fa fb7a      	lea %pc@(1f40 <move_window>),%a3
    23c8:	4e93           	jsr %a3@
    23ca:	508f           	addql #8,%sp
    23cc:	4a80           	tstl %d0
    23ce:	6706           	beqs 23d6 <get_fat.isra.8+0x5a>
    23d0:	70ff           	moveq #-1,%d0
    23d2:	6000 00b6      	braw 248a <get_fat.isra.8+0x10e>
    23d6:	2803           	movel %d3,%d4
    23d8:	5284           	addql #1,%d4
    23da:	0283 0000 01ff 	andil #511,%d3
    23e0:	1632 3834      	moveb %a2@(00000034,%d3:l),%d3
    23e4:	2004           	movel %d4,%d0
    23e6:	7209           	moveq #9,%d1
    23e8:	e2a8           	lsrl %d1,%d0
    23ea:	d0aa 0024      	addl %a2@(36),%d0
    23ee:	2f00           	movel %d0,%sp@-
    23f0:	2f0a           	movel %a2,%sp@-
    23f2:	4e93           	jsr %a3@
    23f4:	508f           	addql #8,%sp
    23f6:	4a80           	tstl %d0
    23f8:	66d6           	bnes 23d0 <get_fat.isra.8+0x54>
    23fa:	0284 0000 01ff 	andil #511,%d4
    2400:	7000           	moveq #0,%d0
    2402:	1032 4834      	moveb %a2@(00000034,%d4:l),%d0
    2406:	e188           	lsll #8,%d0
    2408:	8003           	orb %d3,%d0
    240a:	0802 0000      	btst #0,%d2
    240e:	6704           	beqs 2414 <get_fat.isra.8+0x98>
    2410:	e888           	lsrl #4,%d0
    2412:	6076           	bras 248a <get_fat.isra.8+0x10e>
    2414:	0280 0000 0fff 	andil #4095,%d0
    241a:	606e           	bras 248a <get_fat.isra.8+0x10e>
    241c:	2002           	movel %d2,%d0
    241e:	e088           	lsrl #8,%d0
    2420:	d0aa 0024      	addl %a2@(36),%d0
    2424:	2f00           	movel %d0,%sp@-
    2426:	2f0a           	movel %a2,%sp@-
    2428:	4eba fb16      	jsr %pc@(1f40 <move_window>)
    242c:	508f           	addql #8,%sp
    242e:	4a80           	tstl %d0
    2430:	669e           	bnes 23d0 <get_fat.isra.8+0x54>
    2432:	d482           	addl %d2,%d2
    2434:	0282 0000 01fe 	andil #510,%d2
    243a:	41f2 2834      	lea %a2@(00000034,%d2:l),%a0
    243e:	7000           	moveq #0,%d0
    2440:	1028 0001      	moveb %a0@(1),%d0
    2444:	e188           	lsll #8,%d0
    2446:	4241           	clrw %d1
    2448:	1210           	moveb %a0@,%d1
    244a:	8041           	orw %d1,%d0
    244c:	0280 0000 ffff 	andil #65535,%d0
    2452:	6036           	bras 248a <get_fat.isra.8+0x10e>
    2454:	2002           	movel %d2,%d0
    2456:	ee88           	lsrl #7,%d0
    2458:	d0aa 0024      	addl %a2@(36),%d0
    245c:	2f00           	movel %d0,%sp@-
    245e:	2f0a           	movel %a2,%sp@-
    2460:	4eba fade      	jsr %pc@(1f40 <move_window>)
    2464:	508f           	addql #8,%sp
    2466:	4a80           	tstl %d0
    2468:	6600 ff66      	bnew 23d0 <get_fat.isra.8+0x54>
    246c:	d482           	addl %d2,%d2
    246e:	d482           	addl %d2,%d2
    2470:	0282 0000 01fc 	andil #508,%d2
    2476:	4872 2834      	pea %a2@(00000034,%d2:l)
    247a:	4eba f70c      	jsr %pc@(1b88 <ld_dword>)
    247e:	588f           	addql #4,%sp
    2480:	0280 0fff ffff 	andil #268435455,%d0
    2486:	6002           	bras 248a <get_fat.isra.8+0x10e>
    2488:	7001           	moveq #1,%d0
    248a:	4cdf 0c1c      	moveml %sp@+,%d2-%d4/%a2-%a3
    248e:	4e75           	rts

00002490 <dir_sdi>:
    2490:	48e7 3838      	moveml %d2-%d4/%a2-%a4,%sp@-
    2494:	246f 001c      	moveal %sp@(28),%a2
    2498:	242f 0020      	movel %sp@(32),%d2
    249c:	0c82 001f ffff 	cmpil #2097151,%d2
    24a2:	6306           	blss 24aa <dir_sdi+0x1a>
    24a4:	7002           	moveq #2,%d0
    24a6:	6000 00a4      	braw 254c <dir_sdi+0xbc>
    24aa:	701f           	moveq #31,%d0
    24ac:	c082           	andl %d2,%d0
    24ae:	66f4           	bnes 24a4 <dir_sdi+0x14>
    24b0:	2652           	moveal %a2@,%a3
    24b2:	2542 0010      	movel %d2,%a2@(16)
    24b6:	262a 0008      	movel %a2@(8),%d3
    24ba:	6624           	bnes 24e0 <dir_sdi+0x50>
    24bc:	0c13 0002      	cmpib #2,%a3@
    24c0:	6306           	blss 24c8 <dir_sdi+0x38>
    24c2:	202b 0028      	movel %a3@(40),%d0
    24c6:	6616           	bnes 24de <dir_sdi+0x4e>
    24c8:	7200           	moveq #0,%d1
    24ca:	322b 0008      	movew %a3@(8),%d1
    24ce:	2002           	movel %d2,%d0
    24d0:	ea88           	lsrl #5,%d0
    24d2:	b280           	cmpl %d0,%d1
    24d4:	63ce           	blss 24a4 <dir_sdi+0x14>
    24d6:	256b 0028 0018 	movel %a3@(40),%a2@(24)
    24dc:	6042           	bras 2520 <dir_sdi+0x90>
    24de:	2600           	movel %d0,%d3
    24e0:	7800           	moveq #0,%d4
    24e2:	382b 000a      	movew %a3@(10),%d4
    24e6:	7009           	moveq #9,%d0
    24e8:	e1ac           	lsll %d0,%d4
    24ea:	49fa fe90      	lea %pc@(237c <get_fat.isra.8>),%a4
    24ee:	b882           	cmpl %d2,%d4
    24f0:	6220           	bhis 2512 <dir_sdi+0x82>
    24f2:	2f03           	movel %d3,%sp@-
    24f4:	2f12           	movel %a2@,%sp@-
    24f6:	4e94           	jsr %a4@
    24f8:	2600           	movel %d0,%d3
    24fa:	508f           	addql #8,%sp
    24fc:	70ff           	moveq #-1,%d0
    24fe:	b083           	cmpl %d3,%d0
    2500:	6748           	beqs 254a <dir_sdi+0xba>
    2502:	7001           	moveq #1,%d0
    2504:	b083           	cmpl %d3,%d0
    2506:	649c           	bccs 24a4 <dir_sdi+0x14>
    2508:	b6ab 0018      	cmpl %a3@(24),%d3
    250c:	6496           	bccs 24a4 <dir_sdi+0x14>
    250e:	9484           	subl %d4,%d2
    2510:	60dc           	bras 24ee <dir_sdi+0x5e>
    2512:	2f03           	movel %d3,%sp@-
    2514:	2f0b           	movel %a3,%sp@-
    2516:	4eba f6be      	jsr %pc@(1bd6 <clst2sect>)
    251a:	508f           	addql #8,%sp
    251c:	2540 0018      	movel %d0,%a2@(24)
    2520:	2543 0014      	movel %d3,%a2@(20)
    2524:	202a 0018      	movel %a2@(24),%d0
    2528:	6700 ff7a      	beqw 24a4 <dir_sdi+0x14>
    252c:	2202           	movel %d2,%d1
    252e:	7609           	moveq #9,%d3
    2530:	e6a9           	lsrl %d3,%d1
    2532:	d280           	addl %d0,%d1
    2534:	2541 0018      	movel %d1,%a2@(24)
    2538:	0282 0000 01ff 	andil #511,%d2
    253e:	47f3 2834      	lea %a3@(00000034,%d2:l),%a3
    2542:	254b 001c      	movel %a3,%a2@(28)
    2546:	7000           	moveq #0,%d0
    2548:	6002           	bras 254c <dir_sdi+0xbc>
    254a:	7001           	moveq #1,%d0
    254c:	4cdf 1c1c      	moveml %sp@+,%d2-%d4/%a2-%a4
    2550:	4e75           	rts

00002552 <dir_clear>:
    2552:	48e7 003e      	moveml %a2-%fp,%sp@-
    2556:	246f 0018      	moveal %sp@(24),%a2
    255a:	2f0a           	movel %a2,%sp@-
    255c:	4eba f96c      	jsr %pc@(1eca <sync_window>)
    2560:	588f           	addql #4,%sp
    2562:	4a80           	tstl %d0
    2564:	666a           	bnes 25d0 <dir_clear+0x7e>
    2566:	2f2f 001c      	movel %sp@(28),%sp@-
    256a:	2f0a           	movel %a2,%sp@-
    256c:	4eba f668      	jsr %pc@(1bd6 <clst2sect>)
    2570:	508f           	addql #8,%sp
    2572:	2a40           	moveal %d0,%a5
    2574:	2540 0030      	movel %d0,%a2@(48)
    2578:	49ea 0034      	lea %a2@(52),%a4
    257c:	7000           	moveq #0,%d0
    257e:	4234 0800      	clrb %a4@(00000000,%d0:l)
    2582:	5280           	addql #1,%d0
    2584:	0c80 0000 0200 	cmpil #512,%d0
    258a:	66f2           	bnes 257e <dir_clear+0x2c>
    258c:	97cb           	subal %a3,%a3
    258e:	4df9 0000 45f8 	lea 45f8 <disk_write>,%fp
    2594:	7000           	moveq #0,%d0
    2596:	302a 000a      	movew %a2@(10),%d0
    259a:	b08b           	cmpl %a3,%d0
    259c:	6212           	bhis 25b0 <dir_clear+0x5e>
    259e:	7000           	moveq #0,%d0
    25a0:	302a 000a      	movew %a2@(10),%d0
    25a4:	b7c0           	cmpal %d0,%a3
    25a6:	56c0           	sne %d0
    25a8:	4880           	extw %d0
    25aa:	48c0           	extl %d0
    25ac:	4480           	negl %d0
    25ae:	6022           	bras 25d2 <dir_clear+0x80>
    25b0:	4878 0001      	pea 1 <__DYNAMIC+0x1>
    25b4:	4875 b800      	pea %a5@(00000000,%a3:l)
    25b8:	2f0c           	movel %a4,%sp@-
    25ba:	7000           	moveq #0,%d0
    25bc:	102a 0001      	moveb %a2@(1),%d0
    25c0:	2f00           	movel %d0,%sp@-
    25c2:	4e96           	jsr %fp@
    25c4:	4fef 0010      	lea %sp@(16),%sp
    25c8:	4a80           	tstl %d0
    25ca:	66d2           	bnes 259e <dir_clear+0x4c>
    25cc:	528b           	addql #1,%a3
    25ce:	60c4           	bras 2594 <dir_clear+0x42>
    25d0:	7001           	moveq #1,%d0
    25d2:	4cdf 7c00      	moveml %sp@+,%a2-%fp
    25d6:	4e75           	rts

000025d8 <put_fat>:
    25d8:	48e7 3e38      	moveml %d2-%d6/%a2-%a4,%sp@-
    25dc:	246f 0024      	moveal %sp@(36),%a2
    25e0:	242f 0028      	movel %sp@(40),%d2
    25e4:	262f 002c      	movel %sp@(44),%d3
    25e8:	7001           	moveq #1,%d0
    25ea:	b082           	cmpl %d2,%d0
    25ec:	6400 0136      	bccw 2724 <put_fat+0x14c>
    25f0:	b4aa 0018      	cmpl %a2@(24),%d2
    25f4:	6400 012e      	bccw 2724 <put_fat+0x14c>
    25f8:	1012           	moveb %a2@,%d0
    25fa:	0c00 0002      	cmpib #2,%d0
    25fe:	6700 00a2      	beqw 26a2 <put_fat+0xca>
    2602:	0c00 0003      	cmpib #3,%d0
    2606:	6700 00c6      	beqw 26ce <put_fat+0xf6>
    260a:	0c00 0001      	cmpib #1,%d0
    260e:	6600 0114      	bnew 2724 <put_fat+0x14c>
    2612:	2a02           	movel %d2,%d5
    2614:	e28d           	lsrl #1,%d5
    2616:	da82           	addl %d2,%d5
    2618:	2005           	movel %d5,%d0
    261a:	7209           	moveq #9,%d1
    261c:	e2a8           	lsrl %d1,%d0
    261e:	d0aa 0024      	addl %a2@(36),%d0
    2622:	2f00           	movel %d0,%sp@-
    2624:	2f0a           	movel %a2,%sp@-
    2626:	47fa f918      	lea %pc@(1f40 <move_window>),%a3
    262a:	4e93           	jsr %a3@
    262c:	2800           	movel %d0,%d4
    262e:	508f           	addql #8,%sp
    2630:	6600 00f4      	bnew 2726 <put_fat+0x14e>
    2634:	49ea 0034      	lea %a2@(52),%a4
    2638:	2c05           	movel %d5,%d6
    263a:	5286           	addql #1,%d6
    263c:	0285 0000 01ff 	andil #511,%d5
    2642:	41f4 5800      	lea %a4@(00000000,%d5:l),%a0
    2646:	7001           	moveq #1,%d0
    2648:	c480           	andl %d0,%d2
    264a:	670e           	beqs 265a <put_fat+0x82>
    264c:	1010           	moveb %a0@,%d0
    264e:	0200 000f      	andib #15,%d0
    2652:	1203           	moveb %d3,%d1
    2654:	e909           	lslb #4,%d1
    2656:	8001           	orb %d1,%d0
    2658:	6002           	bras 265c <put_fat+0x84>
    265a:	1003           	moveb %d3,%d0
    265c:	1080           	moveb %d0,%a0@
    265e:	157c 0001 0003 	moveb #1,%a2@(3)
    2664:	2006           	movel %d6,%d0
    2666:	7209           	moveq #9,%d1
    2668:	e2a8           	lsrl %d1,%d0
    266a:	d0aa 0024      	addl %a2@(36),%d0
    266e:	2f00           	movel %d0,%sp@-
    2670:	2f0a           	movel %a2,%sp@-
    2672:	4e93           	jsr %a3@
    2674:	2800           	movel %d0,%d4
    2676:	508f           	addql #8,%sp
    2678:	6600 00ac      	bnew 2726 <put_fat+0x14e>
    267c:	2006           	movel %d6,%d0
    267e:	0280 0000 01ff 	andil #511,%d0
    2684:	41f4 0800      	lea %a4@(00000000,%d0:l),%a0
    2688:	4a82           	tstl %d2
    268a:	6704           	beqs 2690 <put_fat+0xb8>
    268c:	e88b           	lsrl #4,%d3
    268e:	600e           	bras 269e <put_fat+0xc6>
    2690:	1010           	moveb %a0@,%d0
    2692:	0200 fff0      	andib #-16,%d0
    2696:	e08b           	lsrl #8,%d3
    2698:	0203 000f      	andib #15,%d3
    269c:	8600           	orb %d0,%d3
    269e:	1083           	moveb %d3,%a0@
    26a0:	607a           	bras 271c <put_fat+0x144>
    26a2:	2002           	movel %d2,%d0
    26a4:	e088           	lsrl #8,%d0
    26a6:	d0aa 0024      	addl %a2@(36),%d0
    26aa:	2f00           	movel %d0,%sp@-
    26ac:	2f0a           	movel %a2,%sp@-
    26ae:	4eba f890      	jsr %pc@(1f40 <move_window>)
    26b2:	2800           	movel %d0,%d4
    26b4:	508f           	addql #8,%sp
    26b6:	666e           	bnes 2726 <put_fat+0x14e>
    26b8:	d482           	addl %d2,%d2
    26ba:	0282 0000 01fe 	andil #510,%d2
    26c0:	41f2 2834      	lea %a2@(00000034,%d2:l),%a0
    26c4:	1083           	moveb %d3,%a0@
    26c6:	e04b           	lsrw #8,%d3
    26c8:	1143 0001      	moveb %d3,%a0@(1)
    26cc:	604e           	bras 271c <put_fat+0x144>
    26ce:	2002           	movel %d2,%d0
    26d0:	ee88           	lsrl #7,%d0
    26d2:	d0aa 0024      	addl %a2@(36),%d0
    26d6:	2f00           	movel %d0,%sp@-
    26d8:	2f0a           	movel %a2,%sp@-
    26da:	4eba f864      	jsr %pc@(1f40 <move_window>)
    26de:	2800           	movel %d0,%d4
    26e0:	508f           	addql #8,%sp
    26e2:	6642           	bnes 2726 <put_fat+0x14e>
    26e4:	d482           	addl %d2,%d2
    26e6:	d482           	addl %d2,%d2
    26e8:	0282 0000 01fc 	andil #508,%d2
    26ee:	47f2 2834      	lea %a2@(00000034,%d2:l),%a3
    26f2:	2f0b           	movel %a3,%sp@-
    26f4:	4eba f492      	jsr %pc@(1b88 <ld_dword>)
    26f8:	588f           	addql #4,%sp
    26fa:	0283 0fff ffff 	andil #268435455,%d3
    2700:	0280 f000 0000 	andil #-268435456,%d0
    2706:	8083           	orl %d3,%d0
    2708:	1680           	moveb %d0,%a3@
    270a:	e088           	lsrl #8,%d0
    270c:	1740 0001      	moveb %d0,%a3@(1)
    2710:	e088           	lsrl #8,%d0
    2712:	1740 0002      	moveb %d0,%a3@(2)
    2716:	e088           	lsrl #8,%d0
    2718:	1740 0003      	moveb %d0,%a3@(3)
    271c:	157c 0001 0003 	moveb #1,%a2@(3)
    2722:	6002           	bras 2726 <put_fat+0x14e>
    2724:	7802           	moveq #2,%d4
    2726:	2004           	movel %d4,%d0
    2728:	4cdf 1c7c      	moveml %sp@+,%d2-%d6/%a2-%a4
    272c:	4e75           	rts

0000272e <create_chain>:
    272e:	48e7 3838      	moveml %d2-%d4/%a2-%a4,%sp@-
    2732:	266f 001c      	moveal %sp@(28),%a3
    2736:	282f 0020      	movel %sp@(32),%d4
    273a:	2453           	moveal %a3@,%a2
    273c:	660e           	bnes 274c <create_chain+0x1e>
    273e:	262a 000c      	movel %a2@(12),%d3
    2742:	6732           	beqs 2776 <create_chain+0x48>
    2744:	b6aa 0018      	cmpl %a2@(24),%d3
    2748:	652e           	bcss 2778 <create_chain+0x4a>
    274a:	602a           	bras 2776 <create_chain+0x48>
    274c:	2f04           	movel %d4,%sp@-
    274e:	2f0a           	movel %a2,%sp@-
    2750:	4eba fc2a      	jsr %pc@(237c <get_fat.isra.8>)
    2754:	508f           	addql #8,%sp
    2756:	7201           	moveq #1,%d1
    2758:	b280           	cmpl %d0,%d1
    275a:	6400 00fa      	bccw 2856 <create_chain+0x128>
    275e:	72ff           	moveq #-1,%d1
    2760:	b280           	cmpl %d0,%d1
    2762:	6606           	bnes 276a <create_chain+0x3c>
    2764:	70ff           	moveq #-1,%d0
    2766:	6000 00f0      	braw 2858 <create_chain+0x12a>
    276a:	b0aa 0018      	cmpl %a2@(24),%d0
    276e:	6500 00e8      	bcsw 2858 <create_chain+0x12a>
    2772:	2604           	movel %d4,%d3
    2774:	6002           	bras 2778 <create_chain+0x4a>
    2776:	7601           	moveq #1,%d3
    2778:	4aaa 0010      	tstl %a2@(16)
    277c:	6606           	bnes 2784 <create_chain+0x56>
    277e:	7000           	moveq #0,%d0
    2780:	6000 00d6      	braw 2858 <create_chain+0x12a>
    2784:	b883           	cmpl %d3,%d4
    2786:	6640           	bnes 27c8 <create_chain+0x9a>
    2788:	2403           	movel %d3,%d2
    278a:	5282           	addql #1,%d2
    278c:	b4aa 0018      	cmpl %a2@(24),%d2
    2790:	6502           	bcss 2794 <create_chain+0x66>
    2792:	7402           	moveq #2,%d2
    2794:	2f02           	movel %d2,%sp@-
    2796:	2f13           	movel %a3@,%sp@-
    2798:	4eba fbe2      	jsr %pc@(237c <get_fat.isra.8>)
    279c:	508f           	addql #8,%sp
    279e:	7201           	moveq #1,%d1
    27a0:	b280           	cmpl %d0,%d1
    27a2:	6700 00b2      	beqw 2856 <create_chain+0x128>
    27a6:	72ff           	moveq #-1,%d1
    27a8:	b280           	cmpl %d0,%d1
    27aa:	67b8           	beqs 2764 <create_chain+0x36>
    27ac:	4a80           	tstl %d0
    27ae:	6714           	beqs 27c4 <create_chain+0x96>
    27b0:	202a 000c      	movel %a2@(12),%d0
    27b4:	7201           	moveq #1,%d1
    27b6:	b280           	cmpl %d0,%d1
    27b8:	640e           	bccs 27c8 <create_chain+0x9a>
    27ba:	b0aa 0018      	cmpl %a2@(24),%d0
    27be:	6408           	bccs 27c8 <create_chain+0x9a>
    27c0:	2600           	movel %d0,%d3
    27c2:	6004           	bras 27c8 <create_chain+0x9a>
    27c4:	4a82           	tstl %d2
    27c6:	6636           	bnes 27fe <create_chain+0xd0>
    27c8:	2403           	movel %d3,%d2
    27ca:	49fa fbb0      	lea %pc@(237c <get_fat.isra.8>),%a4
    27ce:	5282           	addql #1,%d2
    27d0:	b4aa 0018      	cmpl %a2@(24),%d2
    27d4:	6508           	bcss 27de <create_chain+0xb0>
    27d6:	7001           	moveq #1,%d0
    27d8:	b083           	cmpl %d3,%d0
    27da:	64a2           	bccs 277e <create_chain+0x50>
    27dc:	7402           	moveq #2,%d2
    27de:	2f02           	movel %d2,%sp@-
    27e0:	2f13           	movel %a3@,%sp@-
    27e2:	4e94           	jsr %a4@
    27e4:	508f           	addql #8,%sp
    27e6:	4a80           	tstl %d0
    27e8:	6714           	beqs 27fe <create_chain+0xd0>
    27ea:	7201           	moveq #1,%d1
    27ec:	b280           	cmpl %d0,%d1
    27ee:	6766           	beqs 2856 <create_chain+0x128>
    27f0:	72ff           	moveq #-1,%d1
    27f2:	b280           	cmpl %d0,%d1
    27f4:	6700 ff6e      	beqw 2764 <create_chain+0x36>
    27f8:	b682           	cmpl %d2,%d3
    27fa:	66d2           	bnes 27ce <create_chain+0xa0>
    27fc:	6080           	bras 277e <create_chain+0x50>
    27fe:	4878 ffff      	pea ffffffff <__end+0xfefffd6f>
    2802:	2f02           	movel %d2,%sp@-
    2804:	2f0a           	movel %a2,%sp@-
    2806:	47fa fdd0      	lea %pc@(25d8 <put_fat>),%a3
    280a:	4e93           	jsr %a3@
    280c:	4fef 000c      	lea %sp@(12),%sp
    2810:	4a80           	tstl %d0
    2812:	663a           	bnes 284e <create_chain+0x120>
    2814:	4a84           	tstl %d4
    2816:	661a           	bnes 2832 <create_chain+0x104>
    2818:	2542 000c      	movel %d2,%a2@(12)
    281c:	202a 0010      	movel %a2@(16),%d0
    2820:	222a 0018      	movel %a2@(24),%d1
    2824:	5581           	subql #2,%d1
    2826:	b280           	cmpl %d0,%d1
    2828:	651a           	bcss 2844 <create_chain+0x116>
    282a:	5380           	subql #1,%d0
    282c:	2540 0010      	movel %d0,%a2@(16)
    2830:	6012           	bras 2844 <create_chain+0x116>
    2832:	2f02           	movel %d2,%sp@-
    2834:	2f04           	movel %d4,%sp@-
    2836:	2f0a           	movel %a2,%sp@-
    2838:	4e93           	jsr %a3@
    283a:	4fef 000c      	lea %sp@(12),%sp
    283e:	4a80           	tstl %d0
    2840:	67d6           	beqs 2818 <create_chain+0xea>
    2842:	600a           	bras 284e <create_chain+0x120>
    2844:	002a 0001 0004 	orib #1,%a2@(4)
    284a:	2002           	movel %d2,%d0
    284c:	600a           	bras 2858 <create_chain+0x12a>
    284e:	7201           	moveq #1,%d1
    2850:	b280           	cmpl %d0,%d1
    2852:	6700 ff10      	beqw 2764 <create_chain+0x36>
    2856:	7001           	moveq #1,%d0
    2858:	4cdf 1c1c      	moveml %sp@+,%d2-%d4/%a2-%a4
    285c:	4e75           	rts

0000285e <dir_next>:
    285e:	48e7 3830      	moveml %d2-%d4/%a2-%a3,%sp@-
    2862:	246f 0018      	moveal %sp@(24),%a2
    2866:	202a 0018      	movel %a2@(24),%d0
    286a:	6700 00d4      	beqw 2940 <dir_next+0xe2>
    286e:	7620           	moveq #32,%d3
    2870:	d6aa 0010      	addl %a2@(16),%d3
    2874:	0c83 001f ffff 	cmpil #2097151,%d3
    287a:	6200 00c4      	bhiw 2940 <dir_next+0xe2>
    287e:	2652           	moveal %a2@,%a3
    2880:	2803           	movel %d3,%d4
    2882:	0284 0000 01ff 	andil #511,%d4
    2888:	6600 00a6      	bnew 2930 <dir_next+0xd2>
    288c:	5280           	addql #1,%d0
    288e:	2540 0018      	movel %d0,%a2@(24)
    2892:	206a 0014      	moveal %a2@(20),%a0
    2896:	b0fc 0000      	cmpaw #0,%a0
    289a:	6618           	bnes 28b4 <dir_next+0x56>
    289c:	7200           	moveq #0,%d1
    289e:	322b 0008      	movew %a3@(8),%d1
    28a2:	2003           	movel %d3,%d0
    28a4:	ea88           	lsrl #5,%d0
    28a6:	b280           	cmpl %d0,%d1
    28a8:	6200 0086      	bhiw 2930 <dir_next+0xd2>
    28ac:	42aa 0018      	clrl %a2@(24)
    28b0:	6000 008e      	braw 2940 <dir_next+0xe2>
    28b4:	7000           	moveq #0,%d0
    28b6:	302b 000a      	movew %a3@(10),%d0
    28ba:	2200           	movel %d0,%d1
    28bc:	5381           	subql #1,%d1
    28be:	2003           	movel %d3,%d0
    28c0:	7409           	moveq #9,%d2
    28c2:	e4a8           	lsrl %d2,%d0
    28c4:	c081           	andl %d1,%d0
    28c6:	6668           	bnes 2930 <dir_next+0xd2>
    28c8:	2f08           	movel %a0,%sp@-
    28ca:	2f0b           	movel %a3,%sp@-
    28cc:	4eba faae      	jsr %pc@(237c <get_fat.isra.8>)
    28d0:	2400           	movel %d0,%d2
    28d2:	508f           	addql #8,%sp
    28d4:	7001           	moveq #1,%d0
    28d6:	b082           	cmpl %d2,%d0
    28d8:	6504           	bcss 28de <dir_next+0x80>
    28da:	7002           	moveq #2,%d0
    28dc:	6068           	bras 2946 <dir_next+0xe8>
    28de:	70ff           	moveq #-1,%d0
    28e0:	b082           	cmpl %d2,%d0
    28e2:	6604           	bnes 28e8 <dir_next+0x8a>
    28e4:	7001           	moveq #1,%d0
    28e6:	605e           	bras 2946 <dir_next+0xe8>
    28e8:	b4ab 0018      	cmpl %a3@(24),%d2
    28ec:	6530           	bcss 291e <dir_next+0xc0>
    28ee:	4aaf 001c      	tstl %sp@(28)
    28f2:	67b8           	beqs 28ac <dir_next+0x4e>
    28f4:	2f2a 0014      	movel %a2@(20),%sp@-
    28f8:	2f0a           	movel %a2,%sp@-
    28fa:	4eba fe32      	jsr %pc@(272e <create_chain>)
    28fe:	2400           	movel %d0,%d2
    2900:	508f           	addql #8,%sp
    2902:	6740           	beqs 2944 <dir_next+0xe6>
    2904:	7001           	moveq #1,%d0
    2906:	b082           	cmpl %d2,%d0
    2908:	67d0           	beqs 28da <dir_next+0x7c>
    290a:	70ff           	moveq #-1,%d0
    290c:	b082           	cmpl %d2,%d0
    290e:	67d4           	beqs 28e4 <dir_next+0x86>
    2910:	2f02           	movel %d2,%sp@-
    2912:	2f0b           	movel %a3,%sp@-
    2914:	4eba fc3c      	jsr %pc@(2552 <dir_clear>)
    2918:	508f           	addql #8,%sp
    291a:	4a80           	tstl %d0
    291c:	66c6           	bnes 28e4 <dir_next+0x86>
    291e:	2542 0014      	movel %d2,%a2@(20)
    2922:	2f02           	movel %d2,%sp@-
    2924:	2f0b           	movel %a3,%sp@-
    2926:	4eba f2ae      	jsr %pc@(1bd6 <clst2sect>)
    292a:	508f           	addql #8,%sp
    292c:	2540 0018      	movel %d0,%a2@(24)
    2930:	2543 0010      	movel %d3,%a2@(16)
    2934:	47f3 4834      	lea %a3@(00000034,%d4:l),%a3
    2938:	254b 001c      	movel %a3,%a2@(28)
    293c:	7000           	moveq #0,%d0
    293e:	6006           	bras 2946 <dir_next+0xe8>
    2940:	7004           	moveq #4,%d0
    2942:	6002           	bras 2946 <dir_next+0xe8>
    2944:	7007           	moveq #7,%d0
    2946:	4cdf 0c1c      	moveml %sp@+,%d2-%d4/%a2-%a3
    294a:	4e75           	rts

0000294c <follow_path>:
    294c:	598f           	subql #4,%sp
    294e:	48e7 3f3e      	moveml %d2-%d7/%a2-%fp,%sp@-
    2952:	246f 0034      	moveal %sp@(52),%a2
    2956:	266f 0038      	moveal %sp@(56),%a3
    295a:	2a52           	moveal %a2@,%a5
    295c:	1013           	moveb %a3@,%d0
    295e:	0c00 002f      	cmpib #47,%d0
    2962:	6706           	beqs 296a <follow_path+0x1e>
    2964:	0c00 005c      	cmpib #92,%d0
    2968:	6604           	bnes 296e <follow_path+0x22>
    296a:	220b           	movel %a3,%d1
    296c:	6008           	bras 2976 <follow_path+0x2a>
    296e:	256d 0014 0008 	movel %a5@(20),%a2@(8)
    2974:	6016           	bras 298c <follow_path+0x40>
    2976:	2641           	moveal %d1,%a3
    2978:	1013           	moveb %a3@,%d0
    297a:	5281           	addql #1,%d1
    297c:	0c00 002f      	cmpib #47,%d0
    2980:	67f4           	beqs 2976 <follow_path+0x2a>
    2982:	0c00 005c      	cmpib #92,%d0
    2986:	67ee           	beqs 2976 <follow_path+0x2a>
    2988:	42aa 0008      	clrl %a2@(8)
    298c:	0c13 001f      	cmpib #31,%a3@
    2990:	631c           	blss 29ae <follow_path+0x62>
    2992:	49ea 0020      	lea %a2@(32),%a4
    2996:	283c 0000 92b4 	movel #37556,%d4
    299c:	263c 0000 1ba4 	movel #7076,%d3
    29a2:	41ed 0034      	lea %a5@(52),%a0
    29a6:	2f48 002c      	movel %a0,%sp@(44)
    29aa:	6000 00b0      	braw 2a5c <follow_path+0x110>
    29ae:	157c ff80 002b 	moveb #-128,%a2@(43)
    29b4:	42af 0038      	clrl %sp@(56)
    29b8:	2f4a 0034      	movel %a2,%sp@(52)
    29bc:	4cdf 7cfc      	moveml %sp@+,%d2-%d7/%a2-%fp
    29c0:	588f           	addql #4,%sp
    29c2:	6000 facc      	braw 2490 <dir_sdi>
    29c6:	19bc 0020 0800 	moveb #32,%a4@(00000000,%d0:l)
    29cc:	5280           	addql #1,%d0
    29ce:	720b           	moveq #11,%d1
    29d0:	b280           	cmpl %d0,%d1
    29d2:	66f2           	bnes 29c6 <follow_path+0x7a>
    29d4:	0c13 002e      	cmpib #46,%a3@
    29d8:	6600 0088      	bnew 2a62 <follow_path+0x116>
    29dc:	7200           	moveq #0,%d1
    29de:	2041           	moveal %d1,%a0
    29e0:	5288           	addql #1,%a0
    29e2:	1033 1800      	moveb %a3@(00000000,%d1:l),%d0
    29e6:	0c00 002e      	cmpib #46,%d0
    29ea:	6700 0082      	beqw 2a6e <follow_path+0x122>
    29ee:	0c00 002f      	cmpib #47,%d0
    29f2:	6600 008e      	bnew 2a82 <follow_path+0x136>
    29f6:	d7c8           	addal %a0,%a3
    29f8:	0c00 0020      	cmpib #32,%d0
    29fc:	6200 0098      	bhiw 2a96 <follow_path+0x14a>
    2a00:	7024           	moveq #36,%d0
    2a02:	1540 002b      	moveb %d0,%a2@(43)
    2a06:	2a12           	movel %a2@,%d5
    2a08:	42a7           	clrl %sp@-
    2a0a:	2f0a           	movel %a2,%sp@-
    2a0c:	4eba fa82      	jsr %pc@(2490 <dir_sdi>)
    2a10:	2c00           	movel %d0,%d6
    2a12:	508f           	addql #8,%sp
    2a14:	243c 0000 285e 	movel #10334,%d2
    2a1a:	4a80           	tstl %d0
    2a1c:	6700 0152      	beqw 2b70 <follow_path+0x224>
    2a20:	102a 002b      	moveb %a2@(43),%d0
    2a24:	4a86           	tstl %d6
    2a26:	6600 017a      	bnew 2ba2 <follow_path+0x256>
    2a2a:	44c0           	movew %d0,%ccr
    2a2c:	6700 01b2      	beqw 2be0 <follow_path+0x294>
    2a30:	082a 0004 0006 	btst #4,%a2@(6)
    2a36:	6700 0190      	beqw 2bc8 <follow_path+0x27c>
    2a3a:	202a 0010      	movel %a2@(16),%d0
    2a3e:	0280 0000 01ff 	andil #511,%d0
    2a44:	206f 002c      	moveal %sp@(44),%a0
    2a48:	4870 0800      	pea %a0@(00000000,%d0:l)
    2a4c:	598f           	subql #4,%sp
    2a4e:	1f55 0003      	moveb %a5@,%sp@(3)
    2a52:	4eba f370      	jsr %pc@(1dc4 <ld_clust.isra.1>)
    2a56:	508f           	addql #8,%sp
    2a58:	2540 0008      	movel %d0,%a2@(8)
    2a5c:	7000           	moveq #0,%d0
    2a5e:	6000 ff66      	braw 29c6 <follow_path+0x7a>
    2a62:	2a0b           	movel %a3,%d5
    2a64:	7200           	moveq #0,%d1
    2a66:	91c8           	subal %a0,%a0
    2a68:	327c 0008      	moveaw #8,%a1
    2a6c:	607e           	bras 2aec <follow_path+0x1a0>
    2a6e:	7402           	moveq #2,%d2
    2a70:	b481           	cmpl %d1,%d2
    2a72:	6700 0158      	beqw 2bcc <follow_path+0x280>
    2a76:	19bc 002e 1800 	moveb #46,%a4@(00000000,%d1:l)
    2a7c:	2208           	movel %a0,%d1
    2a7e:	6000 ff5e      	braw 29de <follow_path+0x92>
    2a82:	0c00 005c      	cmpib #92,%d0
    2a86:	6700 ff6e      	beqw 29f6 <follow_path+0xaa>
    2a8a:	0c00 0020      	cmpib #32,%d0
    2a8e:	6300 ff66      	blsw 29f6 <follow_path+0xaa>
    2a92:	6000 0138      	braw 2bcc <follow_path+0x280>
    2a96:	7020           	moveq #32,%d0
    2a98:	6000 ff68      	braw 2a02 <follow_path+0xb6>
    2a9c:	0c02 002f      	cmpib #47,%d2
    2aa0:	6764           	beqs 2b06 <follow_path+0x1ba>
    2aa2:	0c02 005c      	cmpib #92,%d2
    2aa6:	675e           	beqs 2b06 <follow_path+0x1ba>
    2aa8:	0c02 002e      	cmpib #46,%d2
    2aac:	6700 0122      	beqw 2bd0 <follow_path+0x284>
    2ab0:	b289           	cmpl %a1,%d1
    2ab2:	6400 0118      	bccw 2bcc <follow_path+0x280>
    2ab6:	4a02           	tstb %d2
    2ab8:	6c0a           	bges 2ac4 <follow_path+0x178>
    2aba:	747f           	moveq #127,%d2
    2abc:	c082           	andl %d2,%d0
    2abe:	2c44           	moveal %d4,%fp
    2ac0:	1036 0800      	moveb %fp@(00000000,%d0:l),%d0
    2ac4:	7e00           	moveq #0,%d7
    2ac6:	1e00           	moveb %d0,%d7
    2ac8:	2c3c 0000 9295 	movel #37525,%d6
    2ace:	2c46           	moveal %d6,%fp
    2ad0:	5286           	addql #1,%d6
    2ad2:	141e           	moveb %fp@+,%d2
    2ad4:	663c           	bnes 2b12 <follow_path+0x1c6>
    2ad6:	1400           	moveb %d0,%d2
    2ad8:	0602 ff9f      	addib #-97,%d2
    2adc:	0c02 0019      	cmpib #25,%d2
    2ae0:	6204           	bhis 2ae6 <follow_path+0x19a>
    2ae2:	0600 ffe0      	addib #-32,%d0
    2ae6:	1980 1800      	moveb %d0,%a4@(00000000,%d1:l)
    2aea:	5281           	addql #1,%d1
    2aec:	5288           	addql #1,%a0
    2aee:	2c45           	moveal %d5,%fp
    2af0:	5285           	addql #1,%d5
    2af2:	141e           	moveb %fp@+,%d2
    2af4:	1002           	moveb %d2,%d0
    2af6:	0c02 0020      	cmpib #32,%d2
    2afa:	62a0           	bhis 2a9c <follow_path+0x150>
    2afc:	6020           	bras 2b1e <follow_path+0x1d2>
    2afe:	0c00 005c      	cmpib #92,%d0
    2b02:	661a           	bnes 2b1e <follow_path+0x1d2>
    2b04:	5288           	addql #1,%a0
    2b06:	1033 8800      	moveb %a3@(00000000,%a0:l),%d0
    2b0a:	0c00 002f      	cmpib #47,%d0
    2b0e:	66ee           	bnes 2afe <follow_path+0x1b2>
    2b10:	60f2           	bras 2b04 <follow_path+0x1b8>
    2b12:	4882           	extw %d2
    2b14:	48c2           	extl %d2
    2b16:	b487           	cmpl %d7,%d2
    2b18:	66b4           	bnes 2ace <follow_path+0x182>
    2b1a:	6000 00b0      	braw 2bcc <follow_path+0x280>
    2b1e:	4a81           	tstl %d1
    2b20:	6700 00aa      	beqw 2bcc <follow_path+0x280>
    2b24:	0c2a ffe5 0020 	cmpib #-27,%a2@(32)
    2b2a:	6606           	bnes 2b32 <follow_path+0x1e6>
    2b2c:	157c 0005 0020 	moveb #5,%a2@(32)
    2b32:	0c02 0020      	cmpib #32,%d2
    2b36:	6204           	bhis 2b3c <follow_path+0x1f0>
    2b38:	7004           	moveq #4,%d0
    2b3a:	6002           	bras 2b3e <follow_path+0x1f2>
    2b3c:	4200           	clrb %d0
    2b3e:	d7c8           	addal %a0,%a3
    2b40:	6000 fec0      	braw 2a02 <follow_path+0xb6>
    2b44:	206a 001c      	moveal %a2@(28),%a0
    2b48:	4a10           	tstb %a0@
    2b4a:	6750           	beqs 2b9c <follow_path+0x250>
    2b4c:	1028 000b      	moveb %a0@(11),%d0
    2b50:	0200 003f      	andib #63,%d0
    2b54:	1540 0006      	moveb %d0,%a2@(6)
    2b58:	0828 0003 000b 	btst #3,%a0@(11)
    2b5e:	6724           	beqs 2b84 <follow_path+0x238>
    2b60:	42a7           	clrl %sp@-
    2b62:	2f0a           	movel %a2,%sp@-
    2b64:	2c42           	moveal %d2,%fp
    2b66:	4e96           	jsr %fp@
    2b68:	2c00           	movel %d0,%d6
    2b6a:	508f           	addql #8,%sp
    2b6c:	6600 feb2      	bnew 2a20 <follow_path+0xd4>
    2b70:	2f2a 0018      	movel %a2@(24),%sp@-
    2b74:	2f05           	movel %d5,%sp@-
    2b76:	4eba f3c8      	jsr %pc@(1f40 <move_window>)
    2b7a:	2c00           	movel %d0,%d6
    2b7c:	508f           	addql #8,%sp
    2b7e:	67c4           	beqs 2b44 <follow_path+0x1f8>
    2b80:	6000 fe9e      	braw 2a20 <follow_path+0xd4>
    2b84:	4878 000b      	pea b <__DYNAMIC+0xb>
    2b88:	2f0c           	movel %a4,%sp@-
    2b8a:	2f08           	movel %a0,%sp@-
    2b8c:	2043           	moveal %d3,%a0
    2b8e:	4e90           	jsr %a0@
    2b90:	4fef 000c      	lea %sp@(12),%sp
    2b94:	4a80           	tstl %d0
    2b96:	66c8           	bnes 2b60 <follow_path+0x214>
    2b98:	6000 fe86      	braw 2a20 <follow_path+0xd4>
    2b9c:	7c04           	moveq #4,%d6
    2b9e:	6000 fe80      	braw 2a20 <follow_path+0xd4>
    2ba2:	7204           	moveq #4,%d1
    2ba4:	b286           	cmpl %d6,%d1
    2ba6:	6638           	bnes 2be0 <follow_path+0x294>
    2ba8:	1200           	moveb %d0,%d1
    2baa:	0201 0004      	andib #4,%d1
    2bae:	0800 0005      	btst #5,%d0
    2bb2:	6710           	beqs 2bc4 <follow_path+0x278>
    2bb4:	4a01           	tstb %d1
    2bb6:	6700 fea4      	beqw 2a5c <follow_path+0x110>
    2bba:	157c ff80 002b 	moveb #-128,%a2@(43)
    2bc0:	7c00           	moveq #0,%d6
    2bc2:	601c           	bras 2be0 <follow_path+0x294>
    2bc4:	4a01           	tstb %d1
    2bc6:	6618           	bnes 2be0 <follow_path+0x294>
    2bc8:	7c05           	moveq #5,%d6
    2bca:	6014           	bras 2be0 <follow_path+0x294>
    2bcc:	7c06           	moveq #6,%d6
    2bce:	6010           	bras 2be0 <follow_path+0x294>
    2bd0:	700b           	moveq #11,%d0
    2bd2:	b089           	cmpl %a1,%d0
    2bd4:	67f6           	beqs 2bcc <follow_path+0x280>
    2bd6:	7208           	moveq #8,%d1
    2bd8:	327c 000b      	moveaw #11,%a1
    2bdc:	6000 ff0e      	braw 2aec <follow_path+0x1a0>
    2be0:	2006           	movel %d6,%d0
    2be2:	4cdf 7cfc      	moveml %sp@+,%d2-%d7/%a2-%fp
    2be6:	588f           	addql #4,%sp
    2be8:	4e75           	rts

00002bea <dir_read>:
    2bea:	48e7 2038      	moveml %d2/%a2-%a4,%sp@-
    2bee:	246f 0014      	moveal %sp@(20),%a2
    2bf2:	2412           	movel %a2@,%d2
    2bf4:	7004           	moveq #4,%d0
    2bf6:	47fa f348      	lea %pc@(1f40 <move_window>),%a3
    2bfa:	49fa fc62      	lea %pc@(285e <dir_next>),%a4
    2bfe:	222a 0018      	movel %a2@(24),%d1
    2c02:	675a           	beqs 2c5e <dir_read+0x74>
    2c04:	2f01           	movel %d1,%sp@-
    2c06:	2f02           	movel %d2,%sp@-
    2c08:	4e93           	jsr %a3@
    2c0a:	508f           	addql #8,%sp
    2c0c:	4a80           	tstl %d0
    2c0e:	6652           	bnes 2c62 <dir_read+0x78>
    2c10:	206a 001c      	moveal %a2@(28),%a0
    2c14:	1210           	moveb %a0@,%d1
    2c16:	6750           	beqs 2c68 <dir_read+0x7e>
    2c18:	1028 000b      	moveb %a0@(11),%d0
    2c1c:	0200 003f      	andib #63,%d0
    2c20:	1540 0006      	moveb %d0,%a2@(6)
    2c24:	0c01 ffe5      	cmpib #-27,%d1
    2c28:	6726           	beqs 2c50 <dir_read+0x66>
    2c2a:	0c01 002e      	cmpib #46,%d1
    2c2e:	6720           	beqs 2c50 <dir_read+0x66>
    2c30:	0c00 000f      	cmpib #15,%d0
    2c34:	671a           	beqs 2c50 <dir_read+0x66>
    2c36:	721f           	moveq #31,%d1
    2c38:	c081           	andl %d1,%d0
    2c3a:	7208           	moveq #8,%d1
    2c3c:	b280           	cmpl %d0,%d1
    2c3e:	57c0           	seq %d0
    2c40:	4880           	extw %d0
    2c42:	48c0           	extl %d0
    2c44:	4480           	negl %d0
    2c46:	b0af 0018      	cmpl %sp@(24),%d0
    2c4a:	6604           	bnes 2c50 <dir_read+0x66>
    2c4c:	7000           	moveq #0,%d0
    2c4e:	601c           	bras 2c6c <dir_read+0x82>
    2c50:	42a7           	clrl %sp@-
    2c52:	2f0a           	movel %a2,%sp@-
    2c54:	4e94           	jsr %a4@
    2c56:	508f           	addql #8,%sp
    2c58:	4a80           	tstl %d0
    2c5a:	67a2           	beqs 2bfe <dir_read+0x14>
    2c5c:	6004           	bras 2c62 <dir_read+0x78>
    2c5e:	4a80           	tstl %d0
    2c60:	67ea           	beqs 2c4c <dir_read+0x62>
    2c62:	42aa 0018      	clrl %a2@(24)
    2c66:	6004           	bras 2c6c <dir_read+0x82>
    2c68:	7004           	moveq #4,%d0
    2c6a:	60f6           	bras 2c62 <dir_read+0x78>
    2c6c:	4cdf 1c04      	moveml %sp@+,%d2/%a2-%a4
    2c70:	4e75           	rts

00002c72 <dir_alloc.constprop.11>:
    2c72:	48e7 2038      	moveml %d2/%a2-%a4,%sp@-
    2c76:	246f 0014      	moveal %sp@(20),%a2
    2c7a:	2412           	movel %a2@,%d2
    2c7c:	42a7           	clrl %sp@-
    2c7e:	2f0a           	movel %a2,%sp@-
    2c80:	4eba f80e      	jsr %pc@(2490 <dir_sdi>)
    2c84:	508f           	addql #8,%sp
    2c86:	4a80           	tstl %d0
    2c88:	6634           	bnes 2cbe <dir_alloc.constprop.11+0x4c>
    2c8a:	49fa f2b4      	lea %pc@(1f40 <move_window>),%a4
    2c8e:	47fa fbce      	lea %pc@(285e <dir_next>),%a3
    2c92:	2f2a 0018      	movel %a2@(24),%sp@-
    2c96:	2f02           	movel %d2,%sp@-
    2c98:	4e94           	jsr %a4@
    2c9a:	508f           	addql #8,%sp
    2c9c:	4a80           	tstl %d0
    2c9e:	661e           	bnes 2cbe <dir_alloc.constprop.11+0x4c>
    2ca0:	206a 001c      	moveal %a2@(28),%a0
    2ca4:	1210           	moveb %a0@,%d1
    2ca6:	0c01 ffe5      	cmpib #-27,%d1
    2caa:	671a           	beqs 2cc6 <dir_alloc.constprop.11+0x54>
    2cac:	4a01           	tstb %d1
    2cae:	6716           	beqs 2cc6 <dir_alloc.constprop.11+0x54>
    2cb0:	4878 0001      	pea 1 <__DYNAMIC+0x1>
    2cb4:	2f0a           	movel %a2,%sp@-
    2cb6:	4e93           	jsr %a3@
    2cb8:	508f           	addql #8,%sp
    2cba:	4a80           	tstl %d0
    2cbc:	67d4           	beqs 2c92 <dir_alloc.constprop.11+0x20>
    2cbe:	7204           	moveq #4,%d1
    2cc0:	b280           	cmpl %d0,%d1
    2cc2:	6602           	bnes 2cc6 <dir_alloc.constprop.11+0x54>
    2cc4:	7007           	moveq #7,%d0
    2cc6:	4cdf 1c04      	moveml %sp@+,%d2/%a2-%a4
    2cca:	4e75           	rts

00002ccc <dir_register>:
    2ccc:	598f           	subql #4,%sp
    2cce:	48e7 2030      	moveml %d2/%a2-%a3,%sp@-
    2cd2:	246f 0014      	moveal %sp@(20),%a2
    2cd6:	2652           	moveal %a2@,%a3
    2cd8:	2f0a           	movel %a2,%sp@-
    2cda:	4eba ff96      	jsr %pc@(2c72 <dir_alloc.constprop.11>)
    2cde:	588f           	addql #4,%sp
    2ce0:	4a80           	tstl %d0
    2ce2:	6644           	bnes 2d28 <dir_register+0x5c>
    2ce4:	2f2a 0018      	movel %a2@(24),%sp@-
    2ce8:	2f0b           	movel %a3,%sp@-
    2cea:	4eba f254      	jsr %pc@(1f40 <move_window>)
    2cee:	508f           	addql #8,%sp
    2cf0:	4a80           	tstl %d0
    2cf2:	6634           	bnes 2d28 <dir_register+0x5c>
    2cf4:	206a 001c      	moveal %a2@(28),%a0
    2cf8:	7200           	moveq #0,%d1
    2cfa:	4230 1800      	clrb %a0@(00000000,%d1:l)
    2cfe:	5281           	addql #1,%d1
    2d00:	7420           	moveq #32,%d2
    2d02:	b481           	cmpl %d1,%d2
    2d04:	66f4           	bnes 2cfa <dir_register+0x2e>
    2d06:	4878 000b      	pea b <__DYNAMIC+0xb>
    2d0a:	486a 0020      	pea %a2@(32)
    2d0e:	2f2a 001c      	movel %a2@(28),%sp@-
    2d12:	2f40 0018      	movel %d0,%sp@(24)
    2d16:	4eba f092      	jsr %pc@(1daa <mem_cpy.part.0>)
    2d1a:	177c 0001 0003 	moveb #1,%a3@(3)
    2d20:	4fef 000c      	lea %sp@(12),%sp
    2d24:	202f 000c      	movel %sp@(12),%d0
    2d28:	4cdf 0c04      	moveml %sp@+,%d2/%a2-%a3
    2d2c:	588f           	addql #4,%sp
    2d2e:	4e75           	rts

00002d30 <remove_chain>:
    2d30:	48e7 303c      	moveml %d2-%d3/%a2-%a5,%sp@-
    2d34:	266f 001c      	moveal %sp@(28),%a3
    2d38:	242f 0020      	movel %sp@(32),%d2
    2d3c:	202f 0024      	movel %sp@(36),%d0
    2d40:	7201           	moveq #1,%d1
    2d42:	b282           	cmpl %d2,%d1
    2d44:	6504           	bcss 2d4a <remove_chain+0x1a>
    2d46:	7002           	moveq #2,%d0
    2d48:	607c           	bras 2dc6 <remove_chain+0x96>
    2d4a:	2453           	moveal %a3@,%a2
    2d4c:	b4aa 0018      	cmpl %a2@(24),%d2
    2d50:	64f4           	bccs 2d46 <remove_chain+0x16>
    2d52:	4a80           	tstl %d0
    2d54:	660a           	bnes 2d60 <remove_chain+0x30>
    2d56:	49fa f624      	lea %pc@(237c <get_fat.isra.8>),%a4
    2d5a:	4bfa f87c      	lea %pc@(25d8 <put_fat>),%a5
    2d5e:	6054           	bras 2db4 <remove_chain+0x84>
    2d60:	4878 ffff      	pea ffffffff <__end+0xfefffd6f>
    2d64:	2f00           	movel %d0,%sp@-
    2d66:	2f0a           	movel %a2,%sp@-
    2d68:	4eba f86e      	jsr %pc@(25d8 <put_fat>)
    2d6c:	4fef 000c      	lea %sp@(12),%sp
    2d70:	4a80           	tstl %d0
    2d72:	67e2           	beqs 2d56 <remove_chain+0x26>
    2d74:	6050           	bras 2dc6 <remove_chain+0x96>
    2d76:	7001           	moveq #1,%d0
    2d78:	b083           	cmpl %d3,%d0
    2d7a:	67ca           	beqs 2d46 <remove_chain+0x16>
    2d7c:	72ff           	moveq #-1,%d1
    2d7e:	b283           	cmpl %d3,%d1
    2d80:	6742           	beqs 2dc4 <remove_chain+0x94>
    2d82:	42a7           	clrl %sp@-
    2d84:	2f02           	movel %d2,%sp@-
    2d86:	2f0a           	movel %a2,%sp@-
    2d88:	4e95           	jsr %a5@
    2d8a:	4fef 000c      	lea %sp@(12),%sp
    2d8e:	4a80           	tstl %d0
    2d90:	6634           	bnes 2dc6 <remove_chain+0x96>
    2d92:	222a 0010      	movel %a2@(16),%d1
    2d96:	202a 0018      	movel %a2@(24),%d0
    2d9a:	2040           	moveal %d0,%a0
    2d9c:	5588           	subql #2,%a0
    2d9e:	b1c1           	cmpal %d1,%a0
    2da0:	630c           	blss 2dae <remove_chain+0x7e>
    2da2:	5281           	addql #1,%d1
    2da4:	2541 0010      	movel %d1,%a2@(16)
    2da8:	002a 0001 0004 	orib #1,%a2@(4)
    2dae:	2403           	movel %d3,%d2
    2db0:	b083           	cmpl %d3,%d0
    2db2:	630c           	blss 2dc0 <remove_chain+0x90>
    2db4:	2f02           	movel %d2,%sp@-
    2db6:	2f13           	movel %a3@,%sp@-
    2db8:	4e94           	jsr %a4@
    2dba:	2600           	movel %d0,%d3
    2dbc:	508f           	addql #8,%sp
    2dbe:	66b6           	bnes 2d76 <remove_chain+0x46>
    2dc0:	7000           	moveq #0,%d0
    2dc2:	6002           	bras 2dc6 <remove_chain+0x96>
    2dc4:	7001           	moveq #1,%d0
    2dc6:	4cdf 3c0c      	moveml %sp@+,%d2-%d3/%a2-%a5
    2dca:	4e75           	rts

00002dcc <sync_fs>:
    2dcc:	2f0a           	movel %a2,%sp@-
    2dce:	246f 0008      	moveal %sp@(8),%a2
    2dd2:	2f0a           	movel %a2,%sp@-
    2dd4:	4eba f0f4      	jsr %pc@(1eca <sync_window>)
    2dd8:	588f           	addql #4,%sp
    2dda:	4a80           	tstl %d0
    2ddc:	6600 00de      	bnew 2ebc <sync_fs+0xf0>
    2de0:	0c12 0003      	cmpib #3,%a2@
    2de4:	6600 00b6      	bnew 2e9c <sync_fs+0xd0>
    2de8:	0c2a 0001 0004 	cmpib #1,%a2@(4)
    2dee:	6600 00ac      	bnew 2e9c <sync_fs+0xd0>
    2df2:	41ea 0034      	lea %a2@(52),%a0
    2df6:	4230 0800      	clrb %a0@(00000000,%d0:l)
    2dfa:	5280           	addql #1,%d0
    2dfc:	0c80 0000 0200 	cmpil #512,%d0
    2e02:	66f2           	bnes 2df6 <sync_fs+0x2a>
    2e04:	157c 0055 0232 	moveb #85,%a2@(562)
    2e0a:	157c ffaa 0233 	moveb #-86,%a2@(563)
    2e10:	157c 0052 0034 	moveb #82,%a2@(52)
    2e16:	157c 0052 0035 	moveb #82,%a2@(53)
    2e1c:	157c 0061 0036 	moveb #97,%a2@(54)
    2e22:	157c 0041 0037 	moveb #65,%a2@(55)
    2e28:	157c 0072 0218 	moveb #114,%a2@(536)
    2e2e:	157c 0072 0219 	moveb #114,%a2@(537)
    2e34:	157c 0041 021a 	moveb #65,%a2@(538)
    2e3a:	157c 0061 021b 	moveb #97,%a2@(539)
    2e40:	202a 0010      	movel %a2@(16),%d0
    2e44:	1540 021c      	moveb %d0,%a2@(540)
    2e48:	e088           	lsrl #8,%d0
    2e4a:	1540 021d      	moveb %d0,%a2@(541)
    2e4e:	e088           	lsrl #8,%d0
    2e50:	1540 021e      	moveb %d0,%a2@(542)
    2e54:	e088           	lsrl #8,%d0
    2e56:	1540 021f      	moveb %d0,%a2@(543)
    2e5a:	202a 000c      	movel %a2@(12),%d0
    2e5e:	1540 0220      	moveb %d0,%a2@(544)
    2e62:	e088           	lsrl #8,%d0
    2e64:	1540 0221      	moveb %d0,%a2@(545)
    2e68:	e088           	lsrl #8,%d0
    2e6a:	1540 0222      	moveb %d0,%a2@(546)
    2e6e:	e088           	lsrl #8,%d0
    2e70:	1540 0223      	moveb %d0,%a2@(547)
    2e74:	202a 0020      	movel %a2@(32),%d0
    2e78:	5280           	addql #1,%d0
    2e7a:	2540 0030      	movel %d0,%a2@(48)
    2e7e:	4878 0001      	pea 1 <__DYNAMIC+0x1>
    2e82:	2f00           	movel %d0,%sp@-
    2e84:	2f08           	movel %a0,%sp@-
    2e86:	7000           	moveq #0,%d0
    2e88:	102a 0001      	moveb %a2@(1),%d0
    2e8c:	2f00           	movel %d0,%sp@-
    2e8e:	4eb9 0000 45f8 	jsr 45f8 <disk_write>
    2e94:	422a 0004      	clrb %a2@(4)
    2e98:	4fef 0010      	lea %sp@(16),%sp
    2e9c:	42a7           	clrl %sp@-
    2e9e:	42a7           	clrl %sp@-
    2ea0:	7000           	moveq #0,%d0
    2ea2:	102a 0001      	moveb %a2@(1),%d0
    2ea6:	2f00           	movel %d0,%sp@-
    2ea8:	4eb9 0000 4648 	jsr 4648 <disk_ioctl>
    2eae:	4fef 000c      	lea %sp@(12),%sp
    2eb2:	4a80           	tstl %d0
    2eb4:	56c0           	sne %d0
    2eb6:	4880           	extw %d0
    2eb8:	48c0           	extl %d0
    2eba:	4480           	negl %d0
    2ebc:	245f           	moveal %sp@+,%a2
    2ebe:	4e75           	rts

00002ec0 <f_mount>:
    2ec0:	4e56 fffc      	linkw %fp,#-4
    2ec4:	2f02           	movel %d2,%sp@-
    2ec6:	142e 0013      	moveb %fp@(19),%d2
    2eca:	204e           	moveal %fp,%a0
    2ecc:	212e 000c      	movel %fp@(12),%a0@-
    2ed0:	2f08           	movel %a0,%sp@-
    2ed2:	4eba ee66      	jsr %pc@(1d3a <get_ldnumber>)
    2ed6:	588f           	addql #4,%sp
    2ed8:	4a80           	tstl %d0
    2eda:	6d44           	blts 2f20 <f_mount+0x60>
    2edc:	41f9 0100 0266 	lea 1000266 <FatFs>,%a0
    2ee2:	d080           	addl %d0,%d0
    2ee4:	2200           	movel %d0,%d1
    2ee6:	d280           	addl %d0,%d1
    2ee8:	2270 1800      	moveal %a0@(00000000,%d1:l),%a1
    2eec:	b2fc 0000      	cmpaw #0,%a1
    2ef0:	6702           	beqs 2ef4 <f_mount+0x34>
    2ef2:	4211           	clrb %a1@
    2ef4:	226e 0008      	moveal %fp@(8),%a1
    2ef8:	b2fc 0000      	cmpaw #0,%a1
    2efc:	6702           	beqs 2f00 <f_mount+0x40>
    2efe:	4211           	clrb %a1@
    2f00:	d080           	addl %d0,%d0
    2f02:	21ae 0008 0800 	movel %fp@(8),%a0@(00000000,%d0:l)
    2f08:	4a02           	tstb %d2
    2f0a:	6718           	beqs 2f24 <f_mount+0x64>
    2f0c:	42a7           	clrl %sp@-
    2f0e:	486e 0008      	pea %fp@(8)
    2f12:	486e 000c      	pea %fp@(12)
    2f16:	4eba f110      	jsr %pc@(2028 <find_volume>)
    2f1a:	4fef 000c      	lea %sp@(12),%sp
    2f1e:	6006           	bras 2f26 <f_mount+0x66>
    2f20:	700b           	moveq #11,%d0
    2f22:	6002           	bras 2f26 <f_mount+0x66>
    2f24:	7000           	moveq #0,%d0
    2f26:	242e fff8      	movel %fp@(-8),%d2
    2f2a:	4e5e           	unlk %fp
    2f2c:	4e75           	rts

00002f2e <f_open>:
    2f2e:	4e56 ffcc      	linkw %fp,#-52
    2f32:	48e7 383c      	moveml %d2-%d4/%a2-%a5,%sp@-
    2f36:	246e 0008      	moveal %fp@(8),%a2
    2f3a:	282e 0010      	movel %fp@(16),%d4
    2f3e:	b4fc 0000      	cmpaw #0,%a2
    2f42:	6700 0242      	beqw 3186 <f_open+0x258>
    2f46:	1404           	moveb %d4,%d2
    2f48:	0202 003f      	andib #63,%d2
    2f4c:	703f           	moveq #63,%d0
    2f4e:	c082           	andl %d2,%d0
    2f50:	2f00           	movel %d0,%sp@-
    2f52:	486e ffcc      	pea %fp@(-52)
    2f56:	486e 000c      	pea %fp@(12)
    2f5a:	4eba f0cc      	jsr %pc@(2028 <find_volume>)
    2f5e:	2600           	movel %d0,%d3
    2f60:	4fef 000c      	lea %sp@(12),%sp
    2f64:	6600 023c      	bnew 31a2 <f_open+0x274>
    2f68:	2d6e ffcc ffd0 	movel %fp@(-52),%fp@(-48)
    2f6e:	2f2e 000c      	movel %fp@(12),%sp@-
    2f72:	49ee ffd0      	lea %fp@(-48),%a4
    2f76:	2f0c           	movel %a4,%sp@-
    2f78:	4eba f9d2      	jsr %pc@(294c <follow_path>)
    2f7c:	508f           	addql #8,%sp
    2f7e:	4a80           	tstl %d0
    2f80:	6608           	bnes 2f8a <f_open+0x5c>
    2f82:	4a2e fffb      	tstb %fp@(-5)
    2f86:	6c02           	bges 2f8a <f_open+0x5c>
    2f88:	7006           	moveq #6,%d0
    2f8a:	1204           	moveb %d4,%d1
    2f8c:	0201 001c      	andib #28,%d1
    2f90:	6700 00da      	beqw 306c <f_open+0x13e>
    2f94:	4a80           	tstl %d0
    2f96:	671a           	beqs 2fb2 <f_open+0x84>
    2f98:	7204           	moveq #4,%d1
    2f9a:	b280           	cmpl %d0,%d1
    2f9c:	6608           	bnes 2fa6 <f_open+0x78>
    2f9e:	2f0c           	movel %a4,%sp@-
    2fa0:	4eba fd2a      	jsr %pc@(2ccc <dir_register>)
    2fa4:	588f           	addql #4,%sp
    2fa6:	0002 0008      	orib #8,%d2
    2faa:	4a80           	tstl %d0
    2fac:	6716           	beqs 2fc4 <f_open+0x96>
    2fae:	6000 01e4      	braw 3194 <f_open+0x266>
    2fb2:	102e ffd6      	moveb %fp@(-42),%d0
    2fb6:	0200 0011      	andib #17,%d0
    2fba:	6600 01d6      	bnew 3192 <f_open+0x264>
    2fbe:	44c4           	movew %d4,%ccr
    2fc0:	6700 01c8      	beqw 318a <f_open+0x25c>
    2fc4:	44c2           	movew %d2,%ccr
    2fc6:	6a00 00cc      	bplw 3094 <f_open+0x166>
    2fca:	266e ffec      	moveal %fp@(-20),%a3
    2fce:	2a6e ffcc      	moveal %fp@(-52),%a5
    2fd2:	2f0b           	movel %a3,%sp@-
    2fd4:	598f           	subql #4,%sp
    2fd6:	1f55 0003      	moveb %a5@,%sp@(3)
    2fda:	4eba ede8      	jsr %pc@(1dc4 <ld_clust.isra.1>)
    2fde:	508f           	addql #8,%sp
    2fe0:	2800           	movel %d0,%d4
    2fe2:	422b 000e      	clrb %a3@(14)
    2fe6:	422b 000f      	clrb %a3@(15)
    2fea:	177c ffda 0010 	moveb #-38,%a3@(16)
    2ff0:	177c 004c 0011 	moveb #76,%a3@(17)
    2ff6:	206e ffec      	moveal %fp@(-20),%a0
    2ffa:	117c 0020 000b 	moveb #32,%a0@(11)
    3000:	42a7           	clrl %sp@-
    3002:	2f2e ffec      	movel %fp@(-20),%sp@-
    3006:	2f0d           	movel %a5,%sp@-
    3008:	4eba edf8      	jsr %pc@(1e02 <st_clust.isra.2>)
    300c:	206e ffec      	moveal %fp@(-20),%a0
    3010:	4228 001c      	clrb %a0@(28)
    3014:	4228 001d      	clrb %a0@(29)
    3018:	4228 001e      	clrb %a0@(30)
    301c:	4228 001f      	clrb %a0@(31)
    3020:	206e ffcc      	moveal %fp@(-52),%a0
    3024:	117c 0001 0003 	moveb #1,%a0@(3)
    302a:	4fef 000c      	lea %sp@(12),%sp
    302e:	4a84           	tstl %d4
    3030:	675e           	beqs 3090 <f_open+0x162>
    3032:	206e ffcc      	moveal %fp@(-52),%a0
    3036:	2668 0030      	moveal %a0@(48),%a3
    303a:	42a7           	clrl %sp@-
    303c:	2f04           	movel %d4,%sp@-
    303e:	2f0c           	movel %a4,%sp@-
    3040:	4eba fcee      	jsr %pc@(2d30 <remove_chain>)
    3044:	4fef 000c      	lea %sp@(12),%sp
    3048:	4a80           	tstl %d0
    304a:	6600 0148      	bnew 3194 <f_open+0x266>
    304e:	2f0b           	movel %a3,%sp@-
    3050:	2f2e ffcc      	movel %fp@(-52),%sp@-
    3054:	4eba eeea      	jsr %pc@(1f40 <move_window>)
    3058:	206e ffcc      	moveal %fp@(-52),%a0
    305c:	5384           	subql #1,%d4
    305e:	2144 000c      	movel %d4,%a0@(12)
    3062:	508f           	addql #8,%sp
    3064:	4a80           	tstl %d0
    3066:	6724           	beqs 308c <f_open+0x15e>
    3068:	6000 012a      	braw 3194 <f_open+0x266>
    306c:	4a80           	tstl %d0
    306e:	6600 0124      	bnew 3194 <f_open+0x266>
    3072:	102e ffd6      	moveb %fp@(-42),%d0
    3076:	0800 0004      	btst #4,%d0
    307a:	6600 0112      	bnew 318e <f_open+0x260>
    307e:	0804 0001      	btst #1,%d4
    3082:	6708           	beqs 308c <f_open+0x15e>
    3084:	0800 0000      	btst #0,%d0
    3088:	6600 0108      	bnew 3192 <f_open+0x264>
    308c:	44c2           	movew %d2,%ccr
    308e:	6a04           	bpls 3094 <f_open+0x166>
    3090:	0002 0040      	orib #64,%d2
    3094:	266e ffcc      	moveal %fp@(-52),%a3
    3098:	256b 0030 001e 	movel %a3@(48),%a2@(30)
    309e:	286e ffec      	moveal %fp@(-20),%a4
    30a2:	254c 0022      	movel %a4,%a2@(34)
    30a6:	2f0c           	movel %a4,%sp@-
    30a8:	598f           	subql #4,%sp
    30aa:	1f53 0003      	moveb %a3@,%sp@(3)
    30ae:	4eba ed14      	jsr %pc@(1dc4 <ld_clust.isra.1>)
    30b2:	508f           	addql #8,%sp
    30b4:	2540 0008      	movel %d0,%a2@(8)
    30b8:	486c 001c      	pea %a4@(28)
    30bc:	4eba eaca      	jsr %pc@(1b88 <ld_dword>)
    30c0:	588f           	addql #4,%sp
    30c2:	2540 000c      	movel %d0,%a2@(12)
    30c6:	248b           	movel %a3,%a2@
    30c8:	356b 0006 0004 	movew %a3@(6),%a2@(4)
    30ce:	1542 0010      	moveb %d2,%a2@(16)
    30d2:	422a 0011      	clrb %a2@(17)
    30d6:	42aa 001a      	clrl %a2@(26)
    30da:	42aa 0012      	clrl %a2@(18)
    30de:	49ea 0026      	lea %a2@(38),%a4
    30e2:	7000           	moveq #0,%d0
    30e4:	4234 0800      	clrb %a4@(00000000,%d0:l)
    30e8:	5280           	addql #1,%d0
    30ea:	0c80 0000 0200 	cmpil #512,%d0
    30f0:	66f2           	bnes 30e4 <f_open+0x1b6>
    30f2:	0802 0005      	btst #5,%d2
    30f6:	6700 00a0      	beqw 3198 <f_open+0x26a>
    30fa:	242a 000c      	movel %a2@(12),%d2
    30fe:	6700 0098      	beqw 3198 <f_open+0x26a>
    3102:	2542 0012      	movel %d2,%a2@(18)
    3106:	7800           	moveq #0,%d4
    3108:	382b 000a      	movew %a3@(10),%d4
    310c:	7009           	moveq #9,%d0
    310e:	e1ac           	lsll %d0,%d4
    3110:	202a 0008      	movel %a2@(8),%d0
    3114:	47fa f266      	lea %pc@(237c <get_fat.isra.8>),%a3
    3118:	b484           	cmpl %d4,%d2
    311a:	631c           	blss 3138 <f_open+0x20a>
    311c:	2f00           	movel %d0,%sp@-
    311e:	2f12           	movel %a2@,%sp@-
    3120:	4e93           	jsr %a3@
    3122:	508f           	addql #8,%sp
    3124:	9484           	subl %d4,%d2
    3126:	7201           	moveq #1,%d1
    3128:	b280           	cmpl %d0,%d1
    312a:	640a           	bccs 3136 <f_open+0x208>
    312c:	72ff           	moveq #-1,%d1
    312e:	b280           	cmpl %d0,%d1
    3130:	66e6           	bnes 3118 <f_open+0x1ea>
    3132:	7601           	moveq #1,%d3
    3134:	6002           	bras 3138 <f_open+0x20a>
    3136:	7602           	moveq #2,%d3
    3138:	2540 0016      	movel %d0,%a2@(22)
    313c:	4a83           	tstl %d3
    313e:	6662           	bnes 31a2 <f_open+0x274>
    3140:	2202           	movel %d2,%d1
    3142:	0281 0000 01ff 	andil #511,%d1
    3148:	674e           	beqs 3198 <f_open+0x26a>
    314a:	266e ffcc      	moveal %fp@(-52),%a3
    314e:	2f00           	movel %d0,%sp@-
    3150:	2f0b           	movel %a3,%sp@-
    3152:	4eba ea82      	jsr %pc@(1bd6 <clst2sect>)
    3156:	508f           	addql #8,%sp
    3158:	4a80           	tstl %d0
    315a:	6740           	beqs 319c <f_open+0x26e>
    315c:	7209           	moveq #9,%d1
    315e:	e2aa           	lsrl %d1,%d2
    3160:	d480           	addl %d0,%d2
    3162:	2542 001a      	movel %d2,%a2@(26)
    3166:	4878 0001      	pea 1 <__DYNAMIC+0x1>
    316a:	2f02           	movel %d2,%sp@-
    316c:	2f0c           	movel %a4,%sp@-
    316e:	7000           	moveq #0,%d0
    3170:	102b 0001      	moveb %a3@(1),%d0
    3174:	2f00           	movel %d0,%sp@-
    3176:	4eb9 0000 4594 	jsr 4594 <disk_read>
    317c:	4fef 0010      	lea %sp@(16),%sp
    3180:	4a80           	tstl %d0
    3182:	661c           	bnes 31a0 <f_open+0x272>
    3184:	6012           	bras 3198 <f_open+0x26a>
    3186:	7009           	moveq #9,%d0
    3188:	601c           	bras 31a6 <f_open+0x278>
    318a:	7008           	moveq #8,%d0
    318c:	6006           	bras 3194 <f_open+0x266>
    318e:	7004           	moveq #4,%d0
    3190:	6002           	bras 3194 <f_open+0x266>
    3192:	7007           	moveq #7,%d0
    3194:	2600           	movel %d0,%d3
    3196:	600a           	bras 31a2 <f_open+0x274>
    3198:	7000           	moveq #0,%d0
    319a:	600a           	bras 31a6 <f_open+0x278>
    319c:	7602           	moveq #2,%d3
    319e:	6002           	bras 31a2 <f_open+0x274>
    31a0:	7601           	moveq #1,%d3
    31a2:	4292           	clrl %a2@
    31a4:	2003           	movel %d3,%d0
    31a6:	4cee 3c1c ffb0 	moveml %fp@(-80),%d2-%d4/%a2-%a5
    31ac:	4e5e           	unlk %fp
    31ae:	4e75           	rts

000031b0 <f_read>:
    31b0:	4e56 fff8      	linkw %fp,#-8
    31b4:	48e7 3f3c      	moveml %d2-%d7/%a2-%a5,%sp@-
    31b8:	246e 0008      	moveal %fp@(8),%a2
    31bc:	266e 000c      	moveal %fp@(12),%a3
    31c0:	242e 0010      	movel %fp@(16),%d2
    31c4:	2a6e 0014      	moveal %fp@(20),%a5
    31c8:	4295           	clrl %a5@
    31ca:	486e fffc      	pea %fp@(-4)
    31ce:	2f0a           	movel %a2,%sp@-
    31d0:	4eba eba4      	jsr %pc@(1d76 <validate>)
    31d4:	508f           	addql #8,%sp
    31d6:	4a80           	tstl %d0
    31d8:	6600 01c0      	bnew 339a <f_read+0x1ea>
    31dc:	7000           	moveq #0,%d0
    31de:	102a 0011      	moveb %a2@(17),%d0
    31e2:	4a80           	tstl %d0
    31e4:	6600 01b4      	bnew 339a <f_read+0x1ea>
    31e8:	082a 0000 0010 	btst #0,%a2@(16)
    31ee:	6700 01a8      	beqw 3398 <f_read+0x1e8>
    31f2:	262a 000c      	movel %a2@(12),%d3
    31f6:	96aa 0012      	subl %a2@(18),%d3
    31fa:	b483           	cmpl %d3,%d2
    31fc:	6402           	bccs 3200 <f_read+0x50>
    31fe:	2602           	movel %d2,%d3
    3200:	49ea 0026      	lea %a2@(38),%a4
    3204:	283c 0000 4594 	movel #17812,%d4
    320a:	2e3c 0000 237c 	movel #9084,%d7
    3210:	4a83           	tstl %d3
    3212:	6700 0180      	beqw 3394 <f_read+0x1e4>
    3216:	202a 0012      	movel %a2@(18),%d0
    321a:	2200           	movel %d0,%d1
    321c:	0281 0000 01ff 	andil #511,%d1
    3222:	6600 0138      	bnew 335c <f_read+0x1ac>
    3226:	206e fffc      	moveal %fp@(-4),%a0
    322a:	7200           	moveq #0,%d1
    322c:	3228 000a      	movew %a0@(10),%d1
    3230:	5381           	subql #1,%d1
    3232:	2400           	movel %d0,%d2
    3234:	7a09           	moveq #9,%d5
    3236:	eaaa           	lsrl %d5,%d2
    3238:	2c01           	movel %d1,%d6
    323a:	cc82           	andl %d2,%d6
    323c:	663e           	bnes 327c <f_read+0xcc>
    323e:	4a80           	tstl %d0
    3240:	6606           	bnes 3248 <f_read+0x98>
    3242:	202a 0008      	movel %a2@(8),%d0
    3246:	600c           	bras 3254 <f_read+0xa4>
    3248:	2f2a 0016      	movel %a2@(22),%sp@-
    324c:	2f12           	movel %a2@,%sp@-
    324e:	2047           	moveal %d7,%a0
    3250:	4e90           	jsr %a0@
    3252:	508f           	addql #8,%sp
    3254:	7201           	moveq #1,%d1
    3256:	b280           	cmpl %d0,%d1
    3258:	650c           	bcss 3266 <f_read+0xb6>
    325a:	157c 0002 0011 	moveb #2,%a2@(17)
    3260:	7002           	moveq #2,%d0
    3262:	6000 0136      	braw 339a <f_read+0x1ea>
    3266:	7aff           	moveq #-1,%d5
    3268:	ba80           	cmpl %d0,%d5
    326a:	660c           	bnes 3278 <f_read+0xc8>
    326c:	157c 0001 0011 	moveb #1,%a2@(17)
    3272:	7001           	moveq #1,%d0
    3274:	6000 0124      	braw 339a <f_read+0x1ea>
    3278:	2540 0016      	movel %d0,%a2@(22)
    327c:	226e fffc      	moveal %fp@(-4),%a1
    3280:	2f2a 0016      	movel %a2@(22),%sp@-
    3284:	2f09           	movel %a1,%sp@-
    3286:	2d49 fff8      	movel %a1,%fp@(-8)
    328a:	4eba e94a      	jsr %pc@(1bd6 <clst2sect>)
    328e:	508f           	addql #8,%sp
    3290:	226e fff8      	moveal %fp@(-8),%a1
    3294:	4a80           	tstl %d0
    3296:	67c2           	beqs 325a <f_read+0xaa>
    3298:	2406           	movel %d6,%d2
    329a:	d480           	addl %d0,%d2
    329c:	2a03           	movel %d3,%d5
    329e:	7009           	moveq #9,%d0
    32a0:	e0ad           	lsrl %d0,%d5
    32a2:	675e           	beqs 3302 <f_read+0x152>
    32a4:	7000           	moveq #0,%d0
    32a6:	3029 000a      	movew %a1@(10),%d0
    32aa:	2206           	movel %d6,%d1
    32ac:	d285           	addl %d5,%d1
    32ae:	b081           	cmpl %d1,%d0
    32b0:	6404           	bccs 32b6 <f_read+0x106>
    32b2:	2a00           	movel %d0,%d5
    32b4:	9a86           	subl %d6,%d5
    32b6:	2f05           	movel %d5,%sp@-
    32b8:	2f02           	movel %d2,%sp@-
    32ba:	2f0b           	movel %a3,%sp@-
    32bc:	7000           	moveq #0,%d0
    32be:	1029 0001      	moveb %a1@(1),%d0
    32c2:	2f00           	movel %d0,%sp@-
    32c4:	2044           	moveal %d4,%a0
    32c6:	4e90           	jsr %a0@
    32c8:	4fef 0010      	lea %sp@(16),%sp
    32cc:	4a80           	tstl %d0
    32ce:	669c           	bnes 326c <f_read+0xbc>
    32d0:	4a2a 0010      	tstb %a2@(16)
    32d4:	6c22           	bges 32f8 <f_read+0x148>
    32d6:	202a 001a      	movel %a2@(26),%d0
    32da:	9082           	subl %d2,%d0
    32dc:	2400           	movel %d0,%d2
    32de:	b085           	cmpl %d5,%d0
    32e0:	6416           	bccs 32f8 <f_read+0x148>
    32e2:	4878 0200      	pea 200 <SetupChelsie+0x22>
    32e6:	2f0c           	movel %a4,%sp@-
    32e8:	7209           	moveq #9,%d1
    32ea:	e3aa           	lsll %d1,%d2
    32ec:	4873 2800      	pea %a3@(00000000,%d2:l)
    32f0:	4eba eab8      	jsr %pc@(1daa <mem_cpy.part.0>)
    32f4:	4fef 000c      	lea %sp@(12),%sp
    32f8:	2405           	movel %d5,%d2
    32fa:	7009           	moveq #9,%d0
    32fc:	e1aa           	lsll %d0,%d2
    32fe:	6000 0086      	braw 3386 <f_read+0x1d6>
    3302:	202a 001a      	movel %a2@(26),%d0
    3306:	b082           	cmpl %d2,%d0
    3308:	674e           	beqs 3358 <f_read+0x1a8>
    330a:	4a2a 0010      	tstb %a2@(16)
    330e:	6c26           	bges 3336 <f_read+0x186>
    3310:	4878 0001      	pea 1 <__DYNAMIC+0x1>
    3314:	2f00           	movel %d0,%sp@-
    3316:	2f0c           	movel %a4,%sp@-
    3318:	7000           	moveq #0,%d0
    331a:	1029 0001      	moveb %a1@(1),%d0
    331e:	2f00           	movel %d0,%sp@-
    3320:	4eb9 0000 45f8 	jsr 45f8 <disk_write>
    3326:	4fef 0010      	lea %sp@(16),%sp
    332a:	4a80           	tstl %d0
    332c:	6600 ff3e      	bnew 326c <f_read+0xbc>
    3330:	022a 007f 0010 	andib #127,%a2@(16)
    3336:	4878 0001      	pea 1 <__DYNAMIC+0x1>
    333a:	2f02           	movel %d2,%sp@-
    333c:	2f0c           	movel %a4,%sp@-
    333e:	206e fffc      	moveal %fp@(-4),%a0
    3342:	7000           	moveq #0,%d0
    3344:	1028 0001      	moveb %a0@(1),%d0
    3348:	2f00           	movel %d0,%sp@-
    334a:	2044           	moveal %d4,%a0
    334c:	4e90           	jsr %a0@
    334e:	4fef 0010      	lea %sp@(16),%sp
    3352:	4a80           	tstl %d0
    3354:	6600 ff16      	bnew 326c <f_read+0xbc>
    3358:	2542 001a      	movel %d2,%a2@(26)
    335c:	202a 0012      	movel %a2@(18),%d0
    3360:	0280 0000 01ff 	andil #511,%d0
    3366:	223c 0000 0200 	movel #512,%d1
    336c:	9280           	subl %d0,%d1
    336e:	2403           	movel %d3,%d2
    3370:	b283           	cmpl %d3,%d1
    3372:	6402           	bccs 3376 <f_read+0x1c6>
    3374:	2401           	movel %d1,%d2
    3376:	2f02           	movel %d2,%sp@-
    3378:	4874 0800      	pea %a4@(00000000,%d0:l)
    337c:	2f0b           	movel %a3,%sp@-
    337e:	4eba ea2a      	jsr %pc@(1daa <mem_cpy.part.0>)
    3382:	4fef 000c      	lea %sp@(12),%sp
    3386:	9682           	subl %d2,%d3
    3388:	d595           	addl %d2,%a5@
    338a:	d7c2           	addal %d2,%a3
    338c:	d5aa 0012      	addl %d2,%a2@(18)
    3390:	6000 fe7e      	braw 3210 <f_read+0x60>
    3394:	7000           	moveq #0,%d0
    3396:	6002           	bras 339a <f_read+0x1ea>
    3398:	7007           	moveq #7,%d0
    339a:	4cee 3cfc ffd0 	moveml %fp@(-48),%d2-%d7/%a2-%a5
    33a0:	4e5e           	unlk %fp
    33a2:	4e75           	rts

000033a4 <f_write>:
    33a4:	4e56 fff8      	linkw %fp,#-8
    33a8:	48e7 3f3c      	moveml %d2-%d7/%a2-%a5,%sp@-
    33ac:	246e 0008      	moveal %fp@(8),%a2
    33b0:	266e 000c      	moveal %fp@(12),%a3
    33b4:	242e 0010      	movel %fp@(16),%d2
    33b8:	2a6e 0014      	moveal %fp@(20),%a5
    33bc:	4295           	clrl %a5@
    33be:	486e fffc      	pea %fp@(-4)
    33c2:	2f0a           	movel %a2,%sp@-
    33c4:	4eba e9b0      	jsr %pc@(1d76 <validate>)
    33c8:	508f           	addql #8,%sp
    33ca:	4a80           	tstl %d0
    33cc:	6600 01fa      	bnew 35c8 <f_write+0x224>
    33d0:	7000           	moveq #0,%d0
    33d2:	102a 0011      	moveb %a2@(17),%d0
    33d6:	4a80           	tstl %d0
    33d8:	6600 01ee      	bnew 35c8 <f_write+0x224>
    33dc:	082a 0001 0010 	btst #1,%a2@(16)
    33e2:	6700 01e2      	beqw 35c6 <f_write+0x222>
    33e6:	202a 0012      	movel %a2@(18),%d0
    33ea:	2200           	movel %d0,%d1
    33ec:	d282           	addl %d2,%d1
    33ee:	b280           	cmpl %d0,%d1
    33f0:	6404           	bccs 33f6 <f_write+0x52>
    33f2:	2400           	movel %d0,%d2
    33f4:	4682           	notl %d2
    33f6:	49ea 0026      	lea %a2@(38),%a4
    33fa:	283c 0000 45f8 	movel #17912,%d4
    3400:	2a3c 0000 272e 	movel #10030,%d5
    3406:	4a82           	tstl %d2
    3408:	6746           	beqs 3450 <f_write+0xac>
    340a:	202a 0012      	movel %a2@(18),%d0
    340e:	2200           	movel %d0,%d1
    3410:	0281 0000 01ff 	andil #511,%d1
    3416:	6600 015c      	bnew 3574 <f_write+0x1d0>
    341a:	206e fffc      	moveal %fp@(-4),%a0
    341e:	7600           	moveq #0,%d3
    3420:	3628 000a      	movew %a0@(10),%d3
    3424:	2203           	movel %d3,%d1
    3426:	5381           	subql #1,%d1
    3428:	2600           	movel %d0,%d3
    342a:	7c09           	moveq #9,%d6
    342c:	ecab           	lsrl %d6,%d3
    342e:	c681           	andl %d1,%d3
    3430:	665c           	bnes 348e <f_write+0xea>
    3432:	4a80           	tstl %d0
    3434:	660a           	bnes 3440 <f_write+0x9c>
    3436:	202a 0008      	movel %a2@(8),%d0
    343a:	6620           	bnes 345c <f_write+0xb8>
    343c:	42a7           	clrl %sp@-
    343e:	6004           	bras 3444 <f_write+0xa0>
    3440:	2f2a 0016      	movel %a2@(22),%sp@-
    3444:	2f0a           	movel %a2,%sp@-
    3446:	2045           	moveal %d5,%a0
    3448:	4e90           	jsr %a0@
    344a:	508f           	addql #8,%sp
    344c:	4a80           	tstl %d0
    344e:	660c           	bnes 345c <f_write+0xb8>
    3450:	002a 0040 0010 	orib #64,%a2@(16)
    3456:	7000           	moveq #0,%d0
    3458:	6000 016e      	braw 35c8 <f_write+0x224>
    345c:	7201           	moveq #1,%d1
    345e:	b280           	cmpl %d0,%d1
    3460:	660c           	bnes 346e <f_write+0xca>
    3462:	157c 0002 0011 	moveb #2,%a2@(17)
    3468:	7002           	moveq #2,%d0
    346a:	6000 015c      	braw 35c8 <f_write+0x224>
    346e:	7cff           	moveq #-1,%d6
    3470:	bc80           	cmpl %d0,%d6
    3472:	660c           	bnes 3480 <f_write+0xdc>
    3474:	157c 0001 0011 	moveb #1,%a2@(17)
    347a:	7001           	moveq #1,%d0
    347c:	6000 014a      	braw 35c8 <f_write+0x224>
    3480:	2540 0016      	movel %d0,%a2@(22)
    3484:	4aaa 0008      	tstl %a2@(8)
    3488:	6604           	bnes 348e <f_write+0xea>
    348a:	2540 0008      	movel %d0,%a2@(8)
    348e:	4a2a 0010      	tstb %a2@(16)
    3492:	6c28           	bges 34bc <f_write+0x118>
    3494:	4878 0001      	pea 1 <__DYNAMIC+0x1>
    3498:	2f2a 001a      	movel %a2@(26),%sp@-
    349c:	2f0c           	movel %a4,%sp@-
    349e:	206e fffc      	moveal %fp@(-4),%a0
    34a2:	7000           	moveq #0,%d0
    34a4:	1028 0001      	moveb %a0@(1),%d0
    34a8:	2f00           	movel %d0,%sp@-
    34aa:	2044           	moveal %d4,%a0
    34ac:	4e90           	jsr %a0@
    34ae:	4fef 0010      	lea %sp@(16),%sp
    34b2:	4a80           	tstl %d0
    34b4:	66be           	bnes 3474 <f_write+0xd0>
    34b6:	022a 007f 0010 	andib #127,%a2@(16)
    34bc:	226e fffc      	moveal %fp@(-4),%a1
    34c0:	2f2a 0016      	movel %a2@(22),%sp@-
    34c4:	2f09           	movel %a1,%sp@-
    34c6:	2d49 fff8      	movel %a1,%fp@(-8)
    34ca:	4eba e70a      	jsr %pc@(1bd6 <clst2sect>)
    34ce:	508f           	addql #8,%sp
    34d0:	226e fff8      	moveal %fp@(-8),%a1
    34d4:	4a80           	tstl %d0
    34d6:	678a           	beqs 3462 <f_write+0xbe>
    34d8:	2c03           	movel %d3,%d6
    34da:	dc80           	addl %d0,%d6
    34dc:	2e02           	movel %d2,%d7
    34de:	7009           	moveq #9,%d0
    34e0:	e0af           	lsrl %d0,%d7
    34e2:	675c           	beqs 3540 <f_write+0x19c>
    34e4:	7000           	moveq #0,%d0
    34e6:	3029 000a      	movew %a1@(10),%d0
    34ea:	2203           	movel %d3,%d1
    34ec:	d287           	addl %d7,%d1
    34ee:	b081           	cmpl %d1,%d0
    34f0:	6404           	bccs 34f6 <f_write+0x152>
    34f2:	2e00           	movel %d0,%d7
    34f4:	9e83           	subl %d3,%d7
    34f6:	2f07           	movel %d7,%sp@-
    34f8:	2f06           	movel %d6,%sp@-
    34fa:	2f0b           	movel %a3,%sp@-
    34fc:	7000           	moveq #0,%d0
    34fe:	1029 0001      	moveb %a1@(1),%d0
    3502:	2f00           	movel %d0,%sp@-
    3504:	2044           	moveal %d4,%a0
    3506:	4e90           	jsr %a0@
    3508:	4fef 0010      	lea %sp@(16),%sp
    350c:	4a80           	tstl %d0
    350e:	6600 ff64      	bnew 3474 <f_write+0xd0>
    3512:	202a 001a      	movel %a2@(26),%d0
    3516:	9086           	subl %d6,%d0
    3518:	b087           	cmpl %d7,%d0
    351a:	641c           	bccs 3538 <f_write+0x194>
    351c:	4878 0200      	pea 200 <SetupChelsie+0x22>
    3520:	7209           	moveq #9,%d1
    3522:	e3a8           	lsll %d1,%d0
    3524:	4873 0800      	pea %a3@(00000000,%d0:l)
    3528:	2f0c           	movel %a4,%sp@-
    352a:	4eba e87e      	jsr %pc@(1daa <mem_cpy.part.0>)
    352e:	022a 007f 0010 	andib #127,%a2@(16)
    3534:	4fef 000c      	lea %sp@(12),%sp
    3538:	2607           	movel %d7,%d3
    353a:	7c09           	moveq #9,%d6
    353c:	edab           	lsll %d6,%d3
    353e:	6064           	bras 35a4 <f_write+0x200>
    3540:	bcaa 001a      	cmpl %a2@(26),%d6
    3544:	672a           	beqs 3570 <f_write+0x1cc>
    3546:	206a 0012      	moveal %a2@(18),%a0
    354a:	b1ea 000c      	cmpal %a2@(12),%a0
    354e:	6420           	bccs 3570 <f_write+0x1cc>
    3550:	4878 0001      	pea 1 <__DYNAMIC+0x1>
    3554:	2f06           	movel %d6,%sp@-
    3556:	2f0c           	movel %a4,%sp@-
    3558:	7000           	moveq #0,%d0
    355a:	1029 0001      	moveb %a1@(1),%d0
    355e:	2f00           	movel %d0,%sp@-
    3560:	4eb9 0000 4594 	jsr 4594 <disk_read>
    3566:	4fef 0010      	lea %sp@(16),%sp
    356a:	4a80           	tstl %d0
    356c:	6600 ff06      	bnew 3474 <f_write+0xd0>
    3570:	2546 001a      	movel %d6,%a2@(26)
    3574:	202a 0012      	movel %a2@(18),%d0
    3578:	0280 0000 01ff 	andil #511,%d0
    357e:	223c 0000 0200 	movel #512,%d1
    3584:	9280           	subl %d0,%d1
    3586:	2602           	movel %d2,%d3
    3588:	b282           	cmpl %d2,%d1
    358a:	6402           	bccs 358e <f_write+0x1ea>
    358c:	2601           	movel %d1,%d3
    358e:	2f03           	movel %d3,%sp@-
    3590:	2f0b           	movel %a3,%sp@-
    3592:	4874 0800      	pea %a4@(00000000,%d0:l)
    3596:	4eba e812      	jsr %pc@(1daa <mem_cpy.part.0>)
    359a:	002a ff80 0010 	orib #-128,%a2@(16)
    35a0:	4fef 000c      	lea %sp@(12),%sp
    35a4:	9483           	subl %d3,%d2
    35a6:	d795           	addl %d3,%a5@
    35a8:	d7c3           	addal %d3,%a3
    35aa:	2203           	movel %d3,%d1
    35ac:	d2aa 0012      	addl %a2@(18),%d1
    35b0:	2541 0012      	movel %d1,%a2@(18)
    35b4:	202a 000c      	movel %a2@(12),%d0
    35b8:	b280           	cmpl %d0,%d1
    35ba:	6302           	blss 35be <f_write+0x21a>
    35bc:	2001           	movel %d1,%d0
    35be:	2540 000c      	movel %d0,%a2@(12)
    35c2:	6000 fe42      	braw 3406 <f_write+0x62>
    35c6:	7007           	moveq #7,%d0
    35c8:	4cee 3cfc ffd0 	moveml %fp@(-48),%d2-%d7/%a2-%a5
    35ce:	4e5e           	unlk %fp
    35d0:	4e75           	rts

000035d2 <f_sync>:
    35d2:	4e56 fffc      	linkw %fp,#-4
    35d6:	2f0b           	movel %a3,%sp@-
    35d8:	2f0a           	movel %a2,%sp@-
    35da:	246e 0008      	moveal %fp@(8),%a2
    35de:	486e fffc      	pea %fp@(-4)
    35e2:	2f0a           	movel %a2,%sp@-
    35e4:	4eba e790      	jsr %pc@(1d76 <validate>)
    35e8:	508f           	addql #8,%sp
    35ea:	4a80           	tstl %d0
    35ec:	6600 00c2      	bnew 36b0 <f_sync+0xde>
    35f0:	102a 0010      	moveb %a2@(16),%d0
    35f4:	0800 0006      	btst #6,%d0
    35f8:	6700 00b0      	beqw 36aa <f_sync+0xd8>
    35fc:	4a00           	tstb %d0
    35fe:	6c2e           	bges 362e <f_sync+0x5c>
    3600:	4878 0001      	pea 1 <__DYNAMIC+0x1>
    3604:	2f2a 001a      	movel %a2@(26),%sp@-
    3608:	486a 0026      	pea %a2@(38)
    360c:	206e fffc      	moveal %fp@(-4),%a0
    3610:	7000           	moveq #0,%d0
    3612:	1028 0001      	moveb %a0@(1),%d0
    3616:	2f00           	movel %d0,%sp@-
    3618:	4eb9 0000 45f8 	jsr 45f8 <disk_write>
    361e:	4fef 0010      	lea %sp@(16),%sp
    3622:	4a80           	tstl %d0
    3624:	6600 0088      	bnew 36ae <f_sync+0xdc>
    3628:	022a 007f 0010 	andib #127,%a2@(16)
    362e:	2f2a 001e      	movel %a2@(30),%sp@-
    3632:	2f2e fffc      	movel %fp@(-4),%sp@-
    3636:	4eba e908      	jsr %pc@(1f40 <move_window>)
    363a:	508f           	addql #8,%sp
    363c:	4a80           	tstl %d0
    363e:	6670           	bnes 36b0 <f_sync+0xde>
    3640:	266a 0022      	moveal %a2@(34),%a3
    3644:	002b 0020 000b 	orib #32,%a3@(11)
    364a:	2f2a 0008      	movel %a2@(8),%sp@-
    364e:	2f0b           	movel %a3,%sp@-
    3650:	2f12           	movel %a2@,%sp@-
    3652:	4eba e7ae      	jsr %pc@(1e02 <st_clust.isra.2>)
    3656:	202a 000c      	movel %a2@(12),%d0
    365a:	1740 001c      	moveb %d0,%a3@(28)
    365e:	e088           	lsrl #8,%d0
    3660:	1740 001d      	moveb %d0,%a3@(29)
    3664:	e088           	lsrl #8,%d0
    3666:	1740 001e      	moveb %d0,%a3@(30)
    366a:	e088           	lsrl #8,%d0
    366c:	1740 001f      	moveb %d0,%a3@(31)
    3670:	422b 0016      	clrb %a3@(22)
    3674:	422b 0017      	clrb %a3@(23)
    3678:	177c ffda 0018 	moveb #-38,%a3@(24)
    367e:	177c 004c 0019 	moveb #76,%a3@(25)
    3684:	422b 0012      	clrb %a3@(18)
    3688:	422b 0013      	clrb %a3@(19)
    368c:	206e fffc      	moveal %fp@(-4),%a0
    3690:	117c 0001 0003 	moveb #1,%a0@(3)
    3696:	2f2e fffc      	movel %fp@(-4),%sp@-
    369a:	4eba f730      	jsr %pc@(2dcc <sync_fs>)
    369e:	022a ffbf 0010 	andib #-65,%a2@(16)
    36a4:	4fef 0010      	lea %sp@(16),%sp
    36a8:	6006           	bras 36b0 <f_sync+0xde>
    36aa:	7000           	moveq #0,%d0
    36ac:	6002           	bras 36b0 <f_sync+0xde>
    36ae:	7001           	moveq #1,%d0
    36b0:	246e fff4      	moveal %fp@(-12),%a2
    36b4:	266e fff8      	moveal %fp@(-8),%a3
    36b8:	4e5e           	unlk %fp
    36ba:	4e75           	rts

000036bc <f_close>:
    36bc:	4e56 fffc      	linkw %fp,#-4
    36c0:	2f0a           	movel %a2,%sp@-
    36c2:	246e 0008      	moveal %fp@(8),%a2
    36c6:	2f0a           	movel %a2,%sp@-
    36c8:	4eba ff08      	jsr %pc@(35d2 <f_sync>)
    36cc:	588f           	addql #4,%sp
    36ce:	4a80           	tstl %d0
    36d0:	6612           	bnes 36e4 <f_close+0x28>
    36d2:	486e fffc      	pea %fp@(-4)
    36d6:	2f0a           	movel %a2,%sp@-
    36d8:	4eba e69c      	jsr %pc@(1d76 <validate>)
    36dc:	508f           	addql #8,%sp
    36de:	4a80           	tstl %d0
    36e0:	6602           	bnes 36e4 <f_close+0x28>
    36e2:	4292           	clrl %a2@
    36e4:	246e fff8      	moveal %fp@(-8),%a2
    36e8:	4e5e           	unlk %fp
    36ea:	4e75           	rts

000036ec <f_chdir>:
    36ec:	4e56 ffcc      	linkw %fp,#-52
    36f0:	2f0a           	movel %a2,%sp@-
    36f2:	2f02           	movel %d2,%sp@-
    36f4:	42a7           	clrl %sp@-
    36f6:	486e ffcc      	pea %fp@(-52)
    36fa:	486e 0008      	pea %fp@(8)
    36fe:	4eba e928      	jsr %pc@(2028 <find_volume>)
    3702:	2400           	movel %d0,%d2
    3704:	4fef 000c      	lea %sp@(12),%sp
    3708:	6654           	bnes 375e <f_chdir+0x72>
    370a:	2d6e ffcc ffd0 	movel %fp@(-52),%fp@(-48)
    3710:	2f2e 0008      	movel %fp@(8),%sp@-
    3714:	486e ffd0      	pea %fp@(-48)
    3718:	4eba f232      	jsr %pc@(294c <follow_path>)
    371c:	2400           	movel %d0,%d2
    371e:	508f           	addql #8,%sp
    3720:	6634           	bnes 3756 <f_chdir+0x6a>
    3722:	4a2e fffb      	tstb %fp@(-5)
    3726:	6c0c           	bges 3734 <f_chdir+0x48>
    3728:	206e ffcc      	moveal %fp@(-52),%a0
    372c:	216e ffd8 0014 	movel %fp@(-40),%a0@(20)
    3732:	602a           	bras 375e <f_chdir+0x72>
    3734:	082e 0004 ffd6 	btst #4,%fp@(-42)
    373a:	6720           	beqs 375c <f_chdir+0x70>
    373c:	246e ffcc      	moveal %fp@(-52),%a2
    3740:	2f2e ffec      	movel %fp@(-20),%sp@-
    3744:	598f           	subql #4,%sp
    3746:	1f52 0003      	moveb %a2@,%sp@(3)
    374a:	4eba e678      	jsr %pc@(1dc4 <ld_clust.isra.1>)
    374e:	508f           	addql #8,%sp
    3750:	2540 0014      	movel %d0,%a2@(20)
    3754:	6008           	bras 375e <f_chdir+0x72>
    3756:	7004           	moveq #4,%d0
    3758:	b082           	cmpl %d2,%d0
    375a:	6602           	bnes 375e <f_chdir+0x72>
    375c:	7405           	moveq #5,%d2
    375e:	2002           	movel %d2,%d0
    3760:	242e ffc4      	movel %fp@(-60),%d2
    3764:	246e ffc8      	moveal %fp@(-56),%a2
    3768:	4e5e           	unlk %fp
    376a:	4e75           	rts

0000376c <f_getcwd>:
    376c:	4e56 ffb4      	linkw %fp,#-76
    3770:	48e7 3f3c      	moveml %d2-%d7/%a2-%a5,%sp@-
    3774:	206e 0008      	moveal %fp@(8),%a0
    3778:	4210           	clrb %a0@
    377a:	42a7           	clrl %sp@-
    377c:	486e ffb6      	pea %fp@(-74)
    3780:	486e 0008      	pea %fp@(8)
    3784:	4eba e8a2      	jsr %pc@(2028 <find_volume>)
    3788:	2600           	movel %d0,%d3
    378a:	4fef 000c      	lea %sp@(12),%sp
    378e:	6600 0158      	bnew 38e8 <f_getcwd+0x17c>
    3792:	206e ffb6      	moveal %fp@(-74),%a0
    3796:	2d48 ffd0      	movel %a0,%fp@(-48)
    379a:	2d68 0014 ffd8 	movel %a0@(20),%fp@(-40)
    37a0:	242e 000c      	movel %fp@(12),%d2
    37a4:	45ee ffd0      	lea %fp@(-48),%a2
    37a8:	47fa ece6      	lea %pc@(2490 <dir_sdi>),%a3
    37ac:	4bfa e792      	lea %pc@(1f40 <move_window>),%a5
    37b0:	49ee ffba      	lea %fp@(-70),%a4
    37b4:	282e ffd8      	movel %fp@(-40),%d4
    37b8:	6700 00f8      	beqw 38b2 <f_getcwd+0x146>
    37bc:	4878 0020      	pea 20 <__DYNAMIC+0x20>
    37c0:	2f0a           	movel %a2,%sp@-
    37c2:	4e93           	jsr %a3@
    37c4:	508f           	addql #8,%sp
    37c6:	4a80           	tstl %d0
    37c8:	6600 00e2      	bnew 38ac <f_getcwd+0x140>
    37cc:	2f2e ffe8      	movel %fp@(-24),%sp@-
    37d0:	2f2e ffb6      	movel %fp@(-74),%sp@-
    37d4:	4e95           	jsr %a5@
    37d6:	508f           	addql #8,%sp
    37d8:	4a80           	tstl %d0
    37da:	6600 00d0      	bnew 38ac <f_getcwd+0x140>
    37de:	2f2e ffec      	movel %fp@(-20),%sp@-
    37e2:	598f           	subql #4,%sp
    37e4:	206e ffb6      	moveal %fp@(-74),%a0
    37e8:	1f50 0003      	moveb %a0@,%sp@(3)
    37ec:	4eba e5d6      	jsr %pc@(1dc4 <ld_clust.isra.1>)
    37f0:	508f           	addql #8,%sp
    37f2:	2d40 ffd8      	movel %d0,%fp@(-40)
    37f6:	42a7           	clrl %sp@-
    37f8:	2f0a           	movel %a2,%sp@-
    37fa:	4e93           	jsr %a3@
    37fc:	508f           	addql #8,%sp
    37fe:	2c3c 0000 1dc4 	movel #7620,%d6
    3804:	4a80           	tstl %d0
    3806:	6600 00a4      	bnew 38ac <f_getcwd+0x140>
    380a:	2e3c 0000 2bea 	movel #11242,%d7
    3810:	2a3c 0000 285e 	movel #10334,%d5
    3816:	42a7           	clrl %sp@-
    3818:	2f0a           	movel %a2,%sp@-
    381a:	2047           	moveal %d7,%a0
    381c:	4e90           	jsr %a0@
    381e:	508f           	addql #8,%sp
    3820:	4a80           	tstl %d0
    3822:	6600 00b8      	bnew 38dc <f_getcwd+0x170>
    3826:	2f2e ffec      	movel %fp@(-20),%sp@-
    382a:	598f           	subql #4,%sp
    382c:	206e ffb6      	moveal %fp@(-74),%a0
    3830:	1f50 0003      	moveb %a0@,%sp@(3)
    3834:	2046           	moveal %d6,%a0
    3836:	4e90           	jsr %a0@
    3838:	508f           	addql #8,%sp
    383a:	b084           	cmpl %d4,%d0
    383c:	661c           	bnes 385a <f_getcwd+0xee>
    383e:	422e ffc3      	clrb %fp@(-61)
    3842:	4aae ffe8      	tstl %fp@(-24)
    3846:	672a           	beqs 3872 <f_getcwd+0x106>
    3848:	2f0c           	movel %a4,%sp@-
    384a:	2f0a           	movel %a2,%sp@-
    384c:	4eba e5e2      	jsr %pc@(1e30 <get_fileinfo.part.3>)
    3850:	41ee ffc3      	lea %fp@(-61),%a0
    3854:	508f           	addql #8,%sp
    3856:	7000           	moveq #0,%d0
    3858:	6010           	bras 386a <f_getcwd+0xfe>
    385a:	42a7           	clrl %sp@-
    385c:	2f0a           	movel %a2,%sp@-
    385e:	2045           	moveal %d5,%a0
    3860:	4e90           	jsr %a0@
    3862:	508f           	addql #8,%sp
    3864:	4a80           	tstl %d0
    3866:	67ae           	beqs 3816 <f_getcwd+0xaa>
    3868:	6072           	bras 38dc <f_getcwd+0x170>
    386a:	4a18           	tstb %a0@+
    386c:	6706           	beqs 3874 <f_getcwd+0x108>
    386e:	5280           	addql #1,%d0
    3870:	60f8           	bras 386a <f_getcwd+0xfe>
    3872:	7000           	moveq #0,%d0
    3874:	2200           	movel %d0,%d1
    3876:	5681           	addql #3,%d1
    3878:	b282           	cmpl %d2,%d1
    387a:	6234           	bhis 38b0 <f_getcwd+0x144>
    387c:	2802           	movel %d2,%d4
    387e:	9880           	subl %d0,%d4
    3880:	2042           	moveal %d2,%a0
    3882:	2240           	moveal %d0,%a1
    3884:	93c2           	subal %d2,%a1
    3886:	43f4 9800      	lea %a4@(00000000,%a1:l),%a1
    388a:	222e 0008      	movel %fp@(8),%d1
    388e:	b888           	cmpl %a0,%d4
    3890:	670a           	beqs 389c <f_getcwd+0x130>
    3892:	5388           	subql #1,%a0
    3894:	11b0 9809 1800 	moveb %a0@(00000009,%a1:l),%a0@(00000000,%d1:l)
    389a:	60ee           	bras 388a <f_getcwd+0x11e>
    389c:	4680           	notl %d0
    389e:	d480           	addl %d0,%d2
    38a0:	2041           	moveal %d1,%a0
    38a2:	11bc 002f 2800 	moveb #47,%a0@(00000000,%d2:l)
    38a8:	6000 ff0a      	braw 37b4 <f_getcwd+0x48>
    38ac:	2600           	movel %d0,%d3
    38ae:	6002           	bras 38b2 <f_getcwd+0x146>
    38b0:	7611           	moveq #17,%d3
    38b2:	206e 0008      	moveal %fp@(8),%a0
    38b6:	4a83           	tstl %d3
    38b8:	661e           	bnes 38d8 <f_getcwd+0x16c>
    38ba:	b4ae 000c      	cmpl %fp@(12),%d2
    38be:	6608           	bnes 38c8 <f_getcwd+0x15c>
    38c0:	10bc 002f      	moveb #47,%a0@
    38c4:	5288           	addql #1,%a0
    38c6:	6010           	bras 38d8 <f_getcwd+0x16c>
    38c8:	226e 0008      	moveal %fp@(8),%a1
    38cc:	10f1 2800      	moveb %a1@(00000000,%d2:l),%a0@+
    38d0:	5282           	addql #1,%d2
    38d2:	b4ae 000c      	cmpl %fp@(12),%d2
    38d6:	65f0           	bcss 38c8 <f_getcwd+0x15c>
    38d8:	4210           	clrb %a0@
    38da:	600c           	bras 38e8 <f_getcwd+0x17c>
    38dc:	2600           	movel %d0,%d3
    38de:	7004           	moveq #4,%d0
    38e0:	b083           	cmpl %d3,%d0
    38e2:	66ce           	bnes 38b2 <f_getcwd+0x146>
    38e4:	7602           	moveq #2,%d3
    38e6:	60ca           	bras 38b2 <f_getcwd+0x146>
    38e8:	2003           	movel %d3,%d0
    38ea:	4cee 3cfc ff8c 	moveml %fp@(-116),%d2-%d7/%a2-%a5
    38f0:	4e5e           	unlk %fp
    38f2:	4e75           	rts

000038f4 <f_lseek>:
    38f4:	4e56 fffc      	linkw %fp,#-4
    38f8:	48e7 3838      	moveml %d2-%d4/%a2-%a4,%sp@-
    38fc:	246e 0008      	moveal %fp@(8),%a2
    3900:	242e 000c      	movel %fp@(12),%d2
    3904:	486e fffc      	pea %fp@(-4)
    3908:	2f0a           	movel %a2,%sp@-
    390a:	4eba e46a      	jsr %pc@(1d76 <validate>)
    390e:	508f           	addql #8,%sp
    3910:	4a80           	tstl %d0
    3912:	6600 01b8      	bnew 3acc <f_lseek+0x1d8>
    3916:	7000           	moveq #0,%d0
    3918:	102a 0011      	moveb %a2@(17),%d0
    391c:	4a80           	tstl %d0
    391e:	6600 01ac      	bnew 3acc <f_lseek+0x1d8>
    3922:	202a 000c      	movel %a2@(12),%d0
    3926:	b480           	cmpl %d0,%d2
    3928:	630a           	blss 3934 <f_lseek+0x40>
    392a:	082a 0001 0010 	btst #1,%a2@(16)
    3930:	6602           	bnes 3934 <f_lseek+0x40>
    3932:	2400           	movel %d0,%d2
    3934:	282a 0012      	movel %a2@(18),%d4
    3938:	42aa 0012      	clrl %a2@(18)
    393c:	4a82           	tstl %d2
    393e:	6700 0186      	beqw 3ac6 <f_lseek+0x1d2>
    3942:	206e fffc      	moveal %fp@(-4),%a0
    3946:	7600           	moveq #0,%d3
    3948:	3628 000a      	movew %a0@(10),%d3
    394c:	7009           	moveq #9,%d0
    394e:	e1ab           	lsll %d0,%d3
    3950:	4a84           	tstl %d4
    3952:	6734           	beqs 3988 <f_lseek+0x94>
    3954:	5384           	subql #1,%d4
    3956:	47f9 0000 46b0 	lea 46b0 <__udivsi3>,%a3
    395c:	2f03           	movel %d3,%sp@-
    395e:	2042           	moveal %d2,%a0
    3960:	4868 ffff      	pea %a0@(-1)
    3964:	4e93           	jsr %a3@
    3966:	508f           	addql #8,%sp
    3968:	2840           	moveal %d0,%a4
    396a:	2f03           	movel %d3,%sp@-
    396c:	2f04           	movel %d4,%sp@-
    396e:	4e93           	jsr %a3@
    3970:	508f           	addql #8,%sp
    3972:	b08c           	cmpl %a4,%d0
    3974:	6212           	bhis 3988 <f_lseek+0x94>
    3976:	2003           	movel %d3,%d0
    3978:	4480           	negl %d0
    397a:	c880           	andl %d0,%d4
    397c:	2544 0012      	movel %d4,%a2@(18)
    3980:	9484           	subl %d4,%d2
    3982:	202a 0016      	movel %a2@(22),%d0
    3986:	603c           	bras 39c4 <f_lseek+0xd0>
    3988:	202a 0008      	movel %a2@(8),%d0
    398c:	6632           	bnes 39c0 <f_lseek+0xcc>
    398e:	42a7           	clrl %sp@-
    3990:	2f0a           	movel %a2,%sp@-
    3992:	4eba ed9a      	jsr %pc@(272e <create_chain>)
    3996:	508f           	addql #8,%sp
    3998:	7201           	moveq #1,%d1
    399a:	b280           	cmpl %d0,%d1
    399c:	660c           	bnes 39aa <f_lseek+0xb6>
    399e:	157c 0002 0011 	moveb #2,%a2@(17)
    39a4:	7002           	moveq #2,%d0
    39a6:	6000 0124      	braw 3acc <f_lseek+0x1d8>
    39aa:	72ff           	moveq #-1,%d1
    39ac:	b280           	cmpl %d0,%d1
    39ae:	660c           	bnes 39bc <f_lseek+0xc8>
    39b0:	157c 0001 0011 	moveb #1,%a2@(17)
    39b6:	7001           	moveq #1,%d0
    39b8:	6000 0112      	braw 3acc <f_lseek+0x1d8>
    39bc:	2540 0008      	movel %d0,%a2@(8)
    39c0:	2540 0016      	movel %d0,%a2@(22)
    39c4:	4a80           	tstl %d0
    39c6:	6604           	bnes 39cc <f_lseek+0xd8>
    39c8:	7400           	moveq #0,%d2
    39ca:	6074           	bras 3a40 <f_lseek+0x14c>
    39cc:	47fa e9ae      	lea %pc@(237c <get_fat.isra.8>),%a3
    39d0:	49fa ed5c      	lea %pc@(272e <create_chain>),%a4
    39d4:	b682           	cmpl %d2,%d3
    39d6:	6442           	bccs 3a1a <f_lseek+0x126>
    39d8:	9483           	subl %d3,%d2
    39da:	d7aa 0012      	addl %d3,%a2@(18)
    39de:	082a 0001 0010 	btst #1,%a2@(16)
    39e4:	670e           	beqs 39f4 <f_lseek+0x100>
    39e6:	2f00           	movel %d0,%sp@-
    39e8:	2f0a           	movel %a2,%sp@-
    39ea:	4e94           	jsr %a4@
    39ec:	508f           	addql #8,%sp
    39ee:	4a80           	tstl %d0
    39f0:	660a           	bnes 39fc <f_lseek+0x108>
    39f2:	6024           	bras 3a18 <f_lseek+0x124>
    39f4:	2f00           	movel %d0,%sp@-
    39f6:	2f12           	movel %a2@,%sp@-
    39f8:	4e93           	jsr %a3@
    39fa:	508f           	addql #8,%sp
    39fc:	72ff           	moveq #-1,%d1
    39fe:	b280           	cmpl %d0,%d1
    3a00:	67ae           	beqs 39b0 <f_lseek+0xbc>
    3a02:	7201           	moveq #1,%d1
    3a04:	b280           	cmpl %d0,%d1
    3a06:	6496           	bccs 399e <f_lseek+0xaa>
    3a08:	206e fffc      	moveal %fp@(-4),%a0
    3a0c:	b0a8 0018      	cmpl %a0@(24),%d0
    3a10:	648c           	bccs 399e <f_lseek+0xaa>
    3a12:	2540 0016      	movel %d0,%a2@(22)
    3a16:	60bc           	bras 39d4 <f_lseek+0xe0>
    3a18:	7400           	moveq #0,%d2
    3a1a:	d5aa 0012      	addl %d2,%a2@(18)
    3a1e:	2202           	movel %d2,%d1
    3a20:	0281 0000 01ff 	andil #511,%d1
    3a26:	67a0           	beqs 39c8 <f_lseek+0xd4>
    3a28:	2f00           	movel %d0,%sp@-
    3a2a:	2f2e fffc      	movel %fp@(-4),%sp@-
    3a2e:	4eba e1a6      	jsr %pc@(1bd6 <clst2sect>)
    3a32:	508f           	addql #8,%sp
    3a34:	4a80           	tstl %d0
    3a36:	6700 ff66      	beqw 399e <f_lseek+0xaa>
    3a3a:	7209           	moveq #9,%d1
    3a3c:	e2aa           	lsrl %d1,%d2
    3a3e:	d480           	addl %d0,%d2
    3a40:	202a 0012      	movel %a2@(18),%d0
    3a44:	b0aa 000c      	cmpl %a2@(12),%d0
    3a48:	630a           	blss 3a54 <f_lseek+0x160>
    3a4a:	2540 000c      	movel %d0,%a2@(12)
    3a4e:	002a 0040 0010 	orib #64,%a2@(16)
    3a54:	0280 0000 01ff 	andil #511,%d0
    3a5a:	6766           	beqs 3ac2 <f_lseek+0x1ce>
    3a5c:	202a 001a      	movel %a2@(26),%d0
    3a60:	b480           	cmpl %d0,%d2
    3a62:	675e           	beqs 3ac2 <f_lseek+0x1ce>
    3a64:	47ea 0026      	lea %a2@(38),%a3
    3a68:	4a2a 0010      	tstb %a2@(16)
    3a6c:	6c2a           	bges 3a98 <f_lseek+0x1a4>
    3a6e:	4878 0001      	pea 1 <__DYNAMIC+0x1>
    3a72:	2f00           	movel %d0,%sp@-
    3a74:	2f0b           	movel %a3,%sp@-
    3a76:	206e fffc      	moveal %fp@(-4),%a0
    3a7a:	7000           	moveq #0,%d0
    3a7c:	1028 0001      	moveb %a0@(1),%d0
    3a80:	2f00           	movel %d0,%sp@-
    3a82:	4eb9 0000 45f8 	jsr 45f8 <disk_write>
    3a88:	4fef 0010      	lea %sp@(16),%sp
    3a8c:	4a80           	tstl %d0
    3a8e:	6600 ff20      	bnew 39b0 <f_lseek+0xbc>
    3a92:	022a 007f 0010 	andib #127,%a2@(16)
    3a98:	4878 0001      	pea 1 <__DYNAMIC+0x1>
    3a9c:	2f02           	movel %d2,%sp@-
    3a9e:	2f0b           	movel %a3,%sp@-
    3aa0:	206e fffc      	moveal %fp@(-4),%a0
    3aa4:	7000           	moveq #0,%d0
    3aa6:	1028 0001      	moveb %a0@(1),%d0
    3aaa:	2f00           	movel %d0,%sp@-
    3aac:	4eb9 0000 4594 	jsr 4594 <disk_read>
    3ab2:	4fef 0010      	lea %sp@(16),%sp
    3ab6:	4a80           	tstl %d0
    3ab8:	6600 fef6      	bnew 39b0 <f_lseek+0xbc>
    3abc:	2542 001a      	movel %d2,%a2@(26)
    3ac0:	600a           	bras 3acc <f_lseek+0x1d8>
    3ac2:	7000           	moveq #0,%d0
    3ac4:	6006           	bras 3acc <f_lseek+0x1d8>
    3ac6:	7000           	moveq #0,%d0
    3ac8:	7400           	moveq #0,%d2
    3aca:	6088           	bras 3a54 <f_lseek+0x160>
    3acc:	4cee 1c1c ffe4 	moveml %fp@(-28),%d2-%d4/%a2-%a4
    3ad2:	4e5e           	unlk %fp
    3ad4:	4e75           	rts

00003ad6 <f_opendir>:
    3ad6:	4e56 fffc      	linkw %fp,#-4
    3ada:	2f0a           	movel %a2,%sp@-
    3adc:	246e 0008      	moveal %fp@(8),%a2
    3ae0:	b4fc 0000      	cmpaw #0,%a2
    3ae4:	6772           	beqs 3b58 <f_opendir+0x82>
    3ae6:	42a7           	clrl %sp@-
    3ae8:	486e fffc      	pea %fp@(-4)
    3aec:	486e 000c      	pea %fp@(12)
    3af0:	4eba e536      	jsr %pc@(2028 <find_volume>)
    3af4:	4fef 000c      	lea %sp@(12),%sp
    3af8:	4a80           	tstl %d0
    3afa:	6656           	bnes 3b52 <f_opendir+0x7c>
    3afc:	24ae fffc      	movel %fp@(-4),%a2@
    3b00:	2f2e 000c      	movel %fp@(12),%sp@-
    3b04:	2f0a           	movel %a2,%sp@-
    3b06:	4eba ee44      	jsr %pc@(294c <follow_path>)
    3b0a:	508f           	addql #8,%sp
    3b0c:	4a80           	tstl %d0
    3b0e:	6654           	bnes 3b64 <f_opendir+0x8e>
    3b10:	4a2a 002b      	tstb %a2@(43)
    3b14:	6d20           	blts 3b36 <f_opendir+0x60>
    3b16:	082a 0004 0006 	btst #4,%a2@(6)
    3b1c:	6732           	beqs 3b50 <f_opendir+0x7a>
    3b1e:	2f2a 001c      	movel %a2@(28),%sp@-
    3b22:	598f           	subql #4,%sp
    3b24:	206e fffc      	moveal %fp@(-4),%a0
    3b28:	1f50 0003      	moveb %a0@,%sp@(3)
    3b2c:	4eba e296      	jsr %pc@(1dc4 <ld_clust.isra.1>)
    3b30:	508f           	addql #8,%sp
    3b32:	2540 0008      	movel %d0,%a2@(8)
    3b36:	206e fffc      	moveal %fp@(-4),%a0
    3b3a:	3568 0006 0004 	movew %a0@(6),%a2@(4)
    3b40:	42a7           	clrl %sp@-
    3b42:	2f0a           	movel %a2,%sp@-
    3b44:	4eba e94a      	jsr %pc@(2490 <dir_sdi>)
    3b48:	508f           	addql #8,%sp
    3b4a:	7204           	moveq #4,%d1
    3b4c:	b280           	cmpl %d0,%d1
    3b4e:	660c           	bnes 3b5c <f_opendir+0x86>
    3b50:	7005           	moveq #5,%d0
    3b52:	4292           	clrl %a2@
    3b54:	2200           	movel %d0,%d1
    3b56:	6014           	bras 3b6c <f_opendir+0x96>
    3b58:	7209           	moveq #9,%d1
    3b5a:	6010           	bras 3b6c <f_opendir+0x96>
    3b5c:	7200           	moveq #0,%d1
    3b5e:	4a80           	tstl %d0
    3b60:	670a           	beqs 3b6c <f_opendir+0x96>
    3b62:	60ee           	bras 3b52 <f_opendir+0x7c>
    3b64:	7204           	moveq #4,%d1
    3b66:	b280           	cmpl %d0,%d1
    3b68:	67e6           	beqs 3b50 <f_opendir+0x7a>
    3b6a:	60e6           	bras 3b52 <f_opendir+0x7c>
    3b6c:	2001           	movel %d1,%d0
    3b6e:	246e fff8      	moveal %fp@(-8),%a2
    3b72:	4e5e           	unlk %fp
    3b74:	4e75           	rts

00003b76 <f_closedir>:
    3b76:	4e56 fffc      	linkw %fp,#-4
    3b7a:	2f0a           	movel %a2,%sp@-
    3b7c:	246e 0008      	moveal %fp@(8),%a2
    3b80:	486e fffc      	pea %fp@(-4)
    3b84:	2f0a           	movel %a2,%sp@-
    3b86:	4eba e1ee      	jsr %pc@(1d76 <validate>)
    3b8a:	508f           	addql #8,%sp
    3b8c:	4a80           	tstl %d0
    3b8e:	6602           	bnes 3b92 <f_closedir+0x1c>
    3b90:	4292           	clrl %a2@
    3b92:	246e fff8      	moveal %fp@(-8),%a2
    3b96:	4e5e           	unlk %fp
    3b98:	4e75           	rts

00003b9a <f_readdir>:
    3b9a:	4e56 fffc      	linkw %fp,#-4
    3b9e:	48e7 2030      	moveml %d2/%a2-%a3,%sp@-
    3ba2:	246e 0008      	moveal %fp@(8),%a2
    3ba6:	266e 000c      	moveal %fp@(12),%a3
    3baa:	486e fffc      	pea %fp@(-4)
    3bae:	2f0a           	movel %a2,%sp@-
    3bb0:	4eba e1c4      	jsr %pc@(1d76 <validate>)
    3bb4:	2400           	movel %d0,%d2
    3bb6:	508f           	addql #8,%sp
    3bb8:	664a           	bnes 3c04 <f_readdir+0x6a>
    3bba:	b6fc 0000      	cmpaw #0,%a3
    3bbe:	660e           	bnes 3bce <f_readdir+0x34>
    3bc0:	42a7           	clrl %sp@-
    3bc2:	2f0a           	movel %a2,%sp@-
    3bc4:	4eba e8ca      	jsr %pc@(2490 <dir_sdi>)
    3bc8:	2400           	movel %d0,%d2
    3bca:	508f           	addql #8,%sp
    3bcc:	6036           	bras 3c04 <f_readdir+0x6a>
    3bce:	42a7           	clrl %sp@-
    3bd0:	2f0a           	movel %a2,%sp@-
    3bd2:	4eba f016      	jsr %pc@(2bea <dir_read>)
    3bd6:	72fb           	moveq #-5,%d1
    3bd8:	c280           	andl %d0,%d1
    3bda:	508f           	addql #8,%sp
    3bdc:	6624           	bnes 3c02 <f_readdir+0x68>
    3bde:	422b 0009      	clrb %a3@(9)
    3be2:	4aaa 0018      	tstl %a2@(24)
    3be6:	670a           	beqs 3bf2 <f_readdir+0x58>
    3be8:	2f0b           	movel %a3,%sp@-
    3bea:	2f0a           	movel %a2,%sp@-
    3bec:	4eba e242      	jsr %pc@(1e30 <get_fileinfo.part.3>)
    3bf0:	508f           	addql #8,%sp
    3bf2:	42a7           	clrl %sp@-
    3bf4:	2f0a           	movel %a2,%sp@-
    3bf6:	4eba ec66      	jsr %pc@(285e <dir_next>)
    3bfa:	508f           	addql #8,%sp
    3bfc:	7204           	moveq #4,%d1
    3bfe:	b280           	cmpl %d0,%d1
    3c00:	6702           	beqs 3c04 <f_readdir+0x6a>
    3c02:	2400           	movel %d0,%d2
    3c04:	2002           	movel %d2,%d0
    3c06:	4cee 0c04 fff0 	moveml %fp@(-16),%d2/%a2-%a3
    3c0c:	4e5e           	unlk %fp
    3c0e:	4e75           	rts

00003c10 <f_findnext>:
    3c10:	48e7 203e      	moveml %d2/%a2-%fp,%sp@-
    3c14:	266f 001c      	moveal %sp@(28),%a3
    3c18:	246f 0020      	moveal %sp@(32),%a2
    3c1c:	4dfa ff7c      	lea %pc@(3b9a <f_readdir>),%fp
    3c20:	4bea 0009      	lea %a2@(9),%a5
    3c24:	49fa e020      	lea %pc@(1c46 <pattern_matching>),%a4
    3c28:	2f0a           	movel %a2,%sp@-
    3c2a:	2f0b           	movel %a3,%sp@-
    3c2c:	4e96           	jsr %fp@
    3c2e:	2400           	movel %d0,%d2
    3c30:	508f           	addql #8,%sp
    3c32:	6620           	bnes 3c54 <f_findnext+0x44>
    3c34:	b4fc 0000      	cmpaw #0,%a2
    3c38:	671a           	beqs 3c54 <f_findnext+0x44>
    3c3a:	4a2a 0009      	tstb %a2@(9)
    3c3e:	6714           	beqs 3c54 <f_findnext+0x44>
    3c40:	42a7           	clrl %sp@-
    3c42:	42a7           	clrl %sp@-
    3c44:	2f0d           	movel %a5,%sp@-
    3c46:	2f2b 002c      	movel %a3@(44),%sp@-
    3c4a:	4e94           	jsr %a4@
    3c4c:	4fef 0010      	lea %sp@(16),%sp
    3c50:	4a80           	tstl %d0
    3c52:	67d4           	beqs 3c28 <f_findnext+0x18>
    3c54:	2002           	movel %d2,%d0
    3c56:	4cdf 7c04      	moveml %sp@+,%d2/%a2-%fp
    3c5a:	4e75           	rts

00003c5c <f_findfirst>:
    3c5c:	2f0a           	movel %a2,%sp@-
    3c5e:	2f02           	movel %d2,%sp@-
    3c60:	246f 000c      	moveal %sp@(12),%a2
    3c64:	242f 0010      	movel %sp@(16),%d2
    3c68:	256f 0018 002c 	movel %sp@(24),%a2@(44)
    3c6e:	2f2f 0014      	movel %sp@(20),%sp@-
    3c72:	2f0a           	movel %a2,%sp@-
    3c74:	4eba fe60      	jsr %pc@(3ad6 <f_opendir>)
    3c78:	508f           	addql #8,%sp
    3c7a:	4a80           	tstl %d0
    3c7c:	660e           	bnes 3c8c <f_findfirst+0x30>
    3c7e:	2f42 0010      	movel %d2,%sp@(16)
    3c82:	2f4a 000c      	movel %a2,%sp@(12)
    3c86:	241f           	movel %sp@+,%d2
    3c88:	245f           	moveal %sp@+,%a2
    3c8a:	6084           	bras 3c10 <f_findnext>
    3c8c:	241f           	movel %sp@+,%d2
    3c8e:	245f           	moveal %sp@+,%a2
    3c90:	4e75           	rts

00003c92 <f_stat>:
    3c92:	4e56 ffcc      	linkw %fp,#-52
    3c96:	2f0b           	movel %a3,%sp@-
    3c98:	2f0a           	movel %a2,%sp@-
    3c9a:	266e 000c      	moveal %fp@(12),%a3
    3c9e:	42a7           	clrl %sp@-
    3ca0:	45ee ffd0      	lea %fp@(-48),%a2
    3ca4:	2f0a           	movel %a2,%sp@-
    3ca6:	486e 0008      	pea %fp@(8)
    3caa:	4eba e37c      	jsr %pc@(2028 <find_volume>)
    3cae:	4fef 000c      	lea %sp@(12),%sp
    3cb2:	4a80           	tstl %d0
    3cb4:	663c           	bnes 3cf2 <f_stat+0x60>
    3cb6:	2f2e 0008      	movel %fp@(8),%sp@-
    3cba:	2f0a           	movel %a2,%sp@-
    3cbc:	4eba ec8e      	jsr %pc@(294c <follow_path>)
    3cc0:	508f           	addql #8,%sp
    3cc2:	4a80           	tstl %d0
    3cc4:	662c           	bnes 3cf2 <f_stat+0x60>
    3cc6:	4a2e fffb      	tstb %fp@(-5)
    3cca:	6d24           	blts 3cf0 <f_stat+0x5e>
    3ccc:	b6fc 0000      	cmpaw #0,%a3
    3cd0:	6720           	beqs 3cf2 <f_stat+0x60>
    3cd2:	422b 0009      	clrb %a3@(9)
    3cd6:	4aae ffe8      	tstl %fp@(-24)
    3cda:	6716           	beqs 3cf2 <f_stat+0x60>
    3cdc:	2f0b           	movel %a3,%sp@-
    3cde:	2f0a           	movel %a2,%sp@-
    3ce0:	2d40 ffcc      	movel %d0,%fp@(-52)
    3ce4:	4eba e14a      	jsr %pc@(1e30 <get_fileinfo.part.3>)
    3ce8:	508f           	addql #8,%sp
    3cea:	202e ffcc      	movel %fp@(-52),%d0
    3cee:	6002           	bras 3cf2 <f_stat+0x60>
    3cf0:	7006           	moveq #6,%d0
    3cf2:	246e ffc4      	moveal %fp@(-60),%a2
    3cf6:	266e ffc8      	moveal %fp@(-56),%a3
    3cfa:	4e5e           	unlk %fp
    3cfc:	4e75           	rts

00003cfe <f_getfree>:
    3cfe:	4e56 fffc      	linkw %fp,#-4
    3d02:	48e7 3f38      	moveml %d2-%d7/%a2-%a4,%sp@-
    3d06:	266e 000c      	moveal %fp@(12),%a3
    3d0a:	42a7           	clrl %sp@-
    3d0c:	486e fffc      	pea %fp@(-4)
    3d10:	486e 0008      	pea %fp@(8)
    3d14:	4eba e312      	jsr %pc@(2028 <find_volume>)
    3d18:	2800           	movel %d0,%d4
    3d1a:	4fef 000c      	lea %sp@(12),%sp
    3d1e:	6600 00e4      	bnew 3e04 <f_getfree+0x106>
    3d22:	246e fffc      	moveal %fp@(-4),%a2
    3d26:	206e 0010      	moveal %fp@(16),%a0
    3d2a:	208a           	movel %a2,%a0@
    3d2c:	202a 0010      	movel %a2@(16),%d0
    3d30:	2a2a 0018      	movel %a2@(24),%d5
    3d34:	2205           	movel %d5,%d1
    3d36:	5581           	subql #2,%d1
    3d38:	b280           	cmpl %d0,%d1
    3d3a:	6506           	bcss 3d42 <f_getfree+0x44>
    3d3c:	2680           	movel %d0,%a3@
    3d3e:	6000 00c4      	braw 3e04 <f_getfree+0x106>
    3d42:	0c12 0001      	cmpib #1,%a2@
    3d46:	6634           	bnes 3d7c <f_getfree+0x7e>
    3d48:	7602           	moveq #2,%d3
    3d4a:	7400           	moveq #0,%d2
    3d4c:	49fa e62e      	lea %pc@(237c <get_fat.isra.8>),%a4
    3d50:	2f03           	movel %d3,%sp@-
    3d52:	2f0a           	movel %a2,%sp@-
    3d54:	4e94           	jsr %a4@
    3d56:	508f           	addql #8,%sp
    3d58:	72ff           	moveq #-1,%d1
    3d5a:	b280           	cmpl %d0,%d1
    3d5c:	6700 008c      	beqw 3dea <f_getfree+0xec>
    3d60:	7201           	moveq #1,%d1
    3d62:	b280           	cmpl %d0,%d1
    3d64:	6700 0088      	beqw 3dee <f_getfree+0xf0>
    3d68:	4a80           	tstl %d0
    3d6a:	6602           	bnes 3d6e <f_getfree+0x70>
    3d6c:	5282           	addql #1,%d2
    3d6e:	5283           	addql #1,%d3
    3d70:	206e fffc      	moveal %fp@(-4),%a0
    3d74:	b6a8 0018      	cmpl %a0@(24),%d3
    3d78:	65d6           	bcss 3d50 <f_getfree+0x52>
    3d7a:	6078           	bras 3df4 <f_getfree+0xf6>
    3d7c:	2c2a 0024      	movel %a2@(36),%d6
    3d80:	7600           	moveq #0,%d3
    3d82:	7400           	moveq #0,%d2
    3d84:	45fa e1ba      	lea %pc@(1f40 <move_window>),%a2
    3d88:	49fa ddfe      	lea %pc@(1b88 <ld_dword>),%a4
    3d8c:	4a83           	tstl %d3
    3d8e:	6614           	bnes 3da4 <f_getfree+0xa6>
    3d90:	2e06           	movel %d6,%d7
    3d92:	5287           	addql #1,%d7
    3d94:	2f06           	movel %d6,%sp@-
    3d96:	2f2e fffc      	movel %fp@(-4),%sp@-
    3d9a:	4e92           	jsr %a2@
    3d9c:	508f           	addql #8,%sp
    3d9e:	4a80           	tstl %d0
    3da0:	6650           	bnes 3df2 <f_getfree+0xf4>
    3da2:	2c07           	movel %d7,%d6
    3da4:	226e fffc      	moveal %fp@(-4),%a1
    3da8:	41e9 0034      	lea %a1@(52),%a0
    3dac:	0c11 0002      	cmpib #2,%a1@
    3db0:	6618           	bnes 3dca <f_getfree+0xcc>
    3db2:	d1c3           	addal %d3,%a0
    3db4:	7000           	moveq #0,%d0
    3db6:	1028 0001      	moveb %a0@(1),%d0
    3dba:	e188           	lsll #8,%d0
    3dbc:	4241           	clrw %d1
    3dbe:	1210           	moveb %a0@,%d1
    3dc0:	8041           	orw %d1,%d0
    3dc2:	6602           	bnes 3dc6 <f_getfree+0xc8>
    3dc4:	5282           	addql #1,%d2
    3dc6:	5483           	addql #2,%d3
    3dc8:	6014           	bras 3dde <f_getfree+0xe0>
    3dca:	4870 3800      	pea %a0@(00000000,%d3:l)
    3dce:	4e94           	jsr %a4@
    3dd0:	588f           	addql #4,%sp
    3dd2:	0280 0fff ffff 	andil #268435455,%d0
    3dd8:	6602           	bnes 3ddc <f_getfree+0xde>
    3dda:	5282           	addql #1,%d2
    3ddc:	5883           	addql #4,%d3
    3dde:	0283 0000 01ff 	andil #511,%d3
    3de4:	5385           	subql #1,%d5
    3de6:	66a4           	bnes 3d8c <f_getfree+0x8e>
    3de8:	600a           	bras 3df4 <f_getfree+0xf6>
    3dea:	7801           	moveq #1,%d4
    3dec:	6006           	bras 3df4 <f_getfree+0xf6>
    3dee:	7802           	moveq #2,%d4
    3df0:	6002           	bras 3df4 <f_getfree+0xf6>
    3df2:	2800           	movel %d0,%d4
    3df4:	2682           	movel %d2,%a3@
    3df6:	206e fffc      	moveal %fp@(-4),%a0
    3dfa:	2142 0010      	movel %d2,%a0@(16)
    3dfe:	0028 0001 0004 	orib #1,%a0@(4)
    3e04:	2004           	movel %d4,%d0
    3e06:	4cee 1cfc ffd8 	moveml %fp@(-40),%d2-%d7/%a2-%a4
    3e0c:	4e5e           	unlk %fp
    3e0e:	4e75           	rts

00003e10 <f_truncate>:
    3e10:	4e56 fffc      	linkw %fp,#-4
    3e14:	2f0a           	movel %a2,%sp@-
    3e16:	2f02           	movel %d2,%sp@-
    3e18:	246e 0008      	moveal %fp@(8),%a2
    3e1c:	486e fffc      	pea %fp@(-4)
    3e20:	2f0a           	movel %a2,%sp@-
    3e22:	4eba df52      	jsr %pc@(1d76 <validate>)
    3e26:	508f           	addql #8,%sp
    3e28:	4a80           	tstl %d0
    3e2a:	6600 00d0      	bnew 3efc <f_truncate+0xec>
    3e2e:	7400           	moveq #0,%d2
    3e30:	142a 0011      	moveb %a2@(17),%d2
    3e34:	4a82           	tstl %d2
    3e36:	6600 00c2      	bnew 3efa <f_truncate+0xea>
    3e3a:	082a 0001 0010 	btst #1,%a2@(16)
    3e40:	6700 00aa      	beqw 3eec <f_truncate+0xdc>
    3e44:	202a 0012      	movel %a2@(18),%d0
    3e48:	b0aa 000c      	cmpl %a2@(12),%d0
    3e4c:	6400 00a2      	bccw 3ef0 <f_truncate+0xe0>
    3e50:	4a80           	tstl %d0
    3e52:	6614           	bnes 3e68 <f_truncate+0x58>
    3e54:	42a7           	clrl %sp@-
    3e56:	2f2a 0008      	movel %a2@(8),%sp@-
    3e5a:	2f0a           	movel %a2,%sp@-
    3e5c:	4eba eed2      	jsr %pc@(2d30 <remove_chain>)
    3e60:	2400           	movel %d0,%d2
    3e62:	42aa 0008      	clrl %a2@(8)
    3e66:	6034           	bras 3e9c <f_truncate+0x8c>
    3e68:	2f2a 0016      	movel %a2@(22),%sp@-
    3e6c:	2f12           	movel %a2@,%sp@-
    3e6e:	4eba e50c      	jsr %pc@(237c <get_fat.isra.8>)
    3e72:	508f           	addql #8,%sp
    3e74:	72ff           	moveq #-1,%d1
    3e76:	b280           	cmpl %d0,%d1
    3e78:	6728           	beqs 3ea2 <f_truncate+0x92>
    3e7a:	7201           	moveq #1,%d1
    3e7c:	b280           	cmpl %d0,%d1
    3e7e:	6604           	bnes 3e84 <f_truncate+0x74>
    3e80:	7402           	moveq #2,%d2
    3e82:	6020           	bras 3ea4 <f_truncate+0x94>
    3e84:	206e fffc      	moveal %fp@(-4),%a0
    3e88:	b0a8 0018      	cmpl %a0@(24),%d0
    3e8c:	6416           	bccs 3ea4 <f_truncate+0x94>
    3e8e:	2f2a 0016      	movel %a2@(22),%sp@-
    3e92:	2f00           	movel %d0,%sp@-
    3e94:	2f0a           	movel %a2,%sp@-
    3e96:	4eba ee98      	jsr %pc@(2d30 <remove_chain>)
    3e9a:	2400           	movel %d0,%d2
    3e9c:	4fef 000c      	lea %sp@(12),%sp
    3ea0:	6002           	bras 3ea4 <f_truncate+0x94>
    3ea2:	7401           	moveq #1,%d2
    3ea4:	256a 0012 000c 	movel %a2@(18),%a2@(12)
    3eaa:	102a 0010      	moveb %a2@(16),%d0
    3eae:	0000 0040      	orib #64,%d0
    3eb2:	1540 0010      	moveb %d0,%a2@(16)
    3eb6:	4a82           	tstl %d2
    3eb8:	663c           	bnes 3ef6 <f_truncate+0xe6>
    3eba:	4a00           	tstb %d0
    3ebc:	6c32           	bges 3ef0 <f_truncate+0xe0>
    3ebe:	4878 0001      	pea 1 <__DYNAMIC+0x1>
    3ec2:	2f2a 001a      	movel %a2@(26),%sp@-
    3ec6:	486a 0026      	pea %a2@(38)
    3eca:	206e fffc      	moveal %fp@(-4),%a0
    3ece:	7000           	moveq #0,%d0
    3ed0:	1028 0001      	moveb %a0@(1),%d0
    3ed4:	2f00           	movel %d0,%sp@-
    3ed6:	4eb9 0000 45f8 	jsr 45f8 <disk_write>
    3edc:	4fef 0010      	lea %sp@(16),%sp
    3ee0:	4a80           	tstl %d0
    3ee2:	6610           	bnes 3ef4 <f_truncate+0xe4>
    3ee4:	022a 007f 0010 	andib #127,%a2@(16)
    3eea:	6004           	bras 3ef0 <f_truncate+0xe0>
    3eec:	7007           	moveq #7,%d0
    3eee:	600c           	bras 3efc <f_truncate+0xec>
    3ef0:	7000           	moveq #0,%d0
    3ef2:	6008           	bras 3efc <f_truncate+0xec>
    3ef4:	7401           	moveq #1,%d2
    3ef6:	1542 0011      	moveb %d2,%a2@(17)
    3efa:	2002           	movel %d2,%d0
    3efc:	242e fff4      	movel %fp@(-12),%d2
    3f00:	246e fff8      	moveal %fp@(-8),%a2
    3f04:	4e5e           	unlk %fp
    3f06:	4e75           	rts

00003f08 <f_unlink>:
    3f08:	4e56 ff9c      	linkw %fp,#-100
    3f0c:	48e7 3030      	moveml %d2-%d3/%a2-%a3,%sp@-
    3f10:	4878 0002      	pea 2 <__DYNAMIC+0x2>
    3f14:	486e ff9c      	pea %fp@(-100)
    3f18:	486e 0008      	pea %fp@(8)
    3f1c:	4eba e10a      	jsr %pc@(2028 <find_volume>)
    3f20:	4fef 000c      	lea %sp@(12),%sp
    3f24:	4a80           	tstl %d0
    3f26:	6600 00d8      	bnew 4000 <f_unlink+0xf8>
    3f2a:	2d6e ff9c ffa0 	movel %fp@(-100),%fp@(-96)
    3f30:	2f2e 0008      	movel %fp@(8),%sp@-
    3f34:	47ee ffa0      	lea %fp@(-96),%a3
    3f38:	2f0b           	movel %a3,%sp@-
    3f3a:	4eba ea10      	jsr %pc@(294c <follow_path>)
    3f3e:	508f           	addql #8,%sp
    3f40:	4a80           	tstl %d0
    3f42:	6600 00bc      	bnew 4000 <f_unlink+0xf8>
    3f46:	102e ffcb      	moveb %fp@(-53),%d0
    3f4a:	0800 0005      	btst #5,%d0
    3f4e:	6610           	bnes 3f60 <f_unlink+0x58>
    3f50:	4a00           	tstb %d0
    3f52:	6d0c           	blts 3f60 <f_unlink+0x58>
    3f54:	162e ffa6      	moveb %fp@(-90),%d3
    3f58:	0803 0000      	btst #0,%d3
    3f5c:	665a           	bnes 3fb8 <f_unlink+0xb0>
    3f5e:	6006           	bras 3f66 <f_unlink+0x5e>
    3f60:	7006           	moveq #6,%d0
    3f62:	6000 009c      	braw 4000 <f_unlink+0xf8>
    3f66:	246e ff9c      	moveal %fp@(-100),%a2
    3f6a:	2f2e ffbc      	movel %fp@(-68),%sp@-
    3f6e:	598f           	subql #4,%sp
    3f70:	1f52 0003      	moveb %a2@,%sp@(3)
    3f74:	4eba de4e      	jsr %pc@(1dc4 <ld_clust.isra.1>)
    3f78:	508f           	addql #8,%sp
    3f7a:	2400           	movel %d0,%d2
    3f7c:	0803 0004      	btst #4,%d3
    3f80:	673a           	beqs 3fbc <f_unlink+0xb4>
    3f82:	b4aa 0014      	cmpl %a2@(20),%d2
    3f86:	6730           	beqs 3fb8 <f_unlink+0xb0>
    3f88:	2d4a ffd0      	movel %a2,%fp@(-48)
    3f8c:	2d42 ffd8      	movel %d2,%fp@(-40)
    3f90:	42a7           	clrl %sp@-
    3f92:	45ee ffd0      	lea %fp@(-48),%a2
    3f96:	2f0a           	movel %a2,%sp@-
    3f98:	4eba e4f6      	jsr %pc@(2490 <dir_sdi>)
    3f9c:	508f           	addql #8,%sp
    3f9e:	4a80           	tstl %d0
    3fa0:	665e           	bnes 4000 <f_unlink+0xf8>
    3fa2:	42a7           	clrl %sp@-
    3fa4:	2f0a           	movel %a2,%sp@-
    3fa6:	4eba ec42      	jsr %pc@(2bea <dir_read>)
    3faa:	508f           	addql #8,%sp
    3fac:	4a80           	tstl %d0
    3fae:	6708           	beqs 3fb8 <f_unlink+0xb0>
    3fb0:	7204           	moveq #4,%d1
    3fb2:	b280           	cmpl %d0,%d1
    3fb4:	6706           	beqs 3fbc <f_unlink+0xb4>
    3fb6:	6048           	bras 4000 <f_unlink+0xf8>
    3fb8:	7007           	moveq #7,%d0
    3fba:	6044           	bras 4000 <f_unlink+0xf8>
    3fbc:	246e ffa0      	moveal %fp@(-96),%a2
    3fc0:	2f2e ffb8      	movel %fp@(-72),%sp@-
    3fc4:	2f0a           	movel %a2,%sp@-
    3fc6:	4eba df78      	jsr %pc@(1f40 <move_window>)
    3fca:	508f           	addql #8,%sp
    3fcc:	4a80           	tstl %d0
    3fce:	6630           	bnes 4000 <f_unlink+0xf8>
    3fd0:	206e ffbc      	moveal %fp@(-68),%a0
    3fd4:	10bc ffe5      	moveb #-27,%a0@
    3fd8:	157c 0001 0003 	moveb #1,%a2@(3)
    3fde:	4a82           	tstl %d2
    3fe0:	660c           	bnes 3fee <f_unlink+0xe6>
    3fe2:	2f2e ff9c      	movel %fp@(-100),%sp@-
    3fe6:	4eba ede4      	jsr %pc@(2dcc <sync_fs>)
    3fea:	588f           	addql #4,%sp
    3fec:	6012           	bras 4000 <f_unlink+0xf8>
    3fee:	42a7           	clrl %sp@-
    3ff0:	2f02           	movel %d2,%sp@-
    3ff2:	2f0b           	movel %a3,%sp@-
    3ff4:	4eba ed3a      	jsr %pc@(2d30 <remove_chain>)
    3ff8:	4fef 000c      	lea %sp@(12),%sp
    3ffc:	4a80           	tstl %d0
    3ffe:	67e2           	beqs 3fe2 <f_unlink+0xda>
    4000:	4cee 0c0c ff8c 	moveml %fp@(-116),%d2-%d3/%a2-%a3
    4006:	4e5e           	unlk %fp
    4008:	4e75           	rts

0000400a <f_mkdir>:
    400a:	4e56 ffcc      	linkw %fp,#-52
    400e:	48e7 303c      	moveml %d2-%d3/%a2-%a5,%sp@-
    4012:	4878 0002      	pea 2 <__DYNAMIC+0x2>
    4016:	486e ffcc      	pea %fp@(-52)
    401a:	486e 0008      	pea %fp@(8)
    401e:	4eba e008      	jsr %pc@(2028 <find_volume>)
    4022:	2400           	movel %d0,%d2
    4024:	4fef 000c      	lea %sp@(12),%sp
    4028:	6600 0162      	bnew 418c <f_mkdir+0x182>
    402c:	2d6e ffcc ffd0 	movel %fp@(-52),%fp@(-48)
    4032:	2f2e 0008      	movel %fp@(8),%sp@-
    4036:	47ee ffd0      	lea %fp@(-48),%a3
    403a:	2f0b           	movel %a3,%sp@-
    403c:	4eba e90e      	jsr %pc@(294c <follow_path>)
    4040:	2400           	movel %d0,%d2
    4042:	508f           	addql #8,%sp
    4044:	674c           	beqs 4092 <f_mkdir+0x88>
    4046:	7004           	moveq #4,%d0
    4048:	b082           	cmpl %d2,%d0
    404a:	6600 0140      	bnew 418c <f_mkdir+0x182>
    404e:	082e 0005 fffb 	btst #5,%fp@(-5)
    4054:	6642           	bnes 4098 <f_mkdir+0x8e>
    4056:	42a7           	clrl %sp@-
    4058:	2f0b           	movel %a3,%sp@-
    405a:	4eba e6d2      	jsr %pc@(272e <create_chain>)
    405e:	2600           	movel %d0,%d3
    4060:	206e ffcc      	moveal %fp@(-52),%a0
    4064:	7000           	moveq #0,%d0
    4066:	3028 000a      	movew %a0@(10),%d0
    406a:	7209           	moveq #9,%d1
    406c:	e3a8           	lsll %d1,%d0
    406e:	2d40 ffdc      	movel %d0,%fp@(-36)
    4072:	508f           	addql #8,%sp
    4074:	4a83           	tstl %d3
    4076:	6726           	beqs 409e <f_mkdir+0x94>
    4078:	7201           	moveq #1,%d1
    407a:	b283           	cmpl %d3,%d1
    407c:	6624           	bnes 40a2 <f_mkdir+0x98>
    407e:	7402           	moveq #2,%d2
    4080:	42a7           	clrl %sp@-
    4082:	2f03           	movel %d3,%sp@-
    4084:	2f0b           	movel %a3,%sp@-
    4086:	4eba eca8      	jsr %pc@(2d30 <remove_chain>)
    408a:	4fef 000c      	lea %sp@(12),%sp
    408e:	6000 00fc      	braw 418c <f_mkdir+0x182>
    4092:	7408           	moveq #8,%d2
    4094:	6000 00f6      	braw 418c <f_mkdir+0x182>
    4098:	7406           	moveq #6,%d2
    409a:	6000 00f0      	braw 418c <f_mkdir+0x182>
    409e:	7407           	moveq #7,%d2
    40a0:	60de           	bras 4080 <f_mkdir+0x76>
    40a2:	7401           	moveq #1,%d2
    40a4:	70ff           	moveq #-1,%d0
    40a6:	b083           	cmpl %d3,%d0
    40a8:	67d6           	beqs 4080 <f_mkdir+0x76>
    40aa:	2f08           	movel %a0,%sp@-
    40ac:	4eba de1c      	jsr %pc@(1eca <sync_window>)
    40b0:	2400           	movel %d0,%d2
    40b2:	588f           	addql #4,%sp
    40b4:	66ca           	bnes 4080 <f_mkdir+0x76>
    40b6:	2f03           	movel %d3,%sp@-
    40b8:	2f2e ffcc      	movel %fp@(-52),%sp@-
    40bc:	4eba e494      	jsr %pc@(2552 <dir_clear>)
    40c0:	2400           	movel %d0,%d2
    40c2:	508f           	addql #8,%sp
    40c4:	66ba           	bnes 4080 <f_mkdir+0x76>
    40c6:	246e ffcc      	moveal %fp@(-52),%a2
    40ca:	4bea 0034      	lea %a2@(52),%a5
    40ce:	7000           	moveq #0,%d0
    40d0:	1bbc 0020 0800 	moveb #32,%a5@(00000000,%d0:l)
    40d6:	5280           	addql #1,%d0
    40d8:	720b           	moveq #11,%d1
    40da:	b280           	cmpl %d0,%d1
    40dc:	66f2           	bnes 40d0 <f_mkdir+0xc6>
    40de:	157c 002e 0034 	moveb #46,%a2@(52)
    40e4:	157c 0010 003f 	moveb #16,%a2@(63)
    40ea:	422a 004a      	clrb %a2@(74)
    40ee:	422a 004b      	clrb %a2@(75)
    40f2:	157c ffda 004c 	moveb #-38,%a2@(76)
    40f8:	157c 004c 004d 	moveb #76,%a2@(77)
    40fe:	2f03           	movel %d3,%sp@-
    4100:	2f0d           	movel %a5,%sp@-
    4102:	2f2e ffcc      	movel %fp@(-52),%sp@-
    4106:	49fa dcfa      	lea %pc@(1e02 <st_clust.isra.2>),%a4
    410a:	4e94           	jsr %a4@
    410c:	7454           	moveq #84,%d2
    410e:	4878 0020      	pea 20 <__DYNAMIC+0x20>
    4112:	2f0d           	movel %a5,%sp@-
    4114:	4872 2800      	pea %a2@(00000000,%d2:l)
    4118:	4eba dc90      	jsr %pc@(1daa <mem_cpy.part.0>)
    411c:	157c 002e 0055 	moveb #46,%a2@(85)
    4122:	2f2e ffd8      	movel %fp@(-40),%sp@-
    4126:	4872 2800      	pea %a2@(00000000,%d2:l)
    412a:	2f2e ffcc      	movel %fp@(-52),%sp@-
    412e:	4e94           	jsr %a4@
    4130:	206e ffcc      	moveal %fp@(-52),%a0
    4134:	117c 0001 0003 	moveb #1,%a0@(3)
    413a:	4fef 0020      	lea %sp@(32),%sp
    413e:	2e8b           	movel %a3,%sp@
    4140:	4eba eb8a      	jsr %pc@(2ccc <dir_register>)
    4144:	2400           	movel %d0,%d2
    4146:	588f           	addql #4,%sp
    4148:	6600 ff36      	bnew 4080 <f_mkdir+0x76>
    414c:	246e ffec      	moveal %fp@(-20),%a2
    4150:	422a 0016      	clrb %a2@(22)
    4154:	422a 0017      	clrb %a2@(23)
    4158:	157c ffda 0018 	moveb #-38,%a2@(24)
    415e:	157c 004c 0019 	moveb #76,%a2@(25)
    4164:	2f03           	movel %d3,%sp@-
    4166:	2f0a           	movel %a2,%sp@-
    4168:	2f2e ffcc      	movel %fp@(-52),%sp@-
    416c:	4e94           	jsr %a4@
    416e:	157c 0010 000b 	moveb #16,%a2@(11)
    4174:	206e ffcc      	moveal %fp@(-52),%a0
    4178:	117c 0001 0003 	moveb #1,%a0@(3)
    417e:	2f2e ffcc      	movel %fp@(-52),%sp@-
    4182:	4eba ec48      	jsr %pc@(2dcc <sync_fs>)
    4186:	2400           	movel %d0,%d2
    4188:	4fef 0010      	lea %sp@(16),%sp
    418c:	2002           	movel %d2,%d0
    418e:	4cee 3c0c ffb4 	moveml %fp@(-76),%d2-%d3/%a2-%a5
    4194:	4e5e           	unlk %fp
    4196:	4e75           	rts

00004198 <f_rename>:
    4198:	4e56 ff7c      	linkw %fp,#-132
    419c:	48e7 0038      	moveml %a2-%a4,%sp@-
    41a0:	486e 000c      	pea %fp@(12)
    41a4:	4eba db94      	jsr %pc@(1d3a <get_ldnumber>)
    41a8:	4878 0002      	pea 2 <__DYNAMIC+0x2>
    41ac:	486e ff7c      	pea %fp@(-132)
    41b0:	486e 0008      	pea %fp@(8)
    41b4:	4eba de72      	jsr %pc@(2028 <find_volume>)
    41b8:	4fef 0010      	lea %sp@(16),%sp
    41bc:	4a80           	tstl %d0
    41be:	6600 0160      	bnew 4320 <f_rename+0x188>
    41c2:	2d6e ff7c ffa0 	movel %fp@(-132),%fp@(-96)
    41c8:	2f2e 0008      	movel %fp@(8),%sp@-
    41cc:	47ee ffa0      	lea %fp@(-96),%a3
    41d0:	2f0b           	movel %a3,%sp@-
    41d2:	49fa e778      	lea %pc@(294c <follow_path>),%a4
    41d6:	4e94           	jsr %a4@
    41d8:	508f           	addql #8,%sp
    41da:	4a80           	tstl %d0
    41dc:	6600 0142      	bnew 4320 <f_rename+0x188>
    41e0:	102e ffcb      	moveb %fp@(-53),%d0
    41e4:	0200 ffa0      	andib #-96,%d0
    41e8:	6600 00fe      	bnew 42e8 <f_rename+0x150>
    41ec:	4878 0020      	pea 20 <__DYNAMIC+0x20>
    41f0:	2f2e ffbc      	movel %fp@(-68),%sp@-
    41f4:	486e ff80      	pea %fp@(-128)
    41f8:	45fa dbb0      	lea %pc@(1daa <mem_cpy.part.0>),%a2
    41fc:	4e92           	jsr %a2@
    41fe:	4878 0030      	pea 30 <_sdata+0x4>
    4202:	2f0b           	movel %a3,%sp@-
    4204:	47ee ffd0      	lea %fp@(-48),%a3
    4208:	2f0b           	movel %a3,%sp@-
    420a:	4e92           	jsr %a2@
    420c:	2f2e 000c      	movel %fp@(12),%sp@-
    4210:	2f0b           	movel %a3,%sp@-
    4212:	4e94           	jsr %a4@
    4214:	4fef 0020      	lea %sp@(32),%sp
    4218:	4a80           	tstl %d0
    421a:	661a           	bnes 4236 <f_rename+0x9e>
    421c:	202e ffd8      	movel %fp@(-40),%d0
    4220:	b0ae ffa8      	cmpl %fp@(-88),%d0
    4224:	6600 00f4      	bnew 431a <f_rename+0x182>
    4228:	222e ffe0      	movel %fp@(-32),%d1
    422c:	b2ae ffb0      	cmpl %fp@(-80),%d1
    4230:	6600 00e8      	bnew 431a <f_rename+0x182>
    4234:	6008           	bras 423e <f_rename+0xa6>
    4236:	7204           	moveq #4,%d1
    4238:	b280           	cmpl %d0,%d1
    423a:	6600 00e4      	bnew 4320 <f_rename+0x188>
    423e:	2f0b           	movel %a3,%sp@-
    4240:	4eba ea8a      	jsr %pc@(2ccc <dir_register>)
    4244:	588f           	addql #4,%sp
    4246:	4a80           	tstl %d0
    4248:	6600 00d6      	bnew 4320 <f_rename+0x188>
    424c:	266e ffec      	moveal %fp@(-20),%a3
    4250:	4878 0013      	pea 13 <__DYNAMIC+0x13>
    4254:	486e ff8d      	pea %fp@(-115)
    4258:	486b 000d      	pea %a3@(13)
    425c:	4e92           	jsr %a2@
    425e:	102e ff8b      	moveb %fp@(-117),%d0
    4262:	4fef 000c      	lea %sp@(12),%sp
    4266:	0800 0004      	btst #4,%d0
    426a:	6604           	bnes 4270 <f_rename+0xd8>
    426c:	0000 0020      	orib #32,%d0
    4270:	1740 000b      	moveb %d0,%a3@(11)
    4274:	206e ff7c      	moveal %fp@(-132),%a0
    4278:	117c 0001 0003 	moveb #1,%a0@(3)
    427e:	082b 0004 000b 	btst #4,%a3@(11)
    4284:	6766           	beqs 42ec <f_rename+0x154>
    4286:	202e ffa8      	movel %fp@(-88),%d0
    428a:	b0ae ffd8      	cmpl %fp@(-40),%d0
    428e:	675c           	beqs 42ec <f_rename+0x154>
    4290:	246e ff7c      	moveal %fp@(-132),%a2
    4294:	2f0b           	movel %a3,%sp@-
    4296:	598f           	subql #4,%sp
    4298:	1f52 0003      	moveb %a2@,%sp@(3)
    429c:	4eba db26      	jsr %pc@(1dc4 <ld_clust.isra.1>)
    42a0:	588f           	addql #4,%sp
    42a2:	2e80           	movel %d0,%sp@
    42a4:	2f0a           	movel %a2,%sp@-
    42a6:	4eba d92e      	jsr %pc@(1bd6 <clst2sect>)
    42aa:	508f           	addql #8,%sp
    42ac:	4a80           	tstl %d0
    42ae:	676e           	beqs 431e <f_rename+0x186>
    42b0:	2f00           	movel %d0,%sp@-
    42b2:	2f0a           	movel %a2,%sp@-
    42b4:	4eba dc8a      	jsr %pc@(1f40 <move_window>)
    42b8:	508f           	addql #8,%sp
    42ba:	4a80           	tstl %d0
    42bc:	6662           	bnes 4320 <f_rename+0x188>
    42be:	206e ff7c      	moveal %fp@(-132),%a0
    42c2:	0c28 002e 0055 	cmpib #46,%a0@(85)
    42c8:	6622           	bnes 42ec <f_rename+0x154>
    42ca:	2f2e ffd8      	movel %fp@(-40),%sp@-
    42ce:	4868 0054      	pea %a0@(84)
    42d2:	2f08           	movel %a0,%sp@-
    42d4:	4eba db2c      	jsr %pc@(1e02 <st_clust.isra.2>)
    42d8:	206e ff7c      	moveal %fp@(-132),%a0
    42dc:	117c 0001 0003 	moveb #1,%a0@(3)
    42e2:	4fef 000c      	lea %sp@(12),%sp
    42e6:	6004           	bras 42ec <f_rename+0x154>
    42e8:	7006           	moveq #6,%d0
    42ea:	6034           	bras 4320 <f_rename+0x188>
    42ec:	246e ffa0      	moveal %fp@(-96),%a2
    42f0:	2f2e ffb8      	movel %fp@(-72),%sp@-
    42f4:	2f0a           	movel %a2,%sp@-
    42f6:	4eba dc48      	jsr %pc@(1f40 <move_window>)
    42fa:	508f           	addql #8,%sp
    42fc:	4a80           	tstl %d0
    42fe:	6620           	bnes 4320 <f_rename+0x188>
    4300:	206e ffbc      	moveal %fp@(-68),%a0
    4304:	10bc ffe5      	moveb #-27,%a0@
    4308:	157c 0001 0003 	moveb #1,%a2@(3)
    430e:	2f2e ff7c      	movel %fp@(-132),%sp@-
    4312:	4eba eab8      	jsr %pc@(2dcc <sync_fs>)
    4316:	588f           	addql #4,%sp
    4318:	6006           	bras 4320 <f_rename+0x188>
    431a:	7008           	moveq #8,%d0
    431c:	6002           	bras 4320 <f_rename+0x188>
    431e:	7002           	moveq #2,%d0
    4320:	4cee 1c00 ff70 	moveml %fp@(-144),%a2-%a4
    4326:	4e5e           	unlk %fp
    4328:	4e75           	rts

0000432a <f_getlabel>:
    432a:	4e56 ffcc      	linkw %fp,#-52
    432e:	48e7 2038      	moveml %d2/%a2-%a4,%sp@-
    4332:	246e 000c      	moveal %fp@(12),%a2
    4336:	266e 0010      	moveal %fp@(16),%a3
    433a:	42a7           	clrl %sp@-
    433c:	486e ffcc      	pea %fp@(-52)
    4340:	486e 0008      	pea %fp@(8)
    4344:	4eba dce2      	jsr %pc@(2028 <find_volume>)
    4348:	2400           	movel %d0,%d2
    434a:	4fef 000c      	lea %sp@(12),%sp
    434e:	6600 00a6      	bnew 43f6 <f_getlabel+0xcc>
    4352:	b4fc 0000      	cmpaw #0,%a2
    4356:	6758           	beqs 43b0 <f_getlabel+0x86>
    4358:	2d6e ffcc ffd0 	movel %fp@(-52),%fp@(-48)
    435e:	42ae ffd8      	clrl %fp@(-40)
    4362:	42a7           	clrl %sp@-
    4364:	49ee ffd0      	lea %fp@(-48),%a4
    4368:	2f0c           	movel %a4,%sp@-
    436a:	4eba e124      	jsr %pc@(2490 <dir_sdi>)
    436e:	508f           	addql #8,%sp
    4370:	4a80           	tstl %d0
    4372:	6634           	bnes 43a8 <f_getlabel+0x7e>
    4374:	4878 0001      	pea 1 <__DYNAMIC+0x1>
    4378:	2f0c           	movel %a4,%sp@-
    437a:	4eba e86e      	jsr %pc@(2bea <dir_read>)
    437e:	508f           	addql #8,%sp
    4380:	4a80           	tstl %d0
    4382:	6624           	bnes 43a8 <f_getlabel+0x7e>
    4384:	206e ffec      	moveal %fp@(-20),%a0
    4388:	15b0 0800 0800 	moveb %a0@(00000000,%d0:l),%a2@(00000000,%d0:l)
    438e:	5280           	addql #1,%d0
    4390:	720b           	moveq #11,%d1
    4392:	b280           	cmpl %d0,%d1
    4394:	66f2           	bnes 4388 <f_getlabel+0x5e>
    4396:	41ea 000b      	lea %a2@(11),%a0
    439a:	4210           	clrb %a0@
    439c:	b1ca           	cmpal %a2,%a0
    439e:	6710           	beqs 43b0 <f_getlabel+0x86>
    43a0:	0c20 0020      	cmpib #32,%a0@-
    43a4:	67f4           	beqs 439a <f_getlabel+0x70>
    43a6:	6008           	bras 43b0 <f_getlabel+0x86>
    43a8:	7204           	moveq #4,%d1
    43aa:	b280           	cmpl %d0,%d1
    43ac:	6646           	bnes 43f4 <f_getlabel+0xca>
    43ae:	4212           	clrb %a2@
    43b0:	b6fc 0000      	cmpaw #0,%a3
    43b4:	6740           	beqs 43f6 <f_getlabel+0xcc>
    43b6:	206e ffcc      	moveal %fp@(-52),%a0
    43ba:	2f28 0020      	movel %a0@(32),%sp@-
    43be:	2f08           	movel %a0,%sp@-
    43c0:	4eba db7e      	jsr %pc@(1f40 <move_window>)
    43c4:	2400           	movel %d0,%d2
    43c6:	508f           	addql #8,%sp
    43c8:	662c           	bnes 43f6 <f_getlabel+0xcc>
    43ca:	206e ffcc      	moveal %fp@(-52),%a0
    43ce:	1010           	moveb %a0@,%d0
    43d0:	0c00 0003      	cmpib #3,%d0
    43d4:	670a           	beqs 43e0 <f_getlabel+0xb6>
    43d6:	0c00 0004      	cmpib #4,%d0
    43da:	6708           	beqs 43e4 <f_getlabel+0xba>
    43dc:	7027           	moveq #39,%d0
    43de:	6006           	bras 43e6 <f_getlabel+0xbc>
    43e0:	7043           	moveq #67,%d0
    43e2:	6002           	bras 43e6 <f_getlabel+0xbc>
    43e4:	7064           	moveq #100,%d0
    43e6:	4870 0834      	pea %a0@(00000034,%d0:l)
    43ea:	4eba d79c      	jsr %pc@(1b88 <ld_dword>)
    43ee:	588f           	addql #4,%sp
    43f0:	2680           	movel %d0,%a3@
    43f2:	6002           	bras 43f6 <f_getlabel+0xcc>
    43f4:	2400           	movel %d0,%d2
    43f6:	2002           	movel %d2,%d0
    43f8:	4cee 1c04 ffbc 	moveml %fp@(-68),%d2/%a2-%a4
    43fe:	4e5e           	unlk %fp
    4400:	4e75           	rts

00004402 <f_setlabel>:
    4402:	4e56 ffb4      	linkw %fp,#-76
    4406:	48e7 3030      	moveml %d2-%d3/%a2-%a3,%sp@-
    440a:	4878 0002      	pea 2 <__DYNAMIC+0x2>
    440e:	486e ffb6      	pea %fp@(-74)
    4412:	486e 0008      	pea %fp@(8)
    4416:	4eba dc10      	jsr %pc@(2028 <find_volume>)
    441a:	4fef 000c      	lea %sp@(12),%sp
    441e:	4a80           	tstl %d0
    4420:	6600 0166      	bnew 4588 <f_setlabel+0x186>
    4424:	45ee ffba      	lea %fp@(-70),%a2
    4428:	15bc 0020 0800 	moveb #32,%a2@(00000000,%d0:l)
    442e:	5280           	addql #1,%d0
    4430:	720b           	moveq #11,%d1
    4432:	b280           	cmpl %d0,%d1
    4434:	66f2           	bnes 4428 <f_setlabel+0x26>
    4436:	7400           	moveq #0,%d2
    4438:	47f9 0000 92b4 	lea 92b4 <ExCvt>,%a3
    443e:	206e 0008      	moveal %fp@(8),%a0
    4442:	4a10           	tstb %a0@
    4444:	6756           	beqs 449c <f_setlabel+0x9a>
    4446:	43e8 0001      	lea %a0@(1),%a1
    444a:	2d49 0008      	movel %a1,%fp@(8)
    444e:	1210           	moveb %a0@,%d1
    4450:	4240           	clrw %d0
    4452:	1001           	moveb %d1,%d0
    4454:	3600           	movew %d0,%d3
    4456:	0643 ff9f      	addiw #-97,%d3
    445a:	0c43 0019      	cmpiw #25,%d3
    445e:	6206           	bhis 4466 <f_setlabel+0x64>
    4460:	0640 ffe0      	addiw #-32,%d0
    4464:	601c           	bras 4482 <f_setlabel+0x80>
    4466:	0c40 007f      	cmpiw #127,%d0
    446a:	630c           	blss 4478 <f_setlabel+0x76>
    446c:	0281 0000 00ff 	andil #255,%d1
    4472:	4240           	clrw %d0
    4474:	1033 1880      	moveb %a3@(ffffff80,%d1:l),%d0
    4478:	4a40           	tstw %d0
    447a:	6606           	bnes 4482 <f_setlabel+0x80>
    447c:	7006           	moveq #6,%d0
    447e:	6000 0108      	braw 4588 <f_setlabel+0x186>
    4482:	7600           	moveq #0,%d3
    4484:	3600           	movew %d0,%d3
    4486:	43f9 0000 92a4 	lea 92a4 <badchr.2220>,%a1
    448c:	1219           	moveb %a1@+,%d1
    448e:	6700 00e6      	beqw 4576 <f_setlabel+0x174>
    4492:	4881           	extw %d1
    4494:	3041           	moveaw %d1,%a0
    4496:	b1c3           	cmpal %d3,%a0
    4498:	66f2           	bnes 448c <f_setlabel+0x8a>
    449a:	60e0           	bras 447c <f_setlabel+0x7a>
    449c:	0c2e ffe5 ffba 	cmpib #-27,%fp@(-70)
    44a2:	67d8           	beqs 447c <f_setlabel+0x7a>
    44a4:	4a82           	tstl %d2
    44a6:	6710           	beqs 44b8 <f_setlabel+0xb6>
    44a8:	2002           	movel %d2,%d0
    44aa:	5380           	subql #1,%d0
    44ac:	0c32 0020 0800 	cmpib #32,%a2@(00000000,%d0:l)
    44b2:	6604           	bnes 44b8 <f_setlabel+0xb6>
    44b4:	2400           	movel %d0,%d2
    44b6:	60ec           	bras 44a4 <f_setlabel+0xa2>
    44b8:	2d6e ffb6 ffd0 	movel %fp@(-74),%fp@(-48)
    44be:	42ae ffd8      	clrl %fp@(-40)
    44c2:	42a7           	clrl %sp@-
    44c4:	47ee ffd0      	lea %fp@(-48),%a3
    44c8:	2f0b           	movel %a3,%sp@-
    44ca:	4eba dfc4      	jsr %pc@(2490 <dir_sdi>)
    44ce:	508f           	addql #8,%sp
    44d0:	4a80           	tstl %d0
    44d2:	6600 00b4      	bnew 4588 <f_setlabel+0x186>
    44d6:	4878 0001      	pea 1 <__DYNAMIC+0x1>
    44da:	2f0b           	movel %a3,%sp@-
    44dc:	4eba e70c      	jsr %pc@(2bea <dir_read>)
    44e0:	508f           	addql #8,%sp
    44e2:	4a80           	tstl %d0
    44e4:	6636           	bnes 451c <f_setlabel+0x11a>
    44e6:	4a82           	tstl %d2
    44e8:	6714           	beqs 44fe <f_setlabel+0xfc>
    44ea:	4878 000b      	pea b <__DYNAMIC+0xb>
    44ee:	2f0a           	movel %a2,%sp@-
    44f0:	2f2e ffec      	movel %fp@(-20),%sp@-
    44f4:	4eba d8b4      	jsr %pc@(1daa <mem_cpy.part.0>)
    44f8:	4fef 000c      	lea %sp@(12),%sp
    44fc:	6008           	bras 4506 <f_setlabel+0x104>
    44fe:	206e ffec      	moveal %fp@(-20),%a0
    4502:	10bc ffe5      	moveb #-27,%a0@
    4506:	206e ffb6      	moveal %fp@(-74),%a0
    450a:	117c 0001 0003 	moveb #1,%a0@(3)
    4510:	2f2e ffb6      	movel %fp@(-74),%sp@-
    4514:	4eba e8b6      	jsr %pc@(2dcc <sync_fs>)
    4518:	588f           	addql #4,%sp
    451a:	606c           	bras 4588 <f_setlabel+0x186>
    451c:	7204           	moveq #4,%d1
    451e:	b280           	cmpl %d0,%d1
    4520:	6666           	bnes 4588 <f_setlabel+0x186>
    4522:	4a82           	tstl %d2
    4524:	674c           	beqs 4572 <f_setlabel+0x170>
    4526:	2f0b           	movel %a3,%sp@-
    4528:	4eba e748      	jsr %pc@(2c72 <dir_alloc.constprop.11>)
    452c:	588f           	addql #4,%sp
    452e:	4a80           	tstl %d0
    4530:	6656           	bnes 4588 <f_setlabel+0x186>
    4532:	206e ffec      	moveal %fp@(-20),%a0
    4536:	4230 0800      	clrb %a0@(00000000,%d0:l)
    453a:	5280           	addql #1,%d0
    453c:	7220           	moveq #32,%d1
    453e:	b280           	cmpl %d0,%d1
    4540:	66f4           	bnes 4536 <f_setlabel+0x134>
    4542:	206e ffec      	moveal %fp@(-20),%a0
    4546:	117c 0008 000b 	moveb #8,%a0@(11)
    454c:	4878 000b      	pea b <__DYNAMIC+0xb>
    4550:	2f0a           	movel %a2,%sp@-
    4552:	2f2e ffec      	movel %fp@(-20),%sp@-
    4556:	4eba d852      	jsr %pc@(1daa <mem_cpy.part.0>)
    455a:	206e ffb6      	moveal %fp@(-74),%a0
    455e:	117c 0001 0003 	moveb #1,%a0@(3)
    4564:	2f2e ffb6      	movel %fp@(-74),%sp@-
    4568:	4eba e862      	jsr %pc@(2dcc <sync_fs>)
    456c:	4fef 0010      	lea %sp@(16),%sp
    4570:	6016           	bras 4588 <f_setlabel+0x186>
    4572:	7000           	moveq #0,%d0
    4574:	6012           	bras 4588 <f_setlabel+0x186>
    4576:	720b           	moveq #11,%d1
    4578:	b282           	cmpl %d2,%d1
    457a:	6700 ff00      	beqw 447c <f_setlabel+0x7a>
    457e:	1580 2800      	moveb %d0,%a2@(00000000,%d2:l)
    4582:	5282           	addql #1,%d2
    4584:	6000 feb8      	braw 443e <f_setlabel+0x3c>
    4588:	4cee 0c0c ffa4 	moveml %fp@(-92),%d2-%d3/%a2-%a3
    458e:	4e5e           	unlk %fp
    4590:	4e75           	rts
	...

00004594 <disk_read>:
    4594:	2f02           	movel %d2,%sp@-
    4596:	222f 000c      	movel %sp@(12),%d1
    459a:	202f 0010      	movel %sp@(16),%d0
    459e:	2040           	moveal %d0,%a0
    45a0:	d1ef 0014      	addal %sp@(20),%a0
    45a4:	b1c0           	cmpal %d0,%a0
    45a6:	6746           	beqs 45ee <disk_read+0x5a>
    45a8:	33c0 0d80 0030 	movew %d0,d800030 <__end+0xc7ffda0>
    45ae:	13fc 0004 0d80 	moveb #4,d800032 <__end+0xc7ffda2>
    45b4:	0032 
    45b6:	1439 0d80 0032 	moveb d800032 <__end+0xc7ffda2>,%d2
    45bc:	5280           	addql #1,%d0
    45be:	0802 0001      	btst #1,%d2
    45c2:	662e           	bnes 45f2 <disk_read+0x5e>
    45c4:	23fc 0d7f fe00 	movel #226491904,d800020 <__end+0xc7ffd90>
    45ca:	0d80 0020 
    45ce:	23c1 0d80 0024 	movel %d1,d800024 <__end+0xc7ffd94>
    45d4:	23fc 0000 0200 	movel #512,d800028 <__end+0xc7ffd98>
    45da:	0d80 0028 
    45de:	13fc 0007 0d80 	moveb #7,d80002a <__end+0xc7ffd9a>
    45e4:	002a 
    45e6:	0681 0000 0200 	addil #512,%d1
    45ec:	60b6           	bras 45a4 <disk_read+0x10>
    45ee:	7000           	moveq #0,%d0
    45f0:	6002           	bras 45f4 <disk_read+0x60>
    45f2:	7004           	moveq #4,%d0
    45f4:	241f           	movel %sp@+,%d2
    45f6:	4e75           	rts

000045f8 <disk_write>:
    45f8:	222f 0008      	movel %sp@(8),%d1
    45fc:	202f 000c      	movel %sp@(12),%d0
    4600:	2040           	moveal %d0,%a0
    4602:	d1ef 0010      	addal %sp@(16),%a0
    4606:	b1c0           	cmpal %d0,%a0
    4608:	673a           	beqs 4644 <disk_write+0x4c>
    460a:	33c0 0d80 0030 	movew %d0,d800030 <__end+0xc7ffda0>
    4610:	23c1 0d80 0020 	movel %d1,d800020 <__end+0xc7ffd90>
    4616:	23fc 0d7f fe00 	movel #226491904,d800024 <__end+0xc7ffd94>
    461c:	0d80 0024 
    4620:	23fc 0000 0200 	movel #512,d800028 <__end+0xc7ffd98>
    4626:	0d80 0028 
    462a:	13fc 0007 0d80 	moveb #7,d80002a <__end+0xc7ffd9a>
    4630:	002a 
    4632:	13fc 0008 0d80 	moveb #8,d800032 <__end+0xc7ffda2>
    4638:	0032 
    463a:	0681 0000 0200 	addil #512,%d1
    4640:	5280           	addql #1,%d0
    4642:	60c2           	bras 4606 <disk_write+0xe>
    4644:	7000           	moveq #0,%d0
    4646:	4e75           	rts

00004648 <disk_ioctl>:
    4648:	206f 000c      	moveal %sp@(12),%a0
    464c:	102f 000b      	moveb %sp@(11),%d0
    4650:	1239 0d80 0032 	moveb d800032 <__end+0xc7ffda2>,%d1
    4656:	0801 0000      	btst #0,%d1
    465a:	6726           	beqs 4682 <disk_ioctl+0x3a>
    465c:	0c00 0002      	cmpib #2,%d0
    4660:	6714           	beqs 4676 <disk_ioctl+0x2e>
    4662:	0c00 0003      	cmpib #3,%d0
    4666:	6714           	beqs 467c <disk_ioctl+0x34>
    4668:	0c00 0001      	cmpib #1,%d0
    466c:	6618           	bnes 4686 <disk_ioctl+0x3e>
    466e:	20bc 0000 0b40 	movel #2880,%a0@
    4674:	6010           	bras 4686 <disk_ioctl+0x3e>
    4676:	30bc 0200      	movew #512,%a0@
    467a:	600a           	bras 4686 <disk_ioctl+0x3e>
    467c:	7001           	moveq #1,%d0
    467e:	2080           	movel %d0,%a0@
    4680:	6004           	bras 4686 <disk_ioctl+0x3e>
    4682:	7003           	moveq #3,%d0
    4684:	4e75           	rts
    4686:	7000           	moveq #0,%d0
    4688:	4e75           	rts
	...

0000468c <__mulsi3>:
    468c:	302f 0004      	movew %sp@(4),%d0
    4690:	c0ef 000a      	muluw %sp@(10),%d0
    4694:	322f 0006      	movew %sp@(6),%d1
    4698:	c2ef 0008      	muluw %sp@(8),%d1
    469c:	d041           	addw %d1,%d0
    469e:	4840           	swap %d0
    46a0:	4240           	clrw %d0
    46a2:	322f 0006      	movew %sp@(6),%d1
    46a6:	c2ef 000a      	muluw %sp@(10),%d1
    46aa:	d081           	addl %d1,%d0
    46ac:	4e75           	rts
	...

000046b0 <__udivsi3>:
    46b0:	2f02           	movel %d2,%sp@-
    46b2:	222f 000c      	movel %sp@(12),%d1
    46b6:	202f 0008      	movel %sp@(8),%d0
    46ba:	0c81 0001 0000 	cmpil #65536,%d1
    46c0:	6416           	bccs 46d8 <L3>
    46c2:	2400           	movel %d0,%d2
    46c4:	4242           	clrw %d2
    46c6:	4842           	swap %d2
    46c8:	84c1           	divuw %d1,%d2
    46ca:	3002           	movew %d2,%d0
    46cc:	4840           	swap %d0
    46ce:	342f 000a      	movew %sp@(10),%d2
    46d2:	84c1           	divuw %d1,%d2
    46d4:	3002           	movew %d2,%d0
    46d6:	6030           	bras 4708 <L6>

000046d8 <L3>:
    46d8:	2401           	movel %d1,%d2

000046da <L4>:
    46da:	e289           	lsrl #1,%d1
    46dc:	e288           	lsrl #1,%d0
    46de:	0c81 0001 0000 	cmpil #65536,%d1
    46e4:	64f4           	bccs 46da <L4>
    46e6:	80c1           	divuw %d1,%d0
    46e8:	0280 0000 ffff 	andil #65535,%d0
    46ee:	2202           	movel %d2,%d1
    46f0:	c2c0           	muluw %d0,%d1
    46f2:	4842           	swap %d2
    46f4:	c4c0           	muluw %d0,%d2
    46f6:	4842           	swap %d2
    46f8:	4a42           	tstw %d2
    46fa:	660a           	bnes 4706 <L5>
    46fc:	d282           	addl %d2,%d1
    46fe:	6506           	bcss 4706 <L5>
    4700:	b2af 0008      	cmpl %sp@(8),%d1
    4704:	6302           	blss 4708 <L6>

00004706 <L5>:
    4706:	5380           	subql #1,%d0

00004708 <L6>:
    4708:	241f           	movel %sp@+,%d2
    470a:	4e75           	rts

0000470c <__divsi3>:
    470c:	2f02           	movel %d2,%sp@-
    470e:	7401           	moveq #1,%d2
    4710:	222f 000c      	movel %sp@(12),%d1
    4714:	6a04           	bpls 471a <L1>
    4716:	4481           	negl %d1
    4718:	4402           	negb %d2

0000471a <L1>:
    471a:	202f 0008      	movel %sp@(8),%d0
    471e:	6a04           	bpls 4724 <L2>
    4720:	4480           	negl %d0
    4722:	4402           	negb %d2

00004724 <L2>:
    4724:	2f01           	movel %d1,%sp@-
    4726:	2f00           	movel %d0,%sp@-
    4728:	4eb9 0000 46b0 	jsr 46b0 <__udivsi3>
    472e:	508f           	addql #8,%sp
    4730:	4a02           	tstb %d2
    4732:	6a02           	bpls 4736 <L3>
    4734:	4480           	negl %d0

00004736 <L3>:
    4736:	241f           	movel %sp@+,%d2
    4738:	4e75           	rts
	...

0000473c <__umodsi3>:
    473c:	222f 0008      	movel %sp@(8),%d1
    4740:	202f 0004      	movel %sp@(4),%d0
    4744:	2f01           	movel %d1,%sp@-
    4746:	2f00           	movel %d0,%sp@-
    4748:	4eb9 0000 46b0 	jsr 46b0 <__udivsi3>
    474e:	508f           	addql #8,%sp
    4750:	222f 0008      	movel %sp@(8),%d1
    4754:	2f01           	movel %d1,%sp@-
    4756:	2f00           	movel %d0,%sp@-
    4758:	4eb9 0000 468c 	jsr 468c <__mulsi3>
    475e:	508f           	addql #8,%sp
    4760:	222f 0004      	movel %sp@(4),%d1
    4764:	9280           	subl %d0,%d1
    4766:	2001           	movel %d1,%d0
    4768:	4e75           	rts
	...

0000476c <fontTiles>:
	...
    4774:	7eff           	moveq #-1,%d7
    4776:	dbdb           	addal %a3@+,%a5
    4778:	ffc3           	.short 0xffc3
    477a:	e77e           	rolw %d3,%d6
    477c:	367f           	.short 0x367f
    477e:	7f7f           	.short 0x7f7f
    4780:	3e1c           	movew %a4@+,%d7
    4782:	0800 1038      	btst #56,%d0
    4786:	7cfe           	moveq #-2,%d6
    4788:	7c38           	moveq #56,%d6
    478a:	1000           	moveb %d0,%d0
    478c:	3838 38fe      	movew 38fe <f_lseek+0xa>,%d4
    4790:	fed6           	.short 0xfed6
    4792:	1038 0808      	moveb 808 <WriteChar+0x2a>,%d0
    4796:	1c3e           	.short 0x1c3e
    4798:	7f3e           	.short 0x7f3e
    479a:	081c 7c44      	btst #68,%a4@+
    479e:	7c04           	moveq #4,%d6
    47a0:	0406 0707      	subib #7,%d6
    47a4:	7c44           	moveq #68,%d6
    47a6:	7c44           	moveq #68,%d6
    47a8:	6476           	bccs 4820 <fontTiles+0xb4>
    47aa:	3703           	movew %d3,%a3@-
    47ac:	0000 183c      	orib #60,%d0
    47b0:	3c18           	movew %a0@+,%d6
    47b2:	0000 003c      	orib #60,%d0
    47b6:	6642           	bnes 47fa <fontTiles+0x8e>
    47b8:	4266           	clrw %fp@-
    47ba:	3c00           	movew %d0,%d6
    47bc:	081c 2a08      	btst #8,%a4@+
    47c0:	1c22           	moveb %a2@-,%d6
    47c2:	221c           	movel %a4@+,%d1
    47c4:	1c22           	moveb %a2@-,%d6
    47c6:	221c           	movel %a4@+,%d1
    47c8:	083e           	.short 0x083e
    47ca:	0808           	.short 0x0808
    47cc:	2424           	movel %a4@-,%d2
    47ce:	2424           	movel %a4@-,%d2
    47d0:	2400           	movel %d0,%d2
    47d2:	2400           	movel %d0,%d2
    47d4:	fcd2           	.short 0xfcd2
    47d6:	d2dc           	addaw %a4@+,%a1
    47d8:	d0d0           	addaw %a0@,%a0
    47da:	d000           	addb %d0,%d0
    47dc:	3c42           	moveaw %d2,%fp
    47de:	1c14           	moveb %a4@,%d6
    47e0:	3842           	moveaw %d2,%a4
    47e2:	3c00           	movew %d0,%d6
    47e4:	0000 7e40      	orib #64,%d0
    47e8:	4040           	negxw %d0
    47ea:	0000 4060      	orib #96,%d0
    47ee:	2030 1b1e 0c08 	movel %a0@(00000000)@(00000c08,%d1:l:2),%d0
    47f4:	4422           	negb %a2@-
    47f6:	1188           	.short 0x1188
    47f8:	4422           	negb %a2@-
    47fa:	1188           	.short 0x1188
    47fc:	4422           	negb %a2@-
    47fe:	1188           	.short 0x1188
    4800:	4422           	negb %a2@-
    4802:	1188           	.short 0x1188
    4804:	4422           	negb %a2@-
    4806:	1188           	.short 0x1188
    4808:	4422           	negb %a2@-
    480a:	1188           	.short 0x1188
    480c:	0048           	.short 0x0048
    480e:	2412           	movel %a2@,%d2
    4810:	2448           	moveal %a0,%a2
    4812:	0000 0012      	orib #18,%d0
    4816:	2448           	moveal %a0,%a2
    4818:	2412           	movel %a2@,%d2
    481a:	0000 0018      	orib #24,%d0
    481e:	307f           	.short 0x307f
    4820:	3018           	movew %a0@+,%d0
    4822:	0000 000c      	orib #12,%d0
    4826:	067f           	.short 0x067f
    4828:	060c           	.short 0x060c
    482a:	0000 081c      	orib #28,%d0
    482e:	3e08           	movew %a0,%d7
    4830:	0808           	.short 0x0808
    4832:	0808           	.short 0x0808
    4834:	0808           	.short 0x0808
    4836:	0808           	.short 0x0808
    4838:	083e           	.short 0x083e
    483a:	1c08           	.short 0x1c08
    483c:	081c 3e08      	btst #8,%a4@+
    4840:	083e           	.short 0x083e
    4842:	1c08           	.short 0x1c08
    4844:	0024 66ff      	orib #-1,%a4@-
    4848:	6624           	bnes 486e <fontTiles+0x102>
    484a:	0000 0818      	orib #24,%d0
    484e:	3878 3818      	moveaw 3818 <f_getcwd+0xac>,%a4
    4852:	0800 1018      	btst #24,%d0
    4856:	1c1e           	moveb %fp@+,%d6
    4858:	1c18           	moveb %a0@+,%d6
    485a:	1000           	moveb %d0,%d0
    485c:	081c 1c3e      	btst #62,%a4@+
    4860:	3e7f           	.short 0x3e7f
    4862:	7f00           	.short 0x7f00
    4864:	7f7f           	.short 0x7f7f
    4866:	3e3e           	.short 0x3e3e
    4868:	1c1c           	moveb %a4@+,%d6
    486a:	0800 0000      	btst #0,%d0
    486e:	0000 0000      	orib #0,%d0
    4872:	0000 0808      	orib #8,%d0
    4876:	0808           	.short 0x0808
    4878:	0800 0800      	btst #0,%d0
    487c:	1414           	moveb %a4@,%d2
    487e:	1400           	moveb %d0,%d2
    4880:	0000 0000      	orib #0,%d0
    4884:	2424           	movel %a4@-,%d2
    4886:	7e24           	moveq #36,%d7
    4888:	7e24           	moveq #36,%d7
    488a:	2400           	movel %d0,%d2
    488c:	083c           	.short 0x083c
    488e:	0a1c 281e      	eorib #30,%a4@+
    4892:	0800 4725      	btst #37,%d0
    4896:	1708           	.short 0x1708
    4898:	7452           	moveq #82,%d2
    489a:	7100           	.short 0x7100
    489c:	0c12 0c52      	cmpib #82,%a2@
    48a0:	2131 4e00      	movel %a1@(00000000,%d4:l:8),%a0@-
    48a4:	0808           	.short 0x0808
    48a6:	0800 0000      	btst #0,%d0
    48aa:	0000 1804      	orib #4,%d0
    48ae:	0404 0404      	subib #4,%d4
    48b2:	1800           	moveb %d0,%d4
    48b4:	0c10 1010      	cmpib #16,%a0@
    48b8:	1010           	moveb %a0@,%d0
    48ba:	0c00 0022      	cmpib #34,%d0
    48be:	1408           	.short 0x1408
    48c0:	1422           	moveb %a2@-,%d2
    48c2:	0000 0008      	orib #8,%d0
    48c6:	083e           	.short 0x083e
    48c8:	0808           	.short 0x0808
    48ca:	0000 0000      	orib #0,%d0
    48ce:	0000 0004      	orib #4,%d0
    48d2:	0402 0000      	subib #0,%d2
    48d6:	007e           	.short 0x007e
	...
    48e0:	0002 0200      	orib #0,%d2
    48e4:	8040           	orw %d0,%d0
    48e6:	2010           	movel %a0@,%d0
    48e8:	0804 0200      	btst #0,%d4
    48ec:	3864           	moveaw %a4@-,%a4
    48ee:	524a           	addqw #1,%a2
    48f0:	4622           	notb %a2@-
    48f2:	1c00           	moveb %d0,%d6
    48f4:	080c           	.short 0x080c
    48f6:	0808           	.short 0x0808
    48f8:	0808           	.short 0x0808
    48fa:	1c00           	moveb %d0,%d6
    48fc:	3c42           	moveaw %d2,%fp
    48fe:	403c           	.short 0x403c
    4900:	0202 7e00      	andib #0,%d2
    4904:	3c42           	moveaw %d2,%fp
    4906:	4030 4042      	negxb %a0@(00000042,%d4:w)
    490a:	3c00           	movew %d0,%d6
    490c:	4444           	negw %d4
    490e:	427e           	.short 0x427e
    4910:	4040           	negxw %d0
    4912:	4000           	negxb %d0
    4914:	7e02           	moveq #2,%d7
    4916:	1e20           	moveb %a0@-,%d7
    4918:	4042           	negxw %d2
    491a:	3c00           	movew %d0,%d6
    491c:	3c02           	movew %d2,%d6
    491e:	1e22           	moveb %a2@-,%d7
    4920:	4242           	clrw %d2
    4922:	3c00           	movew %d0,%d6
    4924:	7e40           	moveq #64,%d7
    4926:	2010           	movel %a0@,%d0
    4928:	1010           	moveb %a0@,%d0
    492a:	1000           	moveb %d0,%d0
    492c:	3c42           	moveaw %d2,%fp
    492e:	423c           	.short 0x423c
    4930:	4242           	clrw %d2
    4932:	3c00           	movew %d0,%d6
    4934:	3844           	moveaw %d4,%a4
    4936:	427c           	.short 0x427c
    4938:	4040           	negxw %d0
    493a:	3e00           	movew %d0,%d7
    493c:	0008           	.short 0x0008
    493e:	0800 0008      	btst #8,%d0
    4942:	0800 0008      	btst #8,%d0
    4946:	0800 0008      	btst #8,%d0
    494a:	0804 2010      	btst #16,%d4
    494e:	0804 0810      	btst #16,%d4
    4952:	2000           	movel %d0,%d0
    4954:	003e           	.short 0x003e
    4956:	0000 3e00      	orib #0,%d0
    495a:	0000 0408      	orib #8,%d0
    495e:	1020           	moveb %a0@-,%d0
    4960:	1008           	.short 0x1008
    4962:	0400 1c22      	subib #34,%d0
    4966:	2018           	movel %a0@+,%d0
    4968:	0800 0800      	btst #0,%d0
    496c:	3c42           	moveaw %d2,%fp
    496e:	5955           	subqw #4,%a5@
    4970:	3902           	movew %d2,%a4@-
    4972:	3c00           	movew %d0,%d6
    4974:	3c42           	moveaw %d2,%fp
    4976:	427e           	.short 0x427e
    4978:	4242           	clrw %d2
    497a:	4200           	clrb %d0
    497c:	1e22           	moveb %a2@-,%d7
    497e:	223e           	.short 0x223e
    4980:	4242           	clrw %d2
    4982:	3e00           	movew %d0,%d7
    4984:	3c42           	moveaw %d2,%fp
    4986:	0202 0242      	andib #66,%d2
    498a:	3c00           	movew %d0,%d6
    498c:	1e22           	moveb %a2@-,%d7
    498e:	4242           	clrw %d2
    4990:	4242           	clrw %d2
    4992:	3e00           	movew %d0,%d7
    4994:	7e02           	moveq #2,%d7
    4996:	023e           	.short 0x023e
    4998:	0202 7e00      	andib #0,%d2
    499c:	7e02           	moveq #2,%d7
    499e:	023e           	.short 0x023e
    49a0:	0202 0200      	andib #0,%d2
    49a4:	3c62           	moveaw %a2@-,%fp
    49a6:	027a           	.short 0x027a
    49a8:	6262           	bhis 4a0c <fontTiles+0x2a0>
    49aa:	3c00           	movew %d0,%d6
    49ac:	4242           	clrw %d2
    49ae:	427e           	.short 0x427e
    49b0:	4242           	clrw %d2
    49b2:	4200           	clrb %d0
    49b4:	3e08           	movew %a0,%d7
    49b6:	0808           	.short 0x0808
    49b8:	0808           	.short 0x0808
    49ba:	3e00           	movew %d0,%d7
    49bc:	6040           	bras 49fe <fontTiles+0x292>
    49be:	4040           	negxw %d0
    49c0:	4042           	negxw %d2
    49c2:	3c00           	movew %d0,%d6
    49c4:	4242           	clrw %d2
    49c6:	223e           	.short 0x223e
    49c8:	4242           	clrw %d2
    49ca:	4200           	clrb %d0
    49cc:	0202 0202      	andib #2,%d2
    49d0:	0202 7e00      	andib #0,%d2
    49d4:	4163           	.short 0x4163
    49d6:	5549           	subqw #2,%a1
    49d8:	4141           	.short 0x4141
    49da:	4100           	chkl %d0,%d0
    49dc:	4246           	clrw %d6
    49de:	4a52           	tstw %a2@
    49e0:	6242           	bhis 4a24 <fontTiles+0x2b8>
    49e2:	4200           	clrb %d0
    49e4:	3c42           	moveaw %d2,%fp
    49e6:	4242           	clrw %d2
    49e8:	4242           	clrw %d2
    49ea:	3c00           	movew %d0,%d6
    49ec:	3e42           	moveaw %d2,%sp
    49ee:	4222           	clrb %a2@-
    49f0:	1e02           	moveb %d2,%d7
    49f2:	0200 3c42      	andib #66,%d0
    49f6:	4242           	clrw %d2
    49f8:	4a52           	tstw %a2@
    49fa:	3c60           	moveaw %a0@-,%fp
    49fc:	3e42           	moveaw %d2,%sp
    49fe:	4222           	clrb %a2@-
    4a00:	5e42           	addqw #7,%d2
    4a02:	4200           	clrb %d0
    4a04:	3c42           	moveaw %d2,%fp
    4a06:	023c 4042      	andib #66,%ccr
    4a0a:	3c00           	movew %d0,%d6
    4a0c:	3e08           	movew %a0,%d7
    4a0e:	0808           	.short 0x0808
    4a10:	0808           	.short 0x0808
    4a12:	0800 4242      	btst #66,%d0
    4a16:	4242           	clrw %d2
    4a18:	4242           	clrw %d2
    4a1a:	3c00           	movew %d0,%d6
    4a1c:	2222           	movel %a2@-,%d1
    4a1e:	2222           	movel %a2@-,%d1
    4a20:	1414           	moveb %a4@,%d2
    4a22:	0800 4141      	btst #65,%d0
    4a26:	4149           	.short 0x4149
    4a28:	5563           	subqw #2,%a3@-
    4a2a:	4100           	chkl %d0,%d0
    4a2c:	2222           	movel %a2@-,%d1
    4a2e:	1408           	.short 0x1408
    4a30:	1422           	moveb %a2@-,%d2
    4a32:	2200           	movel %d0,%d1
    4a34:	4242           	clrw %d2
    4a36:	4244           	clrw %d4
    4a38:	7840           	moveq #64,%d4
    4a3a:	3e00           	movew %d0,%d7
    4a3c:	7e40           	moveq #64,%d7
    4a3e:	2018           	movel %a0@+,%d0
    4a40:	0402 7e00      	subib #0,%d2
    4a44:	3808           	movew %a0,%d4
    4a46:	0808           	.short 0x0808
    4a48:	0808           	.short 0x0808
    4a4a:	3800           	movew %d0,%d4
    4a4c:	0102           	btst %d0,%d2
    4a4e:	0408           	.short 0x0408
    4a50:	1020           	moveb %a0@-,%d0
    4a52:	4000           	negxb %d0
    4a54:	1c10           	moveb %a0@,%d6
    4a56:	1010           	moveb %a0@,%d0
    4a58:	1010           	moveb %a0@,%d0
    4a5a:	1c00           	moveb %d0,%d6
    4a5c:	081c 3600      	btst #0,%a4@+
	...
    4a68:	0000 7f00      	orib #0,%d0
    4a6c:	2010           	movel %a0@,%d0
    4a6e:	1000           	moveb %d0,%d0
    4a70:	0000 0000      	orib #0,%d0
    4a74:	0000 7844      	orib #68,%d0
    4a78:	4262           	clrw %a2@-
    4a7a:	5c00           	addqb #6,%d0
    4a7c:	0202 1e22      	andib #34,%d2
    4a80:	4242           	clrw %d2
    4a82:	3e00           	movew %d0,%d7
    4a84:	0000 3c02      	orib #2,%d0
    4a88:	0242 3c00      	andiw #15360,%d2
    4a8c:	4040           	negxw %d0
    4a8e:	7844           	moveq #68,%d4
    4a90:	4242           	clrw %d2
    4a92:	7c00           	moveq #0,%d6
    4a94:	0000 3c42      	orib #66,%d0
    4a98:	7e02           	moveq #2,%d7
    4a9a:	7c00           	moveq #0,%d6
    4a9c:	3844           	moveaw %d4,%a4
    4a9e:	041e 0404      	subib #4,%fp@+
    4aa2:	0400 0000      	subib #0,%d0
    4aa6:	3c42           	moveaw %d2,%fp
    4aa8:	427c           	.short 0x427c
    4aaa:	403e           	.short 0x403e
    4aac:	0202 1e22      	andib #34,%d2
    4ab0:	4242           	clrw %d2
    4ab2:	4200           	clrb %d0
    4ab4:	0800 0808      	btst #8,%d0
    4ab8:	0808           	.short 0x0808
    4aba:	0800 4000      	btst #0,%d0
    4abe:	6040           	bras 4b00 <fontTiles+0x394>
    4ac0:	4040           	negxw %d0
    4ac2:	221c           	movel %a4@+,%d1
    4ac4:	0042 221e      	oriw #8734,%d2
    4ac8:	2242           	moveal %d2,%a1
    4aca:	4200           	clrb %d0
    4acc:	0404 0404      	subib #4,%d4
    4ad0:	0404 0c00      	subib #0,%d4
    4ad4:	0000 3749      	orib #73,%d0
    4ad8:	4949           	.short 0x4949
    4ada:	4900           	chkl %d0,%d4
    4adc:	0000 1e22      	orib #34,%d0
    4ae0:	2222           	movel %a2@-,%d1
    4ae2:	2200           	movel %d0,%d1
    4ae4:	0000 3c42      	orib #66,%d0
    4ae8:	4242           	clrw %d2
    4aea:	3c00           	movew %d0,%d6
    4aec:	0000 3e42      	orib #66,%d0
    4af0:	4222           	clrb %a2@-
    4af2:	1e02           	moveb %d2,%d7
    4af4:	0000 7844      	orib #68,%d0
    4af8:	4242           	clrw %d2
    4afa:	7c40           	moveq #64,%d6
    4afc:	0000 3a06      	orib #6,%d0
    4b00:	0202 0200      	andib #0,%d2
    4b04:	0000 3c02      	orib #2,%d0
    4b08:	1c20           	moveb %a0@-,%d6
    4b0a:	1e00           	moveb %d0,%d7
    4b0c:	0404 1e04      	subib #4,%d4
    4b10:	0404 1800      	subib #0,%d4
    4b14:	0000 4242      	orib #66,%d0
    4b18:	4242           	clrw %d2
    4b1a:	7c00           	moveq #0,%d6
    4b1c:	0000 2222      	orib #34,%d0
    4b20:	2214           	movel %a4@,%d1
    4b22:	0800 0000      	btst #0,%d0
    4b26:	4949           	.short 0x4949
    4b28:	4949           	.short 0x4949
    4b2a:	3700           	movew %d0,%a3@-
    4b2c:	0000 2214      	orib #20,%d0
    4b30:	0814 2200      	btst #0,%a4@
    4b34:	0000 4242      	orib #66,%d0
    4b38:	4478 403e      	negw 403e <f_mkdir+0x34>
    4b3c:	0000 7e40      	orib #64,%d0
    4b40:	3c02           	movew %d2,%d6
    4b42:	7e00           	moveq #0,%d7
    4b44:	3008           	movew %a0,%d0
    4b46:	0806 0808      	btst #8,%d6
    4b4a:	3000           	movew %d0,%d0
    4b4c:	0808           	.short 0x0808
    4b4e:	0800 0808      	btst #8,%d0
    4b52:	0800 0c10      	btst #16,%d0
    4b56:	1060           	.short 0x1060
    4b58:	1010           	moveb %a0@,%d0
    4b5a:	0c00 4c32      	cmpib #50,%d0
	...
    4b66:	0814 2222      	btst #34,%a4@
    4b6a:	3e00           	movew %d0,%d7
    4b6c:	4411           	negb %a1@
    4b6e:	4411           	negb %a1@
    4b70:	4411           	negb %a1@
    4b72:	4411           	negb %a1@
    4b74:	aa55           	.short 0xaa55
    4b76:	aa55           	.short 0xaa55
    4b78:	aa55           	.short 0xaa55
    4b7a:	aa55           	.short 0xaa55
    4b7c:	dd77 dd77 dd77 	addw %d6,%sp@(dd77dd77)@(ffffffff)
    4b82:	dd77 ffff ffff 
    4b88:	ffff           	.short 0xffff
    4b8a:	ffff           	.short 0xffff
    4b8c:	0000 0000      	orib #0,%d0
    4b90:	ffff           	.short 0xffff
    4b92:	ffff           	.short 0xffff
    4b94:	0f0f 0f0f      	movepw %sp@(3855),%d7
    4b98:	0f0f 0f0f      	movepw %sp@(3855),%d7
    4b9c:	f0f0           	.short 0xf0f0
    4b9e:	f0f0           	.short 0xf0f0
    4ba0:	f0f0           	.short 0xf0f0
    4ba2:	f0f0           	.short 0xf0f0
    4ba4:	ffff           	.short 0xffff
    4ba6:	ffff           	.short 0xffff
    4ba8:	0000 0000      	orib #0,%d0
    4bac:	0000 3c3c      	orib #60,%d0
    4bb0:	3c3c 0000      	movew #0,%d6
    4bb4:	1818           	moveb %a0@+,%d4
    4bb6:	1818           	moveb %a0@+,%d4
    4bb8:	1818           	moveb %a0@+,%d4
    4bba:	1818           	moveb %a0@+,%d4
    4bbc:	1818           	moveb %a0@+,%d4
    4bbe:	181f           	moveb %sp@+,%d4
    4bc0:	1818           	moveb %a0@+,%d4
    4bc2:	1818           	moveb %a0@+,%d4
    4bc4:	0000 001f      	orib #31,%d0
    4bc8:	1818           	moveb %a0@+,%d4
    4bca:	1818           	moveb %a0@+,%d4
    4bcc:	1818           	moveb %a0@+,%d4
    4bce:	18f8 0000      	moveb 0 <__DYNAMIC>,%a4@+
    4bd2:	0000 1818      	orib #24,%d0
    4bd6:	18ff           	.short 0x18ff
    4bd8:	0000 0000      	orib #0,%d0
    4bdc:	0000 00ff      	orib #-1,%d0
    4be0:	1818           	moveb %a0@+,%d4
    4be2:	1818           	moveb %a0@+,%d4
    4be4:	1818           	moveb %a0@+,%d4
    4be6:	18f8 1818      	moveb 1818 <number+0x144>,%a4@+
    4bea:	1818           	moveb %a0@+,%d4
    4bec:	0000 00ff      	orib #-1,%d0
    4bf0:	0000 0000      	orib #0,%d0
    4bf4:	1818           	moveb %a0@+,%d4
    4bf6:	18ff           	.short 0x18ff
    4bf8:	1818           	moveb %a0@+,%d4
    4bfa:	1818           	moveb %a0@+,%d4
    4bfc:	1818           	moveb %a0@+,%d4
    4bfe:	181f           	moveb %sp@+,%d4
    4c00:	0000 0000      	orib #0,%d0
    4c04:	0000 00f8      	orib #-8,%d0
    4c08:	1818           	moveb %a0@+,%d4
    4c0a:	1818           	moveb %a0@+,%d4
    4c0c:	1818           	moveb %a0@+,%d4
    4c0e:	1818           	moveb %a0@+,%d4
    4c10:	181b           	moveb %a3@+,%d4
    4c12:	1b0e           	.short 0x1b0e
    4c14:	70d8           	moveq #-40,%d0
    4c16:	d818           	addb %a0@+,%d4
    4c18:	1818           	moveb %a0@+,%d4
    4c1a:	1818           	moveb %a0@+,%d4
    4c1c:	00fe           	.short 0x00fe
    4c1e:	5454           	addqw #2,%a4@
    4c20:	2a2a 7f00      	movel %a2@(32512),%d5
    4c24:	4422           	negb %a2@-
    4c26:	1188           	.short 0x1188
    4c28:	4422           	negb %a2@-
    4c2a:	1188           	.short 0x1188
    4c2c:	0000 0000      	orib #0,%d0
    4c30:	002a 2a00 0800 	orib #0,%a2@(2048)
    4c36:	0808           	.short 0x0808
    4c38:	0808           	.short 0x0808
    4c3a:	0800 0800      	btst #0,%d0
    4c3e:	080c           	.short 0x080c
    4c40:	0222 1c00      	andib #0,%a2@-
    4c44:	3e41           	moveaw %d1,%sp
    4c46:	5d45           	subqw #6,%d5
    4c48:	455d           	.short 0x455d
    4c4a:	413e           	.short 0x413e
    4c4c:	3e41           	moveaw %d1,%sp
    4c4e:	5d55           	subqw #6,%a5@
    4c50:	4d55           	.short 0x4d55
    4c52:	413e           	.short 0x413e
    4c54:	5772 5200      	subqw #3,%a2@(00000000,%d5:w:2)
    4c58:	0000 0000      	orib #0,%d0
    4c5c:	7e09           	moveq #9,%d7
    4c5e:	0979 0909 7e00 	bchg %d4,9097e00 <__end+0x8097b70>
    4c64:	0000 3e49      	orib #73,%d0
    4c68:	7909           	.short 0x7909
    4c6a:	7e00           	moveq #0,%d7
    4c6c:	0000 4c32      	orib #50,%d0
    4c70:	2232 4c00      	movel %a2@(00000000,%d4:l:4),%d1
    4c74:	003e           	.short 0x003e
    4c76:	2202           	movel %d2,%d1
    4c78:	0202 0200      	andib #0,%d2
    4c7c:	0000 7f22      	orib #34,%d0
    4c80:	2222           	movel %a2@-,%d1
    4c82:	2200           	movel %d0,%d1
    4c84:	7e04           	moveq #4,%d7
    4c86:	0810 0804      	btst #4,%a0@
    4c8a:	7e00           	moveq #0,%d7
    4c8c:	0000 7c12      	orib #18,%d0
    4c90:	1212           	moveb %a2@,%d1
    4c92:	0c00 0044      	cmpib #68,%d0
    4c96:	4444           	negw %d4
    4c98:	443c           	.short 0x443c
    4c9a:	0402 004c      	subib #76,%d2
    4c9e:	3210           	movew %a0@,%d1
    4ca0:	1010           	moveb %a0@,%d0
    4ca2:	1000           	moveb %d0,%d0
    4ca4:	3e08           	movew %a0,%d7
    4ca6:	1c22           	moveb %a2@-,%d6
    4ca8:	221c           	movel %a4@+,%d1
    4caa:	083e           	.short 0x083e
    4cac:	0c12 213f      	cmpib #63,%a2@
    4cb0:	2112           	movel %a2@,%a0@-
    4cb2:	0c00 1c22      	cmpib #34,%d0
    4cb6:	4141           	.short 0x4141
    4cb8:	2214           	movel %a4@,%d1
    4cba:	7700           	.short 0x7700
    4cbc:	3008           	movew %a0,%d0
    4cbe:	103c 4242      	moveb #66,%d0
    4cc2:	3c00           	movew %d0,%d6
    4cc4:	0000 3e49      	orib #73,%d0
    4cc8:	493e           	.short 0x493e
    4cca:	0000 1804      	orib #4,%d0
    4cce:	021e 0204      	andib #4,%fp@+
    4cd2:	1800           	moveb %d0,%d4
    4cd4:	1c22           	moveb %a2@-,%d6
    4cd6:	2222           	movel %a2@-,%d1
    4cd8:	2222           	movel %a2@-,%d1
    4cda:	2200           	movel %d0,%d1
    4cdc:	007e           	.short 0x007e
    4cde:	007e           	.short 0x007e
    4ce0:	007e           	.short 0x007e
    4ce2:	0000 0808      	orib #8,%d0
    4ce6:	3e08           	movew %a0,%d7
    4ce8:	0800 3e00      	btst #0,%d0
    4cec:	0408           	.short 0x0408
    4cee:	1008           	.short 0x1008
    4cf0:	0400 3e00      	subib #0,%d0
    4cf4:	0804 0204      	btst #4,%d4
    4cf8:	0800 1f00      	btst #0,%d0
    4cfc:	004c           	.short 0x004c
    4cfe:	3200           	movew %d0,%d1
    4d00:	4c32           	.short 0x4c32
    4d02:	0000 1824      	orib #36,%d0
    4d06:	040e           	.short 0x040e
    4d08:	0444 3a00      	subiw #14848,%d4
    4d0c:	0036 1c22 221c 	orib #34,%fp@(0000001c,%d2:w:2)
    4d12:	3600           	movew %d0,%d3
    4d14:	083c           	.short 0x083c
    4d16:	0a0a           	.short 0x0a0a
    4d18:	0a3c 0800      	eorib #0,%ccr
    4d1c:	3844           	moveaw %d4,%a4
    4d1e:	0f02           	btst %d7,%d2
    4d20:	0f44           	bchg %d7,%d4
    4d22:	3800           	movew %d0,%d4
    4d24:	2214           	movel %a4@,%d1
    4d26:	083e           	.short 0x083e
    4d28:	083e           	.short 0x083e
    4d2a:	0800 0000      	btst #0,%d0
    4d2e:	0018 1800      	orib #0,%a0@+
    4d32:	0000 1c12      	orib #18,%d0
    4d36:	122c 003e      	moveb %a4@(62),%d1
    4d3a:	0000 1c22      	orib #34,%d0
    4d3e:	221c           	movel %a4@+,%d1
    4d40:	003e           	.short 0x003e
    4d42:	0000 0406      	orib #6,%d0
    4d46:	0404 0e00      	subib #0,%d4
    4d4a:	0000 0c12      	orib #18,%d0
    4d4e:	1212           	moveb %a2@,%d1
    4d50:	0c00 0000      	cmpib #0,%d0
    4d54:	4222           	clrb %a2@-
    4d56:	1268           	.short 0x1268
    4d58:	84c2           	divuw %d2,%d2
    4d5a:	21e0 8242      	movel %a0@-,ffff8242 <__end+0xfeff7fb2>
    4d5e:	2290           	movel %a0@,%a1@
    4d60:	a8e4           	.short 0xa8e4
    4d62:	8280           	orl %d0,%d1
    4d64:	8344           	.short 0x8344
    4d66:	2294           	movel %a4@,%a1@
    4d68:	abe4           	.short 0xabe4
    4d6a:	8280           	orl %d0,%d1
    4d6c:	0810 3c42      	btst #66,%a0@
    4d70:	427e           	.short 0x427e
    4d72:	4200           	clrb %d0
    4d74:	2010           	movel %a0@,%d0
    4d76:	3c42           	moveaw %d2,%fp
    4d78:	427e           	.short 0x427e
    4d7a:	4200           	clrb %d0
    4d7c:	3c42           	moveaw %d2,%fp
    4d7e:	3c42           	moveaw %d2,%fp
    4d80:	427e           	.short 0x427e
    4d82:	4200           	clrb %d0
    4d84:	7f00           	.short 0x7f00
    4d86:	3c42           	moveaw %d2,%fp
    4d88:	427e           	.short 0x427e
    4d8a:	4200           	clrb %d0
    4d8c:	2400           	movel %d0,%d2
    4d8e:	3c42           	moveaw %d2,%fp
    4d90:	427e           	.short 0x427e
    4d92:	4200           	clrb %d0
    4d94:	1818           	moveb %a0@+,%d4
    4d96:	3c42           	moveaw %d2,%fp
    4d98:	427e           	.short 0x427e
    4d9a:	4200           	clrb %d0
    4d9c:	7e09           	moveq #9,%d7
    4d9e:	097f           	.short 0x097f
    4da0:	0909 7900      	movepw %a1@(30976),%d4
    4da4:	3c42           	moveaw %d2,%fp
    4da6:	0202 024a      	andib #74,%d2
    4daa:	3c18           	movew %a0@+,%d6
    4dac:	0810 7e02      	btst #2,%a0@
    4db0:	3e02           	movew %d2,%d7
    4db2:	7e00           	moveq #0,%d7
    4db4:	2010           	movel %a0@,%d0
    4db6:	7e02           	moveq #2,%d7
    4db8:	3e02           	movew %d2,%d7
    4dba:	7e00           	moveq #0,%d7
    4dbc:	3c42           	moveaw %d2,%fp
    4dbe:	7e02           	moveq #2,%d7
    4dc0:	3e02           	movew %d2,%d7
    4dc2:	7e00           	moveq #0,%d7
    4dc4:	2400           	movel %d0,%d2
    4dc6:	7e02           	moveq #2,%d7
    4dc8:	3e02           	movew %d2,%d7
    4dca:	7e00           	moveq #0,%d7
    4dcc:	0408           	.short 0x0408
    4dce:	3e08           	movew %a0,%d7
    4dd0:	0808           	.short 0x0808
    4dd2:	3e00           	movew %d0,%d7
    4dd4:	1008           	.short 0x1008
    4dd6:	3e08           	movew %a0,%d7
    4dd8:	0808           	.short 0x0808
    4dda:	3e00           	movew %d0,%d7
    4ddc:	1c22           	moveb %a2@-,%d6
    4dde:	3e08           	movew %a0,%d7
    4de0:	0808           	.short 0x0808
    4de2:	3e00           	movew %d0,%d7
    4de4:	1400           	moveb %d0,%d2
    4de6:	3e08           	movew %a0,%d7
    4de8:	0808           	.short 0x0808
    4dea:	3e00           	movew %d0,%d7
    4dec:	0e12           	.short 0x0e12
    4dee:	222f 2222      	movel %sp@(8738),%d1
    4df2:	1e00           	moveb %d0,%d7
    4df4:	7e00           	moveq #0,%d7
    4df6:	464a           	.short 0x464a
    4df8:	5262           	addqw #1,%a2@-
    4dfa:	4200           	clrb %d0
    4dfc:	0810 3c42      	btst #66,%a0@
    4e00:	4242           	clrw %d2
    4e02:	3c00           	movew %d0,%d6
    4e04:	2010           	movel %a0@,%d0
    4e06:	3c42           	moveaw %d2,%fp
    4e08:	4242           	clrw %d2
    4e0a:	3c00           	movew %d0,%d6
    4e0c:	3c42           	moveaw %d2,%fp
    4e0e:	3c42           	moveaw %d2,%fp
    4e10:	4242           	clrw %d2
    4e12:	3c00           	movew %d0,%d6
    4e14:	7e00           	moveq #0,%d7
    4e16:	3c42           	moveaw %d2,%fp
    4e18:	4242           	clrw %d2
    4e1a:	3c00           	movew %d0,%d6
    4e1c:	2400           	movel %d0,%d2
    4e1e:	3c42           	moveaw %d2,%fp
    4e20:	4242           	clrw %d2
    4e22:	3c00           	movew %d0,%d6
    4e24:	0000 2214      	orib #20,%d0
    4e28:	0814 2200      	btst #0,%a4@
    4e2c:	403c           	.short 0x403c
    4e2e:	6252           	bhis 4e82 <fontTiles+0x716>
    4e30:	4a46           	tstw %d6
    4e32:	3c02           	movew %d2,%d6
    4e34:	0408           	.short 0x0408
    4e36:	4242           	clrw %d2
    4e38:	4242           	clrw %d2
    4e3a:	3c00           	movew %d0,%d6
    4e3c:	1008           	.short 0x1008
    4e3e:	4242           	clrw %d2
    4e40:	4242           	clrw %d2
    4e42:	3c00           	movew %d0,%d6
    4e44:	1824           	moveb %a4@-,%d4
    4e46:	0042 4242      	oriw #16962,%d2
    4e4a:	3c00           	movew %d0,%d6
    4e4c:	2400           	movel %d0,%d2
    4e4e:	4242           	clrw %d2
    4e50:	4242           	clrw %d2
    4e52:	3c00           	movew %d0,%d6
    4e54:	1008           	.short 0x1008
    4e56:	4242           	clrw %d2
    4e58:	4478 403e      	negw 403e <f_mkdir+0x34>
    4e5c:	0202 1e22      	andib #34,%d2
    4e60:	1e02           	moveb %d2,%d7
    4e62:	0200 1c22      	andib #34,%d0
    4e66:	123a 4242      	moveb %pc@(90aa <miscLibrary+0x120>),%d1
    4e6a:	3a00           	movew %d0,%d5
    4e6c:	0810 0078      	btst #120,%a0@
    4e70:	4462           	negw %a2@-
    4e72:	5c00           	addqb #6,%d0
    4e74:	2010           	movel %a0@,%d0
    4e76:	0078 4462 5c00 	oriw #17506,5c00 <fontTiles+0x1494>
    4e7c:	3844           	moveaw %d4,%a4
    4e7e:	0078 4462 5c00 	oriw #17506,5c00 <fontTiles+0x1494>
    4e84:	7c00           	moveq #0,%d6
    4e86:	0078 4462 5c00 	oriw #17506,5c00 <fontTiles+0x1494>
    4e8c:	4800           	nbcd %d0
    4e8e:	0078 4462 5c00 	oriw #17506,5c00 <fontTiles+0x1494>
    4e94:	3030 0078      	movew %a0@(00000078,%d0:w),%d0
    4e98:	4462           	negw %a2@-
    4e9a:	5c00           	addqb #6,%d0
    4e9c:	0000 007e      	orib #126,%d0
    4ea0:	4939 7600 0000 	chkl 76000000 <__end+0x74fffd70>,%d4
    4ea6:	3c42           	moveaw %d2,%fp
    4ea8:	024a           	.short 0x024a
    4eaa:	3c18           	movew %a0@+,%d6
    4eac:	0810 003c      	btst #60,%a0@
    4eb0:	423e           	.short 0x423e
    4eb2:	7c00           	moveq #0,%d6
    4eb4:	2010           	movel %a0@,%d0
    4eb6:	003c 423e      	orib #62,%ccr
    4eba:	7c00           	moveq #0,%d6
    4ebc:	3844           	moveaw %d4,%a4
    4ebe:	003c 423e      	orib #62,%ccr
    4ec2:	7c00           	moveq #0,%d6
    4ec4:	2400           	movel %d0,%d2
    4ec6:	003c 423e      	orib #62,%ccr
    4eca:	7c00           	moveq #0,%d6
    4ecc:	0408           	.short 0x0408
    4ece:	0008           	.short 0x0008
    4ed0:	0808           	.short 0x0808
    4ed2:	0800 1008      	btst #8,%d0
    4ed6:	0008           	.short 0x0008
    4ed8:	0808           	.short 0x0808
    4eda:	0800 1c22      	btst #34,%d0
    4ede:	0808           	.short 0x0808
    4ee0:	0808           	.short 0x0808
    4ee2:	0800 1400      	btst #0,%d0
    4ee6:	0808           	.short 0x0808
    4ee8:	0808           	.short 0x0808
    4eea:	0800 1408      	btst #8,%d0
    4eee:	143c 4242      	moveb #66,%d2
    4ef2:	3c00           	movew %d0,%d6
    4ef4:	3e00           	movew %d0,%d7
    4ef6:	1e22           	moveb %a2@-,%d7
    4ef8:	2222           	movel %a2@-,%d1
    4efa:	2200           	movel %d0,%d1
    4efc:	0810 3c42      	btst #66,%a0@
    4f00:	4242           	clrw %d2
    4f02:	3c00           	movew %d0,%d6
    4f04:	2010           	movel %a0@,%d0
    4f06:	3c42           	moveaw %d2,%fp
    4f08:	4242           	clrw %d2
    4f0a:	3c00           	movew %d0,%d6
    4f0c:	3c42           	moveaw %d2,%fp
    4f0e:	3c42           	moveaw %d2,%fp
    4f10:	4242           	clrw %d2
    4f12:	3c00           	movew %d0,%d6
    4f14:	7e00           	moveq #0,%d7
    4f16:	3c42           	moveaw %d2,%fp
    4f18:	4242           	clrw %d2
    4f1a:	3c00           	movew %d0,%d6
    4f1c:	2400           	movel %d0,%d2
    4f1e:	3c42           	moveaw %d2,%fp
    4f20:	4242           	clrw %d2
    4f22:	3c00           	movew %d0,%d6
    4f24:	1818           	moveb %a0@+,%d4
    4f26:	007e           	.short 0x007e
    4f28:	0018 1800      	orib #0,%a0@+
    4f2c:	0040 3c52      	oriw #15442,%d0
    4f30:	524a           	addqw #1,%a2
    4f32:	3c02           	movew %d2,%d6
    4f34:	0408           	.short 0x0408
    4f36:	4242           	clrw %d2
    4f38:	4242           	clrw %d2
    4f3a:	7c00           	moveq #0,%d6
    4f3c:	1008           	.short 0x1008
    4f3e:	4242           	clrw %d2
    4f40:	4242           	clrw %d2
    4f42:	7c00           	moveq #0,%d6
    4f44:	1824           	moveb %a4@-,%d4
    4f46:	0042 4242      	oriw #16962,%d2
    4f4a:	7c00           	moveq #0,%d6
    4f4c:	2400           	movel %d0,%d2
    4f4e:	4242           	clrw %d2
    4f50:	4242           	clrw %d2
    4f52:	7c00           	moveq #0,%d6
    4f54:	1008           	.short 0x1008
    4f56:	4242           	clrw %d2
    4f58:	4478 403e      	negw 403e <f_mkdir+0x34>
    4f5c:	021e 2222      	andib #34,%fp@+
    4f60:	120e           	.short 0x120e
    4f62:	0200 2400      	andib #0,%d0
    4f66:	4242           	clrw %d2
    4f68:	4478 403f      	negw 403f <f_mkdir+0x35>
	...
    4f74:	7eff           	moveq #-1,%d7
    4f76:	dbdb           	addal %a3@+,%a5
    4f78:	ffc3           	.short 0xffc3
    4f7a:	e77e           	rolw %d3,%d6
    4f7c:	367f           	.short 0x367f
    4f7e:	7f7f           	.short 0x7f7f
    4f80:	3e1c           	movew %a4@+,%d7
    4f82:	0800 1038      	btst #56,%d0
    4f86:	7cfe           	moveq #-2,%d6
    4f88:	7c38           	moveq #56,%d6
    4f8a:	1000           	moveb %d0,%d0
    4f8c:	3838 38fe      	movew 38fe <f_lseek+0xa>,%d4
    4f90:	fed6           	.short 0xfed6
    4f92:	1038 0808      	moveb 808 <WriteChar+0x2a>,%d0
    4f96:	1c3e           	.short 0x1c3e
    4f98:	7f3e           	.short 0x7f3e
    4f9a:	081c fccc      	btst #-52,%a4@+
    4f9e:	fc0c           	.short 0xfc0c
    4fa0:	0c0e           	.short 0x0c0e
    4fa2:	0f07           	btst %d7,%d7
    4fa4:	fec6           	.short 0xfec6
    4fa6:	fec6           	.short 0xfec6
    4fa8:	e6e7           	rorw %sp@-
    4faa:	6703           	beqs 4faf <fontTiles+0x843>
    4fac:	0000 183c      	orib #60,%d0
    4fb0:	3c18           	movew %a0@+,%d6
    4fb2:	0000 003c      	orib #60,%d0
    4fb6:	6642           	bnes 4ffa <fontTiles+0x88e>
    4fb8:	4266           	clrw %fp@-
    4fba:	3c00           	movew %d0,%d6
    4fbc:	183c 5a18      	moveb #24,%d4
    4fc0:	3c66           	moveaw %fp@-,%fp
    4fc2:	663c           	bnes 5000 <fontTiles+0x894>
    4fc4:	3c66           	moveaw %fp@-,%fp
    4fc6:	663c           	bnes 5004 <fontTiles+0x898>
    4fc8:	187e           	.short 0x187e
    4fca:	1818           	moveb %a0@+,%d4
    4fcc:	6666           	bnes 5034 <fontTiles+0x8c8>
    4fce:	6666           	bnes 5036 <fontTiles+0x8ca>
    4fd0:	6600 6600      	bnew b5d2 <_etext+0x228e>
    4fd4:	fedb           	.short 0xfedb
    4fd6:	dbde           	addal %fp@+,%a5
    4fd8:	d8d8           	addaw %a0@+,%a4
    4fda:	d800           	addb %d0,%d4
    4fdc:	3e63           	moveaw %a3@-,%sp
    4fde:	1e36 3c63      	moveb %fp@(00000063,%d3:l:4),%d7
    4fe2:	3e00           	movew %d0,%d7
    4fe4:	0000 7f60      	orib #96,%d0
    4fe8:	6060           	bras 504a <fontTiles+0x8de>
    4fea:	0000 4060      	orib #96,%d0
    4fee:	2030 1b1e 0c08 	movel %a0@(00000000)@(00000c08,%d1:l:2),%d0
    4ff4:	cc66           	andw %fp@-,%d6
    4ff6:	3399 cc66      	movew %a1@+,%a1@(00000066,%a4:l:4)
    4ffa:	3399 cc66      	movew %a1@+,%a1@(00000066,%a4:l:4)
    4ffe:	3399 cc66      	movew %a1@+,%a1@(00000066,%a4:l:4)
    5002:	3399 cc66      	movew %a1@+,%a1@(00000066,%a4:l:4)
    5006:	3399 cc66      	movew %a1@+,%a1@(00000066,%a4:l:4)
    500a:	3399 006c      	movew %a1@+,%a1@(0000006c,%d0:w)
    500e:	361b           	movew %a3@+,%d3
    5010:	366c 0000      	moveaw %a4@(0),%a3
    5014:	001b 366c      	orib #108,%a3@+
    5018:	361b           	movew %a3@+,%d3
    501a:	0000 0018      	orib #24,%d0
    501e:	307f           	.short 0x307f
    5020:	3018           	movew %a0@+,%d0
    5022:	0000 000c      	orib #12,%d0
    5026:	067f           	.short 0x067f
    5028:	060c           	.short 0x060c
    502a:	0000 183c      	orib #60,%d0
    502e:	7e18           	moveq #24,%d7
    5030:	1818           	moveb %a0@+,%d4
    5032:	1818           	moveb %a0@+,%d4
    5034:	1818           	moveb %a0@+,%d4
    5036:	1818           	moveb %a0@+,%d4
    5038:	187e           	.short 0x187e
    503a:	3c18           	movew %a0@+,%d6
    503c:	183c 7e18      	moveb #24,%d4
    5040:	187e           	.short 0x187e
    5042:	3c18           	movew %a0@+,%d6
    5044:	0024 66ff      	orib #-1,%a4@-
    5048:	6624           	bnes 506e <fontTiles+0x902>
    504a:	0000 0c1c      	orib #28,%d0
    504e:	3c7c 3c1c      	moveaw #15388,%fp
    5052:	0c00 3038      	cmpib #56,%d0
    5056:	3c3e           	.short 0x3c3e
    5058:	3c38 3000      	movew 3000 <f_open+0xd2>,%d6
    505c:	081c 1c3e      	btst #62,%a4@+
    5060:	3e7f           	.short 0x3e7f
    5062:	7f00           	.short 0x7f00
    5064:	7f7f           	.short 0x7f7f
    5066:	3e3e           	.short 0x3e3e
    5068:	1c1c           	moveb %a4@+,%d6
    506a:	0800 0000      	btst #0,%d0
    506e:	0000 0000      	orib #0,%d0
    5072:	0000 0c0c      	orib #12,%d0
    5076:	0c0c           	.short 0x0c0c
    5078:	0c00 0c00      	cmpib #0,%d0
    507c:	3636 1400      	movew %fp@(00000000,%d1:w:4),%d3
    5080:	0000 0000      	orib #0,%d0
    5084:	3636 7f36 7f36 	movew %fp@(7f363600)@(0000083e,%d7:l:8),%d3
    508a:	3600 083e 
    508e:	0b3e           	.short 0x0b3e
    5090:	683e           	bvcs 50d0 <fontTiles+0x964>
    5092:	0800 c765      	btst #101,%d0
    5096:	3718           	movew %a0@+,%a3@-
    5098:	eca6           	asrl %d6,%d6
    509a:	e300           	aslb #1,%d0
    509c:	1c36 1c56      	moveb %fp@(00000056,%d1:l:4),%d6
    50a0:	3333 6e00      	movew %a3@(00000000,%d6:l:8),%a1@-
    50a4:	1818           	moveb %a0@+,%d4
    50a6:	0800 0000      	btst #0,%d0
    50aa:	0000 180c      	orib #12,%d0
    50ae:	0c0c           	.short 0x0c0c
    50b0:	0c0c           	.short 0x0c0c
    50b2:	1800           	moveb %d0,%d4
    50b4:	0c18 1818      	cmpib #24,%a0@+
    50b8:	1818           	moveb %a0@+,%d4
    50ba:	0c00 0063      	cmpib #99,%d0
    50be:	361c           	movew %a4@+,%d3
    50c0:	3663           	moveaw %a3@-,%a3
    50c2:	0000 0018      	orib #24,%d0
    50c6:	187e           	.short 0x187e
    50c8:	1818           	moveb %a0@+,%d4
    50ca:	0000 0000      	orib #0,%d0
    50ce:	0000 0006      	orib #6,%d0
    50d2:	0602 0000      	addib #0,%d2
    50d6:	007e           	.short 0x007e
	...
    50e0:	0006 0600      	orib #0,%d6
    50e4:	6060           	bras 5146 <fontTiles+0x9da>
    50e6:	3018           	movew %a0@+,%d0
    50e8:	0c06 0600      	cmpib #0,%d6
    50ec:	3c66           	moveaw %fp@-,%fp
    50ee:	736b           	.short 0x736b
    50f0:	6733           	beqs 5125 <fontTiles+0x9b9>
    50f2:	1e00           	moveb %d0,%d7
    50f4:	181c           	moveb %a4@+,%d4
    50f6:	1818           	moveb %a0@+,%d4
    50f8:	1818           	moveb %a0@+,%d4
    50fa:	3c00           	movew %d0,%d6
    50fc:	3e63           	moveaw %a3@-,%sp
    50fe:	603e           	bras 513e <fontTiles+0x9d2>
    5100:	0303           	btst %d1,%d3
    5102:	7f00           	.short 0x7f00
    5104:	3e63           	moveaw %a3@-,%sp
    5106:	6030           	bras 5138 <fontTiles+0x9cc>
    5108:	6063           	bras 516d <fontTiles+0xa01>
    510a:	3e00           	movew %d0,%d7
    510c:	6666           	bnes 5174 <fontTiles+0xa08>
    510e:	637f           	blss 518f <fontTiles+0xa23>
    5110:	6060           	bras 5172 <fontTiles+0xa06>
    5112:	6000 7f03      	braw d017 <_etext+0x3cd3>
    5116:	1f30 6063      	moveb %a0@(00000063,%d6:w),%sp@-
    511a:	3e00           	movew %d0,%d7
    511c:	3e03           	movew %d3,%d7
    511e:	1f33 6363 3e00 	moveb %a3@(00003e00)@(7f603018),%sp@-
    5124:	7f60 3018 
    5128:	1818           	moveb %a0@+,%d4
    512a:	1800           	moveb %d0,%d4
    512c:	3e63           	moveaw %a3@-,%sp
    512e:	633e           	blss 516e <fontTiles+0xa02>
    5130:	6363           	blss 5195 <fontTiles+0xa29>
    5132:	3e00           	movew %d0,%d7
    5134:	3c66           	moveaw %fp@-,%fp
    5136:	637e           	blss 51b6 <fontTiles+0xa4a>
    5138:	6060           	bras 519a <fontTiles+0xa2e>
    513a:	3f00           	movew %d0,%sp@-
    513c:	000c           	.short 0x000c
    513e:	0c00 000c      	cmpib #12,%d0
    5142:	0c00 000c      	cmpib #12,%d0
    5146:	0c00 000c      	cmpib #12,%d0
    514a:	0c04 6030      	cmpib #48,%d4
    514e:	180c           	.short 0x180c
    5150:	1830 6000      	moveb %a0@(00000000,%d6:w),%d4
    5154:	003e           	.short 0x003e
    5156:	0000 3e00      	orib #0,%d0
    515a:	0000 060c      	orib #12,%d0
    515e:	1830 180c      	moveb %a0@(0000000c,%d1:l),%d4
    5162:	0600 3e63      	addib #99,%d0
    5166:	6038           	bras 51a0 <fontTiles+0xa34>
    5168:	1800           	moveb %d0,%d4
    516a:	1800           	moveb %d0,%d4
    516c:	3c42           	moveaw %d2,%fp
    516e:	5955           	subqw #4,%a5@
    5170:	3902           	movew %d2,%a4@-
    5172:	3c00           	movew %d0,%d6
    5174:	3e63           	moveaw %a3@-,%sp
    5176:	637f           	blss 51f7 <fontTiles+0xa8b>
    5178:	6363           	blss 51dd <fontTiles+0xa71>
    517a:	6300 1f33      	blsw 70af <fontTiles+0x2943>
    517e:	333f           	.short 0x333f
    5180:	6363           	blss 51e5 <fontTiles+0xa79>
    5182:	3f00           	movew %d0,%sp@-
    5184:	3e63           	moveaw %a3@-,%sp
    5186:	0303           	btst %d1,%d3
    5188:	0363           	bchg %d1,%a3@-
    518a:	3e00           	movew %d0,%d7
    518c:	1f33 6363 6363 	moveb %a3@(00006363)@(3f007f03),%sp@-
    5192:	3f00 7f03 
    5196:	033f           	.short 0x033f
    5198:	0303           	btst %d1,%d3
    519a:	7f00           	.short 0x7f00
    519c:	7f03           	.short 0x7f03
    519e:	033f           	.short 0x033f
    51a0:	0303           	btst %d1,%d3
    51a2:	0300           	btst %d1,%d0
    51a4:	3e63           	moveaw %a3@-,%sp
    51a6:	037b           	.short 0x037b
    51a8:	6363           	blss 520d <fontTiles+0xaa1>
    51aa:	3e00           	movew %d0,%d7
    51ac:	6363           	blss 5211 <fontTiles+0xaa5>
    51ae:	637f           	blss 522f <fontTiles+0xac3>
    51b0:	6363           	blss 5215 <fontTiles+0xaa9>
    51b2:	6300 7e18      	blsw cfcc <_etext+0x3c88>
    51b6:	1818           	moveb %a0@+,%d4
    51b8:	1818           	moveb %a0@+,%d4
    51ba:	7e00           	moveq #0,%d7
    51bc:	7060           	moveq #96,%d0
    51be:	6060           	bras 5220 <fontTiles+0xab4>
    51c0:	6063           	bras 5225 <fontTiles+0xab9>
    51c2:	3e00           	movew %d0,%d7
    51c4:	6363           	blss 5229 <fontTiles+0xabd>
    51c6:	333f           	.short 0x333f
    51c8:	6363           	blss 522d <fontTiles+0xac1>
    51ca:	6300 0303      	blsw 54cf <fontTiles+0xd63>
    51ce:	0303           	btst %d1,%d3
    51d0:	0303           	btst %d1,%d3
    51d2:	7f00           	.short 0x7f00
    51d4:	6377           	blss 524d <fontTiles+0xae1>
    51d6:	7f6b           	.short 0x7f6b
    51d8:	6363           	blss 523d <fontTiles+0xad1>
    51da:	6300 6367      	blsw b543 <_etext+0x21ff>
    51de:	6f7b           	bles 525b <fontTiles+0xaef>
    51e0:	7363           	.short 0x7363
    51e2:	6300 3e63      	blsw 9047 <miscLibrary+0xbd>
    51e6:	6363           	blss 524b <fontTiles+0xadf>
    51e8:	6363           	blss 524d <fontTiles+0xae1>
    51ea:	3e00           	movew %d0,%d7
    51ec:	3f63 6333      	movew %a3@-,%sp@(25395)
    51f0:	1f03           	moveb %d3,%sp@-
    51f2:	0300           	btst %d1,%d0
    51f4:	3e63           	moveaw %a3@-,%sp
    51f6:	6363           	blss 525b <fontTiles+0xaef>
    51f8:	6b3b           	bmis 5235 <fontTiles+0xac9>
    51fa:	3e60           	moveaw %a0@-,%sp
    51fc:	3f63 6333      	movew %a3@-,%sp@(25395)
    5200:	7f63           	.short 0x7f63
    5202:	6300 3e63      	blsw 9067 <miscLibrary+0xdd>
    5206:	033e           	.short 0x033e
    5208:	6063           	bras 526d <fontTiles+0xb01>
    520a:	3e00           	movew %d0,%d7
    520c:	7e18           	moveq #24,%d7
    520e:	1818           	moveb %a0@+,%d4
    5210:	1818           	moveb %a0@+,%d4
    5212:	1800           	moveb %d0,%d4
    5214:	6363           	blss 5279 <fontTiles+0xb0d>
    5216:	6363           	blss 527b <fontTiles+0xb0f>
    5218:	6363           	blss 527d <fontTiles+0xb11>
    521a:	3e00           	movew %d0,%d7
    521c:	6363           	blss 5281 <fontTiles+0xb15>
    521e:	6363           	blss 5283 <fontTiles+0xb17>
    5220:	3636 1c00      	movew %fp@(00000000,%d1:l:4),%d3
    5224:	6363           	blss 5289 <fontTiles+0xb1d>
    5226:	636b           	blss 5293 <fontTiles+0xb27>
    5228:	7f77           	.short 0x7f77
    522a:	6300 6363      	blsw b58f <_etext+0x224b>
    522e:	361c           	movew %a4@+,%d3
    5230:	3663           	moveaw %a3@-,%a3
    5232:	6300 6363      	blsw b597 <_etext+0x2253>
    5236:	6366           	blss 529e <fontTiles+0xb32>
    5238:	7c60           	moveq #96,%d6
    523a:	3f00           	movew %d0,%sp@-
    523c:	7f60           	.short 0x7f60
    523e:	301c           	movew %a4@+,%d0
    5240:	0603 7f00      	addib #0,%d3
    5244:	3c0c           	movew %a4,%d6
    5246:	0c0c           	.short 0x0c0c
    5248:	0c0c           	.short 0x0c0c
    524a:	3c00           	movew %d0,%d6
    524c:	0606 0c18      	addib #24,%d6
    5250:	3060           	moveaw %a0@-,%a0
    5252:	6000 3c30      	braw 8e84 <logo+0x49c>
    5256:	3030 3030      	movew %a0@(00000030,%d3:w),%d0
    525a:	3c00           	movew %d0,%d6
    525c:	081c 3600      	btst #0,%a4@+
	...
    5268:	0000 7f00      	orib #0,%d0
    526c:	2030 3030      	movel %a0@(00000030,%d3:w),%d0
    5270:	0000 0000      	orib #0,%d0
    5274:	0000 7c66      	orib #102,%d0
    5278:	6373           	blss 52ed <fontTiles+0xb81>
    527a:	6e00 0303      	bgtw 557f <fontTiles+0xe13>
    527e:	1f33 6363 3f00 	moveb %a3@(00003f00)@(00003e03),%sp@-
    5284:	0000 3e03 
    5288:	0363           	bchg %d1,%a3@-
    528a:	3e00           	movew %d0,%d7
    528c:	6060           	bras 52ee <fontTiles+0xb82>
    528e:	7c66           	moveq #102,%d6
    5290:	6363           	blss 52f5 <fontTiles+0xb89>
    5292:	7e00           	moveq #0,%d7
    5294:	0000 3e63      	orib #99,%d0
    5298:	7f03           	.short 0x7f03
    529a:	7e00           	moveq #0,%d7
    529c:	3c66           	moveaw %fp@-,%fp
    529e:	063f           	.short 0x063f
    52a0:	0606 0600      	addib #0,%d6
    52a4:	0000 3e63      	orib #99,%d0
    52a8:	637e           	blss 5328 <fontTiles+0xbbc>
    52aa:	603f           	bras 52eb <fontTiles+0xb7f>
    52ac:	0303           	btst %d1,%d3
    52ae:	1f33 6363 6300 	moveb %a3@(00006300)@(18001818),%sp@-
    52b4:	1800 1818 
    52b8:	1818           	moveb %a0@+,%d4
    52ba:	1800           	moveb %d0,%d4
    52bc:	6000 7060      	braw c31e <_etext+0x2fda>
    52c0:	6060           	bras 5322 <fontTiles+0xbb6>
    52c2:	331e           	movew %fp@+,%a1@-
    52c4:	0063 331f      	oriw #13087,%a3@-
    52c8:	3b63 6300      	movew %a3@-,%a5@(25344)
    52cc:	0606 0606      	addib #6,%d6
    52d0:	0606 0e00      	addib #0,%d6
    52d4:	0000 3f6b      	orib #107,%d0
    52d8:	6b6b           	bmis 5345 <fontTiles+0xbd9>
    52da:	6b00 0000      	bmiw 52dc <fontTiles+0xb70>
    52de:	1f33 3333 3300 	moveb %a3@(33000000,%d3:w:2)@(3e636363),%sp@-
    52e4:	0000 3e63 6363 
    52ea:	3e00           	movew %d0,%d7
    52ec:	0000 3f63      	orib #99,%d0
    52f0:	6333           	blss 5325 <fontTiles+0xbb9>
    52f2:	1f03           	moveb %d3,%sp@-
    52f4:	0000 7c66      	orib #102,%d0
    52f8:	6363           	blss 535d <fontTiles+0xbf1>
    52fa:	7e60           	moveq #96,%d7
    52fc:	0000 3b07      	orib #7,%d0
    5300:	0303           	btst %d1,%d3
    5302:	0300           	btst %d1,%d0
    5304:	0000 3e03      	orib #3,%d0
    5308:	1e30 1f00      	moveb %a0@(00000000,%d1:l:8),%d7
    530c:	0c0c           	.short 0x0c0c
    530e:	3e0c           	movew %a4,%d7
    5310:	0c0c           	.short 0x0c0c
    5312:	3800           	movew %d0,%d4
    5314:	0000 6363      	orib #99,%d0
    5318:	6363           	blss 537d <fontTiles+0xc11>
    531a:	7e00           	moveq #0,%d7
    531c:	0000 6363      	orib #99,%d0
    5320:	6336           	blss 5358 <fontTiles+0xbec>
    5322:	1c00           	moveb %d0,%d6
    5324:	0000 6b6b      	orib #107,%d0
    5328:	6b6b           	bmis 5395 <fontTiles+0xc29>
    532a:	3f00           	movew %d0,%sp@-
    532c:	0000 6336      	orib #54,%d0
    5330:	1c36 6300      	moveb %fp@(00000000,%d6:w:2),%d6
    5334:	0000 6363      	orib #99,%d0
    5338:	667c           	bnes 53b6 <fontTiles+0xc4a>
    533a:	603f           	bras 537b <fontTiles+0xc0f>
    533c:	0000 7f60      	orib #96,%d0
    5340:	3e03           	movew %d3,%d7
    5342:	7f00           	.short 0x7f00
    5344:	380c           	movew %a4,%d4
    5346:	0c06 0c0c      	cmpib #12,%d6
    534a:	3800           	movew %d0,%d4
    534c:	0c0c           	.short 0x0c0c
    534e:	0c00 0c0c      	cmpib #12,%d0
    5352:	0c00 1c30      	cmpib #48,%d0
    5356:	3060           	moveaw %a0@-,%a0
    5358:	3030 1c00      	movew %a0@(00000000,%d1:l:4),%d0
    535c:	6e3b           	bgts 5399 <fontTiles+0xc2d>
    535e:	0000 0000      	orib #0,%d0
    5362:	0000 0008      	orib #8,%d0
    5366:	1c36 6363 7f00 	moveb %fp@(00007f00)@(44114411),%d6
    536c:	4411 4411 
    5370:	4411           	negb %a1@
    5372:	4411           	negb %a1@
    5374:	aa55           	.short 0xaa55
    5376:	aa55           	.short 0xaa55
    5378:	aa55           	.short 0xaa55
    537a:	aa55           	.short 0xaa55
    537c:	dd77 dd77 dd77 	addw %d6,%sp@(dd77dd77)@(ffffffff)
    5382:	dd77 ffff ffff 
    5388:	ffff           	.short 0xffff
    538a:	ffff           	.short 0xffff
    538c:	0000 0000      	orib #0,%d0
    5390:	ffff           	.short 0xffff
    5392:	ffff           	.short 0xffff
    5394:	0f0f 0f0f      	movepw %sp@(3855),%d7
    5398:	0f0f 0f0f      	movepw %sp@(3855),%d7
    539c:	f0f0           	.short 0xf0f0
    539e:	f0f0           	.short 0xf0f0
    53a0:	f0f0           	.short 0xf0f0
    53a2:	f0f0           	.short 0xf0f0
    53a4:	ffff           	.short 0xffff
    53a6:	ffff           	.short 0xffff
    53a8:	0000 0000      	orib #0,%d0
    53ac:	0000 3c3c      	orib #60,%d0
    53b0:	3c3c 0000      	movew #0,%d6
    53b4:	1818           	moveb %a0@+,%d4
    53b6:	1818           	moveb %a0@+,%d4
    53b8:	1818           	moveb %a0@+,%d4
    53ba:	1818           	moveb %a0@+,%d4
    53bc:	1818           	moveb %a0@+,%d4
    53be:	181f           	moveb %sp@+,%d4
    53c0:	1818           	moveb %a0@+,%d4
    53c2:	1818           	moveb %a0@+,%d4
    53c4:	0000 001f      	orib #31,%d0
    53c8:	1818           	moveb %a0@+,%d4
    53ca:	1818           	moveb %a0@+,%d4
    53cc:	1818           	moveb %a0@+,%d4
    53ce:	18f8 0000      	moveb 0 <__DYNAMIC>,%a4@+
    53d2:	0000 1818      	orib #24,%d0
    53d6:	18ff           	.short 0x18ff
    53d8:	0000 0000      	orib #0,%d0
    53dc:	0000 00ff      	orib #-1,%d0
    53e0:	1818           	moveb %a0@+,%d4
    53e2:	1818           	moveb %a0@+,%d4
    53e4:	1818           	moveb %a0@+,%d4
    53e6:	18f8 1818      	moveb 1818 <number+0x144>,%a4@+
    53ea:	1818           	moveb %a0@+,%d4
    53ec:	0000 00ff      	orib #-1,%d0
    53f0:	0000 0000      	orib #0,%d0
    53f4:	1818           	moveb %a0@+,%d4
    53f6:	18ff           	.short 0x18ff
    53f8:	1818           	moveb %a0@+,%d4
    53fa:	1818           	moveb %a0@+,%d4
    53fc:	1818           	moveb %a0@+,%d4
    53fe:	181f           	moveb %sp@+,%d4
    5400:	0000 0000      	orib #0,%d0
    5404:	0000 00f8      	orib #-8,%d0
    5408:	1818           	moveb %a0@+,%d4
    540a:	1818           	moveb %a0@+,%d4
    540c:	1818           	moveb %a0@+,%d4
    540e:	1818           	moveb %a0@+,%d4
    5410:	181b           	moveb %a3@+,%d4
    5412:	1b0e           	.short 0x1b0e
    5414:	70d8           	moveq #-40,%d0
    5416:	d818           	addb %a0@+,%d4
    5418:	1818           	moveb %a0@+,%d4
    541a:	1818           	moveb %a0@+,%d4
    541c:	00fe           	.short 0x00fe
    541e:	5454           	addqw #2,%a4@
    5420:	2a2a 7f00      	movel %a2@(32512),%d5
    5424:	cc66           	andw %fp@-,%d6
    5426:	3399 cc66      	movew %a1@+,%a1@(00000066,%a4:l:4)
    542a:	3399 0000      	movew %a1@+,%a1@(00000000,%d0:w)
    542e:	0000 00db      	orib #-37,%d0
    5432:	db00           	addxb %d0,%d5
    5434:	0c00 0c0c      	cmpib #12,%d0
    5438:	0c0c           	.short 0x0c0c
    543a:	0c00 0c00      	cmpib #0,%d0
    543e:	0c0e           	.short 0x0c0e
    5440:	0363           	bchg %d1,%a3@-
    5442:	3e00           	movew %d0,%d7
    5444:	3e41           	moveaw %d1,%sp
    5446:	5d45           	subqw #6,%d5
    5448:	455d           	.short 0x455d
    544a:	413e           	.short 0x413e
    544c:	3e41           	moveaw %d1,%sp
    544e:	5d55           	subqw #6,%a5@
    5450:	4d55           	.short 0x4d55
    5452:	413e           	.short 0x413e
    5454:	5772 5200      	subqw #3,%a2@(00000000,%d5:w:2)
    5458:	0000 0000      	orib #0,%d0
    545c:	7e1b           	moveq #27,%d7
    545e:	1b7b 1b1b 7e00 	moveb %pc@(5460 <fontTiles+0xcf4>,%d1:l:2)@(7e000000),%a5@(15963)
    5464:	0000 3e5b 
    5468:	7b1b           	.short 0x7b1b
    546a:	7e00           	moveq #0,%d7
    546c:	0000 6e3b      	orib #59,%d0
    5470:	133b 6e00      	moveb %pc@(5472 <fontTiles+0xd06>,%d6:l:8),%a1@-
    5474:	007f           	.short 0x007f
    5476:	6303           	blss 547b <fontTiles+0xd0f>
    5478:	0303           	btst %d1,%d3
    547a:	0300           	btst %d1,%d0
    547c:	0000 7f36      	orib #54,%d0
    5480:	3636 3600      	movew %fp@(00000000,%d3:w:8),%d3
    5484:	7f06           	.short 0x7f06
    5486:	0c18 0c06      	cmpib #6,%a0@+
    548a:	7f00           	.short 0x7f00
    548c:	0000 7e1b      	orib #27,%d0
    5490:	1b1b           	moveb %a3@+,%a5@-
    5492:	0e00           	.short 0x0e00
    5494:	0066 6666      	oriw #26214,%fp@-
    5498:	663e           	bnes 54d8 <fontTiles+0xd6c>
    549a:	0603 006e      	addib #110,%d3
    549e:	3b18           	movew %a0@+,%a5@-
    54a0:	1818           	moveb %a0@+,%d4
    54a2:	1800           	moveb %d0,%d4
    54a4:	7e18           	moveq #24,%d7
    54a6:	3c66           	moveaw %fp@-,%fp
    54a8:	663c           	bnes 54e6 <fontTiles+0xd7a>
    54aa:	187e           	.short 0x187e
    54ac:	1c36 637f 6336 	moveb %fp@(63361c00)@(1c366363),%d6
    54b2:	1c00 1c36 6363 
    54b8:	3636 7700      	movew %fp@(00000000,%d7:w:8),%d3
    54bc:	7018           	moveq #24,%d0
    54be:	307e           	.short 0x307e
    54c0:	6363           	blss 5525 <fontTiles+0xdb9>
    54c2:	3e00           	movew %d0,%d7
    54c4:	0000 7edb      	orib #-37,%d0
    54c8:	db7e           	.short 0xdb7e
    54ca:	0000 1c06      	orib #6,%d0
    54ce:	031f           	btst %d1,%sp@+
    54d0:	0306           	btst %d1,%d6
    54d2:	1c00           	moveb %d0,%d6
    54d4:	1e33 3333 3333 	moveb %a3@(33333300,%d3:w:2)@(007e007e),%d7
    54da:	3300 007e 007e 
    54e0:	007e           	.short 0x007e
    54e2:	0000 1818      	orib #24,%d0
    54e6:	7e18           	moveq #24,%d7
    54e8:	1800           	moveb %d0,%d4
    54ea:	7e00           	moveq #0,%d7
    54ec:	060c           	.short 0x060c
    54ee:	180c           	.short 0x180c
    54f0:	0600 3f00      	addib #0,%d0
    54f4:	180c           	.short 0x180c
    54f6:	060c           	.short 0x060c
    54f8:	1800           	moveb %d0,%d4
    54fa:	3f00           	movew %d0,%sp@-
    54fc:	006e 3b00 6e3b 	oriw #15104,%fp@(28219)
    5502:	0000 1c36      	orib #54,%d0
    5506:	060f           	.short 0x060f
    5508:	0666 3f00      	addiw #16128,%fp@-
    550c:	0066 3c66      	oriw #15462,%fp@-
    5510:	663c           	bnes 554e <fontTiles+0xde2>
    5512:	6600 187e      	bnew 6d92 <fontTiles+0x2626>
    5516:	1b1b           	moveb %a3@+,%a5@-
    5518:	1b7e           	.short 0x1b7e
    551a:	1800           	moveb %d0,%d4
    551c:	3c66           	moveaw %fp@-,%fp
    551e:	0f06           	btst %d7,%d6
    5520:	0f66           	bchg %d7,%fp@-
    5522:	3c00           	movew %d0,%d6
    5524:	c37e           	.short 0xc37e
    5526:	18ff           	.short 0x18ff
    5528:	18ff           	.short 0x18ff
    552a:	1800           	moveb %d0,%d4
    552c:	0000 0018      	orib #24,%d0
    5530:	1800           	moveb %d0,%d4
    5532:	0000 3c36      	orib #54,%d0
    5536:	367c 007e      	moveaw #126,%a3
    553a:	0000 3c66      	orib #102,%d0
    553e:	663c           	bnes 557c <fontTiles+0xe10>
    5540:	007e           	.short 0x007e
    5542:	0000 0607      	orib #7,%d0
    5546:	0606 0f00      	addib #0,%d6
    554a:	0000 0e1b      	orib #27,%d0
    554e:	1b1b           	moveb %a3@+,%a5@-
    5550:	0e00           	.short 0x0e00
    5552:	0000 6333      	orib #51,%d0
    5556:	1bfc           	.short 0x1bfc
    5558:	c6f3 31f0 c363 	muluw @(c36333db),%d3
    555e:	33db 
    5560:	ecb6           	roxrl %d6,%d6
    5562:	f3c0           	.short 0xf3c0
    5564:	c767           	andw %d3,%sp@-
    5566:	36df           	movew %sp@+,%a3@+
    5568:	ecb6           	roxrl %d6,%d6
    556a:	f3c0           	.short 0xf3c0
    556c:	0c18 3e63      	cmpib #99,%a0@+
    5570:	637f           	blss 55f1 <fontTiles+0xe85>
    5572:	6300 3018      	blsw 858c <chelsieTiles+0xe20>
    5576:	3e63           	moveaw %a3@-,%sp
    5578:	637f           	blss 55f9 <fontTiles+0xe8d>
    557a:	6300 3e41      	blsw 93bd <_etext+0x79>
    557e:	3e63           	moveaw %a3@-,%sp
    5580:	637f           	blss 5601 <fontTiles+0xe95>
    5582:	6300 7f00      	blsw d484 <_etext+0x4140>
    5586:	3e63           	moveaw %a3@-,%sp
    5588:	637f           	blss 5609 <fontTiles+0xe9d>
    558a:	6300 2200      	blsw 778c <chelsieTiles+0x20>
    558e:	3e63           	moveaw %a3@-,%sp
    5590:	637f           	blss 5611 <fontTiles+0xea5>
    5592:	6300 1818      	blsw 6dac <fontTiles+0x2640>
    5596:	3e63           	moveaw %a3@-,%sp
    5598:	637f           	blss 5619 <fontTiles+0xead>
    559a:	6300 7e1b      	blsw d3b7 <_etext+0x4073>
    559e:	1b7f           	.short 0x1b7f
    55a0:	1b1b           	moveb %a3@+,%a5@-
    55a2:	7b00           	.short 0x7b00
    55a4:	3e63           	moveaw %a3@-,%sp
    55a6:	0303           	btst %d1,%d3
    55a8:	036b 3e0c      	bchg %d1,%a3@(15884)
    55ac:	0c18 7f03      	cmpib #3,%a0@+
    55b0:	3f03           	movew %d3,%sp@-
    55b2:	7f00           	.short 0x7f00
    55b4:	3018           	movew %a0@+,%d0
    55b6:	7f03           	.short 0x7f03
    55b8:	3f03           	movew %d3,%sp@-
    55ba:	7f00           	.short 0x7f00
    55bc:	3e41           	moveaw %d1,%sp
    55be:	7f03           	.short 0x7f03
    55c0:	3f03           	movew %d3,%sp@-
    55c2:	7f00           	.short 0x7f00
    55c4:	2200           	movel %d0,%d1
    55c6:	7f03           	.short 0x7f03
    55c8:	3f03           	movew %d3,%sp@-
    55ca:	7f00           	.short 0x7f00
    55cc:	0c18 7e18      	cmpib #24,%a0@+
    55d0:	1818           	moveb %a0@+,%d4
    55d2:	7e00           	moveq #0,%d7
    55d4:	3018           	movew %a0@+,%d0
    55d6:	7e18           	moveq #24,%d7
    55d8:	1818           	moveb %a0@+,%d4
    55da:	7e00           	moveq #0,%d7
    55dc:	3c42           	moveaw %d2,%fp
    55de:	7e18           	moveq #24,%d7
    55e0:	1818           	moveb %a0@+,%d4
    55e2:	7e00           	moveq #0,%d7
    55e4:	2400           	movel %d0,%d2
    55e6:	7e18           	moveq #24,%d7
    55e8:	1818           	moveb %a0@+,%d4
    55ea:	7e00           	moveq #0,%d7
    55ec:	1e36 666f      	moveb %fp@(0000006f,%d6:w:8),%d7
    55f0:	6666           	bnes 5658 <fontTiles+0xeec>
    55f2:	3e00           	movew %d0,%d7
    55f4:	7f00           	.short 0x7f00
    55f6:	676f           	beqs 5667 <fontTiles+0xefb>
    55f8:	7b73           	.short 0x7b73
    55fa:	6300 0c18      	blsw 6214 <fontTiles+0x1aa8>
    55fe:	3e63           	moveaw %a3@-,%sp
    5600:	6363           	blss 5665 <fontTiles+0xef9>
    5602:	3e00           	movew %d0,%d7
    5604:	3018           	movew %a0@+,%d0
    5606:	3e63           	moveaw %a3@-,%sp
    5608:	6363           	blss 566d <fontTiles+0xf01>
    560a:	3e00           	movew %d0,%d7
    560c:	3c42           	moveaw %d2,%fp
    560e:	3e63           	moveaw %a3@-,%sp
    5610:	6363           	blss 5675 <fontTiles+0xf09>
    5612:	3e00           	movew %d0,%d7
    5614:	3e00           	movew %d0,%d7
    5616:	3e63           	moveaw %a3@-,%sp
    5618:	6363           	blss 567d <fontTiles+0xf11>
    561a:	3e00           	movew %d0,%d7
    561c:	2200           	movel %d0,%d1
    561e:	3e63           	moveaw %a3@-,%sp
    5620:	6363           	blss 5685 <fontTiles+0xf19>
    5622:	3e00           	movew %d0,%d7
    5624:	0000 2214      	orib #20,%d0
    5628:	0814 2200      	btst #0,%a4@
    562c:	403e           	.short 0x403e
    562e:	736b           	.short 0x736b
    5630:	6b67           	bmis 5699 <fontTiles+0xf2d>
    5632:	3e01           	movew %d1,%d7
    5634:	0c18 6363      	cmpib #99,%a0@+
    5638:	6363           	blss 569d <fontTiles+0xf31>
    563a:	3e00           	movew %d0,%d7
    563c:	180c           	.short 0x180c
    563e:	6363           	blss 56a3 <fontTiles+0xf37>
    5640:	6363           	blss 56a5 <fontTiles+0xf39>
    5642:	3e00           	movew %d0,%d7
    5644:	1c22           	moveb %a2@-,%d6
    5646:	6363           	blss 56ab <fontTiles+0xf3f>
    5648:	6363           	blss 56ad <fontTiles+0xf41>
    564a:	3e00           	movew %d0,%d7
    564c:	2200           	movel %d0,%d1
    564e:	6363           	blss 56b3 <fontTiles+0xf47>
    5650:	6363           	blss 56b5 <fontTiles+0xf49>
    5652:	3e00           	movew %d0,%d7
    5654:	180c           	.short 0x180c
    5656:	6363           	blss 56bb <fontTiles+0xf4f>
    5658:	667c           	bnes 56d6 <fontTiles+0xf6a>
    565a:	603f           	bras 569b <fontTiles+0xf2f>
    565c:	0303           	btst %d1,%d3
    565e:	1f33 1f03 0300 	moveb %a3@(00000000,%d1:l:8)@(03001e33),%sp@-
    5664:	1e33 
    5666:	133b 6363 3b00 	moveb %pc@(9168 <miscLibrary+0x1de>)@(0c18007c),%a1@-
    566c:	0c18 007c 
    5670:	6663           	bnes 56d5 <fontTiles+0xf69>
    5672:	7e00           	moveq #0,%d7
    5674:	3018           	movew %a0@+,%d0
    5676:	007c 6663      	oriw #26211,%sr
    567a:	7e00           	moveq #0,%d7
    567c:	3e41           	moveaw %d1,%sp
    567e:	007c 6663      	oriw #26211,%sr
    5682:	7e00           	moveq #0,%d7
    5684:	7f00           	.short 0x7f00
    5686:	007c 6663      	oriw #26211,%sr
    568a:	7e00           	moveq #0,%d7
    568c:	2200           	movel %d0,%d1
    568e:	007c 6663      	oriw #26211,%sr
    5692:	7e00           	moveq #0,%d7
    5694:	1818           	moveb %a0@+,%d4
    5696:	007c 6663      	oriw #26211,%sr
    569a:	7e00           	moveq #0,%d7
    569c:	0000 007e      	orib #126,%d0
    56a0:	5b3b           	.short 0x5b3b
    56a2:	7e00           	moveq #0,%d7
    56a4:	0000 3e63      	orib #99,%d0
    56a8:	036b 3e0c      	bchg %d1,%a3@(15884)
    56ac:	0c18 003e      	cmpib #62,%a0@+
    56b0:	631f           	blss 56d1 <fontTiles+0xf65>
    56b2:	7e00           	moveq #0,%d7
    56b4:	3018           	movew %a0@+,%d0
    56b6:	003e           	.short 0x003e
    56b8:	631f           	blss 56d9 <fontTiles+0xf6d>
    56ba:	7e00           	moveq #0,%d7
    56bc:	3e41           	moveaw %d1,%sp
    56be:	003e           	.short 0x003e
    56c0:	631f           	blss 56e1 <fontTiles+0xf75>
    56c2:	7e00           	moveq #0,%d7
    56c4:	2200           	movel %d0,%d1
    56c6:	003e           	.short 0x003e
    56c8:	631f           	blss 56e9 <fontTiles+0xf7d>
    56ca:	7e00           	moveq #0,%d7
    56cc:	0c18 0018      	cmpib #24,%a0@+
    56d0:	1818           	moveb %a0@+,%d4
    56d2:	1800           	moveb %d0,%d4
    56d4:	3018           	movew %a0@+,%d0
    56d6:	0018 1818      	orib #24,%a0@+
    56da:	1800           	moveb %d0,%d4
    56dc:	3c42           	moveaw %d2,%fp
    56de:	1818           	moveb %a0@+,%d4
    56e0:	1818           	moveb %a0@+,%d4
    56e2:	1800           	moveb %d0,%d4
    56e4:	2400           	movel %d0,%d2
    56e6:	1818           	moveb %a0@+,%d4
    56e8:	1818           	moveb %a0@+,%d4
    56ea:	1800           	moveb %d0,%d4
    56ec:	140e           	.short 0x140e
    56ee:	183e           	.short 0x183e
    56f0:	6363           	blss 5755 <fontTiles+0xfe9>
    56f2:	3e00           	movew %d0,%d7
    56f4:	3f00           	movew %d0,%sp@-
    56f6:	1f33 3333 3300 	moveb %a3@(33000c18,%d3:w:2)@(3e636363),%sp@-
    56fc:	0c18 3e63 6363 
    5702:	3e00           	movew %d0,%d7
    5704:	3018           	movew %a0@+,%d0
    5706:	3e63           	moveaw %a3@-,%sp
    5708:	6363           	blss 576d <fontTiles+0x1001>
    570a:	3e00           	movew %d0,%d7
    570c:	3c42           	moveaw %d2,%fp
    570e:	3e63           	moveaw %a3@-,%sp
    5710:	6363           	blss 5775 <fontTiles+0x1009>
    5712:	3e00           	movew %d0,%d7
    5714:	3e00           	movew %d0,%d7
    5716:	3e63           	moveaw %a3@-,%sp
    5718:	6363           	blss 577d <fontTiles+0x1011>
    571a:	3e00           	movew %d0,%d7
    571c:	2200           	movel %d0,%d1
    571e:	3e63           	moveaw %a3@-,%sp
    5720:	6363           	blss 5785 <fontTiles+0x1019>
    5722:	3e00           	movew %d0,%d7
    5724:	1818           	moveb %a0@+,%d4
    5726:	007e           	.short 0x007e
    5728:	0018 1800      	orib #0,%a0@+
    572c:	0040 3e73      	oriw #15987,%d0
    5730:	6b67           	bmis 5799 <fontTiles+0x102d>
    5732:	3e01           	movew %d1,%d7
    5734:	0c18 6363      	cmpib #99,%a0@+
    5738:	6363           	blss 579d <fontTiles+0x1031>
    573a:	7e00           	moveq #0,%d7
    573c:	180c           	.short 0x180c
    573e:	6363           	blss 57a3 <fontTiles+0x1037>
    5740:	6363           	blss 57a5 <fontTiles+0x1039>
    5742:	7e00           	moveq #0,%d7
    5744:	1c22           	moveb %a2@-,%d6
    5746:	6363           	blss 57ab <fontTiles+0x103f>
    5748:	6363           	blss 57ad <fontTiles+0x1041>
    574a:	7e00           	moveq #0,%d7
    574c:	2200           	movel %d0,%d1
    574e:	6363           	blss 57b3 <fontTiles+0x1047>
    5750:	6363           	blss 57b5 <fontTiles+0x1049>
    5752:	7e00           	moveq #0,%d7
    5754:	180c           	.short 0x180c
    5756:	6363           	blss 57bb <fontTiles+0x104f>
    5758:	667c           	bnes 57d6 <fontTiles+0x106a>
    575a:	603f           	bras 579b <fontTiles+0x102f>
    575c:	031f           	btst %d1,%sp@+
    575e:	3333 1b0f 0300 	movew %a3@(00000000)@(03002200,%d1:l:2),%a1@-
    5764:	2200 
    5766:	6363           	blss 57cb <fontTiles+0x105f>
    5768:	667c           	bnes 57e6 <fontTiles+0x107a>
    576a:	603f           	bras 57ab <fontTiles+0x103f>
	...
    577c:	0000 007e      	orib #126,%d0
    5780:	ffdb           	.short 0xffdb
    5782:	dbff           	.short 0xdbff
    5784:	ffc3           	.short 0xffc3
    5786:	e7ff           	.short 0xe7ff
    5788:	7e00           	moveq #0,%d7
    578a:	0000 0000      	orib #0,%d0
    578e:	0000 0036      	orib #54,%d0
    5792:	7f7f           	.short 0x7f7f
    5794:	7f7f           	.short 0x7f7f
    5796:	3e1c           	movew %a4@+,%d7
    5798:	0800 0000      	btst #0,%d0
    579c:	0000 0000      	orib #0,%d0
    57a0:	0008           	.short 0x0008
    57a2:	1c3e           	.short 0x1c3e
    57a4:	7f3e           	.short 0x7f3e
    57a6:	1c08           	.short 0x1c08
	...
    57b0:	183c 3ce7      	moveb #-25,%d4
    57b4:	e7e7           	rolw %sp@-
    57b6:	1818           	moveb %a0@+,%d4
    57b8:	3c00           	movew %d0,%d6
    57ba:	0000 0000      	orib #0,%d0
    57be:	0000 183c      	orib #60,%d0
    57c2:	7eff           	moveq #-1,%d7
    57c4:	ff7e           	.short 0xff7e
    57c6:	1818           	moveb %a0@+,%d4
    57c8:	3c00           	movew %d0,%d6
    57ca:	0000 0000      	orib #0,%d0
    57ce:	0000 f888      	orib #-120,%d0
    57d2:	f808           	.short 0xf808
    57d4:	0808           	.short 0x0808
    57d6:	0c0e           	.short 0x0c0e
    57d8:	0600 0000      	addib #0,%d0
    57dc:	0000 0000      	orib #0,%d0
    57e0:	fc84           	.short 0xfc84
    57e2:	fc84           	.short 0xfc84
    57e4:	8484           	orl %d4,%d2
    57e6:	c4e6           	muluw %fp@-,%d2
    57e8:	6703           	beqs 57ed <fontTiles+0x1081>
	...
    57f2:	183c 3c18      	moveb #24,%d4
	...
    57fe:	0000 003c      	orib #60,%d0
    5802:	6642           	bnes 5846 <fontTiles+0x10da>
    5804:	4266           	clrw %fp@-
    5806:	3c00           	movew %d0,%d6
	...
    5810:	081c 2a08      	btst #8,%a4@+
    5814:	1c22           	moveb %a2@-,%d6
    5816:	2222           	movel %a2@-,%d1
    5818:	1c00           	moveb %d0,%d6
    581a:	0000 0000      	orib #0,%d0
    581e:	0000 1c22      	orib #34,%d0
    5822:	2222           	movel %a2@-,%d1
    5824:	1c08           	.short 0x1c08
    5826:	3e08           	movew %a0,%d7
    5828:	0800 0000      	btst #0,%d0
    582c:	0000 0024      	orib #36,%d0
    5830:	2424           	movel %a4@-,%d2
    5832:	2424           	movel %a4@-,%d2
    5834:	2424           	movel %a4@-,%d2
    5836:	0024 2400      	orib #0,%a4@-
    583a:	0000 0000      	orib #0,%d0
    583e:	0000 7e69      	orib #105,%d0
    5842:	6969           	bvss 58ad <fontTiles+0x1141>
    5844:	6e68           	bgts 58ae <fontTiles+0x1142>
    5846:	6868           	bvcs 58b0 <fontTiles+0x1144>
    5848:	6800 0000      	bvcw 584a <fontTiles+0x10de>
    584c:	0000 001c      	orib #28,%d0
    5850:	2202           	movel %d2,%d1
    5852:	1c22           	moveb %a2@-,%d6
    5854:	2222           	movel %a2@-,%d1
    5856:	1c20           	moveb %a0@-,%d6
    5858:	221c           	movel %a4@+,%d1
	...
    5862:	3e20           	movew %a0@-,%d7
    5864:	2020           	movel %a0@-,%d0
	...
    586e:	0000 4040      	orib #64,%d0
    5872:	6020           	bras 5894 <fontTiles+0x1128>
    5874:	3011           	movew %a1@,%d0
    5876:	1b1e           	moveb %fp@+,%a5@-
    5878:	0c08           	.short 0x0c08
    587a:	0000 4422      	orib #34,%d0
    587e:	1188           	.short 0x1188
    5880:	4422           	negb %a2@-
    5882:	1188           	.short 0x1188
    5884:	4422           	negb %a2@-
    5886:	1188           	.short 0x1188
    5888:	4422           	negb %a2@-
    588a:	1188           	.short 0x1188
    588c:	4422           	negb %a2@-
    588e:	1188           	.short 0x1188
    5890:	4422           	negb %a2@-
    5892:	1188           	.short 0x1188
    5894:	4422           	negb %a2@-
    5896:	1188           	.short 0x1188
    5898:	4422           	negb %a2@-
    589a:	1188           	.short 0x1188
    589c:	4422           	negb %a2@-
    589e:	1188           	.short 0x1188
    58a0:	4422           	negb %a2@-
    58a2:	1188           	.short 0x1188
    58a4:	4422           	negb %a2@-
    58a6:	1188           	.short 0x1188
    58a8:	4422           	negb %a2@-
    58aa:	1188           	.short 0x1188
    58ac:	0000 0000      	orib #0,%d0
    58b0:	0048           	.short 0x0048
    58b2:	2412           	movel %a2@,%d2
    58b4:	2448           	moveal %a0,%a2
	...
    58be:	0000 0012      	orib #18,%d0
    58c2:	2448           	moveal %a0,%a2
    58c4:	2412           	movel %a2@,%d2
	...
    58d2:	1020           	moveb %a0@-,%d0
    58d4:	7f20           	.short 0x7f20
    58d6:	1000           	moveb %d0,%d0
	...
    58e0:	0000 0402      	orib #2,%d0
    58e4:	7f02           	.short 0x7f02
    58e6:	0400 0000      	subib #0,%d0
    58ea:	0000 0000      	orib #0,%d0
    58ee:	0000 081c      	orib #28,%d0
    58f2:	3e08           	movew %a0,%d7
    58f4:	0808           	.short 0x0808
    58f6:	0808           	.short 0x0808
    58f8:	0800 0000      	btst #0,%d0
    58fc:	0000 0000      	orib #0,%d0
    5900:	0808           	.short 0x0808
    5902:	0808           	.short 0x0808
    5904:	0808           	.short 0x0808
    5906:	3e1c           	movew %a4@+,%d7
    5908:	0800 0000      	btst #0,%d0
    590c:	0000 0000      	orib #0,%d0
    5910:	081c 3e08      	btst #8,%a4@+
    5914:	0808           	.short 0x0808
    5916:	3e1c           	movew %a4@+,%d7
    5918:	0800 0000      	btst #0,%d0
    591c:	0000 0000      	orib #0,%d0
    5920:	0000 2466      	orib #102,%d0
    5924:	ff66           	.short 0xff66
    5926:	2400           	movel %d0,%d2
    5928:	0000 0000      	orib #0,%d0
    592c:	0000 0002      	orib #2,%d0
    5930:	060e           	.short 0x060e
    5932:	1e3e           	.short 0x1e3e
    5934:	7e3e           	moveq #62,%d7
    5936:	1e0e           	.short 0x1e0e
    5938:	0602 0000      	addib #0,%d2
    593c:	0000 0040      	orib #64,%d0
    5940:	6070           	bras 59b2 <fontTiles+0x1246>
    5942:	787c           	moveq #124,%d4
    5944:	7e7c           	moveq #124,%d7
    5946:	7870           	moveq #112,%d4
    5948:	6040           	bras 598a <fontTiles+0x121e>
    594a:	0000 0000      	orib #0,%d0
    594e:	0000 0008      	orib #8,%d0
    5952:	1c1c           	moveb %a4@+,%d6
    5954:	3e3e           	.short 0x3e3e
    5956:	7f7f           	.short 0x7f7f
	...
    5960:	007f           	.short 0x007f
    5962:	7f3e           	.short 0x7f3e
    5964:	3e1c           	movew %a4@+,%d7
    5966:	1c08           	.short 0x1c08
	...
    597c:	0000 0008      	orib #8,%d0
    5980:	0808           	.short 0x0808
    5982:	0808           	.short 0x0808
    5984:	0808           	.short 0x0808
    5986:	0008           	.short 0x0008
    5988:	0800 0000      	btst #0,%d0
    598c:	0000 1414      	orib #20,%d0
    5990:	1400           	moveb %d0,%d2
	...
    599e:	0000 0024      	orib #36,%d0
    59a2:	247e           	.short 0x247e
    59a4:	2424           	movel %a4@-,%d2
    59a6:	7e24           	moveq #36,%d7
    59a8:	2400           	movel %d0,%d2
    59aa:	0000 0000      	orib #0,%d0
    59ae:	0008           	.short 0x0008
    59b0:	1c2a 0a0a      	moveb %a2@(2570),%d6
    59b4:	1c28 282a      	moveb %a0@(10282),%d6
    59b8:	1c08           	.short 0x1c08
    59ba:	0000 0000      	orib #0,%d0
    59be:	0027 2517      	orib #23,%sp@-
    59c2:	1008           	.short 0x1008
    59c4:	0804 7452      	btst #82,%d4
    59c8:	7200           	moveq #0,%d1
    59ca:	0000 0000      	orib #0,%d0
    59ce:	0000 0c12      	orib #18,%d0
    59d2:	120c           	.short 0x120c
    59d4:	5221           	addqb #1,%a1@-
    59d6:	2131 4e00      	movel %a1@(00000000,%d4:l:8),%a0@-
    59da:	0000 0000      	orib #0,%d0
    59de:	0808           	.short 0x0808
    59e0:	0800 0000      	btst #0,%d0
	...
    59ec:	0000 0018      	orib #24,%d0
    59f0:	0404 0404      	subib #4,%d4
    59f4:	0404 0404      	subib #4,%d4
    59f8:	0404 1800      	subib #0,%d4
    59fc:	0000 000c      	orib #12,%d0
    5a00:	1010           	moveb %a0@,%d0
    5a02:	1010           	moveb %a0@,%d0
    5a04:	1010           	moveb %a0@,%d0
    5a06:	1010           	moveb %a0@,%d0
    5a08:	1010           	moveb %a0@,%d0
    5a0a:	0c00 0000      	cmpib #0,%d0
    5a0e:	0000 0000      	orib #0,%d0
    5a12:	2112           	movel %a2@,%a0@-
    5a14:	0c0c           	.short 0x0c0c
    5a16:	1221           	moveb %a1@-,%d1
	...
    5a20:	0000 0808      	orib #8,%d0
    5a24:	3e08           	movew %a0,%d7
    5a26:	0800 0000      	btst #0,%d0
	...
    5a36:	0004 0404      	orib #4,%d4
    5a3a:	0200 0000      	andib #0,%d0
    5a3e:	0000 0000      	orib #0,%d0
    5a42:	0000 7e00      	orib #0,%d0
	...
    5a56:	0002 0200      	orib #0,%d2
    5a5a:	0000 0000      	orib #0,%d0
    5a5e:	0020 2010      	orib #16,%a0@-
    5a62:	1008           	.short 0x1008
    5a64:	0804 0402      	btst #2,%d4
    5a68:	0200 0000      	andib #0,%d0
    5a6c:	0000 0000      	orib #0,%d0
    5a70:	3844           	moveaw %d4,%a4
    5a72:	6252           	bhis 5ac6 <fontTiles+0x135a>
    5a74:	4a46           	tstw %d6
    5a76:	4222           	clrb %a2@-
    5a78:	1c00           	moveb %d0,%d6
    5a7a:	0000 0000      	orib #0,%d0
    5a7e:	0000 080c      	orib #12,%d0
    5a82:	0808           	.short 0x0808
    5a84:	0808           	.short 0x0808
    5a86:	0808           	.short 0x0808
    5a88:	1c00           	moveb %d0,%d6
    5a8a:	0000 0000      	orib #0,%d0
    5a8e:	0000 3c42      	orib #66,%d0
    5a92:	4030 0804      	negxb %a0@(00000004,%d0:l)
    5a96:	0202 7e00      	andib #0,%d2
    5a9a:	0000 0000      	orib #0,%d0
    5a9e:	0000 3c42      	orib #66,%d0
    5aa2:	4030 4040      	negxb %a0@(00000040,%d4:w)
    5aa6:	4042           	negxw %d2
    5aa8:	3c00           	movew %d0,%d6
    5aaa:	0000 0000      	orib #0,%d0
    5aae:	0000 4444      	orib #68,%d0
    5ab2:	4242           	clrw %d2
    5ab4:	427e           	.short 0x427e
    5ab6:	4040           	negxw %d0
    5ab8:	4000           	negxb %d0
    5aba:	0000 0000      	orib #0,%d0
    5abe:	0000 7e02      	orib #2,%d0
    5ac2:	021e 2040      	andib #64,%fp@+
    5ac6:	4042           	negxw %d2
    5ac8:	3c00           	movew %d0,%d6
    5aca:	0000 0000      	orib #0,%d0
    5ace:	0000 3c42      	orib #66,%d0
    5ad2:	021e 2242      	andib #66,%fp@+
    5ad6:	4242           	clrw %d2
    5ad8:	3c00           	movew %d0,%d6
    5ada:	0000 0000      	orib #0,%d0
    5ade:	0000 7e40      	orib #64,%d0
    5ae2:	2020           	movel %a0@-,%d0
    5ae4:	2010           	movel %a0@,%d0
    5ae6:	1010           	moveb %a0@,%d0
    5ae8:	1000           	moveb %d0,%d0
    5aea:	0000 0000      	orib #0,%d0
    5aee:	0000 3c42      	orib #66,%d0
    5af2:	4242           	clrw %d2
    5af4:	3c42           	moveaw %d2,%fp
    5af6:	4242           	clrw %d2
    5af8:	3c00           	movew %d0,%d6
    5afa:	0000 0000      	orib #0,%d0
    5afe:	0000 3844      	orib #68,%d0
    5b02:	4242           	clrw %d2
    5b04:	427c           	.short 0x427c
    5b06:	4040           	negxw %d0
    5b08:	3e00           	movew %d0,%d7
	...
    5b12:	0404 0000      	subib #0,%d4
    5b16:	0404 0000      	subib #0,%d4
	...
    5b22:	0404 0000      	subib #0,%d4
    5b26:	0404 0402      	subib #2,%d4
    5b2a:	0000 0000      	orib #0,%d0
    5b2e:	0000 4020      	orib #32,%d0
    5b32:	1008           	.short 0x1008
    5b34:	0408           	.short 0x0408
    5b36:	1020           	moveb %a0@-,%d0
    5b38:	4000           	negxb %d0
	...
    5b42:	003e           	.short 0x003e
    5b44:	0000 3e00      	orib #0,%d0
	...
    5b50:	0204 0810      	andib #16,%d4
    5b54:	2010           	movel %a0@,%d0
    5b56:	0804 0200      	btst #0,%d4
    5b5a:	0000 0000      	orib #0,%d0
    5b5e:	003c 4242      	orib #66,%ccr
    5b62:	4030 0808      	negxb %a0@(00000008,%d0:l)
    5b66:	0008           	.short 0x0008
    5b68:	0800 0000      	btst #0,%d0
    5b6c:	0000 0000      	orib #0,%d0
    5b70:	003c 4259      	orib #89,%ccr
    5b74:	5555           	subqw #2,%a5@
    5b76:	3902           	movew %d2,%a4@-
    5b78:	3c00           	movew %d0,%d6
    5b7a:	0000 0000      	orib #0,%d0
    5b7e:	0000 3c42      	orib #66,%d0
    5b82:	4242           	clrw %d2
    5b84:	7e42           	moveq #66,%d7
    5b86:	4242           	clrw %d2
    5b88:	4200           	clrb %d0
    5b8a:	0000 0000      	orib #0,%d0
    5b8e:	0000 1e22      	orib #34,%d0
    5b92:	2212           	movel %a2@,%d1
    5b94:	3e42           	moveaw %d2,%sp
    5b96:	4242           	clrw %d2
    5b98:	3e00           	movew %d0,%d7
    5b9a:	0000 0000      	orib #0,%d0
    5b9e:	0000 3c42      	orib #66,%d0
    5ba2:	0202 0202      	andib #2,%d2
    5ba6:	0242 3c00      	andiw #15360,%d2
    5baa:	0000 0000      	orib #0,%d0
    5bae:	0000 1e22      	orib #34,%d0
    5bb2:	4242           	clrw %d2
    5bb4:	4242           	clrw %d2
    5bb6:	4242           	clrw %d2
    5bb8:	3e00           	movew %d0,%d7
    5bba:	0000 0000      	orib #0,%d0
    5bbe:	0000 7e02      	orib #2,%d0
    5bc2:	0202 3e02      	andib #2,%d2
    5bc6:	0202 7e00      	andib #0,%d2
    5bca:	0000 0000      	orib #0,%d0
    5bce:	0000 7e02      	orib #2,%d0
    5bd2:	0202 3e02      	andib #2,%d2
    5bd6:	0202 0200      	andib #0,%d2
    5bda:	0000 0000      	orib #0,%d0
    5bde:	0000 3c42      	orib #66,%d0
    5be2:	0202 7242      	andib #66,%d2
    5be6:	4242           	clrw %d2
    5be8:	3c00           	movew %d0,%d6
    5bea:	0000 0000      	orib #0,%d0
    5bee:	0000 4242      	orib #66,%d0
    5bf2:	4242           	clrw %d2
    5bf4:	7e42           	moveq #66,%d7
    5bf6:	4242           	clrw %d2
    5bf8:	4200           	clrb %d0
    5bfa:	0000 0000      	orib #0,%d0
    5bfe:	0000 3e08      	orib #8,%d0
    5c02:	0808           	.short 0x0808
    5c04:	0808           	.short 0x0808
    5c06:	0808           	.short 0x0808
    5c08:	3e00           	movew %d0,%d7
    5c0a:	0000 0000      	orib #0,%d0
    5c0e:	0000 6040      	orib #64,%d0
    5c12:	4040           	negxw %d0
    5c14:	4040           	negxw %d0
    5c16:	4042           	negxw %d2
    5c18:	3c00           	movew %d0,%d6
    5c1a:	0000 0000      	orib #0,%d0
    5c1e:	0000 4242      	orib #66,%d0
    5c22:	2212           	movel %a2@,%d1
    5c24:	3e42           	moveaw %d2,%sp
    5c26:	4242           	clrw %d2
    5c28:	4200           	clrb %d0
    5c2a:	0000 0000      	orib #0,%d0
    5c2e:	0000 0202      	orib #2,%d0
    5c32:	0202 0202      	andib #2,%d2
    5c36:	0202 7e00      	andib #0,%d2
    5c3a:	0000 0000      	orib #0,%d0
    5c3e:	0000 4163      	orib #99,%d0
    5c42:	5549           	subqw #2,%a1
    5c44:	4141           	.short 0x4141
    5c46:	4141           	.short 0x4141
    5c48:	4100           	chkl %d0,%d0
    5c4a:	0000 0000      	orib #0,%d0
    5c4e:	0000 4246      	orib #70,%d0
    5c52:	4a52           	tstw %a2@
    5c54:	6242           	bhis 5c98 <fontTiles+0x152c>
    5c56:	4242           	clrw %d2
    5c58:	4200           	clrb %d0
    5c5a:	0000 0000      	orib #0,%d0
    5c5e:	0000 3c42      	orib #66,%d0
    5c62:	4242           	clrw %d2
    5c64:	4242           	clrw %d2
    5c66:	4242           	clrw %d2
    5c68:	3c00           	movew %d0,%d6
    5c6a:	0000 0000      	orib #0,%d0
    5c6e:	0000 3e42      	orib #66,%d0
    5c72:	4242           	clrw %d2
    5c74:	221e           	movel %fp@+,%d1
    5c76:	0202 0200      	andib #0,%d2
    5c7a:	0000 0000      	orib #0,%d0
    5c7e:	0000 3c42      	orib #66,%d0
    5c82:	4242           	clrw %d2
    5c84:	4242           	clrw %d2
    5c86:	4a32 3c40      	tstb %a2@(00000040,%d3:l:4)
    5c8a:	0000 0000      	orib #0,%d0
    5c8e:	0000 3e42      	orib #66,%d0
    5c92:	4242           	clrw %d2
    5c94:	223e           	.short 0x223e
    5c96:	4242           	clrw %d2
    5c98:	4200           	clrb %d0
    5c9a:	0000 0000      	orib #0,%d0
    5c9e:	0000 3c42      	orib #66,%d0
    5ca2:	0202 1c20      	andib #32,%d2
    5ca6:	4042           	negxw %d2
    5ca8:	3c00           	movew %d0,%d6
    5caa:	0000 0000      	orib #0,%d0
    5cae:	0000 7f08      	orib #8,%d0
    5cb2:	0808           	.short 0x0808
    5cb4:	0808           	.short 0x0808
    5cb6:	0808           	.short 0x0808
    5cb8:	0800 0000      	btst #0,%d0
    5cbc:	0000 0000      	orib #0,%d0
    5cc0:	4242           	clrw %d2
    5cc2:	4242           	clrw %d2
    5cc4:	4242           	clrw %d2
    5cc6:	4242           	clrw %d2
    5cc8:	3c00           	movew %d0,%d6
    5cca:	0000 0000      	orib #0,%d0
    5cce:	0000 4141      	orib #65,%d0
    5cd2:	4141           	.short 0x4141
    5cd4:	4122           	chkl %a2@-,%d0
    5cd6:	2214           	movel %a4@,%d1
    5cd8:	0800 0000      	btst #0,%d0
    5cdc:	0000 0000      	orib #0,%d0
    5ce0:	4141           	.short 0x4141
    5ce2:	4141           	.short 0x4141
    5ce4:	4149           	.short 0x4149
    5ce6:	5563           	subqw #2,%a3@-
    5ce8:	4100           	chkl %d0,%d0
    5cea:	0000 0000      	orib #0,%d0
    5cee:	0000 4141      	orib #65,%d0
    5cf2:	2214           	movel %a4@,%d1
    5cf4:	0814 2241      	btst #65,%a4@
    5cf8:	4100           	chkl %d0,%d0
    5cfa:	0000 0000      	orib #0,%d0
    5cfe:	0000 4242      	orib #66,%d0
    5d02:	4242           	clrw %d2
    5d04:	4478 4040      	negw 4040 <f_mkdir+0x36>
    5d08:	3e00           	movew %d0,%d7
    5d0a:	0000 0000      	orib #0,%d0
    5d0e:	0000 7e40      	orib #64,%d0
    5d12:	2010           	movel %a0@,%d0
    5d14:	0804 0202      	btst #2,%d4
    5d18:	7e00           	moveq #0,%d7
    5d1a:	0000 0000      	orib #0,%d0
    5d1e:	0000 3808      	orib #8,%d0
    5d22:	0808           	.short 0x0808
    5d24:	0808           	.short 0x0808
    5d26:	0808           	.short 0x0808
    5d28:	3800           	movew %d0,%d4
    5d2a:	0000 0000      	orib #0,%d0
    5d2e:	0004 0408      	orib #8,%d4
    5d32:	0810 1020      	btst #32,%a0@
    5d36:	2040           	moveal %d0,%a0
    5d38:	4000           	negxb %d0
    5d3a:	0000 0000      	orib #0,%d0
    5d3e:	0000 1c10      	orib #16,%d0
    5d42:	1010           	moveb %a0@,%d0
    5d44:	1010           	moveb %a0@,%d0
    5d46:	1010           	moveb %a0@,%d0
    5d48:	1c00           	moveb %d0,%d6
    5d4a:	0000 0000      	orib #0,%d0
    5d4e:	0814 2200      	btst #0,%a4@
	...
    5d6a:	7f00           	.short 0x7f00
    5d6c:	0000 1008      	orib #8,%d0
    5d70:	0808           	.short 0x0808
	...
    5d82:	0078 4442 4262 	oriw #17474,4262 <f_rename+0xca>
    5d88:	5c00           	addqb #6,%d0
    5d8a:	0000 0000      	orib #0,%d0
    5d8e:	0000 0202      	orib #2,%d0
    5d92:	021e 2242      	andib #66,%fp@+
    5d96:	4242           	clrw %d2
    5d98:	3e00           	movew %d0,%d7
	...
    5da2:	003c 0202      	orib #2,%ccr
    5da6:	0242 3c00      	andiw #15360,%d2
    5daa:	0000 0000      	orib #0,%d0
    5dae:	0000 4040      	orib #64,%d0
    5db2:	4078 4442      	negxw 4442 <f_setlabel+0x40>
    5db6:	4242           	clrw %d2
    5db8:	7c00           	moveq #0,%d6
	...
    5dc2:	003c 427e      	orib #126,%ccr
    5dc6:	0202 7c00      	andib #0,%d2
    5dca:	0000 0000      	orib #0,%d0
    5dce:	0000 0018      	orib #24,%d0
    5dd2:	2404           	movel %d4,%d2
    5dd4:	041e 0404      	subib #4,%fp@+
    5dd8:	0400 0000      	subib #0,%d0
    5ddc:	0000 0000      	orib #0,%d0
    5de0:	0000 003c      	orib #60,%d0
    5de4:	4242           	clrw %d2
    5de6:	427c           	.short 0x427c
    5de8:	4042           	negxw %d2
    5dea:	3c00           	movew %d0,%d6
    5dec:	0000 0000      	orib #0,%d0
    5df0:	0202 021e      	andib #30,%d2
    5df4:	2242           	moveal %d2,%a1
    5df6:	4242           	clrw %d2
    5df8:	4200           	clrb %d0
    5dfa:	0000 0000      	orib #0,%d0
    5dfe:	0000 0008      	orib #8,%d0
    5e02:	0008           	.short 0x0008
    5e04:	0808           	.short 0x0808
    5e06:	0808           	.short 0x0808
    5e08:	0800 0000      	btst #0,%d0
    5e0c:	0000 0000      	orib #0,%d0
    5e10:	0040 0060      	oriw #96,%d0
    5e14:	4040           	negxw %d0
    5e16:	4040           	negxw %d0
    5e18:	221c           	movel %a4@+,%d1
	...
    5e22:	4222           	clrb %a2@-
    5e24:	1e22           	moveb %a2@-,%d7
    5e26:	4242           	clrw %d2
    5e28:	4200           	clrb %d0
    5e2a:	0000 0000      	orib #0,%d0
    5e2e:	0000 0004      	orib #4,%d0
    5e32:	0404 0404      	subib #4,%d4
    5e36:	0404 0c00      	subib #0,%d4
	...
    5e42:	0037 4949 4949 	orib #73,%sp@(00000000)@(00000000)
    5e48:	4900           	chkl %d0,%d4
	...
    5e52:	001e 2222      	orib #34,%fp@+
    5e56:	2222           	movel %a2@-,%d1
    5e58:	2200           	movel %d0,%d1
	...
    5e62:	003c 4242      	orib #66,%ccr
    5e66:	4242           	clrw %d2
    5e68:	3c00           	movew %d0,%d6
	...
    5e72:	003e           	.short 0x003e
    5e74:	4242           	clrw %d2
    5e76:	4222           	clrb %a2@-
    5e78:	1e02           	moveb %d2,%d7
    5e7a:	0200 0000      	andib #0,%d0
    5e7e:	0000 0000      	orib #0,%d0
    5e82:	0078 4442 4242 	oriw #17474,4242 <f_rename+0xaa>
    5e88:	7c40           	moveq #64,%d6
    5e8a:	4000           	negxb %d0
    5e8c:	0000 0000      	orib #0,%d0
    5e90:	0000 003a      	orib #58,%d0
    5e94:	0602 0202      	addib #2,%d2
    5e98:	0200 0000      	andib #0,%d0
    5e9c:	0000 0000      	orib #0,%d0
    5ea0:	0000 003c      	orib #60,%d0
    5ea4:	020c           	.short 0x020c
    5ea6:	1020           	moveb %a0@-,%d0
    5ea8:	1e00           	moveb %d0,%d7
    5eaa:	0000 0000      	orib #0,%d0
    5eae:	0000 0004      	orib #4,%d0
    5eb2:	041e 0404      	subib #4,%fp@+
    5eb6:	0404 1800      	subib #0,%d4
	...
    5ec2:	0042 4242      	oriw #16962,%d2
    5ec6:	4242           	clrw %d2
    5ec8:	7c00           	moveq #0,%d6
	...
    5ed2:	0041 4141      	oriw #16705,%d1
    5ed6:	2214           	movel %a4@,%d1
    5ed8:	0800 0000      	btst #0,%d0
    5edc:	0000 0000      	orib #0,%d0
    5ee0:	0000 0049      	orib #73,%d0
    5ee4:	4949           	.short 0x4949
    5ee6:	4949           	.short 0x4949
    5ee8:	3700           	movew %d0,%a3@-
	...
    5ef2:	0022 1408      	orib #8,%a2@-
    5ef6:	0814 2200      	btst #0,%a4@
	...
    5f02:	0042 4242      	oriw #16962,%d2
    5f06:	4244           	clrw %d4
    5f08:	7840           	moveq #64,%d4
    5f0a:	3e00           	movew %d0,%d7
    5f0c:	0000 0000      	orib #0,%d0
    5f10:	0000 007e      	orib #126,%d0
    5f14:	4030 0c02      	negxb %a0@(00000002,%d0:l:4)
    5f18:	7e00           	moveq #0,%d7
    5f1a:	0000 0000      	orib #0,%d0
    5f1e:	0000 3008      	orib #8,%d0
    5f22:	0808           	.short 0x0808
    5f24:	0608           	.short 0x0608
    5f26:	0808           	.short 0x0808
    5f28:	3000           	movew %d0,%d0
    5f2a:	0000 0000      	orib #0,%d0
    5f2e:	0008           	.short 0x0008
    5f30:	0808           	.short 0x0808
    5f32:	0808           	.short 0x0808
    5f34:	0008           	.short 0x0008
    5f36:	0808           	.short 0x0808
    5f38:	0808           	.short 0x0808
    5f3a:	0000 0000      	orib #0,%d0
    5f3e:	0000 0c10      	orib #16,%d0
    5f42:	1010           	moveb %a0@,%d0
    5f44:	6010           	bras 5f56 <fontTiles+0x17ea>
    5f46:	1010           	moveb %a0@,%d0
    5f48:	0c00 0000      	cmpib #0,%d0
    5f4c:	0000 4c32      	orib #50,%d0
	...
    5f60:	0000 0814      	orib #20,%d0
    5f64:	2222           	movel %a2@-,%d1
    5f66:	3e00           	movew %d0,%d7
    5f68:	0000 0000      	orib #0,%d0
    5f6c:	4411           	negb %a1@
    5f6e:	4411           	negb %a1@
    5f70:	4411           	negb %a1@
    5f72:	4411           	negb %a1@
    5f74:	4411           	negb %a1@
    5f76:	4411           	negb %a1@
    5f78:	4411           	negb %a1@
    5f7a:	4411           	negb %a1@
    5f7c:	aa55           	.short 0xaa55
    5f7e:	aa55           	.short 0xaa55
    5f80:	aa55           	.short 0xaa55
    5f82:	aa55           	.short 0xaa55
    5f84:	aa55           	.short 0xaa55
    5f86:	aa55           	.short 0xaa55
    5f88:	aa55           	.short 0xaa55
    5f8a:	aa55           	.short 0xaa55
    5f8c:	dd77 dd77 dd77 	addw %d6,%sp@(dd77dd77)@(dd77dd77)
    5f92:	dd77 dd77 dd77 
    5f98:	dd77 dd77 ffff 	addw %d6,%sp@(ffffffff)@(ffffffff)
    5f9e:	ffff ffff ffff 
    5fa4:	ffff           	.short 0xffff
    5fa6:	ffff           	.short 0xffff
    5fa8:	ffff           	.short 0xffff
    5faa:	ffff           	.short 0xffff
	...
    5fb4:	ffff           	.short 0xffff
    5fb6:	ffff           	.short 0xffff
    5fb8:	ffff           	.short 0xffff
    5fba:	ffff           	.short 0xffff
    5fbc:	0f0f 0f0f      	movepw %sp@(3855),%d7
    5fc0:	0f0f 0f0f      	movepw %sp@(3855),%d7
    5fc4:	0f0f 0f0f      	movepw %sp@(3855),%d7
    5fc8:	0f0f 0f0f      	movepw %sp@(3855),%d7
    5fcc:	f0f0           	.short 0xf0f0
    5fce:	f0f0           	.short 0xf0f0
    5fd0:	f0f0           	.short 0xf0f0
    5fd2:	f0f0           	.short 0xf0f0
    5fd4:	f0f0           	.short 0xf0f0
    5fd6:	f0f0           	.short 0xf0f0
    5fd8:	f0f0           	.short 0xf0f0
    5fda:	f0f0           	.short 0xf0f0
    5fdc:	ffff           	.short 0xffff
    5fde:	ffff           	.short 0xffff
    5fe0:	ffff           	.short 0xffff
    5fe2:	ffff           	.short 0xffff
	...
    5ff0:	003e           	.short 0x003e
    5ff2:	3e3e           	.short 0x3e3e
    5ff4:	3e3e           	.short 0x3e3e
    5ff6:	3e00           	movew %d0,%d7
    5ff8:	0000 0000      	orib #0,%d0
    5ffc:	1818           	moveb %a0@+,%d4
    5ffe:	1818           	moveb %a0@+,%d4
    6000:	1818           	moveb %a0@+,%d4
    6002:	1818           	moveb %a0@+,%d4
    6004:	1818           	moveb %a0@+,%d4
    6006:	1818           	moveb %a0@+,%d4
    6008:	1818           	moveb %a0@+,%d4
    600a:	1818           	moveb %a0@+,%d4
    600c:	1818           	moveb %a0@+,%d4
    600e:	1818           	moveb %a0@+,%d4
    6010:	1818           	moveb %a0@+,%d4
    6012:	181f           	moveb %sp@+,%d4
    6014:	1818           	moveb %a0@+,%d4
    6016:	1818           	moveb %a0@+,%d4
    6018:	1818           	moveb %a0@+,%d4
    601a:	1818           	moveb %a0@+,%d4
    601c:	0000 0000      	orib #0,%d0
    6020:	0000 001f      	orib #31,%d0
    6024:	1818           	moveb %a0@+,%d4
    6026:	1818           	moveb %a0@+,%d4
    6028:	1818           	moveb %a0@+,%d4
    602a:	1818           	moveb %a0@+,%d4
    602c:	1818           	moveb %a0@+,%d4
    602e:	1818           	moveb %a0@+,%d4
    6030:	1818           	moveb %a0@+,%d4
    6032:	18f8 0000      	moveb 0 <__DYNAMIC>,%a4@+
    6036:	0000 0000      	orib #0,%d0
    603a:	0000 1818      	orib #24,%d0
    603e:	1818           	moveb %a0@+,%d4
    6040:	1818           	moveb %a0@+,%d4
    6042:	18ff           	.short 0x18ff
	...
    6050:	0000 00ff      	orib #-1,%d0
    6054:	1818           	moveb %a0@+,%d4
    6056:	1818           	moveb %a0@+,%d4
    6058:	1818           	moveb %a0@+,%d4
    605a:	1818           	moveb %a0@+,%d4
    605c:	1818           	moveb %a0@+,%d4
    605e:	1818           	moveb %a0@+,%d4
    6060:	1818           	moveb %a0@+,%d4
    6062:	18f8 1818      	moveb 1818 <number+0x144>,%a4@+
    6066:	1818           	moveb %a0@+,%d4
    6068:	1818           	moveb %a0@+,%d4
    606a:	1818           	moveb %a0@+,%d4
    606c:	0000 0000      	orib #0,%d0
    6070:	0000 00ff      	orib #-1,%d0
	...
    607c:	1818           	moveb %a0@+,%d4
    607e:	1818           	moveb %a0@+,%d4
    6080:	1818           	moveb %a0@+,%d4
    6082:	18ff           	.short 0x18ff
    6084:	1818           	moveb %a0@+,%d4
    6086:	1818           	moveb %a0@+,%d4
    6088:	1818           	moveb %a0@+,%d4
    608a:	1818           	moveb %a0@+,%d4
    608c:	1818           	moveb %a0@+,%d4
    608e:	1818           	moveb %a0@+,%d4
    6090:	1818           	moveb %a0@+,%d4
    6092:	181f           	moveb %sp@+,%d4
	...
    60a0:	0000 00f8      	orib #-8,%d0
    60a4:	1818           	moveb %a0@+,%d4
    60a6:	1818           	moveb %a0@+,%d4
    60a8:	1818           	moveb %a0@+,%d4
    60aa:	1818           	moveb %a0@+,%d4
    60ac:	1818           	moveb %a0@+,%d4
    60ae:	1818           	moveb %a0@+,%d4
    60b0:	1818           	moveb %a0@+,%d4
    60b2:	1818           	moveb %a0@+,%d4
    60b4:	1b1b           	moveb %a3@+,%a5@-
    60b6:	1b0e           	.short 0x1b0e
    60b8:	0000 0000      	orib #0,%d0
    60bc:	0000 70d8      	orib #-40,%d0
    60c0:	d818           	addb %a0@+,%d4
    60c2:	1818           	moveb %a0@+,%d4
    60c4:	1818           	moveb %a0@+,%d4
    60c6:	1818           	moveb %a0@+,%d4
    60c8:	1818           	moveb %a0@+,%d4
    60ca:	1818           	moveb %a0@+,%d4
    60cc:	0000 0000      	orib #0,%d0
    60d0:	00fe           	.short 0x00fe
    60d2:	5454           	addqw #2,%a4@
    60d4:	542a 2a2a      	addqb #2,%a2@(10794)
    60d8:	7f00           	.short 0x7f00
    60da:	0000 4422      	orib #34,%d0
    60de:	1188           	.short 0x1188
    60e0:	4422           	negb %a2@-
    60e2:	1188           	.short 0x1188
    60e4:	4422           	negb %a2@-
    60e6:	1188           	.short 0x1188
    60e8:	4422           	negb %a2@-
    60ea:	1188           	.short 0x1188
	...
    60f4:	0000 0092      	orib #-110,%d0
    60f8:	9200           	subb %d0,%d1
    60fa:	0000 0000      	orib #0,%d0
    60fe:	0008           	.short 0x0008
    6100:	0800 0808      	btst #8,%d0
    6104:	0808           	.short 0x0808
    6106:	0808           	.short 0x0808
    6108:	0800 0000      	btst #0,%d0
    610c:	0000 0010      	orib #16,%d0
    6110:	1000           	moveb %d0,%d0
    6112:	1010           	moveb %a0@,%d0
    6114:	0c02 4242      	cmpib #66,%d2
    6118:	3c00           	movew %d0,%d6
    611a:	0000 0000      	orib #0,%d0
    611e:	003e           	.short 0x003e
    6120:	415d           	.short 0x415d
    6122:	4545           	.short 0x4545
    6124:	5d41           	subqw #6,%d1
    6126:	3e00           	movew %d0,%d7
    6128:	0000 0000      	orib #0,%d0
    612c:	0000 003e      	orib #62,%d0
    6130:	415d           	.short 0x415d
    6132:	554d           	subqw #2,%a5
    6134:	5541           	subqw #2,%d1
    6136:	3e00           	movew %d0,%d7
    6138:	0000 0000      	orib #0,%d0
    613c:	0000 5772      	orib #114,%d0
    6140:	5200           	addqb #1,%d0
	...
    614e:	0000 7e09      	orib #9,%d0
    6152:	0909 7909      	movepw %a1@(30985),%d4
    6156:	0909 7e00      	movepw %a1@(32256),%d4
	...
    6162:	003e           	.short 0x003e
    6164:	4949           	.short 0x4949
    6166:	7909           	.short 0x7909
    6168:	7e00           	moveq #0,%d7
	...
    6172:	004c           	.short 0x004c
    6174:	3222           	movew %a2@-,%d1
    6176:	2232 4c00      	movel %a2@(00000000,%d4:l:4),%d1
    617a:	0000 0000      	orib #0,%d0
    617e:	007e           	.short 0x007e
    6180:	4242           	clrw %d2
    6182:	0202 0202      	andib #2,%d2
    6186:	0202 0200      	andib #0,%d2
	...
    6192:	007f           	.short 0x007f
    6194:	2222           	movel %a2@-,%d1
    6196:	2222           	movel %a2@-,%d1
    6198:	2200           	movel %d0,%d1
    619a:	0000 0000      	orib #0,%d0
    619e:	0000 7e02      	orib #2,%d0
    61a2:	0408           	.short 0x0408
    61a4:	1008           	.short 0x1008
    61a6:	0402 7e00      	subib #0,%d2
	...
    61b2:	007c 1212      	oriw #4626,%sr
    61b6:	1212           	moveb %a2@,%d1
    61b8:	0c00 0000      	cmpib #0,%d0
    61bc:	0000 0000      	orib #0,%d0
    61c0:	0044 4444      	oriw #17476,%d4
    61c4:	4444           	negw %d4
    61c6:	3c04           	movew %d4,%d6
    61c8:	0402 0000      	subib #0,%d2
    61cc:	0000 0000      	orib #0,%d0
    61d0:	004c           	.short 0x004c
    61d2:	3210           	movew %a0@,%d1
    61d4:	1010           	moveb %a0@,%d0
    61d6:	1010           	moveb %a0@,%d0
    61d8:	1000           	moveb %d0,%d0
    61da:	0000 0000      	orib #0,%d0
    61de:	0000 3e08      	orib #8,%d0
    61e2:	1c22           	moveb %a2@-,%d6
    61e4:	2222           	movel %a2@-,%d1
    61e6:	1c08           	.short 0x1c08
    61e8:	3e00           	movew %d0,%d7
    61ea:	0000 0000      	orib #0,%d0
    61ee:	0000 1c22      	orib #34,%d0
    61f2:	2222           	movel %a2@-,%d1
    61f4:	3e22           	movew %a2@-,%d7
    61f6:	2222           	movel %a2@-,%d1
    61f8:	1c00           	moveb %d0,%d6
    61fa:	0000 0000      	orib #0,%d0
    61fe:	001c 2241      	orib #65,%a4@+
    6202:	4141           	.short 0x4141
    6204:	3614           	movew %a4@,%d3
    6206:	1414           	moveb %a4@,%d2
    6208:	7700           	.short 0x7700
    620a:	0000 0000      	orib #0,%d0
    620e:	0070 0810 2078 	oriw #2064,%a0@(00000078,%d2:w)
    6214:	4444           	negw %d4
    6216:	4444           	negw %d4
    6218:	3800           	movew %d0,%d4
	...
    6222:	3e49           	moveaw %a1,%sp
    6224:	4949           	.short 0x4949
    6226:	3e00           	movew %d0,%d7
    6228:	0000 0000      	orib #0,%d0
    622c:	0000 0038      	orib #56,%d0
    6230:	0402 023e      	subib #62,%d2
    6234:	0202 0204      	andib #4,%d2
    6238:	3800           	movew %d0,%d4
    623a:	0000 0000      	orib #0,%d0
    623e:	0000 3c42      	orib #66,%d0
    6242:	4242           	clrw %d2
    6244:	4242           	clrw %d2
    6246:	4242           	clrw %d2
    6248:	4200           	clrb %d0
    624a:	0000 0000      	orib #0,%d0
    624e:	0000 007f      	orib #127,%d0
    6252:	0000 7f00      	orib #0,%d0
    6256:	007f           	.short 0x007f
	...
    6260:	0808           	.short 0x0808
    6262:	3e08           	movew %a0,%d7
    6264:	0800 003e      	btst #62,%d0
    6268:	0000 0000      	orib #0,%d0
    626c:	0000 0004      	orib #4,%d0
    6270:	0810 2010      	btst #16,%a0@
    6274:	0804 003e      	btst #62,%d4
    6278:	0000 0000      	orib #0,%d0
    627c:	0000 0020      	orib #32,%d0
    6280:	1008           	.short 0x1008
    6282:	0408           	.short 0x0408
    6284:	1020           	moveb %a0@-,%d0
    6286:	007c 0000      	oriw #0,%sr
	...
    6292:	4c32           	.short 0x4c32
    6294:	004c           	.short 0x004c
    6296:	3200           	movew %d0,%d1
	...
    62a0:	3844           	moveaw %d4,%a4
    62a2:	0404 1e04      	subib #4,%d4
    62a6:	0444 3f00      	subiw #16128,%d4
    62aa:	0000 0000      	orib #0,%d0
    62ae:	0000 0024      	orib #36,%d0
    62b2:	1824           	moveb %a4@-,%d4
    62b4:	2418           	movel %a0@+,%d2
    62b6:	2400           	movel %d0,%d2
	...
    62c0:	1010           	moveb %a0@,%d0
    62c2:	3c42           	moveaw %d2,%fp
    62c4:	0242 3c08      	andiw #15368,%d2
    62c8:	0800 0000      	btst #0,%d0
    62cc:	0000 0000      	orib #0,%d0
    62d0:	3844           	moveaw %d4,%a4
    62d2:	021f 020f      	andib #15,%sp@+
    62d6:	0244 3800      	andiw #14336,%d4
    62da:	0000 0000      	orib #0,%d0
    62de:	0000 4122      	orib #34,%d0
    62e2:	1408           	.short 0x1408
    62e4:	7f08           	.short 0x7f08
    62e6:	7f08           	.short 0x7f08
    62e8:	0808           	.short 0x0808
	...
    62f2:	0018 1800      	orib #0,%a0@+
	...
    62fe:	1c12           	moveb %a2@,%d6
    6300:	1212           	moveb %a2@,%d1
    6302:	2c00           	movel %d0,%d6
    6304:	7e00           	moveq #0,%d7
	...
    630e:	1c22           	moveb %a2@-,%d6
    6310:	2222           	movel %a2@-,%d1
    6312:	1c00           	moveb %d0,%d6
    6314:	3e00           	movew %d0,%d7
	...
    631e:	0406 0404      	subib #4,%d6
    6322:	0e00           	.short 0x0e00
	...
    632c:	0000 040a      	orib #10,%d0
    6330:	0a0a           	.short 0x0a0a
    6332:	0400 0000      	subib #0,%d0
    6336:	0000 0000      	orib #0,%d0
    633a:	0000 0001      	orib #1,%d0
    633e:	0101           	btst %d0,%d1
    6340:	4121           	chkl %a1@-,%d0
    6342:	1008           	.short 0x1008
    6344:	0432 4160 1070 	subib #96,%a2@(00000070,%d1:w)
    634a:	0000 0001      	orib #1,%d0
    634e:	0101           	btst %d0,%d1
    6350:	4121           	chkl %a1@-,%d0
    6352:	1008           	.short 0x1008
    6354:	044a           	.short 0x044a
    6356:	4978           	.short 0x4978
    6358:	4040           	negxw %d0
    635a:	0000 0003      	orib #3,%d0
    635e:	0403 4423      	subib #35,%d3
    6362:	1008           	.short 0x1008
    6364:	044a           	.short 0x044a
    6366:	4978           	.short 0x4978
    6368:	4040           	negxw %d0
    636a:	0000 0408      	orib #8,%d0
    636e:	1000           	moveb %d0,%d0
    6370:	3c42           	moveaw %d2,%fp
    6372:	4242           	clrw %d2
    6374:	7e42           	moveq #66,%d7
    6376:	4242           	clrw %d2
    6378:	4200           	clrb %d0
    637a:	0000 2010      	orib #16,%d0
    637e:	0800 3c42      	btst #66,%d0
    6382:	4242           	clrw %d2
    6384:	7e42           	moveq #66,%d7
    6386:	4242           	clrw %d2
    6388:	4200           	clrb %d0
    638a:	0000 0814      	orib #20,%d0
    638e:	2200           	movel %d0,%d1
    6390:	3c42           	moveaw %d2,%fp
    6392:	4242           	clrw %d2
    6394:	7e42           	moveq #66,%d7
    6396:	4242           	clrw %d2
    6398:	4200           	clrb %d0
    639a:	0000 004c      	orib #76,%d0
    639e:	3200           	movew %d0,%d1
    63a0:	3c42           	moveaw %d2,%fp
    63a2:	4242           	clrw %d2
    63a4:	7e42           	moveq #66,%d7
    63a6:	4242           	clrw %d2
    63a8:	4200           	clrb %d0
    63aa:	0000 0024      	orib #36,%d0
    63ae:	2400           	movel %d0,%d2
    63b0:	3c42           	moveaw %d2,%fp
    63b2:	4242           	clrw %d2
    63b4:	7e42           	moveq #66,%d7
    63b6:	4242           	clrw %d2
    63b8:	4200           	clrb %d0
    63ba:	0000 1c14      	orib #20,%d0
    63be:	1c00           	moveb %d0,%d6
    63c0:	3c42           	moveaw %d2,%fp
    63c2:	4242           	clrw %d2
    63c4:	7e42           	moveq #66,%d7
    63c6:	4242           	clrw %d2
    63c8:	4200           	clrb %d0
    63ca:	0000 0000      	orib #0,%d0
    63ce:	0000 7e09      	orib #9,%d0
    63d2:	0909 7f09      	movepw %a1@(32521),%d4
    63d6:	0909 7900      	movepw %a1@(30976),%d4
    63da:	0000 0000      	orib #0,%d0
    63de:	0000 3c42      	orib #66,%d0
    63e2:	0202 0202      	andib #2,%d2
    63e6:	0242 3c18      	andiw #15384,%d2
    63ea:	301c           	movew %a4@+,%d0
    63ec:	0408           	.short 0x0408
    63ee:	1000           	moveb %d0,%d0
    63f0:	7e02           	moveq #2,%d7
    63f2:	0202 3e02      	andib #2,%d2
    63f6:	0202 7e00      	andib #0,%d2
    63fa:	0000 2010      	orib #16,%d0
    63fe:	0800 7e02      	btst #2,%d0
    6402:	0202 3e02      	andib #2,%d2
    6406:	0202 7e00      	andib #0,%d2
    640a:	0000 0814      	orib #20,%d0
    640e:	2200           	movel %d0,%d1
    6410:	7e02           	moveq #2,%d7
    6412:	0202 3e02      	andib #2,%d2
    6416:	0202 7e00      	andib #0,%d2
    641a:	0000 0024      	orib #36,%d0
    641e:	2400           	movel %d0,%d2
    6420:	7e02           	moveq #2,%d7
    6422:	0202 3e02      	andib #2,%d2
    6426:	0202 7e00      	andib #0,%d2
    642a:	0000 0408      	orib #8,%d0
    642e:	1000           	moveb %d0,%d0
    6430:	3e08           	movew %a0,%d7
    6432:	0808           	.short 0x0808
    6434:	0808           	.short 0x0808
    6436:	0808           	.short 0x0808
    6438:	3e00           	movew %d0,%d7
    643a:	0000 2010      	orib #16,%d0
    643e:	0800 3e08      	btst #8,%d0
    6442:	0808           	.short 0x0808
    6444:	0808           	.short 0x0808
    6446:	0808           	.short 0x0808
    6448:	3e00           	movew %d0,%d7
    644a:	0000 0814      	orib #20,%d0
    644e:	2200           	movel %d0,%d1
    6450:	3e08           	movew %a0,%d7
    6452:	0808           	.short 0x0808
    6454:	0808           	.short 0x0808
    6456:	0808           	.short 0x0808
    6458:	3e00           	movew %d0,%d7
    645a:	0000 0024      	orib #36,%d0
    645e:	2400           	movel %d0,%d2
    6460:	3e08           	movew %a0,%d7
    6462:	0808           	.short 0x0808
    6464:	0808           	.short 0x0808
    6466:	0808           	.short 0x0808
    6468:	3e00           	movew %d0,%d7
    646a:	0000 0000      	orib #0,%d0
    646e:	0000 1e22      	orib #34,%d0
    6472:	4242           	clrw %d2
    6474:	4f42           	.short 0x4f42
    6476:	4242           	clrw %d2
    6478:	3e00           	movew %d0,%d7
    647a:	0000 004c      	orib #76,%d0
    647e:	3200           	movew %d0,%d1
    6480:	4246           	clrw %d6
    6482:	4a52           	tstw %a2@
    6484:	6242           	bhis 64c8 <fontTiles+0x1d5c>
    6486:	4242           	clrw %d2
    6488:	4200           	clrb %d0
    648a:	0000 0408      	orib #8,%d0
    648e:	1000           	moveb %d0,%d0
    6490:	3c42           	moveaw %d2,%fp
    6492:	4242           	clrw %d2
    6494:	4242           	clrw %d2
    6496:	4242           	clrw %d2
    6498:	3c00           	movew %d0,%d6
    649a:	0000 2010      	orib #16,%d0
    649e:	0800 3c42      	btst #66,%d0
    64a2:	4242           	clrw %d2
    64a4:	4242           	clrw %d2
    64a6:	4242           	clrw %d2
    64a8:	3c00           	movew %d0,%d6
    64aa:	0000 0814      	orib #20,%d0
    64ae:	2200           	movel %d0,%d1
    64b0:	3c42           	moveaw %d2,%fp
    64b2:	4242           	clrw %d2
    64b4:	4242           	clrw %d2
    64b6:	4242           	clrw %d2
    64b8:	3c00           	movew %d0,%d6
    64ba:	0000 004c      	orib #76,%d0
    64be:	3200           	movew %d0,%d1
    64c0:	3c42           	moveaw %d2,%fp
    64c2:	4242           	clrw %d2
    64c4:	4242           	clrw %d2
    64c6:	4242           	clrw %d2
    64c8:	3c00           	movew %d0,%d6
    64ca:	0000 0024      	orib #36,%d0
    64ce:	2400           	movel %d0,%d2
    64d0:	3c42           	moveaw %d2,%fp
    64d2:	4242           	clrw %d2
    64d4:	4242           	clrw %d2
    64d6:	4242           	clrw %d2
    64d8:	3c00           	movew %d0,%d6
    64da:	0000 0000      	orib #0,%d0
    64de:	0000 0041      	orib #65,%d0
    64e2:	2214           	movel %a4@,%d1
    64e4:	0814 2241      	btst #65,%a4@
    64e8:	0000 0000      	orib #0,%d0
    64ec:	0000 0040      	orib #64,%d0
    64f0:	3c62           	moveaw %a2@-,%fp
    64f2:	5252           	addqw #1,%a2@
    64f4:	4a4a           	.short 0x4a4a
    64f6:	4646           	notw %d6
    64f8:	3c02           	movew %d2,%d6
    64fa:	0000 0408      	orib #8,%d0
    64fe:	1000           	moveb %d0,%d0
    6500:	4242           	clrw %d2
    6502:	4242           	clrw %d2
    6504:	4242           	clrw %d2
    6506:	4242           	clrw %d2
    6508:	3c00           	movew %d0,%d6
    650a:	0000 2010      	orib #16,%d0
    650e:	0800 4242      	btst #66,%d0
    6512:	4242           	clrw %d2
    6514:	4242           	clrw %d2
    6516:	4242           	clrw %d2
    6518:	3c00           	movew %d0,%d6
    651a:	0000 0814      	orib #20,%d0
    651e:	2200           	movel %d0,%d1
    6520:	4242           	clrw %d2
    6522:	4242           	clrw %d2
    6524:	4242           	clrw %d2
    6526:	4242           	clrw %d2
    6528:	3c00           	movew %d0,%d6
    652a:	0000 0024      	orib #36,%d0
    652e:	2400           	movel %d0,%d2
    6530:	4242           	clrw %d2
    6532:	4242           	clrw %d2
    6534:	4242           	clrw %d2
    6536:	4242           	clrw %d2
    6538:	3c00           	movew %d0,%d6
    653a:	0000 2010      	orib #16,%d0
    653e:	0800 4242      	btst #66,%d0
    6542:	4242           	clrw %d2
    6544:	4478 4040      	negw 4040 <f_mkdir+0x36>
    6548:	3e00           	movew %d0,%d7
    654a:	0000 0000      	orib #0,%d0
    654e:	0000 0202      	orib #2,%d0
    6552:	1e22           	moveb %a2@-,%d7
    6554:	2222           	movel %a2@-,%d1
    6556:	1e02           	moveb %d2,%d7
    6558:	0200 0000      	andib #0,%d0
    655c:	0000 0000      	orib #0,%d0
    6560:	1c22           	moveb %a2@-,%d6
    6562:	2212           	movel %a2@,%d1
    6564:	3a42           	moveaw %d2,%a5
    6566:	4242           	clrw %d2
    6568:	3a00           	movew %d0,%d5
    656a:	0000 0000      	orib #0,%d0
    656e:	0008           	.short 0x0008
    6570:	1020           	moveb %a0@-,%d0
    6572:	0078 4442 4262 	oriw #17474,4262 <f_rename+0xca>
    6578:	5c00           	addqb #6,%d0
    657a:	0000 0000      	orib #0,%d0
    657e:	0040 2010      	oriw #8208,%d0
    6582:	0078 4442 4262 	oriw #17474,4262 <f_rename+0xca>
    6588:	5c00           	addqb #6,%d0
    658a:	0000 0000      	orib #0,%d0
    658e:	0010 2844      	orib #68,%a0@
    6592:	0078 4442 4262 	oriw #17474,4262 <f_rename+0xca>
    6598:	5c00           	addqb #6,%d0
    659a:	0000 0000      	orib #0,%d0
    659e:	0000 4c32      	orib #50,%d0
    65a2:	0078 4442 4262 	oriw #17474,4262 <f_rename+0xca>
    65a8:	5c00           	addqb #6,%d0
    65aa:	0000 0000      	orib #0,%d0
    65ae:	0000 4848      	orib #72,%d0
    65b2:	0078 4442 4262 	oriw #17474,4262 <f_rename+0xca>
    65b8:	5c00           	addqb #6,%d0
    65ba:	0000 0000      	orib #0,%d0
    65be:	0038 2838 0078 	orib #56,78 <_sdata+0x4c>
    65c4:	4442           	negw %d2
    65c6:	4262           	clrw %a2@-
    65c8:	5c00           	addqb #6,%d0
	...
    65d2:	003c 4a79      	orib #121,%ccr
    65d6:	0909 7600      	movepw %a1@(30208),%d4
	...
    65e2:	003c 0202      	orib #2,%ccr
    65e6:	0242 3c18      	andiw #15384,%d2
    65ea:	301c           	movew %a4@+,%d0
    65ec:	0000 0004      	orib #4,%d0
    65f0:	0810 003c      	btst #60,%a0@
    65f4:	427e           	.short 0x427e
    65f6:	0202 7c00      	andib #0,%d2
    65fa:	0000 0000      	orib #0,%d0
    65fe:	0020 1008      	orib #8,%a0@-
    6602:	003c 427e      	orib #126,%ccr
    6606:	0202 7c00      	andib #0,%d2
    660a:	0000 0000      	orib #0,%d0
    660e:	0008           	.short 0x0008
    6610:	1422           	moveb %a2@-,%d2
    6612:	003c 427e      	orib #126,%ccr
    6616:	0202 7c00      	andib #0,%d2
    661a:	0000 0000      	orib #0,%d0
    661e:	0000 2424      	orib #36,%d0
    6622:	003c 427e      	orib #126,%ccr
    6626:	0202 7c00      	andib #0,%d2
    662a:	0000 0000      	orib #0,%d0
    662e:	0002 0408      	orib #8,%d2
    6632:	0008           	.short 0x0008
    6634:	0808           	.short 0x0808
    6636:	0808           	.short 0x0808
    6638:	0800 0000      	btst #0,%d0
    663c:	0000 0010      	orib #16,%d0
    6640:	0804 0008      	btst #8,%d4
    6644:	0808           	.short 0x0808
    6646:	0808           	.short 0x0808
    6648:	0800 0000      	btst #0,%d0
    664c:	0000 0008      	orib #8,%d0
    6650:	1422           	moveb %a2@-,%d2
    6652:	0008           	.short 0x0008
    6654:	0808           	.short 0x0808
    6656:	0808           	.short 0x0808
    6658:	0800 0000      	btst #0,%d0
    665c:	0000 0000      	orib #0,%d0
    6660:	2222           	movel %a2@-,%d1
    6662:	0008           	.short 0x0008
    6664:	0808           	.short 0x0808
    6666:	0808           	.short 0x0808
    6668:	0800 0000      	btst #0,%d0
    666c:	0000 0014      	orib #20,%d0
    6670:	0814 2078      	btst #120,%a4@
    6674:	4442           	negw %d2
    6676:	4242           	clrw %d2
    6678:	3c00           	movew %d0,%d6
    667a:	0000 0000      	orib #0,%d0
    667e:	0000 4c32      	orib #50,%d0
    6682:	001e 2222      	orib #34,%fp@+
    6686:	2222           	movel %a2@-,%d1
    6688:	2200           	movel %d0,%d1
    668a:	0000 0000      	orib #0,%d0
    668e:	0004 0810      	orib #16,%d4
    6692:	003c 4242      	orib #66,%ccr
    6696:	4242           	clrw %d2
    6698:	3c00           	movew %d0,%d6
    669a:	0000 0000      	orib #0,%d0
    669e:	0020 1008      	orib #8,%a0@-
    66a2:	003c 4242      	orib #66,%ccr
    66a6:	4242           	clrw %d2
    66a8:	3c00           	movew %d0,%d6
    66aa:	0000 0000      	orib #0,%d0
    66ae:	0008           	.short 0x0008
    66b0:	1422           	moveb %a2@-,%d2
    66b2:	003c 4242      	orib #66,%ccr
    66b6:	4242           	clrw %d2
    66b8:	3c00           	movew %d0,%d6
    66ba:	0000 0000      	orib #0,%d0
    66be:	0000 4c32      	orib #50,%d0
    66c2:	003c 4242      	orib #66,%ccr
    66c6:	4242           	clrw %d2
    66c8:	3c00           	movew %d0,%d6
    66ca:	0000 0000      	orib #0,%d0
    66ce:	0000 2424      	orib #36,%d0
    66d2:	003c 4242      	orib #66,%ccr
    66d6:	4242           	clrw %d2
    66d8:	3c00           	movew %d0,%d6
    66da:	0000 0000      	orib #0,%d0
    66de:	0000 0008      	orib #8,%d0
    66e2:	0800 3e00      	btst #0,%d0
    66e6:	0808           	.short 0x0808
	...
    66f0:	0000 403c      	orib #60,%d0
    66f4:	6252           	bhis 6748 <fontTiles+0x1fdc>
    66f6:	4a46           	tstw %d6
    66f8:	3c02           	movew %d2,%d6
    66fa:	0000 0000      	orib #0,%d0
    66fe:	0004 0810      	orib #16,%d4
    6702:	0042 4242      	oriw #16962,%d2
    6706:	4242           	clrw %d2
    6708:	7c00           	moveq #0,%d6
    670a:	0000 0000      	orib #0,%d0
    670e:	0020 1008      	orib #8,%a0@-
    6712:	0042 4242      	oriw #16962,%d2
    6716:	4242           	clrw %d2
    6718:	7c00           	moveq #0,%d6
    671a:	0000 0000      	orib #0,%d0
    671e:	0008           	.short 0x0008
    6720:	1422           	moveb %a2@-,%d2
    6722:	0042 4242      	oriw #16962,%d2
    6726:	4242           	clrw %d2
    6728:	7c00           	moveq #0,%d6
    672a:	0000 0000      	orib #0,%d0
    672e:	0000 2424      	orib #36,%d0
    6732:	0042 4242      	oriw #16962,%d2
    6736:	4242           	clrw %d2
    6738:	7c00           	moveq #0,%d6
    673a:	0000 0000      	orib #0,%d0
    673e:	0020 1008      	orib #8,%a0@-
    6742:	0042 4242      	oriw #16962,%d2
    6746:	4244           	clrw %d4
    6748:	7840           	moveq #64,%d4
    674a:	3e00           	movew %d0,%d7
    674c:	0000 0000      	orib #0,%d0
    6750:	0202 021e      	andib #30,%d2
    6754:	2222           	movel %a2@-,%d1
    6756:	2212           	movel %a2@,%d1
    6758:	0e02           	.short 0x0e02
    675a:	0200 0000      	andib #0,%d0
    675e:	0000 2424      	orib #36,%d0
    6762:	0042 4242      	oriw #16962,%d2
    6766:	4244           	clrw %d4
    6768:	7840           	moveq #64,%d4
    676a:	3e00           	movew %d0,%d7
	...
    677c:	0000 007e      	orib #126,%d0
    6780:	ffdb           	.short 0xffdb
    6782:	dbff           	.short 0xdbff
    6784:	ffc3           	.short 0xffc3
    6786:	e7ff           	.short 0xe7ff
    6788:	7e00           	moveq #0,%d7
    678a:	0000 0000      	orib #0,%d0
    678e:	0000 0036      	orib #54,%d0
    6792:	7f7f           	.short 0x7f7f
    6794:	7f7f           	.short 0x7f7f
    6796:	3e1c           	movew %a4@+,%d7
    6798:	0800 0000      	btst #0,%d0
    679c:	0000 0000      	orib #0,%d0
    67a0:	0008           	.short 0x0008
    67a2:	1c3e           	.short 0x1c3e
    67a4:	7f3e           	.short 0x7f3e
    67a6:	1c08           	.short 0x1c08
	...
    67b0:	183c 3ce7      	moveb #-25,%d4
    67b4:	e7e7           	rolw %sp@-
    67b6:	1818           	moveb %a0@+,%d4
    67b8:	3c00           	movew %d0,%d6
    67ba:	0000 0000      	orib #0,%d0
    67be:	0000 183c      	orib #60,%d0
    67c2:	7eff           	moveq #-1,%d7
    67c4:	ff7e           	.short 0xff7e
    67c6:	1818           	moveb %a0@+,%d4
    67c8:	3c00           	movew %d0,%d6
    67ca:	0000 0000      	orib #0,%d0
    67ce:	0000 fccc      	orib #-52,%d0
    67d2:	fc0c           	.short 0xfc0c
    67d4:	0c0c           	.short 0x0c0c
    67d6:	0e0f           	.short 0x0e0f
    67d8:	0700           	btst %d3,%d0
    67da:	0000 0000      	orib #0,%d0
    67de:	0000 fec6      	orib #-58,%d0
    67e2:	fec6           	.short 0xfec6
    67e4:	c6c6           	muluw %d6,%d3
    67e6:	e6e7           	rorw %sp@-
    67e8:	6703           	beqs 67ed <fontTiles+0x2081>
	...
    67f2:	183c 3c18      	moveb #24,%d4
	...
    67fe:	0000 003c      	orib #60,%d0
    6802:	6642           	bnes 6846 <fontTiles+0x20da>
    6804:	4266           	clrw %fp@-
    6806:	3c00           	movew %d0,%d6
	...
    6810:	183c 5a18      	moveb #24,%d4
    6814:	3c66           	moveaw %fp@-,%fp
    6816:	6666           	bnes 687e <fontTiles+0x2112>
    6818:	3c00           	movew %d0,%d6
    681a:	0000 0000      	orib #0,%d0
    681e:	0000 3c66      	orib #102,%d0
    6822:	6666           	bnes 688a <fontTiles+0x211e>
    6824:	3c18           	movew %a0@+,%d6
    6826:	7e18           	moveq #24,%d7
    6828:	1800           	moveb %d0,%d4
    682a:	0000 0000      	orib #0,%d0
    682e:	0066 6666      	oriw #26214,%fp@-
    6832:	6666           	bnes 689a <fontTiles+0x212e>
    6834:	6666           	bnes 689c <fontTiles+0x2130>
    6836:	0066 6600      	oriw #26112,%fp@-
    683a:	0000 0000      	orib #0,%d0
    683e:	0000 fedb      	orib #-37,%d0
    6842:	dbdb           	addal %a3@+,%a5
    6844:	ded8           	addaw %a0@+,%sp
    6846:	d8d8           	addaw %a0@+,%a4
    6848:	d800           	addb %d0,%d4
    684a:	0000 0000      	orib #0,%d0
    684e:	003e           	.short 0x003e
    6850:	6303           	blss 6855 <fontTiles+0x20e9>
    6852:	1e36 3636      	moveb %fp@(00000036,%d3:w:8),%d7
    6856:	3c60           	moveaw %a0@-,%fp
    6858:	633e           	blss 6898 <fontTiles+0x212c>
	...
    6862:	7f60           	.short 0x7f60
    6864:	6060           	bras 68c6 <fontTiles+0x215a>
	...
    686e:	0000 4040      	orib #64,%d0
    6872:	6020           	bras 6894 <fontTiles+0x2128>
    6874:	3011           	movew %a1@,%d0
    6876:	1b1e           	moveb %fp@+,%a5@-
    6878:	0c08           	.short 0x0c08
    687a:	0000 cc66      	orib #102,%d0
    687e:	3399 cc66      	movew %a1@+,%a1@(00000066,%a4:l:4)
    6882:	3399 cc66      	movew %a1@+,%a1@(00000066,%a4:l:4)
    6886:	3399 cc66      	movew %a1@+,%a1@(00000066,%a4:l:4)
    688a:	3399 cc66      	movew %a1@+,%a1@(00000066,%a4:l:4)
    688e:	3399 cc66      	movew %a1@+,%a1@(00000066,%a4:l:4)
    6892:	3399 cc66      	movew %a1@+,%a1@(00000066,%a4:l:4)
    6896:	3399 cc66      	movew %a1@+,%a1@(00000066,%a4:l:4)
    689a:	3399 cc66      	movew %a1@+,%a1@(00000066,%a4:l:4)
    689e:	3399 cc66      	movew %a1@+,%a1@(00000066,%a4:l:4)
    68a2:	3399 cc66      	movew %a1@+,%a1@(00000066,%a4:l:4)
    68a6:	3399 cc66      	movew %a1@+,%a1@(00000066,%a4:l:4)
    68aa:	3399 0000      	movew %a1@+,%a1@(00000000,%d0:w)
    68ae:	0000 006c      	orib #108,%d0
    68b2:	361b           	movew %a3@+,%d3
    68b4:	366c 0000      	moveaw %a4@(0),%a3
	...
    68c0:	001b 366c      	orib #108,%a3@+
    68c4:	361b           	movew %a3@+,%d3
	...
    68d2:	1830 7f30 1800 	moveb %a0@(18000000,%d7:l:8),%d4
    68d8:	0000 
	...
    68e2:	0c06 7f06      	cmpib #6,%d6
    68e6:	0c00 0000      	cmpib #0,%d0
    68ea:	0000 0000      	orib #0,%d0
    68ee:	0000 183c      	orib #60,%d0
    68f2:	7e18           	moveq #24,%d7
    68f4:	1818           	moveb %a0@+,%d4
    68f6:	1818           	moveb %a0@+,%d4
    68f8:	1800           	moveb %d0,%d4
    68fa:	0000 0000      	orib #0,%d0
    68fe:	0000 1818      	orib #24,%d0
    6902:	1818           	moveb %a0@+,%d4
    6904:	1818           	moveb %a0@+,%d4
    6906:	7e3c           	moveq #60,%d7
    6908:	1800           	moveb %d0,%d4
    690a:	0000 0000      	orib #0,%d0
    690e:	0000 183c      	orib #60,%d0
    6912:	7e18           	moveq #24,%d7
    6914:	1818           	moveb %a0@+,%d4
    6916:	7e3c           	moveq #60,%d7
    6918:	1800           	moveb %d0,%d4
	...
    6922:	2466           	moveal %fp@-,%a2
    6924:	ff66           	.short 0xff66
    6926:	2400           	movel %d0,%d2
    6928:	0000 0000      	orib #0,%d0
    692c:	0000 0002      	orib #2,%d0
    6930:	060e           	.short 0x060e
    6932:	1e3e           	.short 0x1e3e
    6934:	7e3e           	moveq #62,%d7
    6936:	1e0e           	.short 0x1e0e
    6938:	0602 0000      	addib #0,%d2
    693c:	0000 0040      	orib #64,%d0
    6940:	6070           	bras 69b2 <fontTiles+0x2246>
    6942:	787c           	moveq #124,%d4
    6944:	7e7c           	moveq #124,%d7
    6946:	7870           	moveq #112,%d4
    6948:	6040           	bras 698a <fontTiles+0x221e>
    694a:	0000 0000      	orib #0,%d0
    694e:	0000 0008      	orib #8,%d0
    6952:	1c1c           	moveb %a4@+,%d6
    6954:	3e3e           	.short 0x3e3e
    6956:	7f7f           	.short 0x7f7f
	...
    6960:	007f           	.short 0x007f
    6962:	7f3e           	.short 0x7f3e
    6964:	3e1c           	movew %a4@+,%d7
    6966:	1c08           	.short 0x1c08
	...
    697c:	0000 000c      	orib #12,%d0
    6980:	0c0c           	.short 0x0c0c
    6982:	0c0c           	.short 0x0c0c
    6984:	0c0c           	.short 0x0c0c
    6986:	000c           	.short 0x000c
    6988:	0c00 0000      	cmpib #0,%d0
    698c:	0000 3636      	orib #54,%d0
    6990:	3614           	movew %a4@,%d3
	...
    699e:	0000 0036      	orib #54,%d0
    69a2:	367f           	.short 0x367f
    69a4:	3636 7f36 3600 	movew %fp@(36000000)@(00000000,%d7:l:8),%d3
    69aa:	0000 0000 
    69ae:	0008           	.short 0x0008
    69b0:	3e6b 0b0b      	moveaw %a3@(2827),%sp
    69b4:	1e38 686b      	moveb 686b <fontTiles+0x20ff>,%d7
    69b8:	3e08           	movew %a0,%d7
    69ba:	0000 0000      	orib #0,%d0
    69be:	0067 6537      	oriw #25911,%sp@-
    69c2:	3018           	movew %a0@+,%d0
    69c4:	180c           	.short 0x180c
    69c6:	eca6           	asrl %d6,%d6
    69c8:	e600           	asrb #3,%d0
    69ca:	0000 0000      	orib #0,%d0
    69ce:	0000 1c36      	orib #54,%d0
    69d2:	361c           	movew %a4@+,%d3
    69d4:	5633 3333 6e00 	addqb #3,%a3@(6e000000,%d3:w:2)@(00001818)
    69da:	0000 0000 1818 
    69e0:	1808           	.short 0x1808
	...
    69ee:	0018 0c0c      	orib #12,%a0@+
    69f2:	0c0c           	.short 0x0c0c
    69f4:	0c0c           	.short 0x0c0c
    69f6:	0c0c           	.short 0x0c0c
    69f8:	0c0c           	.short 0x0c0c
    69fa:	1800           	moveb %d0,%d4
    69fc:	0000 000c      	orib #12,%d0
    6a00:	1818           	moveb %a0@+,%d4
    6a02:	1818           	moveb %a0@+,%d4
    6a04:	1818           	moveb %a0@+,%d4
    6a06:	1818           	moveb %a0@+,%d4
    6a08:	1818           	moveb %a0@+,%d4
    6a0a:	0c00 0000      	cmpib #0,%d0
    6a0e:	0000 0000      	orib #0,%d0
    6a12:	6336           	blss 6a4a <fontTiles+0x22de>
    6a14:	1c1c           	moveb %a4@+,%d6
    6a16:	3663           	moveaw %a3@-,%a3
	...
    6a20:	0000 1818      	orib #24,%d0
    6a24:	7e18           	moveq #24,%d7
    6a26:	1800           	moveb %d0,%d4
	...
    6a34:	0000 0006      	orib #6,%d0
    6a38:	0604 0200      	addib #0,%d4
	...
    6a44:	7e00           	moveq #0,%d7
	...
    6a56:	0006 0600      	orib #0,%d6
    6a5a:	0000 0000      	orib #0,%d0
    6a5e:	0060 6030      	oriw #24624,%a0@-
    6a62:	3018           	movew %a0@+,%d0
    6a64:	180c           	.short 0x180c
    6a66:	0c06 0600      	cmpib #0,%d6
    6a6a:	0000 0000      	orib #0,%d0
    6a6e:	0000 3c66      	orib #102,%d0
    6a72:	6373           	blss 6ae7 <fontTiles+0x237b>
    6a74:	6b67           	bmis 6add <fontTiles+0x2371>
    6a76:	6333           	blss 6aab <fontTiles+0x233f>
    6a78:	1e00           	moveb %d0,%d7
    6a7a:	0000 0000      	orib #0,%d0
    6a7e:	0000 181c      	orib #28,%d0
    6a82:	1818           	moveb %a0@+,%d4
    6a84:	1818           	moveb %a0@+,%d4
    6a86:	1818           	moveb %a0@+,%d4
    6a88:	3c00           	movew %d0,%d6
    6a8a:	0000 0000      	orib #0,%d0
    6a8e:	0000 3e63      	orib #99,%d0
    6a92:	6038           	bras 6acc <fontTiles+0x2360>
    6a94:	0c06 0303      	cmpib #3,%d6
    6a98:	7f00           	.short 0x7f00
    6a9a:	0000 0000      	orib #0,%d0
    6a9e:	0000 3e63      	orib #99,%d0
    6aa2:	6030           	bras 6ad4 <fontTiles+0x2368>
    6aa4:	6060           	bras 6b06 <fontTiles+0x239a>
    6aa6:	6063           	bras 6b0b <fontTiles+0x239f>
    6aa8:	3e00           	movew %d0,%d7
    6aaa:	0000 0000      	orib #0,%d0
    6aae:	0000 6666      	orib #102,%d0
    6ab2:	6363           	blss 6b17 <fontTiles+0x23ab>
    6ab4:	637f           	blss 6b35 <fontTiles+0x23c9>
    6ab6:	6060           	bras 6b18 <fontTiles+0x23ac>
    6ab8:	6000 0000      	braw 6aba <fontTiles+0x234e>
    6abc:	0000 0000      	orib #0,%d0
    6ac0:	7f03           	.short 0x7f03
    6ac2:	031f           	btst %d1,%sp@+
    6ac4:	3060           	moveaw %a0@-,%a0
    6ac6:	6063           	bras 6b2b <fontTiles+0x23bf>
    6ac8:	3e00           	movew %d0,%d7
    6aca:	0000 0000      	orib #0,%d0
    6ace:	0000 3e63      	orib #99,%d0
    6ad2:	031f           	btst %d1,%sp@+
    6ad4:	3363 6363      	movew %a3@-,%a1@(25443)
    6ad8:	3e00           	movew %d0,%d7
    6ada:	0000 0000      	orib #0,%d0
    6ade:	0000 7f60      	orib #96,%d0
    6ae2:	3030 3018      	movew %a0@(00000018,%d3:w),%d0
    6ae6:	1818           	moveb %a0@+,%d4
    6ae8:	1800           	moveb %d0,%d4
    6aea:	0000 0000      	orib #0,%d0
    6aee:	0000 3e63      	orib #99,%d0
    6af2:	6363           	blss 6b57 <fontTiles+0x23eb>
    6af4:	3e63           	moveaw %a3@-,%sp
    6af6:	6363           	blss 6b5b <fontTiles+0x23ef>
    6af8:	3e00           	movew %d0,%d7
    6afa:	0000 0000      	orib #0,%d0
    6afe:	0000 3c66      	orib #102,%d0
    6b02:	6363           	blss 6b67 <fontTiles+0x23fb>
    6b04:	637e           	blss 6b84 <fontTiles+0x2418>
    6b06:	6060           	bras 6b68 <fontTiles+0x23fc>
    6b08:	3f00           	movew %d0,%sp@-
	...
    6b12:	0606 0000      	addib #0,%d6
    6b16:	0606 0000      	addib #0,%d6
	...
    6b22:	0606 0000      	addib #0,%d6
    6b26:	0606 0402      	addib #2,%d6
    6b2a:	0000 0000      	orib #0,%d0
    6b2e:	0000 6030      	orib #48,%d0
    6b32:	180c           	.short 0x180c
    6b34:	060c           	.short 0x060c
    6b36:	1830 6000      	moveb %a0@(00000000,%d6:w),%d4
	...
    6b42:	003e           	.short 0x003e
    6b44:	0000 3e00      	orib #0,%d0
	...
    6b50:	060c           	.short 0x060c
    6b52:	1830 6030      	moveb %a0@(00000030,%d6:w),%d4
    6b56:	180c           	.short 0x180c
    6b58:	0600 0000      	addib #0,%d0
    6b5c:	0000 003e      	orib #62,%d0
    6b60:	6363           	blss 6bc5 <fontTiles+0x2459>
    6b62:	6038           	bras 6b9c <fontTiles+0x2430>
    6b64:	1818           	moveb %a0@+,%d4
    6b66:	0018 1800      	orib #0,%a0@+
    6b6a:	0000 0000      	orib #0,%d0
    6b6e:	0000 003c      	orib #60,%d0
    6b72:	4259           	clrw %a1@+
    6b74:	5555           	subqw #2,%a5@
    6b76:	3902           	movew %d2,%a4@-
    6b78:	3c00           	movew %d0,%d6
    6b7a:	0000 0000      	orib #0,%d0
    6b7e:	0000 3e63      	orib #99,%d0
    6b82:	6363           	blss 6be7 <fontTiles+0x247b>
    6b84:	7f63           	.short 0x7f63
    6b86:	6363           	blss 6beb <fontTiles+0x247f>
    6b88:	6300 0000      	blsw 6b8a <fontTiles+0x241e>
    6b8c:	0000 0000      	orib #0,%d0
    6b90:	1f33 3313 3f63 	moveb %a3@(00000000,%d3:w:2)@(3f636363),%sp@-
    6b96:	6363 
    6b98:	3f00           	movew %d0,%sp@-
    6b9a:	0000 0000      	orib #0,%d0
    6b9e:	0000 3e63      	orib #99,%d0
    6ba2:	0303           	btst %d1,%d3
    6ba4:	0303           	btst %d1,%d3
    6ba6:	0363           	bchg %d1,%a3@-
    6ba8:	3e00           	movew %d0,%d7
    6baa:	0000 0000      	orib #0,%d0
    6bae:	0000 1f33      	orib #51,%d0
    6bb2:	6363           	blss 6c17 <fontTiles+0x24ab>
    6bb4:	6363           	blss 6c19 <fontTiles+0x24ad>
    6bb6:	6363           	blss 6c1b <fontTiles+0x24af>
    6bb8:	3f00           	movew %d0,%sp@-
    6bba:	0000 0000      	orib #0,%d0
    6bbe:	0000 7f03      	orib #3,%d0
    6bc2:	0303           	btst %d1,%d3
    6bc4:	3f03           	movew %d3,%sp@-
    6bc6:	0303           	btst %d1,%d3
    6bc8:	7f00           	.short 0x7f00
    6bca:	0000 0000      	orib #0,%d0
    6bce:	0000 7f03      	orib #3,%d0
    6bd2:	0303           	btst %d1,%d3
    6bd4:	3f03           	movew %d3,%sp@-
    6bd6:	0303           	btst %d1,%d3
    6bd8:	0300           	btst %d1,%d0
    6bda:	0000 0000      	orib #0,%d0
    6bde:	0000 3e63      	orib #99,%d0
    6be2:	0303           	btst %d1,%d3
    6be4:	7b63           	.short 0x7b63
    6be6:	6363           	blss 6c4b <fontTiles+0x24df>
    6be8:	3e00           	movew %d0,%d7
    6bea:	0000 0000      	orib #0,%d0
    6bee:	0000 6363      	orib #99,%d0
    6bf2:	6363           	blss 6c57 <fontTiles+0x24eb>
    6bf4:	7f63           	.short 0x7f63
    6bf6:	6363           	blss 6c5b <fontTiles+0x24ef>
    6bf8:	6300 0000      	blsw 6bfa <fontTiles+0x248e>
    6bfc:	0000 0000      	orib #0,%d0
    6c00:	7e18           	moveq #24,%d7
    6c02:	1818           	moveb %a0@+,%d4
    6c04:	1818           	moveb %a0@+,%d4
    6c06:	1818           	moveb %a0@+,%d4
    6c08:	7e00           	moveq #0,%d7
    6c0a:	0000 0000      	orib #0,%d0
    6c0e:	0000 7060      	orib #96,%d0
    6c12:	6060           	bras 6c74 <fontTiles+0x2508>
    6c14:	6060           	bras 6c76 <fontTiles+0x250a>
    6c16:	6063           	bras 6c7b <fontTiles+0x250f>
    6c18:	3e00           	movew %d0,%d7
    6c1a:	0000 0000      	orib #0,%d0
    6c1e:	0000 6363      	orib #99,%d0
    6c22:	331b           	movew %a3@+,%a1@-
    6c24:	3f63 6363      	movew %a3@-,%sp@(25443)
    6c28:	6300 0000      	blsw 6c2a <fontTiles+0x24be>
    6c2c:	0000 0000      	orib #0,%d0
    6c30:	0303           	btst %d1,%d3
    6c32:	0303           	btst %d1,%d3
    6c34:	0303           	btst %d1,%d3
    6c36:	0303           	btst %d1,%d3
    6c38:	7f00           	.short 0x7f00
    6c3a:	0000 0000      	orib #0,%d0
    6c3e:	0000 6377      	orib #119,%d0
    6c42:	7f7f           	.short 0x7f7f
    6c44:	6b63           	bmis 6ca9 <fontTiles+0x253d>
    6c46:	6363           	blss 6cab <fontTiles+0x253f>
    6c48:	6300 0000      	blsw 6c4a <fontTiles+0x24de>
    6c4c:	0000 0000      	orib #0,%d0
    6c50:	6367           	blss 6cb9 <fontTiles+0x254d>
    6c52:	6f7b           	bles 6ccf <fontTiles+0x2563>
    6c54:	7363           	.short 0x7363
    6c56:	6363           	blss 6cbb <fontTiles+0x254f>
    6c58:	6300 0000      	blsw 6c5a <fontTiles+0x24ee>
    6c5c:	0000 0000      	orib #0,%d0
    6c60:	3e63           	moveaw %a3@-,%sp
    6c62:	6363           	blss 6cc7 <fontTiles+0x255b>
    6c64:	6363           	blss 6cc9 <fontTiles+0x255d>
    6c66:	6363           	blss 6ccb <fontTiles+0x255f>
    6c68:	3e00           	movew %d0,%d7
    6c6a:	0000 0000      	orib #0,%d0
    6c6e:	0000 3f63      	orib #99,%d0
    6c72:	6363           	blss 6cd7 <fontTiles+0x256b>
    6c74:	331f           	movew %sp@+,%a1@-
    6c76:	0303           	btst %d1,%d3
    6c78:	0300           	btst %d1,%d0
    6c7a:	0000 0000      	orib #0,%d0
    6c7e:	0000 3e63      	orib #99,%d0
    6c82:	6363           	blss 6ce7 <fontTiles+0x257b>
    6c84:	6363           	blss 6ce9 <fontTiles+0x257d>
    6c86:	6b3b           	bmis 6cc3 <fontTiles+0x2557>
    6c88:	3e60           	moveaw %a0@-,%sp
    6c8a:	0000 0000      	orib #0,%d0
    6c8e:	0000 3f63      	orib #99,%d0
    6c92:	6363           	blss 6cf7 <fontTiles+0x258b>
    6c94:	337f           	.short 0x337f
    6c96:	6363           	blss 6cfb <fontTiles+0x258f>
    6c98:	6300 0000      	blsw 6c9a <fontTiles+0x252e>
    6c9c:	0000 0000      	orib #0,%d0
    6ca0:	3e63           	moveaw %a3@-,%sp
    6ca2:	0303           	btst %d1,%d3
    6ca4:	1e30 6063      	moveb %a0@(00000063,%d6:w),%d7
    6ca8:	3e00           	movew %d0,%d7
    6caa:	0000 0000      	orib #0,%d0
    6cae:	0000 7e18      	orib #24,%d0
    6cb2:	1818           	moveb %a0@+,%d4
    6cb4:	1818           	moveb %a0@+,%d4
    6cb6:	1818           	moveb %a0@+,%d4
    6cb8:	1800           	moveb %d0,%d4
    6cba:	0000 0000      	orib #0,%d0
    6cbe:	0000 6363      	orib #99,%d0
    6cc2:	6363           	blss 6d27 <fontTiles+0x25bb>
    6cc4:	6363           	blss 6d29 <fontTiles+0x25bd>
    6cc6:	6363           	blss 6d2b <fontTiles+0x25bf>
    6cc8:	3e00           	movew %d0,%d7
    6cca:	0000 0000      	orib #0,%d0
    6cce:	0000 6363      	orib #99,%d0
    6cd2:	6363           	blss 6d37 <fontTiles+0x25cb>
    6cd4:	6363           	blss 6d39 <fontTiles+0x25cd>
    6cd6:	3636 1c00      	movew %fp@(00000000,%d1:l:4),%d3
    6cda:	0000 0000      	orib #0,%d0
    6cde:	0000 6363      	orib #99,%d0
    6ce2:	6363           	blss 6d47 <fontTiles+0x25db>
    6ce4:	636b           	blss 6d51 <fontTiles+0x25e5>
    6ce6:	7f77           	.short 0x7f77
    6ce8:	6300 0000      	blsw 6cea <fontTiles+0x257e>
    6cec:	0000 0000      	orib #0,%d0
    6cf0:	6363           	blss 6d55 <fontTiles+0x25e9>
    6cf2:	3636 1c36      	movew %fp@(00000036,%d1:l:4),%d3
    6cf6:	6363           	blss 6d5b <fontTiles+0x25ef>
    6cf8:	6300 0000      	blsw 6cfa <fontTiles+0x258e>
    6cfc:	0000 0000      	orib #0,%d0
    6d00:	6363           	blss 6d65 <fontTiles+0x25f9>
    6d02:	6363           	blss 6d67 <fontTiles+0x25fb>
    6d04:	667c           	bnes 6d82 <fontTiles+0x2616>
    6d06:	6060           	bras 6d68 <fontTiles+0x25fc>
    6d08:	3f00           	movew %d0,%sp@-
    6d0a:	0000 0000      	orib #0,%d0
    6d0e:	0000 7f60      	orib #96,%d0
    6d12:	3018           	movew %a0@+,%d0
    6d14:	0c06 0303      	cmpib #3,%d6
    6d18:	7f00           	.short 0x7f00
    6d1a:	0000 0000      	orib #0,%d0
    6d1e:	0000 3c0c      	orib #12,%d0
    6d22:	0c0c           	.short 0x0c0c
    6d24:	0c0c           	.short 0x0c0c
    6d26:	0c0c           	.short 0x0c0c
    6d28:	3c00           	movew %d0,%d6
    6d2a:	0000 0000      	orib #0,%d0
    6d2e:	0006 060c      	orib #12,%d6
    6d32:	0c18 1830      	cmpib #48,%a0@+
    6d36:	3060           	moveaw %a0@-,%a0
    6d38:	6000 0000      	braw 6d3a <fontTiles+0x25ce>
    6d3c:	0000 0000      	orib #0,%d0
    6d40:	3c30 3030      	movew %a0@(00000030,%d3:w),%d6
    6d44:	3030 3030      	movew %a0@(00000030,%d3:w),%d0
    6d48:	3c00           	movew %d0,%d6
    6d4a:	0000 0000      	orib #0,%d0
    6d4e:	081c 3600      	btst #0,%a4@+
	...
    6d6a:	7f00           	.short 0x7f00
    6d6c:	0000 1018      	orib #24,%d0
    6d70:	1818           	moveb %a0@+,%d4
	...
    6d82:	007c 6663      	oriw #26211,%sr
    6d86:	6373           	blss 6dfb <fontTiles+0x268f>
    6d88:	6e00 0000      	bgtw 6d8a <fontTiles+0x261e>
    6d8c:	0000 0000      	orib #0,%d0
    6d90:	0303           	btst %d1,%d3
    6d92:	031f           	btst %d1,%sp@+
    6d94:	3363 6363      	movew %a3@-,%a1@(25443)
    6d98:	3f00           	movew %d0,%sp@-
	...
    6da2:	003e           	.short 0x003e
    6da4:	0303           	btst %d1,%d3
    6da6:	0363           	bchg %d1,%a3@-
    6da8:	3e00           	movew %d0,%d7
    6daa:	0000 0000      	orib #0,%d0
    6dae:	0000 6060      	orib #96,%d0
    6db2:	607c           	bras 6e30 <fontTiles+0x26c4>
    6db4:	6663           	bnes 6e19 <fontTiles+0x26ad>
    6db6:	6363           	blss 6e1b <fontTiles+0x26af>
    6db8:	7e00           	moveq #0,%d7
	...
    6dc2:	003e           	.short 0x003e
    6dc4:	637f           	blss 6e45 <fontTiles+0x26d9>
    6dc6:	0303           	btst %d1,%d3
    6dc8:	7e00           	moveq #0,%d7
    6dca:	0000 0000      	orib #0,%d0
    6dce:	0000 003c      	orib #60,%d0
    6dd2:	6606           	bnes 6dda <fontTiles+0x266e>
    6dd4:	063f           	.short 0x063f
    6dd6:	0606 0600      	addib #0,%d6
	...
    6de2:	003e           	.short 0x003e
    6de4:	6363           	blss 6e49 <fontTiles+0x26dd>
    6de6:	637e           	blss 6e66 <fontTiles+0x26fa>
    6de8:	6063           	bras 6e4d <fontTiles+0x26e1>
    6dea:	3e00           	movew %d0,%d7
    6dec:	0000 0000      	orib #0,%d0
    6df0:	0303           	btst %d1,%d3
    6df2:	031f           	btst %d1,%sp@+
    6df4:	3363 6363      	movew %a3@-,%a1@(25443)
    6df8:	6300 0000      	blsw 6dfa <fontTiles+0x268e>
    6dfc:	0000 0000      	orib #0,%d0
    6e00:	0018 0018      	orib #24,%a0@+
    6e04:	1818           	moveb %a0@+,%d4
    6e06:	1818           	moveb %a0@+,%d4
    6e08:	1800           	moveb %d0,%d4
    6e0a:	0000 0000      	orib #0,%d0
    6e0e:	0000 0060      	orib #96,%d0
    6e12:	0070 6060 6060 	oriw #24672,%a0@(00000060,%d6:w)
    6e18:	331e           	movew %fp@+,%a1@-
	...
    6e22:	6333           	blss 6e57 <fontTiles+0x26eb>
    6e24:	1f3b 6363 6300 	moveb %pc@(d126 <_etext+0x3de2>)@(00000000),%sp@-
    6e2a:	0000 0000 
    6e2e:	0000 0006      	orib #6,%d0
    6e32:	0606 0606      	addib #6,%d6
    6e36:	0606 0e00      	addib #0,%d6
	...
    6e42:	003f           	.short 0x003f
    6e44:	6b6b           	bmis 6eb1 <fontTiles+0x2745>
    6e46:	6b6b           	bmis 6eb3 <fontTiles+0x2747>
    6e48:	6b00 0000      	bmiw 6e4a <fontTiles+0x26de>
    6e4c:	0000 0000      	orib #0,%d0
    6e50:	0000 001f      	orib #31,%d0
    6e54:	3333 3333 3300 	movew %a3@(33000000,%d3:w:2)@(00000000),%a1@-
    6e5a:	0000 0000 0000 
    6e60:	0000 003e      	orib #62,%d0
    6e64:	6363           	blss 6ec9 <fontTiles+0x275d>
    6e66:	6363           	blss 6ecb <fontTiles+0x275f>
    6e68:	3e00           	movew %d0,%d7
	...
    6e72:	003f           	.short 0x003f
    6e74:	6363           	blss 6ed9 <fontTiles+0x276d>
    6e76:	6333           	blss 6eab <fontTiles+0x273f>
    6e78:	1f03           	moveb %d3,%sp@-
    6e7a:	0300           	btst %d1,%d0
    6e7c:	0000 0000      	orib #0,%d0
    6e80:	0000 007c      	orib #124,%d0
    6e84:	6663           	bnes 6ee9 <fontTiles+0x277d>
    6e86:	6363           	blss 6eeb <fontTiles+0x277f>
    6e88:	7e60           	moveq #96,%d7
    6e8a:	6000 0000      	braw 6e8c <fontTiles+0x2720>
    6e8e:	0000 0000      	orib #0,%d0
    6e92:	003b           	.short 0x003b
    6e94:	0703           	btst %d3,%d3
    6e96:	0303           	btst %d1,%d3
    6e98:	0300           	btst %d1,%d0
	...
    6ea2:	003e           	.short 0x003e
    6ea4:	030e 1830      	movepw %fp@(6192),%d1
    6ea8:	1f00           	moveb %d0,%sp@-
    6eaa:	0000 0000      	orib #0,%d0
    6eae:	0000 000c      	orib #12,%d0
    6eb2:	0c3e           	.short 0x0c3e
    6eb4:	0c0c           	.short 0x0c0c
    6eb6:	0c0c           	.short 0x0c0c
    6eb8:	3800           	movew %d0,%d4
	...
    6ec2:	0063 6363      	oriw #25443,%a3@-
    6ec6:	6363           	blss 6f2b <fontTiles+0x27bf>
    6ec8:	7e00           	moveq #0,%d7
	...
    6ed2:	0063 6363      	oriw #25443,%a3@-
    6ed6:	3614           	movew %a4@,%d3
    6ed8:	0800 0000      	btst #0,%d0
    6edc:	0000 0000      	orib #0,%d0
    6ee0:	0000 006b      	orib #107,%d0
    6ee4:	6b6b           	bmis 6f51 <fontTiles+0x27e5>
    6ee6:	6b6b           	bmis 6f53 <fontTiles+0x27e7>
    6ee8:	3f00           	movew %d0,%sp@-
	...
    6ef2:	0063 361c      	oriw #13852,%a3@-
    6ef6:	1c36 6300      	moveb %fp@(00000000,%d6:w:2),%d6
	...
    6f02:	0063 6363      	oriw #25443,%a3@-
    6f06:	6366           	blss 6f6e <fontTiles+0x2802>
    6f08:	7c60           	moveq #96,%d6
    6f0a:	3f00           	movew %d0,%sp@-
    6f0c:	0000 0000      	orib #0,%d0
    6f10:	0000 007f      	orib #127,%d0
    6f14:	6038           	bras 6f4e <fontTiles+0x27e2>
    6f16:	0e03           	.short 0x0e03
    6f18:	7f00           	.short 0x7f00
    6f1a:	0000 0000      	orib #0,%d0
    6f1e:	0000 380c      	orib #12,%d0
    6f22:	0c0c           	.short 0x0c0c
    6f24:	060c           	.short 0x060c
    6f26:	0c0c           	.short 0x0c0c
    6f28:	3800           	movew %d0,%d4
    6f2a:	0000 0000      	orib #0,%d0
    6f2e:	0018 1818      	orib #24,%a0@+
    6f32:	1818           	moveb %a0@+,%d4
    6f34:	0018 1818      	orib #24,%a0@+
    6f38:	1818           	moveb %a0@+,%d4
    6f3a:	0000 0000      	orib #0,%d0
    6f3e:	0000 1c30      	orib #48,%d0
    6f42:	3030 6030      	movew %a0@(00000030,%d6:w),%d0
    6f46:	3030 1c00      	movew %a0@(00000000,%d1:l:4),%d0
    6f4a:	0000 0000      	orib #0,%d0
    6f4e:	6e3b           	bgts 6f8b <fontTiles+0x281f>
	...
    6f60:	0008           	.short 0x0008
    6f62:	1c36 6363 7f00 	moveb %fp@(00007f00)@(00000000),%d6
    6f68:	0000 0000 
    6f6c:	4411           	negb %a1@
    6f6e:	4411           	negb %a1@
    6f70:	4411           	negb %a1@
    6f72:	4411           	negb %a1@
    6f74:	4411           	negb %a1@
    6f76:	4411           	negb %a1@
    6f78:	4411           	negb %a1@
    6f7a:	4411           	negb %a1@
    6f7c:	aa55           	.short 0xaa55
    6f7e:	aa55           	.short 0xaa55
    6f80:	aa55           	.short 0xaa55
    6f82:	aa55           	.short 0xaa55
    6f84:	aa55           	.short 0xaa55
    6f86:	aa55           	.short 0xaa55
    6f88:	aa55           	.short 0xaa55
    6f8a:	aa55           	.short 0xaa55
    6f8c:	dd77 dd77 dd77 	addw %d6,%sp@(dd77dd77)@(dd77dd77)
    6f92:	dd77 dd77 dd77 
    6f98:	dd77 dd77 ffff 	addw %d6,%sp@(ffffffff)@(ffffffff)
    6f9e:	ffff ffff ffff 
    6fa4:	ffff           	.short 0xffff
    6fa6:	ffff           	.short 0xffff
    6fa8:	ffff           	.short 0xffff
    6faa:	ffff           	.short 0xffff
	...
    6fb4:	ffff           	.short 0xffff
    6fb6:	ffff           	.short 0xffff
    6fb8:	ffff           	.short 0xffff
    6fba:	ffff           	.short 0xffff
    6fbc:	0f0f 0f0f      	movepw %sp@(3855),%d7
    6fc0:	0f0f 0f0f      	movepw %sp@(3855),%d7
    6fc4:	0f0f 0f0f      	movepw %sp@(3855),%d7
    6fc8:	0f0f 0f0f      	movepw %sp@(3855),%d7
    6fcc:	f0f0           	.short 0xf0f0
    6fce:	f0f0           	.short 0xf0f0
    6fd0:	f0f0           	.short 0xf0f0
    6fd2:	f0f0           	.short 0xf0f0
    6fd4:	f0f0           	.short 0xf0f0
    6fd6:	f0f0           	.short 0xf0f0
    6fd8:	f0f0           	.short 0xf0f0
    6fda:	f0f0           	.short 0xf0f0
    6fdc:	ffff           	.short 0xffff
    6fde:	ffff           	.short 0xffff
    6fe0:	ffff           	.short 0xffff
    6fe2:	ffff           	.short 0xffff
	...
    6ff0:	003e           	.short 0x003e
    6ff2:	3e3e           	.short 0x3e3e
    6ff4:	3e3e           	.short 0x3e3e
    6ff6:	3e00           	movew %d0,%d7
    6ff8:	0000 0000      	orib #0,%d0
    6ffc:	1818           	moveb %a0@+,%d4
    6ffe:	1818           	moveb %a0@+,%d4
    7000:	1818           	moveb %a0@+,%d4
    7002:	1818           	moveb %a0@+,%d4
    7004:	1818           	moveb %a0@+,%d4
    7006:	1818           	moveb %a0@+,%d4
    7008:	1818           	moveb %a0@+,%d4
    700a:	1818           	moveb %a0@+,%d4
    700c:	1818           	moveb %a0@+,%d4
    700e:	1818           	moveb %a0@+,%d4
    7010:	1818           	moveb %a0@+,%d4
    7012:	181f           	moveb %sp@+,%d4
    7014:	1818           	moveb %a0@+,%d4
    7016:	1818           	moveb %a0@+,%d4
    7018:	1818           	moveb %a0@+,%d4
    701a:	1818           	moveb %a0@+,%d4
    701c:	0000 0000      	orib #0,%d0
    7020:	0000 001f      	orib #31,%d0
    7024:	1818           	moveb %a0@+,%d4
    7026:	1818           	moveb %a0@+,%d4
    7028:	1818           	moveb %a0@+,%d4
    702a:	1818           	moveb %a0@+,%d4
    702c:	1818           	moveb %a0@+,%d4
    702e:	1818           	moveb %a0@+,%d4
    7030:	1818           	moveb %a0@+,%d4
    7032:	18f8 0000      	moveb 0 <__DYNAMIC>,%a4@+
    7036:	0000 0000      	orib #0,%d0
    703a:	0000 1818      	orib #24,%d0
    703e:	1818           	moveb %a0@+,%d4
    7040:	1818           	moveb %a0@+,%d4
    7042:	18ff           	.short 0x18ff
	...
    7050:	0000 00ff      	orib #-1,%d0
    7054:	1818           	moveb %a0@+,%d4
    7056:	1818           	moveb %a0@+,%d4
    7058:	1818           	moveb %a0@+,%d4
    705a:	1818           	moveb %a0@+,%d4
    705c:	1818           	moveb %a0@+,%d4
    705e:	1818           	moveb %a0@+,%d4
    7060:	1818           	moveb %a0@+,%d4
    7062:	18f8 1818      	moveb 1818 <number+0x144>,%a4@+
    7066:	1818           	moveb %a0@+,%d4
    7068:	1818           	moveb %a0@+,%d4
    706a:	1818           	moveb %a0@+,%d4
    706c:	0000 0000      	orib #0,%d0
    7070:	0000 00ff      	orib #-1,%d0
	...
    707c:	1818           	moveb %a0@+,%d4
    707e:	1818           	moveb %a0@+,%d4
    7080:	1818           	moveb %a0@+,%d4
    7082:	18ff           	.short 0x18ff
    7084:	1818           	moveb %a0@+,%d4
    7086:	1818           	moveb %a0@+,%d4
    7088:	1818           	moveb %a0@+,%d4
    708a:	1818           	moveb %a0@+,%d4
    708c:	1818           	moveb %a0@+,%d4
    708e:	1818           	moveb %a0@+,%d4
    7090:	1818           	moveb %a0@+,%d4
    7092:	181f           	moveb %sp@+,%d4
	...
    70a0:	0000 00f8      	orib #-8,%d0
    70a4:	1818           	moveb %a0@+,%d4
    70a6:	1818           	moveb %a0@+,%d4
    70a8:	1818           	moveb %a0@+,%d4
    70aa:	1818           	moveb %a0@+,%d4
    70ac:	1818           	moveb %a0@+,%d4
    70ae:	1818           	moveb %a0@+,%d4
    70b0:	1818           	moveb %a0@+,%d4
    70b2:	1818           	moveb %a0@+,%d4
    70b4:	1b1b           	moveb %a3@+,%a5@-
    70b6:	1b0e           	.short 0x1b0e
    70b8:	0000 0000      	orib #0,%d0
    70bc:	0000 70d8      	orib #-40,%d0
    70c0:	d818           	addb %a0@+,%d4
    70c2:	1818           	moveb %a0@+,%d4
    70c4:	1818           	moveb %a0@+,%d4
    70c6:	1818           	moveb %a0@+,%d4
    70c8:	1818           	moveb %a0@+,%d4
    70ca:	1818           	moveb %a0@+,%d4
    70cc:	0000 0000      	orib #0,%d0
    70d0:	00fe           	.short 0x00fe
    70d2:	5454           	addqw #2,%a4@
    70d4:	542a 2a2a      	addqb #2,%a2@(10794)
    70d8:	7f00           	.short 0x7f00
    70da:	0000 cc66      	orib #102,%d0
    70de:	3399 cc66      	movew %a1@+,%a1@(00000066,%a4:l:4)
    70e2:	3399 cc66      	movew %a1@+,%a1@(00000066,%a4:l:4)
    70e6:	3399 cc66      	movew %a1@+,%a1@(00000066,%a4:l:4)
    70ea:	3399 0000      	movew %a1@+,%a1@(00000000,%d0:w)
	...
    70f6:	00db           	.short 0x00db
    70f8:	db00           	addxb %d0,%d5
    70fa:	0000 0000      	orib #0,%d0
    70fe:	000c           	.short 0x000c
    7100:	0c00 0c0c      	cmpib #12,%d0
    7104:	0c0c           	.short 0x0c0c
    7106:	0c0c           	.short 0x0c0c
    7108:	0c00 0000      	cmpib #0,%d0
    710c:	0000 000c      	orib #12,%d0
    7110:	0c00 0c0c      	cmpib #12,%d0
    7114:	0e03           	.short 0x0e03
    7116:	6363           	blss 717b <fontTiles+0x2a0f>
    7118:	3e00           	movew %d0,%d7
    711a:	0000 0000      	orib #0,%d0
    711e:	003e           	.short 0x003e
    7120:	415d           	.short 0x415d
    7122:	4545           	.short 0x4545
    7124:	5d41           	subqw #6,%d1
    7126:	3e00           	movew %d0,%d7
    7128:	0000 0000      	orib #0,%d0
    712c:	0000 003e      	orib #62,%d0
    7130:	415d           	.short 0x415d
    7132:	554d           	subqw #2,%a5
    7134:	5541           	subqw #2,%d1
    7136:	3e00           	movew %d0,%d7
    7138:	0000 0000      	orib #0,%d0
    713c:	0000 5772      	orib #114,%d0
    7140:	5200           	addqb #1,%d0
	...
    714e:	0000 7e1b      	orib #27,%d0
    7152:	1b1b           	moveb %a3@+,%a5@-
    7154:	7b1b           	.short 0x7b1b
    7156:	1b1b           	moveb %a3@+,%a5@-
    7158:	7e00           	moveq #0,%d7
	...
    7162:	003e           	.short 0x003e
    7164:	5b5b           	subqw #5,%a3@+
    7166:	7b1b           	.short 0x7b1b
    7168:	7e00           	moveq #0,%d7
	...
    7172:	006e 3333 3333 	oriw #13107,%fp@(13107)
    7178:	6e00 0000      	bgtw 717a <fontTiles+0x2a0e>
    717c:	0000 007f      	orib #127,%d0
    7180:	6363           	blss 71e5 <fontTiles+0x2a79>
    7182:	0303           	btst %d1,%d3
    7184:	0303           	btst %d1,%d3
    7186:	0303           	btst %d1,%d3
    7188:	0300           	btst %d1,%d0
	...
    7192:	007f           	.short 0x007f
    7194:	3636 3636      	movew %fp@(00000036,%d3:w:8),%d3
    7198:	3600           	movew %d0,%d3
    719a:	0000 0000      	orib #0,%d0
    719e:	0000 7f03      	orib #3,%d0
    71a2:	060c           	.short 0x060c
    71a4:	180c           	.short 0x180c
    71a6:	0603 7f00      	addib #0,%d3
	...
    71b2:	007e           	.short 0x007e
    71b4:	1b1b           	moveb %a3@+,%a5@-
    71b6:	1b1b           	moveb %a3@+,%a5@-
    71b8:	0e00           	.short 0x0e00
    71ba:	0000 0000      	orib #0,%d0
    71be:	0000 0066      	orib #102,%d0
    71c2:	6666           	bnes 722a <fontTiles+0x2abe>
    71c4:	6666           	bnes 722c <fontTiles+0x2ac0>
    71c6:	3e06           	movew %d6,%d7
    71c8:	0603 0000      	addib #0,%d3
    71cc:	0000 0000      	orib #0,%d0
    71d0:	006e 3b18 1818 	oriw #15128,%fp@(6168)
    71d6:	1818           	moveb %a0@+,%d4
    71d8:	1800           	moveb %d0,%d4
    71da:	0000 0000      	orib #0,%d0
    71de:	0000 7e18      	orib #24,%d0
    71e2:	3c66           	moveaw %fp@-,%fp
    71e4:	6666           	bnes 724c <fontTiles+0x2ae0>
    71e6:	3c18           	movew %a0@+,%d6
    71e8:	7e00           	moveq #0,%d7
    71ea:	0000 0000      	orib #0,%d0
    71ee:	0000 1c36      	orib #54,%d0
    71f2:	6363           	blss 7257 <fontTiles+0x2aeb>
    71f4:	7f63           	.short 0x7f63
    71f6:	6336           	blss 722e <fontTiles+0x2ac2>
    71f8:	1c00           	moveb %d0,%d6
    71fa:	0000 0000      	orib #0,%d0
    71fe:	001c 3663      	orib #99,%a4@+
    7202:	6363           	blss 7267 <fontTiles+0x2afb>
    7204:	3636 3636      	movew %fp@(00000036,%d3:w:8),%d3
    7208:	7700           	.short 0x7700
    720a:	0000 0000      	orib #0,%d0
    720e:	0078 0c18 307c 	oriw #3096,307c <f_open+0x14e>
    7214:	6666           	bnes 727c <fontTiles+0x2b10>
    7216:	6666           	bnes 727e <fontTiles+0x2b12>
    7218:	3c00           	movew %d0,%d6
	...
    7222:	7edb           	moveq #-37,%d7
    7224:	dbdb           	addal %a3@+,%a5
    7226:	7e00           	moveq #0,%d7
    7228:	0000 0000      	orib #0,%d0
    722c:	0000 0038      	orib #56,%d0
    7230:	0c06 063e      	cmpib #62,%d6
    7234:	0606 060c      	addib #12,%d6
    7238:	3800           	movew %d0,%d4
    723a:	0000 0000      	orib #0,%d0
    723e:	0000 3e63      	orib #99,%d0
    7242:	6363           	blss 72a7 <fontTiles+0x2b3b>
    7244:	6363           	blss 72a9 <fontTiles+0x2b3d>
    7246:	6363           	blss 72ab <fontTiles+0x2b3f>
    7248:	6300 0000      	blsw 724a <fontTiles+0x2ade>
    724c:	0000 0000      	orib #0,%d0
    7250:	007f           	.short 0x007f
    7252:	0000 7f00      	orib #0,%d0
    7256:	007f           	.short 0x007f
	...
    7260:	1818           	moveb %a0@+,%d4
    7262:	7e18           	moveq #24,%d7
    7264:	1800           	moveb %d0,%d4
    7266:	007e           	.short 0x007e
    7268:	0000 0000      	orib #0,%d0
    726c:	0000 000c      	orib #12,%d0
    7270:	1830 6030      	moveb %a0@(00000030,%d6:w),%d4
    7274:	180c           	.short 0x180c
    7276:	007e           	.short 0x007e
    7278:	0000 0000      	orib #0,%d0
    727c:	0000 0030      	orib #48,%d0
    7280:	180c           	.short 0x180c
    7282:	060c           	.short 0x060c
    7284:	1830 007e      	moveb %a0@(0000007e,%d0:w),%d4
	...
    7290:	0000 6e3b      	orib #59,%d0
    7294:	006e 3b00 0000 	oriw #15104,%fp@(0)
    729a:	0000 0000      	orib #0,%d0
    729e:	0000 3c66      	orib #102,%d0
    72a2:	0606 1f06      	addib #6,%d6
    72a6:	0666 3f00      	addiw #16128,%fp@-
    72aa:	0000 0000      	orib #0,%d0
    72ae:	0000 0066      	orib #102,%d0
    72b2:	3c66           	moveaw %fp@-,%fp
    72b4:	663c           	bnes 72f2 <fontTiles+0x2b86>
    72b6:	6600 0000      	bnew 72b8 <fontTiles+0x2b4c>
    72ba:	0000 0000      	orib #0,%d0
    72be:	0000 1818      	orib #24,%d0
    72c2:	3c66           	moveaw %fp@-,%fp
    72c4:	0666 3c18      	addiw #15384,%fp@-
    72c8:	1800           	moveb %d0,%d4
    72ca:	0000 0000      	orib #0,%d0
    72ce:	0000 386c      	orib #108,%d0
    72d2:	061f 060f      	addib #15,%sp@+
    72d6:	066c 3800 0000 	addiw #14336,%a4@(0)
    72dc:	0000 0000      	orib #0,%d0
    72e0:	c366           	andw %d1,%fp@-
    72e2:	3c18           	movew %a0@+,%d6
    72e4:	ff18           	.short 0xff18
    72e6:	ff18           	.short 0xff18
    72e8:	1818           	moveb %a0@+,%d4
	...
    72f2:	0018 1800      	orib #0,%a0@+
	...
    72fe:	3c36 3636      	movew %fp@(00000036,%d3:w:8),%d6
    7302:	7c00           	moveq #0,%d6
    7304:	7e00           	moveq #0,%d7
	...
    730e:	1c36 3636      	moveb %fp@(00000036,%d3:w:8),%d6
    7312:	1c00           	moveb %d0,%d6
    7314:	3e00           	movew %d0,%d7
	...
    731e:	0607 0606      	addib #6,%d7
    7322:	0f00           	btst %d7,%d0
	...
    732c:	0000 0e1b      	orib #27,%d0
    7330:	1b1b           	moveb %a3@+,%a5@-
    7332:	0e00           	.short 0x0e00
	...
    733c:	0003 0343      	orib #67,%d3
    7340:	6333           	blss 7375 <fontTiles+0x2c09>
    7342:	180c           	.short 0x180c
    7344:	067b           	.short 0x067b
    7346:	6178           	bsrs 73c0 <fontTiles+0x2c54>
    7348:	1878           	.short 0x1878
    734a:	0000 0003      	orib #3,%d0
    734e:	0343           	bchg %d1,%d3
    7350:	6333           	blss 7385 <fontTiles+0x2c19>
    7352:	180c           	.short 0x180c
    7354:	666b           	bnes 73c1 <fontTiles+0x2c55>
    7356:	6d7c           	blts 73d4 <fontTiles+0x2c68>
    7358:	6060           	bras 73ba <fontTiles+0x2c4e>
    735a:	0000 000f      	orib #15,%d0
    735e:	0c4f           	.short 0x0c4f
    7360:	6c37           	bges 7399 <fontTiles+0x2c2d>
    7362:	180c           	.short 0x180c
    7364:	666b           	bnes 73d1 <fontTiles+0x2c65>
    7366:	6d7c           	blts 73e4 <fontTiles+0x2c78>
    7368:	6060           	bras 73ca <fontTiles+0x2c5e>
    736a:	0000 060c      	orib #12,%d0
    736e:	1800           	moveb %d0,%d4
    7370:	3e63           	moveaw %a3@-,%sp
    7372:	6363           	blss 73d7 <fontTiles+0x2c6b>
    7374:	7f63           	.short 0x7f63
    7376:	6363           	blss 73db <fontTiles+0x2c6f>
    7378:	6300 0000      	blsw 737a <fontTiles+0x2c0e>
    737c:	3018           	movew %a0@+,%d0
    737e:	0c00 3e63      	cmpib #99,%d0
    7382:	6363           	blss 73e7 <fontTiles+0x2c7b>
    7384:	7f63           	.short 0x7f63
    7386:	6363           	blss 73eb <fontTiles+0x2c7f>
    7388:	6300 0000      	blsw 738a <fontTiles+0x2c1e>
    738c:	081c 3600      	btst #0,%a4@+
    7390:	3e63           	moveaw %a3@-,%sp
    7392:	6363           	blss 73f7 <fontTiles+0x2c8b>
    7394:	7f63           	.short 0x7f63
    7396:	6363           	blss 73fb <fontTiles+0x2c8f>
    7398:	6300 0000      	blsw 739a <fontTiles+0x2c2e>
    739c:	006e 3b00 3e63 	oriw #15104,%fp@(15971)
    73a2:	6363           	blss 7407 <fontTiles+0x2c9b>
    73a4:	7f63           	.short 0x7f63
    73a6:	6363           	blss 740b <fontTiles+0x2c9f>
    73a8:	6300 0000      	blsw 73aa <fontTiles+0x2c3e>
    73ac:	0036 3600 3e63 	orib #0,%fp@(00000063,%d3:l:8)
    73b2:	6363           	blss 7417 <fontTiles+0x2cab>
    73b4:	7f63           	.short 0x7f63
    73b6:	6363           	blss 741b <fontTiles+0x2caf>
    73b8:	6300 0000      	blsw 73ba <fontTiles+0x2c4e>
    73bc:	1c14           	moveb %a4@,%d6
    73be:	1c00           	moveb %d0,%d6
    73c0:	3e63           	moveaw %a3@-,%sp
    73c2:	6363           	blss 7427 <fontTiles+0x2cbb>
    73c4:	7f63           	.short 0x7f63
    73c6:	6363           	blss 742b <fontTiles+0x2cbf>
    73c8:	6300 0000      	blsw 73ca <fontTiles+0x2c5e>
    73cc:	0000 0000      	orib #0,%d0
    73d0:	7e1b           	moveq #27,%d7
    73d2:	1b1b           	moveb %a3@+,%a5@-
    73d4:	7f1b           	.short 0x7f1b
    73d6:	1b1b           	moveb %a3@+,%a5@-
    73d8:	7b00           	.short 0x7b00
    73da:	0000 0000      	orib #0,%d0
    73de:	0000 3e63      	orib #99,%d0
    73e2:	0303           	btst %d1,%d3
    73e4:	0303           	btst %d1,%d3
    73e6:	0363           	bchg %d1,%a3@-
    73e8:	3e18           	movew %a0@+,%d7
    73ea:	301c           	movew %a4@+,%d0
    73ec:	060c           	.short 0x060c
    73ee:	1800           	moveb %d0,%d4
    73f0:	7f03           	.short 0x7f03
    73f2:	0303           	btst %d1,%d3
    73f4:	3f03           	movew %d3,%sp@-
    73f6:	0303           	btst %d1,%d3
    73f8:	7f00           	.short 0x7f00
    73fa:	0000 3018      	orib #24,%d0
    73fe:	0c00 7f03      	cmpib #3,%d0
    7402:	0303           	btst %d1,%d3
    7404:	3f03           	movew %d3,%sp@-
    7406:	0303           	btst %d1,%d3
    7408:	7f00           	.short 0x7f00
    740a:	0000 081c      	orib #28,%d0
    740e:	3600           	movew %d0,%d3
    7410:	7f03           	.short 0x7f03
    7412:	0303           	btst %d1,%d3
    7414:	3f03           	movew %d3,%sp@-
    7416:	0303           	btst %d1,%d3
    7418:	7f00           	.short 0x7f00
    741a:	0000 0036      	orib #54,%d0
    741e:	3600           	movew %d0,%d3
    7420:	7f03           	.short 0x7f03
    7422:	0303           	btst %d1,%d3
    7424:	3f03           	movew %d3,%sp@-
    7426:	0303           	btst %d1,%d3
    7428:	7f00           	.short 0x7f00
    742a:	0000 060c      	orib #12,%d0
    742e:	1800           	moveb %d0,%d4
    7430:	7e18           	moveq #24,%d7
    7432:	1818           	moveb %a0@+,%d4
    7434:	1818           	moveb %a0@+,%d4
    7436:	1818           	moveb %a0@+,%d4
    7438:	7e00           	moveq #0,%d7
    743a:	0000 3018      	orib #24,%d0
    743e:	0c00 7e18      	cmpib #24,%d0
    7442:	1818           	moveb %a0@+,%d4
    7444:	1818           	moveb %a0@+,%d4
    7446:	1818           	moveb %a0@+,%d4
    7448:	7e00           	moveq #0,%d7
    744a:	0000 081c      	orib #28,%d0
    744e:	3600           	movew %d0,%d3
    7450:	7e18           	moveq #24,%d7
    7452:	1818           	moveb %a0@+,%d4
    7454:	1818           	moveb %a0@+,%d4
    7456:	1818           	moveb %a0@+,%d4
    7458:	7e00           	moveq #0,%d7
    745a:	0000 0036      	orib #54,%d0
    745e:	3600           	movew %d0,%d3
    7460:	7e18           	moveq #24,%d7
    7462:	1818           	moveb %a0@+,%d4
    7464:	1818           	moveb %a0@+,%d4
    7466:	1818           	moveb %a0@+,%d4
    7468:	7e00           	moveq #0,%d7
    746a:	0000 0000      	orib #0,%d0
    746e:	0000 1e36      	orib #54,%d0
    7472:	6666           	bnes 74da <fontTiles+0x2d6e>
    7474:	6f66           	bles 74dc <fontTiles+0x2d70>
    7476:	6666           	bnes 74de <fontTiles+0x2d72>
    7478:	3e00           	movew %d0,%d7
    747a:	0000 006e      	orib #110,%d0
    747e:	3b00           	movew %d0,%a5@-
    7480:	6367           	blss 74e9 <fontTiles+0x2d7d>
    7482:	6f7b           	bles 74ff <fontTiles+0x2d93>
    7484:	7363           	.short 0x7363
    7486:	6363           	blss 74eb <fontTiles+0x2d7f>
    7488:	6300 0000      	blsw 748a <fontTiles+0x2d1e>
    748c:	060c           	.short 0x060c
    748e:	1800           	moveb %d0,%d4
    7490:	3e63           	moveaw %a3@-,%sp
    7492:	6363           	blss 74f7 <fontTiles+0x2d8b>
    7494:	6363           	blss 74f9 <fontTiles+0x2d8d>
    7496:	6363           	blss 74fb <fontTiles+0x2d8f>
    7498:	3e00           	movew %d0,%d7
    749a:	0000 3018      	orib #24,%d0
    749e:	0c00 3e63      	cmpib #99,%d0
    74a2:	6363           	blss 7507 <fontTiles+0x2d9b>
    74a4:	6363           	blss 7509 <fontTiles+0x2d9d>
    74a6:	6363           	blss 750b <fontTiles+0x2d9f>
    74a8:	3e00           	movew %d0,%d7
    74aa:	0000 081c      	orib #28,%d0
    74ae:	3600           	movew %d0,%d3
    74b0:	3e63           	moveaw %a3@-,%sp
    74b2:	6363           	blss 7517 <fontTiles+0x2dab>
    74b4:	6363           	blss 7519 <fontTiles+0x2dad>
    74b6:	6363           	blss 751b <fontTiles+0x2daf>
    74b8:	3e00           	movew %d0,%d7
    74ba:	0000 006e      	orib #110,%d0
    74be:	3b00           	movew %d0,%a5@-
    74c0:	3e63           	moveaw %a3@-,%sp
    74c2:	6363           	blss 7527 <fontTiles+0x2dbb>
    74c4:	6363           	blss 7529 <fontTiles+0x2dbd>
    74c6:	6363           	blss 752b <fontTiles+0x2dbf>
    74c8:	3e00           	movew %d0,%d7
    74ca:	0000 0036      	orib #54,%d0
    74ce:	3600           	movew %d0,%d3
    74d0:	3e63           	moveaw %a3@-,%sp
    74d2:	6363           	blss 7537 <fontTiles+0x2dcb>
    74d4:	6363           	blss 7539 <fontTiles+0x2dcd>
    74d6:	6363           	blss 753b <fontTiles+0x2dcf>
    74d8:	3e00           	movew %d0,%d7
    74da:	0000 0000      	orib #0,%d0
    74de:	0000 0041      	orib #65,%d0
    74e2:	2214           	movel %a4@,%d1
    74e4:	0814 2241      	btst #65,%a4@
    74e8:	0000 0000      	orib #0,%d0
    74ec:	0000 0020      	orib #32,%d0
    74f0:	3e73 736b 6b67 	moveaw %a3@(00006b67)@(67673e02),%sp
    74f6:	6767 3e02 
    74fa:	0000 0306      	orib #6,%d0
    74fe:	0c00 6363      	cmpib #99,%d0
    7502:	6363           	blss 7567 <fontTiles+0x2dfb>
    7504:	6363           	blss 7569 <fontTiles+0x2dfd>
    7506:	6363           	blss 756b <fontTiles+0x2dff>
    7508:	3e00           	movew %d0,%d7
    750a:	0000 180c      	orib #12,%d0
    750e:	0600 6363      	addib #99,%d0
    7512:	6363           	blss 7577 <fontTiles+0x2e0b>
    7514:	6363           	blss 7579 <fontTiles+0x2e0d>
    7516:	6363           	blss 757b <fontTiles+0x2e0f>
    7518:	3e00           	movew %d0,%d7
    751a:	0000 081c      	orib #28,%d0
    751e:	3600           	movew %d0,%d3
    7520:	6363           	blss 7585 <fontTiles+0x2e19>
    7522:	6363           	blss 7587 <fontTiles+0x2e1b>
    7524:	6363           	blss 7589 <fontTiles+0x2e1d>
    7526:	6363           	blss 758b <fontTiles+0x2e1f>
    7528:	3e00           	movew %d0,%d7
    752a:	0000 0036      	orib #54,%d0
    752e:	3600           	movew %d0,%d3
    7530:	6363           	blss 7595 <fontTiles+0x2e29>
    7532:	6363           	blss 7597 <fontTiles+0x2e2b>
    7534:	6363           	blss 7599 <fontTiles+0x2e2d>
    7536:	6363           	blss 759b <fontTiles+0x2e2f>
    7538:	3e00           	movew %d0,%d7
    753a:	0000 3018      	orib #24,%d0
    753e:	0c00 6363      	cmpib #99,%d0
    7542:	6363           	blss 75a7 <fontTiles+0x2e3b>
    7544:	667c           	bnes 75c2 <fontTiles+0x2e56>
    7546:	6060           	bras 75a8 <fontTiles+0x2e3c>
    7548:	3f00           	movew %d0,%sp@-
    754a:	0000 0000      	orib #0,%d0
    754e:	0000 0303      	orib #3,%d0
    7552:	1f33 3333 1f03 	moveb %a3@(1f030300,%d3:w:2)@(00000000),%sp@-
    7558:	0300 0000 0000 
    755e:	0000 1e33      	orib #51,%d0
    7562:	3313           	movew %a3@,%a1@-
    7564:	3b63 6363      	movew %a3@-,%a5@(25443)
    7568:	3b00           	movew %d0,%a5@-
    756a:	0000 0000      	orib #0,%d0
    756e:	0006 0c18      	orib #24,%d6
    7572:	007c 6663      	oriw #26211,%sr
    7576:	6373           	blss 75eb <fontTiles+0x2e7f>
    7578:	6e00 0000      	bgtw 757a <fontTiles+0x2e0e>
    757c:	0000 0030      	orib #48,%d0
    7580:	180c           	.short 0x180c
    7582:	007c 6663      	oriw #26211,%sr
    7586:	6373           	blss 75fb <fontTiles+0x2e8f>
    7588:	6e00 0000      	bgtw 758a <fontTiles+0x2e1e>
    758c:	0000 0010      	orib #16,%d0
    7590:	386c 007c      	moveaw %a4@(124),%a4
    7594:	6663           	bnes 75f9 <fontTiles+0x2e8d>
    7596:	6373           	blss 760b <fontTiles+0x2e9f>
    7598:	6e00 0000      	bgtw 759a <fontTiles+0x2e2e>
    759c:	0000 0000      	orib #0,%d0
    75a0:	6e3b           	bgts 75dd <fontTiles+0x2e71>
    75a2:	007c 6663      	oriw #26211,%sr
    75a6:	6373           	blss 761b <fontTiles+0x2eaf>
    75a8:	6e00 0000      	bgtw 75aa <fontTiles+0x2e3e>
    75ac:	0000 0000      	orib #0,%d0
    75b0:	6c6c           	bges 761e <fontTiles+0x2eb2>
    75b2:	007c 6663      	oriw #26211,%sr
    75b6:	6373           	blss 762b <fontTiles+0x2ebf>
    75b8:	6e00 0000      	bgtw 75ba <fontTiles+0x2e4e>
    75bc:	0000 0038      	orib #56,%d0
    75c0:	2838 007c      	movel 7c <_sdata+0x50>,%d4
    75c4:	6663           	bnes 7629 <fontTiles+0x2ebd>
    75c6:	6373           	blss 763b <fontTiles+0x2ecf>
    75c8:	6e00 0000      	bgtw 75ca <fontTiles+0x2e5e>
    75cc:	0000 0000      	orib #0,%d0
    75d0:	0000 003c      	orib #60,%d0
    75d4:	5a7b           	.short 0x5a7b
    75d6:	1b5b 3e00      	moveb %a3@+,%a5@(15872)
	...
    75e2:	003e           	.short 0x003e
    75e4:	0303           	btst %d1,%d3
    75e6:	0363           	bchg %d1,%a3@-
    75e8:	3e18           	movew %a0@+,%d7
    75ea:	301c           	movew %a4@+,%d0
    75ec:	0000 0006      	orib #6,%d0
    75f0:	0c18 003e      	cmpib #62,%a0@+
    75f4:	637f           	blss 7675 <fontTiles+0x2f09>
    75f6:	0303           	btst %d1,%d3
    75f8:	7e00           	moveq #0,%d7
    75fa:	0000 0000      	orib #0,%d0
    75fe:	0030 180c 003e 	orib #12,%a0@(0000003e,%d0:w)
    7604:	637f           	blss 7685 <fontTiles+0x2f19>
    7606:	0303           	btst %d1,%d3
    7608:	7e00           	moveq #0,%d7
    760a:	0000 0000      	orib #0,%d0
    760e:	0008           	.short 0x0008
    7610:	1c36 003e      	moveb %fp@(0000003e,%d0:w),%d6
    7614:	637f           	blss 7695 <fontTiles+0x2f29>
    7616:	0303           	btst %d1,%d3
    7618:	7e00           	moveq #0,%d7
    761a:	0000 0000      	orib #0,%d0
    761e:	0000 3636      	orib #54,%d0
    7622:	003e           	.short 0x003e
    7624:	637f           	blss 76a5 <fontTiles+0x2f39>
    7626:	0303           	btst %d1,%d3
    7628:	7e00           	moveq #0,%d7
    762a:	0000 0000      	orib #0,%d0
    762e:	0006 0c18      	orib #24,%d6
    7632:	0018 1818      	orib #24,%a0@+
    7636:	1818           	moveb %a0@+,%d4
    7638:	1800           	moveb %d0,%d4
    763a:	0000 0000      	orib #0,%d0
    763e:	0060 3018      	oriw #12312,%a0@-
    7642:	0018 1818      	orib #24,%a0@+
    7646:	1818           	moveb %a0@+,%d4
    7648:	1800           	moveb %d0,%d4
    764a:	0000 0000      	orib #0,%d0
    764e:	0010 386c      	orib #108,%a0@
    7652:	0018 1818      	orib #24,%a0@+
    7656:	1818           	moveb %a0@+,%d4
    7658:	1800           	moveb %d0,%d4
    765a:	0000 0000      	orib #0,%d0
    765e:	0000 3636      	orib #54,%d0
    7662:	0018 1818      	orib #24,%a0@+
    7666:	1818           	moveb %a0@+,%d4
    7668:	1800           	moveb %d0,%d4
    766a:	0000 0000      	orib #0,%d0
    766e:	0016 0c1a      	orib #26,%fp@
    7672:	303c 6663      	movew #26211,%d0
    7676:	6363           	blss 76db <fontTiles+0x2f6f>
    7678:	3e00           	movew %d0,%d7
    767a:	0000 0000      	orib #0,%d0
    767e:	0000 6e3b      	orib #59,%d0
    7682:	001f 3333      	orib #51,%sp@+
    7686:	3333 3300      	movew %a3@(00000000,%d3:w:2),%a1@-
    768a:	0000 0000      	orib #0,%d0
    768e:	0006 0c18      	orib #24,%d6
    7692:	003e           	.short 0x003e
    7694:	6363           	blss 76f9 <fontTiles+0x2f8d>
    7696:	6363           	blss 76fb <fontTiles+0x2f8f>
    7698:	3e00           	movew %d0,%d7
    769a:	0000 0000      	orib #0,%d0
    769e:	0030 180c 003e 	orib #12,%a0@(0000003e,%d0:w)
    76a4:	6363           	blss 7709 <fontTiles+0x2f9d>
    76a6:	6363           	blss 770b <fontTiles+0x2f9f>
    76a8:	3e00           	movew %d0,%d7
    76aa:	0000 0000      	orib #0,%d0
    76ae:	0008           	.short 0x0008
    76b0:	1c36 003e      	moveb %fp@(0000003e,%d0:w),%d6
    76b4:	6363           	blss 7719 <fontTiles+0x2fad>
    76b6:	6363           	blss 771b <fontTiles+0x2faf>
    76b8:	3e00           	movew %d0,%d7
    76ba:	0000 0000      	orib #0,%d0
    76be:	0000 6e3b      	orib #59,%d0
    76c2:	003e           	.short 0x003e
    76c4:	6363           	blss 7729 <fontTiles+0x2fbd>
    76c6:	6363           	blss 772b <fontTiles+0x2fbf>
    76c8:	3e00           	movew %d0,%d7
    76ca:	0000 0000      	orib #0,%d0
    76ce:	0000 3636      	orib #54,%d0
    76d2:	003e           	.short 0x003e
    76d4:	6363           	blss 7739 <fontTiles+0x2fcd>
    76d6:	6363           	blss 773b <fontTiles+0x2fcf>
    76d8:	3e00           	movew %d0,%d7
    76da:	0000 0000      	orib #0,%d0
    76de:	0000 000c      	orib #12,%d0
    76e2:	0c00 3f00      	cmpib #0,%d0
    76e6:	0c0c           	.short 0x0c0c
	...
    76f0:	0000 203e      	orib #62,%d0
    76f4:	736b           	.short 0x736b
    76f6:	6b67           	bmis 775f <fontTiles+0x2ff3>
    76f8:	3e02           	movew %d2,%d7
    76fa:	0000 0000      	orib #0,%d0
    76fe:	0003 060c      	orib #12,%d3
    7702:	0063 6363      	oriw #25443,%a3@-
    7706:	6363           	blss 776b <fontTiles+0x2fff>
    7708:	7e00           	moveq #0,%d7
    770a:	0000 0000      	orib #0,%d0
    770e:	0018 0c06      	orib #6,%a0@+
    7712:	0063 6363      	oriw #25443,%a3@-
    7716:	6363           	blss 777b <chelsieTiles+0xf>
    7718:	7e00           	moveq #0,%d7
    771a:	0000 0000      	orib #0,%d0
    771e:	0008           	.short 0x0008
    7720:	1c36 0063      	moveb %fp@(00000063,%d0:w),%d6
    7724:	6363           	blss 7789 <chelsieTiles+0x1d>
    7726:	6363           	blss 778b <chelsieTiles+0x1f>
    7728:	7e00           	moveq #0,%d7
    772a:	0000 0000      	orib #0,%d0
    772e:	0000 3636      	orib #54,%d0
    7732:	0063 6363      	oriw #25443,%a3@-
    7736:	6363           	blss 779b <chelsieTiles+0x2f>
    7738:	7e00           	moveq #0,%d7
    773a:	0000 0000      	orib #0,%d0
    773e:	0030 180c 0063 	orib #12,%a0@(00000063,%d0:w)
    7744:	6363           	blss 77a9 <chelsieTiles+0x3d>
    7746:	6366           	blss 77ae <chelsieTiles+0x42>
    7748:	7c60           	moveq #96,%d6
    774a:	3f00           	movew %d0,%sp@-
    774c:	0000 0000      	orib #0,%d0
    7750:	0303           	btst %d1,%d3
    7752:	031f           	btst %d1,%sp@+
    7754:	3333 331b 0f03 	movew %a3@(00000000,%d3:w:2)@(0f030300),%a1@-
    775a:	0300 
    775c:	0000 0000      	orib #0,%d0
    7760:	3636 0063      	movew %fp@(00000063,%d0:w),%d3
    7764:	6363           	blss 77c9 <chelsieTiles+0x5d>
    7766:	6366           	blss 77ce <chelsieTiles+0x62>
    7768:	7c60           	moveq #96,%d6
    776a:	3f00           	movew %d0,%sp@-

0000776c <chelsieTiles>:
	...
    7790:	6600 0000      	bnew 7792 <chelsieTiles+0x26>
    7794:	e606           	asrb #3,%d6
    7796:	4444           	negw %d4
    7798:	664e           	bnes 77e8 <chelsieTiles+0x7c>
    779a:	c4cc           	.short 0xc4cc
    779c:	e646           	asrw #3,%d6
    779e:	cc8c           	.short 0xcc8c
    77a0:	6084           	bras 7726 <fontTiles+0x2fba>
    77a2:	c48c           	.short 0xc48c
    77a4:	8084           	orl %d4,%d0
    77a6:	c4e4           	muluw %a4@-,%d2
    77a8:	4884           	extw %d4
    77aa:	c4e4           	muluw %a4@-,%d2
    77ac:	0000 0000      	orib #0,%d0
    77b0:	6006           	bras 77b8 <chelsieTiles+0x4c>
    77b2:	0000 e406      	orib #6,%d0
    77b6:	0000 4c04      	orib #4,%d0
    77ba:	0000 cc4c      	orib #76,%d0
    77be:	0000 cccc      	orib #-52,%d0
    77c2:	0400 c8cc      	subib #-52,%d0
    77c6:	0400 4ec4      	subib #-60,%d0
    77ca:	0400 0000      	subib #0,%d0
	...
    780a:	0000 4884      	orib #-124,%d0
    780e:	44ee 4844      	movew %fp@(18500),%ccr
    7812:	e88e           	lsrl #4,%d6
    7814:	4844           	swap %d4
    7816:	e8ee           	.short 0xe8ee
    7818:	4844           	swap %d4
    781a:	e8ee           	.short 0xe8ee
    781c:	8044           	orw %d4,%d0
    781e:	84ee 0088      	divuw %fp@(136),%d2
    7822:	d5ee 0050      	addal %fp@(80),%a2
    7826:	dded 0050      	addal %a5@(80),%fp
    782a:	ddd5           	addal %a5@,%fp
    782c:	ee46           	asrw #7,%d6
    782e:	0400 ee08      	subib #8,%d0
    7832:	0000 ee06      	orib #6,%d0
    7836:	0000 ee06      	orib #6,%d0
    783a:	0000 6e00      	orib #0,%d0
    783e:	0000 6600      	orib #0,%d0
    7842:	0000 5e00      	orib #0,%d0
    7846:	0000 dd05      	orib #5,%d0
	...
    7882:	0000 0066      	orib #102,%d0
    7886:	0000 60ee      	orib #-18,%d0
    788a:	0600 0050      	addib #80,%d0
    788e:	5dd5           	slt %a5@
    7890:	0050 e5d6      	oriw #-6698,%a0@
    7894:	0060 ee6e      	oriw #-4498,%a0@-
    7898:	0000 e66e      	orib #110,%d0
    789c:	0060 e66e      	oriw #-6546,%a0@-
    78a0:	0066 6eee      	oriw #28398,%fp@-
    78a4:	6016           	bras 78bc <chelsieTiles+0x150>
    78a6:	61ee           	bsrs 7896 <chelsieTiles+0x12a>
    78a8:	6616           	bnes 78c0 <chelsieTiles+0x154>
    78aa:	99e6           	subal %fp@-,%a4
    78ac:	dd5d           	addw %d6,%a5@+
    78ae:	0000 dd5d      	orib #93,%d0
    78b2:	0000 dd5d      	orib #93,%d0
    78b6:	0000 7f00      	orib #0,%d0
    78ba:	0000 f607      	orib #7,%d0
    78be:	0000 6e07      	orib #7,%d0
    78c2:	0000 6e01      	orib #1,%d0
    78c6:	0000 6e11      	orib #17,%d0
	...
    78ea:	0000 0066      	orib #102,%d0
    78ee:	6e66           	bgts 7956 <chelsieTiles+0x1ea>
    78f0:	0000 e6ee      	orib #-18,%d0
    78f4:	0000 6066      	orib #102,%d0
	...
    790c:	6e00 9119      	bgtw a27 <DisplayPicture+0xc9>
    7910:	0610 9919      	addib #25,%a0@
    7914:	0010 9919      	orib #25,%a0@
    7918:	0091 9919 0016 	oril #-1726414826,%a1@
    791e:	9961           	subw %d4,%a1@-
    7920:	00e6           	.short 0x00e6
    7922:	1101           	moveb %d1,%a0@-
    7924:	00e0           	.short 0x00e0
    7926:	6e06           	bgts 792e <chelsieTiles+0x1c2>
    7928:	0000 ee06      	orib #6,%d0
    792c:	9999           	subl %d4,%a1@+
    792e:	0100           	btst %d0,%d0
    7930:	9199           	subl %d0,%a1@+
    7932:	0100           	btst %d0,%d0
    7934:	9199           	subl %d0,%a1@+
    7936:	0100           	btst %d0,%d0
    7938:	9119           	subb %d0,%a1@+
    793a:	0000 1e01      	orib #1,%d0
    793e:	0000 ee66      	orib #102,%d0
    7942:	0000 e06e      	orib #110,%d0
	...
    7992:	0000 6600      	orib #0,%d0
    7996:	0000 e606      	orib #6,%d0
    799a:	4444           	negw %d4
    799c:	664e           	bnes 79ec <chelsieTiles+0x280>
    799e:	c4cc           	.short 0xc4cc
    79a0:	e646           	asrw #3,%d6
    79a2:	cc8c           	.short 0xcc8c
    79a4:	6084           	bras 792a <chelsieTiles+0x1be>
    79a6:	c48c           	.short 0xc48c
    79a8:	8084           	orl %d4,%d0
    79aa:	c4e4           	muluw %a4@-,%d2
	...
    79b4:	6006           	bras 79bc <chelsieTiles+0x250>
    79b6:	0000 e406      	orib #6,%d0
    79ba:	0000 4c04      	orib #4,%d0
    79be:	0000 cc4c      	orib #76,%d0
    79c2:	0000 cccc      	orib #-52,%d0
    79c6:	0400 c8cc      	subib #-52,%d0
    79ca:	0400 0000      	subib #0,%d0
	...
    7a0a:	0000 4884      	orib #-124,%d0
    7a0e:	c4e4           	muluw %a4@-,%d2
    7a10:	4884           	extw %d4
    7a12:	44ee 4844      	movew %fp@(18500),%ccr
    7a16:	e88e           	lsrl #4,%d6
    7a18:	4844           	swap %d4
    7a1a:	e8ee           	.short 0xe8ee
    7a1c:	4844           	swap %d4
    7a1e:	e8ee           	.short 0xe8ee
    7a20:	8044           	orw %d4,%d0
    7a22:	84ee 0088      	divuw %fp@(136),%d2
    7a26:	56ee 0000      	sne %fp@(0)
    7a2a:	d5ed 4ec4      	addal %a5@(20164),%a2
    7a2e:	0400 ee46      	subib #70,%d0
    7a32:	0400 ee08      	subib #8,%d0
    7a36:	0000 ee06      	orib #6,%d0
    7a3a:	0000 ee06      	orib #6,%d0
    7a3e:	0000 6e00      	orib #0,%d0
    7a42:	0000 6600      	orib #0,%d0
    7a46:	0000 5e00      	orib #0,%d0
	...
    7a82:	0000 0066      	orib #102,%d0
    7a86:	0000 60ee      	orib #-18,%d0
    7a8a:	0600 0000      	addib #0,%d0
    7a8e:	d55d           	addw %d2,%a5@+
    7a90:	0000 d55d      	orib #93,%d0
    7a94:	0000 55e5      	orib #-27,%d0
    7a98:	0000 65ee      	orib #-18,%d0
    7a9c:	0000 e6e6      	orib #-26,%d0
    7aa0:	0060 e66f      	oriw #-6545,%a0@-
    7aa4:	0016 1111      	orib #17,%fp@
    7aa8:	6616           	bnes 7ac0 <chelsieTiles+0x354>
    7aaa:	9999           	subl %d4,%a1@+
    7aac:	dd05           	addxb %d5,%d6
    7aae:	0000 d65d      	orib #93,%d0
    7ab2:	0000 d65d      	orib #93,%d0
    7ab6:	0000 6e5d      	orib #93,%d0
    7aba:	0000 ee66      	orib #102,%d0
    7abe:	0000 eeee      	orib #-18,%d0
    7ac2:	0600 e6ee      	addib #-18,%d0
    7ac6:	0600 6166      	addib #102,%d0
	...
    7aea:	0000 0066      	orib #102,%d0
    7aee:	6e66           	bgts 7b56 <chelsieTiles+0x3ea>
    7af0:	0000 e6ee      	orib #-18,%d0
    7af4:	0000 6066      	orib #102,%d0
	...
    7b0c:	6e16           	bgts 7b24 <chelsieTiles+0x3b8>
    7b0e:	9999           	subl %d4,%a1@+
    7b10:	6600 9199      	bnew cab <DrawChar4_320+0xa1>
    7b14:	0010 9199      	orib #-103,%a0@
    7b18:	0016 9999      	orib #-103,%fp@
    7b1c:	60ee           	bras 7b0c <chelsieTiles+0x3a0>
    7b1e:	9119           	subb %d0,%a1@+
    7b20:	e0ee 1101      	asrw %fp@(4353)
    7b24:	e06e           	lsrw %d0,%d6
    7b26:	0600 00ee      	addib #-18,%d0
    7b2a:	0600 9101      	addib #1,%d0
    7b2e:	0000 9119      	orib #25,%d0
    7b32:	0000 9199      	orib #-103,%d0
    7b36:	0100           	btst %d0,%d0
    7b38:	9199           	subl %d0,%a1@+
    7b3a:	0100           	btst %d0,%d0
    7b3c:	9119           	subb %d0,%a1@+
    7b3e:	6606           	bnes 7b46 <chelsieTiles+0x3da>
    7b40:	91e1           	subal %a1@-,%a0
    7b42:	ee06           	asrb #7,%d6
    7b44:	10e6           	moveb %fp@-,%a0@+
    7b46:	ee00           	asrb #7,%d0
    7b48:	0060 0e00      	oriw #3584,%a0@-
	...
    7b90:	6600 0000      	bnew 7b92 <chelsieTiles+0x426>
    7b94:	e606           	asrb #3,%d6
    7b96:	4444           	negw %d4
    7b98:	664e           	bnes 7be8 <chelsieTiles+0x47c>
    7b9a:	c4cc           	.short 0xc4cc
    7b9c:	e646           	asrw #3,%d6
    7b9e:	cc8c           	.short 0xcc8c
    7ba0:	6084           	bras 7b26 <chelsieTiles+0x3ba>
    7ba2:	c48c           	.short 0xc48c
    7ba4:	8084           	orl %d4,%d0
    7ba6:	c4e4           	muluw %a4@-,%d2
    7ba8:	4884           	extw %d4
    7baa:	c4e4           	muluw %a4@-,%d2
    7bac:	0000 0000      	orib #0,%d0
    7bb0:	6006           	bras 7bb8 <chelsieTiles+0x44c>
    7bb2:	0000 e406      	orib #6,%d0
    7bb6:	0000 4c04      	orib #4,%d0
    7bba:	0000 cc4c      	orib #76,%d0
    7bbe:	0000 cccc      	orib #-52,%d0
    7bc2:	0400 c8cc      	subib #-52,%d0
    7bc6:	0400 4ec4      	subib #-60,%d0
    7bca:	0400 0000      	subib #0,%d0
	...
    7c0a:	0000 4884      	orib #-124,%d0
    7c0e:	44ee 4844      	movew %fp@(18500),%ccr
    7c12:	e88e           	lsrl #4,%d6
    7c14:	4844           	swap %d4
    7c16:	e8ee           	.short 0xe8ee
    7c18:	4844           	swap %d4
    7c1a:	e8ee           	.short 0xe8ee
    7c1c:	8044           	orw %d4,%d0
    7c1e:	84ee 0088      	divuw %fp@(136),%d2
    7c22:	d5ee 0050      	addal %fp@(80),%a2
    7c26:	dded 0050      	addal %a5@(80),%fp
    7c2a:	ddd5           	addal %a5@,%fp
    7c2c:	ee46           	asrw #7,%d6
    7c2e:	0400 ee08      	subib #8,%d0
    7c32:	0000 ee06      	orib #6,%d0
    7c36:	0000 ee06      	orib #6,%d0
    7c3a:	0000 6e00      	orib #0,%d0
    7c3e:	0000 6600      	orib #0,%d0
    7c42:	0000 5e00      	orib #0,%d0
    7c46:	0000 dd05      	orib #5,%d0
	...
    7c7e:	0000 0066      	orib #102,%d0
    7c82:	0600 60ee      	addib #-18,%d0
    7c86:	6e66           	bgts 7cee <chelsieTiles+0x582>
    7c88:	0066 e6ee      	oriw #-6418,%fp@-
    7c8c:	0050 5dd5      	oriw #24021,%a0@
    7c90:	0050 e5d6      	oriw #-6698,%a0@
    7c94:	0060 ee6e      	oriw #-4498,%a0@-
    7c98:	0000 e66e      	orib #110,%d0
    7c9c:	0066 e66e      	oriw #-6546,%fp@-
    7ca0:	6616           	bnes 7cb8 <chelsieTiles+0x54c>
    7ca2:	61ee           	bsrs 7c92 <chelsieTiles+0x526>
    7ca4:	6e16           	bgts 7cbc <chelsieTiles+0x550>
    7ca6:	69ee           	bvss 7c96 <chelsieTiles+0x52a>
    7ca8:	6610           	bnes 7cba <chelsieTiles+0x54e>
    7caa:	99e6           	subal %fp@-,%a4
    7cac:	dd5d           	addw %d6,%a5@+
    7cae:	0000 dd5d      	orib #93,%d0
    7cb2:	0000 dd5d      	orib #93,%d0
    7cb6:	0000 ff07      	orib #7,%d0
    7cba:	0000 f607      	orib #7,%d0
    7cbe:	0000 6e07      	orib #7,%d0
    7cc2:	0000 6e01      	orib #1,%d0
    7cc6:	0000 6e01      	orib #1,%d0
	...
    7cee:	6066           	bras 7d56 <chelsieTiles+0x5ea>
	...
    7d0c:	0000 9169      	orib #105,%d0
    7d10:	0066 9199      	oriw #-28263,%fp@-
    7d14:	00ee           	.short 0x00ee
    7d16:	9199           	subl %d0,%a1@+
    7d18:	e01e           	rorb #8,%d6
    7d1a:	9919           	subb %d4,%a1@+
    7d1c:	e016           	roxrb #8,%d6
    7d1e:	9911           	subb %d4,%a1@
    7d20:	6016           	bras 7d38 <chelsieTiles+0x5cc>
    7d22:	1110           	moveb %a0@,%a0@-
    7d24:	0000 0010      	orib #16,%d0
    7d28:	0000 0000      	orib #0,%d0
    7d2c:	9601           	subb %d1,%d3
    7d2e:	0000 9101      	orib #1,%d0
    7d32:	0000 9119      	orib #25,%d0
    7d36:	0000 9919      	orib #25,%d0
    7d3a:	0000 9919      	orib #25,%d0
    7d3e:	0000 9911      	orib #17,%d0
    7d42:	0000 116e      	orib #110,%d0
    7d46:	0600 e6ee      	addib #-18,%d0
    7d4a:	0600 0000      	addib #0,%d0
	...
    7d8a:	0000 6600      	orib #0,%d0
    7d8e:	0000 e606      	orib #6,%d0
    7d92:	4444           	negw %d4
    7d94:	664e           	bnes 7de4 <chelsieTiles+0x678>
    7d96:	c4cc           	.short 0xc4cc
    7d98:	e646           	asrw #3,%d6
    7d9a:	cc8c           	.short 0xcc8c
    7d9c:	6084           	bras 7d22 <chelsieTiles+0x5b6>
    7d9e:	c48c           	.short 0xc48c
    7da0:	8084           	orl %d4,%d0
    7da2:	c4e4           	muluw %a4@-,%d2
    7da4:	4884           	extw %d4
    7da6:	c4e4           	muluw %a4@-,%d2
    7da8:	4884           	extw %d4
    7daa:	44ee 6006      	movew %fp@(24582),%ccr
    7dae:	0000 e406      	orib #6,%d0
    7db2:	0000 4c04      	orib #4,%d0
    7db6:	0000 cc4c      	orib #76,%d0
    7dba:	0000 cccc      	orib #-52,%d0
    7dbe:	0400 c8cc      	subib #-52,%d0
    7dc2:	0400 4ec4      	subib #-60,%d0
    7dc6:	0400 ee46      	subib #70,%d0
    7dca:	0400 0000      	subib #0,%d0
	...
    7e0a:	0000 4844      	orib #68,%d0
    7e0e:	e88e           	lsrl #4,%d6
    7e10:	4844           	swap %d4
    7e12:	e8ee           	.short 0xe8ee
    7e14:	4844           	swap %d4
    7e16:	e8ee           	.short 0xe8ee
    7e18:	8044           	orw %d4,%d0
    7e1a:	84ee 0088      	divuw %fp@(136),%d2
    7e1e:	e5ee 0050      	roxlw %fp@(80)
    7e22:	ddee 0050      	addal %fp@(80),%fp
    7e26:	ddd5           	addal %a5@,%fp
    7e28:	0050 ddd5      	oriw #-8747,%a0@
    7e2c:	ee08           	lsrb #7,%d0
    7e2e:	0000 ee06      	orib #6,%d0
    7e32:	0000 ee06      	orib #6,%d0
    7e36:	0000 6e00      	orib #0,%d0
    7e3a:	0000 6600      	orib #0,%d0
    7e3e:	0000 5e00      	orib #0,%d0
    7e42:	0000 dd05      	orib #5,%d0
    7e46:	0000 dd5d      	orib #93,%d0
	...
    7e82:	6066           	bras 7eea <chelsieTiles+0x77e>
    7e84:	0066 e6ee      	oriw #-6418,%fp@-
    7e88:	60ee           	bras 7e78 <chelsieTiles+0x70c>
    7e8a:	6e66           	bgts 7ef2 <chelsieTiles+0x786>
    7e8c:	0050 55d5      	oriw #21973,%a0@
    7e90:	0060 eed6      	oriw #-4394,%a0@-
    7e94:	0060 eef6      	oriw #-4362,%a0@-
    7e98:	0060 eef6      	oriw #-4362,%a0@-
    7e9c:	6666           	bnes 7f04 <chelsieTiles+0x798>
    7e9e:	eef6           	.short 0xeef6
    7ea0:	6e66           	bgts 7f08 <chelsieTiles+0x79c>
    7ea2:	ee6e           	lsrw %d7,%d6
    7ea4:	6666           	bnes 7f0c <chelsieTiles+0x7a0>
    7ea6:	ee6e           	lsrw %d7,%d6
    7ea8:	0060 ee96      	oriw #-4458,%a0@-
    7eac:	dd5d           	addw %d6,%a5@+
    7eae:	0000 dd5d      	orib #93,%d0
    7eb2:	0000 ff07      	orib #7,%d0
    7eb6:	0000 f707      	orib #7,%d0
    7eba:	0000 ff07      	orib #7,%d0
    7ebe:	0000 1101      	orib #1,%d0
    7ec2:	0000 9101      	orib #1,%d0
    7ec6:	0000 9101      	orib #1,%d0
	...
    7eea:	0000 0066      	orib #102,%d0
    7eee:	0600 0000      	addib #0,%d0
	...
    7f0e:	6619           	bnes 7f29 <chelsieTiles+0x7bd>
    7f10:	0060 8699      	oriw #-31079,%a0@-
    7f14:	00e0           	.short 0x00e0
    7f16:	1e99           	moveb %a1@+,%sp@
    7f18:	00ee           	.short 0x00ee
    7f1a:	9199           	subl %d0,%a1@+
    7f1c:	006e 9119 0066 	oriw #-28391,%fp@(102)
    7f22:	1191 0000      	moveb %a1@,%a0@(00000000,%d0:w)
    7f26:	0011 0000      	orib #0,%a1@
    7f2a:	0060 9101      	oriw #-28415,%a0@-
    7f2e:	0000 9101      	orib #1,%d0
    7f32:	0000 9101      	orib #1,%d0
    7f36:	0000 9101      	orib #1,%d0
    7f3a:	0000 9901      	orib #1,%d0
    7f3e:	0000 1901      	orib #1,%d0
    7f42:	0000 e166      	orib #102,%d0
    7f46:	0000 ee6e      	orib #110,%d0
	...
    7f8e:	0000 6600      	orib #0,%d0
    7f92:	0000 e606      	orib #6,%d0
    7f96:	4444           	negw %d4
    7f98:	664e           	bnes 7fe8 <chelsieTiles+0x87c>
    7f9a:	c4cc           	.short 0xc4cc
    7f9c:	e646           	asrw #3,%d6
    7f9e:	cc8c           	.short 0xcc8c
    7fa0:	6084           	bras 7f26 <chelsieTiles+0x7ba>
    7fa2:	c48c           	.short 0xc48c
    7fa4:	8084           	orl %d4,%d0
    7fa6:	c4e4           	muluw %a4@-,%d2
    7fa8:	4884           	extw %d4
    7faa:	c4e4           	muluw %a4@-,%d2
    7fac:	0000 0000      	orib #0,%d0
    7fb0:	6006           	bras 7fb8 <chelsieTiles+0x84c>
    7fb2:	0000 e406      	orib #6,%d0
    7fb6:	0000 4c04      	orib #4,%d0
    7fba:	0000 cc4c      	orib #76,%d0
    7fbe:	0000 cccc      	orib #-52,%d0
    7fc2:	0400 c8cc      	subib #-52,%d0
    7fc6:	0400 4ec4      	subib #-60,%d0
    7fca:	0400 0000      	subib #0,%d0
	...
    800a:	0000 4884      	orib #-124,%d0
    800e:	44ee 4844      	movew %fp@(18500),%ccr
    8012:	e88e           	lsrl #4,%d6
    8014:	4844           	swap %d4
    8016:	e8ee           	.short 0xe8ee
    8018:	4844           	swap %d4
    801a:	e8ee           	.short 0xe8ee
    801c:	8044           	orw %d4,%d0
    801e:	84ee 0088      	divuw %fp@(136),%d2
    8022:	e5ee 0050      	roxlw %fp@(80)
    8026:	ddee 00d5      	addal %fp@(213),%fp
    802a:	5ddd           	slt %a5@+
    802c:	ee46           	asrw #7,%d6
    802e:	0400 ee08      	subib #8,%d0
    8032:	0000 ee06      	orib #6,%d0
    8036:	0000 ee06      	orib #6,%d0
    803a:	0000 6e00      	orib #0,%d0
    803e:	0000 6600      	orib #0,%d0
    8042:	0000 5e05      	orib #5,%d0
    8046:	0000 dd05      	orib #5,%d0
	...
    8086:	0066 0000      	oriw #0,%fp@-
    808a:	66ee           	bnes 807a <chelsieTiles+0x90e>
    808c:	0055 5ddd      	oriw #24029,%a5@
    8090:	60ee           	bras 8080 <chelsieTiles+0x914>
    8092:	55dd           	scs %a5@+
    8094:	60ee           	bras 8084 <chelsieTiles+0x918>
    8096:	d6d5           	addaw %a5@,%a3
    8098:	60ee           	bras 8088 <chelsieTiles+0x91c>
    809a:	66ff           	bnes 809b <chelsieTiles+0x92f>
    809c:	60ee           	bras 808c <chelsieTiles+0x920>
    809e:	e6ff           	.short 0xe6ff
    80a0:	66ee           	bnes 8090 <chelsieTiles+0x924>
    80a2:	6eff           	bgts 80a3 <chelsieTiles+0x937>
    80a4:	6eee           	bgts 8094 <chelsieTiles+0x928>
    80a6:	6e11           	bgts 80b9 <chelsieTiles+0x94d>
    80a8:	66ee           	bnes 8098 <chelsieTiles+0x92c>
    80aa:	1619           	moveb %a1@+,%d3
    80ac:	dd5d           	addw %d6,%a5@+
    80ae:	0000 dd5d      	orib #93,%d0
    80b2:	0000 dd5d      	orib #93,%d0
    80b6:	0000 ffe7      	orib #-25,%d0
    80ba:	0600 f7e7      	addib #-25,%d0
    80be:	0600 ffe7      	addib #-25,%d0
    80c2:	0600 1101      	addib #1,%d0
    80c6:	0000 9101      	orib #1,%d0
	...
    80ea:	0000 0066      	orib #102,%d0
    80ee:	ee66           	asrw %d7,%d6
    80f0:	60ee           	bras 80e0 <chelsieTiles+0x974>
    80f2:	6600 0066      	bnew 815a <chelsieTiles+0x9ee>
	...
    810a:	0000 0066      	orib #102,%d0
    810e:	9199           	subl %d0,%a1@+
    8110:	0000 1099      	orib #-103,%d0
    8114:	0000 6011      	orib #17,%d0
    8118:	0000 60e6      	orib #-26,%d0
    811c:	0000 e6e6      	orib #-26,%d0
    8120:	0000 e6e6      	orib #-26,%d0
    8124:	0000 e06e      	orib #110,%d0
    8128:	0000 00ee      	orib #-18,%d0
    812c:	1901           	moveb %d1,%a4@-
    812e:	0000 9901      	orib #1,%d0
    8132:	0000 9901      	orib #1,%d0
    8136:	0000 1101      	orib #1,%d0
    813a:	0000 6e00      	orib #0,%d0
    813e:	0000 6e06      	orib #6,%d0
    8142:	0000 ee06      	orib #6,%d0
    8146:	0000 0600      	orib #0,%d0
	...
    8192:	0000 6600      	orib #0,%d0
    8196:	0000 e606      	orib #6,%d0
    819a:	4444           	negw %d4
    819c:	664e           	bnes 81ec <chelsieTiles+0xa80>
    819e:	c4cc           	.short 0xc4cc
    81a0:	e646           	asrw #3,%d6
    81a2:	cc8c           	.short 0xcc8c
    81a4:	6084           	bras 812a <chelsieTiles+0x9be>
    81a6:	c48c           	.short 0xc48c
    81a8:	8084           	orl %d4,%d0
    81aa:	c4e4           	muluw %a4@-,%d2
	...
    81b4:	6006           	bras 81bc <chelsieTiles+0xa50>
    81b6:	0000 e406      	orib #6,%d0
    81ba:	0000 4c04      	orib #4,%d0
    81be:	0000 cc4c      	orib #76,%d0
    81c2:	0000 cccc      	orib #-52,%d0
    81c6:	0400 c8cc      	subib #-52,%d0
    81ca:	0400 0000      	subib #0,%d0
	...
    820a:	0000 4884      	orib #-124,%d0
    820e:	c4e4           	muluw %a4@-,%d2
    8210:	4884           	extw %d4
    8212:	44ee 4844      	movew %fp@(18500),%ccr
    8216:	e88e           	lsrl #4,%d6
    8218:	4844           	swap %d4
    821a:	e8ee           	.short 0xe8ee
    821c:	4844           	swap %d4
    821e:	e8ee           	.short 0xe8ee
    8220:	8044           	orw %d4,%d0
    8222:	84ee 0088      	divuw %fp@(136),%d2
    8226:	e5ee 00d5      	roxlw %fp@(213)
    822a:	ddee 4ec4      	addal %fp@(20164),%fp
    822e:	0400 ee46      	subib #70,%d0
    8232:	0400 ee08      	subib #8,%d0
    8236:	0000 ee06      	orib #6,%d0
    823a:	0000 ee06      	orib #6,%d0
    823e:	0000 6e00      	orib #0,%d0
    8242:	0000 6600      	orib #0,%d0
    8246:	0000 5e00      	orib #0,%d0
	...
    8276:	0060 0000      	oriw #0,%a0@-
    827a:	0060 0000      	oriw #0,%a0@-
    827e:	0060 0000      	oriw #0,%a0@-
    8282:	0060 0000      	oriw #0,%a0@-
    8286:	0060 0000      	oriw #0,%a0@-
    828a:	0060 60d5      	oriw #24789,%a0@-
    828e:	5ddd           	slt %a5@+
    8290:	e65e           	rorw #3,%d6
    8292:	55dd           	scs %a5@+
    8294:	ee6e           	lsrw %d7,%d6
    8296:	55dd           	scs %a5@+
    8298:	ee06           	asrb #7,%d6
    829a:	d5d5           	addal %a5@,%a2
    829c:	ee06           	asrb #7,%d6
    829e:	60ff           	bras 829f <chelsieTiles+0xb33>
    82a0:	ee6e           	lsrw %d7,%d6
    82a2:	e6ff           	.short 0xe6ff
    82a4:	ee6e           	lsrw %d7,%d6
    82a6:	eeff           	.short 0xeeff
    82a8:	ee16           	roxrb #7,%d6
    82aa:	1111           	moveb %a1@,%a0@-
    82ac:	dd05           	addxb %d5,%d6
    82ae:	0000 dd5d      	orib #93,%d0
    82b2:	0000 dd5d      	orib #93,%d0
    82b6:	0000 dd5d      	orib #93,%d0
    82ba:	0600 ffe7      	addib #-25,%d0
    82be:	6e00 f7e7      	bgtw 7aa7 <chelsieTiles+0x33b>
    82c2:	6e00 ff67      	bgtw 822b <chelsieTiles+0xabf>
    82c6:	0600 1101      	addib #1,%d0
	...
    82ee:	0066 0066      	oriw #102,%fp@-
    82f2:	66ee           	bnes 82e2 <chelsieTiles+0xb76>
    82f4:	60ee           	bras 82e4 <chelsieTiles+0xb78>
    82f6:	ee66           	asrw %d7,%d6
    82f8:	0066 6600      	oriw #26112,%fp@-
	...
    830c:	6616           	bnes 8324 <chelsieTiles+0xbb8>
    830e:	9919           	subb %d4,%a1@+
    8310:	6610           	bnes 8322 <chelsieTiles+0xbb6>
    8312:	9999           	subl %d4,%a1@+
    8314:	0000 9199      	orib #-103,%d0
    8318:	0000 1699      	orib #-103,%d0
    831c:	0060 ee91      	oriw #-4463,%a0@-
    8320:	00e0           	.short 0x00e0
    8322:	ee16           	roxrb #7,%d6
    8324:	00e0           	.short 0x00e0
    8326:	6e06           	bgts 832e <chelsieTiles+0xbc2>
    8328:	0000 ee06      	orib #6,%d0
    832c:	9101           	subxb %d1,%d0
    832e:	0000 9101      	orib #1,%d0
    8332:	0000 1901      	orib #1,%d0
    8336:	0000 1901      	orib #1,%d0
    833a:	0000 e166      	orib #102,%d0
    833e:	0600 e6ee      	addib #-18,%d0
    8342:	0600 e6ee      	addib #-18,%d0
    8346:	0000 600e      	orib #14,%d0
	...
    838e:	0000 6600      	orib #0,%d0
    8392:	0000 e606      	orib #6,%d0
    8396:	4444           	negw %d4
    8398:	664e           	bnes 83e8 <chelsieTiles+0xc7c>
    839a:	c4cc           	.short 0xc4cc
    839c:	e646           	asrw #3,%d6
    839e:	cc8c           	.short 0xcc8c
    83a0:	6084           	bras 8326 <chelsieTiles+0xbba>
    83a2:	c48c           	.short 0xc48c
    83a4:	8084           	orl %d4,%d0
    83a6:	c4e4           	muluw %a4@-,%d2
    83a8:	4884           	extw %d4
    83aa:	c4e4           	muluw %a4@-,%d2
    83ac:	0000 0000      	orib #0,%d0
    83b0:	6006           	bras 83b8 <chelsieTiles+0xc4c>
    83b2:	0000 e406      	orib #6,%d0
    83b6:	0000 4c04      	orib #4,%d0
    83ba:	0000 cc4c      	orib #76,%d0
    83be:	0000 cccc      	orib #-52,%d0
    83c2:	0400 c8cc      	subib #-52,%d0
    83c6:	0400 4ec4      	subib #-60,%d0
    83ca:	0400 0000      	subib #0,%d0
	...
    840a:	0000 4884      	orib #-124,%d0
    840e:	44ee 4844      	movew %fp@(18500),%ccr
    8412:	e88e           	lsrl #4,%d6
    8414:	4844           	swap %d4
    8416:	e8ee           	.short 0xe8ee
    8418:	4844           	swap %d4
    841a:	e8ee           	.short 0xe8ee
    841c:	8044           	orw %d4,%d0
    841e:	84ee 0088      	divuw %fp@(136),%d2
    8422:	e5ee 0050      	roxlw %fp@(80)
    8426:	ddee 00d5      	addal %fp@(213),%fp
    842a:	5ddd           	slt %a5@+
    842c:	ee46           	asrw #7,%d6
    842e:	0400 ee08      	subib #8,%d0
    8432:	0000 ee06      	orib #6,%d0
    8436:	0000 ee06      	orib #6,%d0
    843a:	0000 6e00      	orib #0,%d0
    843e:	0000 6600      	orib #0,%d0
    8442:	0000 5e05      	orib #5,%d0
    8446:	0000 dd05      	orib #5,%d0
	...
    8482:	0000 0066      	orib #102,%d0
    8486:	0000 60ee      	orib #-18,%d0
    848a:	6666           	bnes 84f2 <chelsieTiles+0xd86>
    848c:	0055 5ddd      	oriw #24029,%a5@
    8490:	60ee           	bras 8480 <chelsieTiles+0xd14>
    8492:	55dd           	scs %a5@+
    8494:	60ee           	bras 8484 <chelsieTiles+0xd18>
    8496:	d6d5           	addaw %a5@,%a3
    8498:	60ee           	bras 8488 <chelsieTiles+0xd1c>
    849a:	66ff           	bnes 849b <chelsieTiles+0xd2f>
    849c:	60ee           	bras 848c <chelsieTiles+0xd20>
    849e:	e6ff           	.short 0xe6ff
    84a0:	60ee           	bras 8490 <chelsieTiles+0xd24>
    84a2:	6eff           	bgts 84a3 <chelsieTiles+0xd37>
    84a4:	66ee           	bnes 8494 <chelsieTiles+0xd28>
    84a6:	6e11           	bgts 84b9 <chelsieTiles+0xd4d>
    84a8:	6eee           	bgts 8498 <chelsieTiles+0xd2c>
    84aa:	1699           	moveb %a1@+,%a3@
    84ac:	dd5d           	addw %d6,%a5@+
    84ae:	0000 dd5d      	orib #93,%d0
    84b2:	0000 dd5d      	orib #93,%d0
    84b6:	0000 ffe7      	orib #-25,%d0
    84ba:	0600 f7e7      	addib #-25,%d0
    84be:	0600 ffe7      	addib #-25,%d0
    84c2:	0600 1161      	addib #97,%d0
    84c6:	0000 9101      	orib #1,%d0
	...
    84ea:	0000 0066      	orib #102,%d0
    84ee:	eeee           	.short 0xeeee
    84f0:	0000 6666      	orib #102,%d0
	...
    850c:	6666           	bnes 8574 <chelsieTiles+0xe08>
    850e:	9919           	subb %d4,%a1@+
    8510:	0000 9199      	orib #-103,%d0
    8514:	0000 9199      	orib #-103,%d0
    8518:	00e0           	.short 0x00e0
    851a:	1e99           	moveb %a1@+,%sp@
    851c:	00e0           	.short 0x00e0
    851e:	1699           	moveb %a1@+,%a3@
    8520:	0060 1611      	oriw #5649,%a0@-
    8524:	0000 00e6      	orib #-26,%d0
    8528:	0000 00e6      	orib #-26,%d0
    852c:	9101           	subxb %d1,%d0
    852e:	0000 1100      	orib #0,%d0
    8532:	0000 1100      	orib #0,%d0
    8536:	0000 1900      	orib #0,%d0
    853a:	0000 1100      	orib #0,%d0
    853e:	0000 6e00      	orib #0,%d0
    8542:	0000 6e06      	orib #6,%d0
    8546:	0000 ee06      	orib #6,%d0
	...
    858a:	0000 6600      	orib #0,%d0
    858e:	0000 e606      	orib #6,%d0
    8592:	4444           	negw %d4
    8594:	664e           	bnes 85e4 <chelsieTiles+0xe78>
    8596:	c4cc           	.short 0xc4cc
    8598:	e646           	asrw #3,%d6
    859a:	cc8c           	.short 0xcc8c
    859c:	6084           	bras 8522 <chelsieTiles+0xdb6>
    859e:	c48c           	.short 0xc48c
    85a0:	8084           	orl %d4,%d0
    85a2:	c4e4           	muluw %a4@-,%d2
    85a4:	4884           	extw %d4
    85a6:	c4e4           	muluw %a4@-,%d2
    85a8:	4884           	extw %d4
    85aa:	44ee 6006      	movew %fp@(24582),%ccr
    85ae:	0000 e406      	orib #6,%d0
    85b2:	0000 4c04      	orib #4,%d0
    85b6:	0000 cc4c      	orib #76,%d0
    85ba:	0000 cccc      	orib #-52,%d0
    85be:	0400 c8cc      	subib #-52,%d0
    85c2:	0400 4ec4      	subib #-60,%d0
    85c6:	0400 ee46      	subib #70,%d0
    85ca:	0400 0000      	subib #0,%d0
	...
    860a:	0000 4844      	orib #68,%d0
    860e:	e88e           	lsrl #4,%d6
    8610:	4844           	swap %d4
    8612:	e8ee           	.short 0xe8ee
    8614:	4844           	swap %d4
    8616:	e8ee           	.short 0xe8ee
    8618:	8044           	orw %d4,%d0
    861a:	84ee 0088      	divuw %fp@(136),%d2
    861e:	e5ee 0050      	roxlw %fp@(80)
    8622:	ddee 0050      	addal %fp@(80),%fp
    8626:	ddd5           	addal %a5@,%fp
    8628:	0050 ddd5      	oriw #-8747,%a0@
    862c:	ee08           	lsrb #7,%d0
    862e:	0000 ee06      	orib #6,%d0
    8632:	0000 ee06      	orib #6,%d0
    8636:	0000 6e00      	orib #0,%d0
    863a:	0000 6600      	orib #0,%d0
    863e:	0000 5e00      	orib #0,%d0
    8642:	0000 dd05      	orib #5,%d0
    8646:	0000 dd5d      	orib #93,%d0
	...
    8682:	0000 0066      	orib #102,%d0
    8686:	0000 60ee      	orib #-18,%d0
    868a:	6666           	bnes 86f2 <chelsieTiles+0xf86>
    868c:	0050 55d5      	oriw #21973,%a0@
    8690:	0060 eed6      	oriw #-4394,%a0@-
    8694:	0060 eef6      	oriw #-4362,%a0@-
    8698:	0060 eef6      	oriw #-4362,%a0@-
    869c:	0066 eef6      	oriw #-4362,%fp@-
    86a0:	6066           	bras 8708 <chelsieTiles+0xf9c>
    86a2:	ee6e           	lsrw %d7,%d6
    86a4:	6666           	bnes 870c <chelsieTiles+0xfa0>
    86a6:	ee6e           	lsrw %d7,%d6
    86a8:	6e60           	bgts 870a <chelsieTiles+0xf9e>
    86aa:	ee16           	roxrb #7,%d6
    86ac:	dd5d           	addw %d6,%a5@+
    86ae:	0000 dd5d      	orib #93,%d0
    86b2:	0000 ffe7      	orib #-25,%d0
    86b6:	0600 f7e7      	addib #-25,%d0
    86ba:	6e00 ffe7      	bgtw 86a3 <chelsieTiles+0xf37>
    86be:	6e00 1161      	bgtw 9821 <_etext+0x4dd>
    86c2:	0600 9101      	addib #1,%d0
    86c6:	0000 9119      	orib #25,%d0
	...
    86ea:	0000 0066      	orib #102,%d0
    86ee:	eeee           	.short 0xeeee
    86f0:	0000 6666      	orib #102,%d0
	...
    870c:	0610 6619      	addib #25,%a0@
    8710:	0010 9919      	orib #25,%a0@
    8714:	0010 9919      	orib #25,%a0@
    8718:	0010 9919      	orib #25,%a0@
    871c:	0010 9911      	orib #17,%a0@
    8720:	0010 116e      	orib #110,%a0@
    8724:	0000 e66e      	orib #110,%d0
    8728:	0000 e6ee      	orib #-18,%d0
    872c:	9919           	subb %d4,%a1@+
    872e:	0000 9919      	orib #25,%d0
    8732:	0000 9919      	orib #25,%d0
    8736:	0000 9901      	orib #1,%d0
    873a:	0000 1100      	orib #0,%d0
    873e:	0000 0000      	orib #0,%d0
    8742:	0000 0600      	orib #0,%d0
    8746:	0000 0600      	orib #0,%d0
	...

0000876c <hdma1>:
	...
    8774:	0400 0400      	subib #0,%d0
    8778:	0400 0400      	subib #0,%d0
    877c:	0400 0800      	subib #0,%d0
    8780:	0800 0800      	btst #0,%d0
    8784:	0800 0c00      	btst #0,%d0
    8788:	0c00 0c00      	cmpib #0,%d0
    878c:	0c01 1001      	cmpib #1,%d1
    8790:	1001           	moveb %d1,%d0
    8792:	1001           	moveb %d1,%d0
    8794:	1001           	moveb %d1,%d0
    8796:	1401           	moveb %d1,%d2
    8798:	1401           	moveb %d1,%d2
    879a:	1401           	moveb %d1,%d2
    879c:	1401           	moveb %d1,%d2
    879e:	1801           	moveb %d1,%d4
    87a0:	1801           	moveb %d1,%d4
    87a2:	1801           	moveb %d1,%d4
    87a4:	1801           	moveb %d1,%d4
    87a6:	1801           	moveb %d1,%d4
    87a8:	1c01           	moveb %d1,%d6
    87aa:	1c01           	moveb %d1,%d6
    87ac:	1c01           	moveb %d1,%d6
    87ae:	1c02           	moveb %d2,%d6
    87b0:	2002           	movel %d2,%d0
    87b2:	2002           	movel %d2,%d0
    87b4:	2002           	movel %d2,%d0
    87b6:	2002           	movel %d2,%d0
    87b8:	2422           	movel %a2@-,%d2
    87ba:	2422           	movel %a2@-,%d2
    87bc:	2422           	movel %a2@-,%d2
    87be:	2422           	movel %a2@-,%d2
    87c0:	2822           	movel %a2@-,%d4
    87c2:	2822           	movel %a2@-,%d4
    87c4:	2822           	movel %a2@-,%d4
    87c6:	2822           	movel %a2@-,%d4
    87c8:	2c22           	movel %a2@-,%d6
    87ca:	2c22           	movel %a2@-,%d6
    87cc:	2c22           	movel %a2@-,%d6
    87ce:	2c22           	movel %a2@-,%d6
    87d0:	2c23           	movel %a3@-,%d6
    87d2:	3023           	movew %a3@-,%d0
    87d4:	3023           	movew %a3@-,%d0
    87d6:	3023           	movew %a3@-,%d0
    87d8:	3023           	movew %a3@-,%d0
    87da:	3423           	movew %a3@-,%d2
    87dc:	3423           	movew %a3@-,%d2
    87de:	3423           	movew %a3@-,%d2
    87e0:	3423           	movew %a3@-,%d2
    87e2:	3823           	movew %a3@-,%d4
    87e4:	3823           	movew %a3@-,%d4
    87e6:	3843           	moveaw %d3,%a4
    87e8:	3843           	moveaw %d3,%a4
    87ea:	3c44           	moveaw %d4,%fp
    87ec:	3c44           	moveaw %d4,%fp
    87ee:	3c44           	moveaw %d4,%fp
    87f0:	4044           	negxw %d4
    87f2:	4044           	negxw %d4
    87f4:	4044           	negxw %d4
    87f6:	4044           	negxw %d4
    87f8:	4464           	negw %a4@-
    87fa:	4464           	negw %a4@-
    87fc:	4464           	negw %a4@-
    87fe:	4865           	.short 0x4865
    8800:	4865           	.short 0x4865
    8802:	4865           	.short 0x4865
    8804:	4c65           	.short 0x4c65
    8806:	4c65           	.short 0x4c65
    8808:	4c65           	.short 0x4c65
    880a:	4c85           	.short 0x4c85
    880c:	5085           	addql #8,%d5
    880e:	5085           	addql #8,%d5
    8810:	5085           	addql #8,%d5
    8812:	5486           	addql #2,%d6
    8814:	5486           	addql #2,%d6
    8816:	5486           	addql #2,%d6
    8818:	5486           	addql #2,%d6
    881a:	5886           	addql #4,%d6
    881c:	58a6           	addql #4,%fp@-
    881e:	58a6           	addql #4,%fp@-
    8820:	5ca6           	addql #6,%fp@-
    8822:	5ca6           	addql #6,%fp@-
    8824:	5ca6           	addql #6,%fp@-
    8826:	5ca7           	addql #6,%sp@-
    8828:	60a7           	bras 87d1 <hdma1+0x65>
    882a:	60a7           	bras 87d3 <hdma1+0x67>
    882c:	60a7           	bras 87d5 <hdma1+0x69>
    882e:	64c7           	bccs 87f7 <hdma1+0x8b>
    8830:	64c7           	bccs 87f9 <hdma1+0x8d>
    8832:	64c7           	bccs 87fb <hdma1+0x8f>
    8834:	68c7           	bvcs 87fd <hdma1+0x91>
    8836:	68c7           	bvcs 87ff <hdma1+0x93>
    8838:	68c7           	bvcs 8801 <hdma1+0x95>
    883a:	68c8           	bvcs 8804 <hdma1+0x98>
    883c:	6cc8           	bges 8806 <hdma1+0x9a>
    883e:	6cc8           	bges 8808 <hdma1+0x9c>
    8840:	6ce8           	bges 882a <hdma1+0xbe>
    8842:	70e8           	moveq #-24,%d0
    8844:	70e8           	moveq #-24,%d0
    8846:	70e8           	moveq #-24,%d0
    8848:	70e8           	moveq #-24,%d0
    884a:	74e8           	moveq #-24,%d2
    884c:	74e8           	moveq #-24,%d2
    884e:	74e9           	moveq #-23,%d2
    8850:	78e9           	moveq #-23,%d4
    8852:	7909           	.short 0x7909
    8854:	7909           	.short 0x7909
    8856:	7909           	.short 0x7909
    8858:	7d09           	.short 0x7d09
    885a:	7d09           	.short 0x7d09
    885c:	4030 4430      	negxb %a0@(00000030,%d4:w:4)
    8860:	4411           	negb %a1@
    8862:	4811           	nbcd %a1@
    8864:	04cc           	.short 0x04cc
    8866:	04cc           	.short 0x04cc
    8868:	04cc           	.short 0x04cc
    886a:	04cc           	.short 0x04cc
    886c:	04cb           	.short 0x04cb
    886e:	04cb           	.short 0x04cb
    8870:	04cb           	.short 0x04cb
    8872:	04cb           	.short 0x04cb
    8874:	04cb           	.short 0x04cb
    8876:	04cb           	.short 0x04cb
    8878:	04cb           	.short 0x04cb
    887a:	04ca           	.short 0x04ca
    887c:	04ca           	.short 0x04ca
    887e:	04ca           	.short 0x04ca
    8880:	04ca           	.short 0x04ca
    8882:	04ca           	.short 0x04ca
    8884:	04aa 04aa 04a9 	subil #78251177,%a2@(1193)
    888a:	04a9 
    888c:	4030 4811      	negxb %a0@(00000011,%d4:l)
    8890:	4c12           	.short 0x4c12
    8892:	5414           	addqb #2,%a4@
    8894:	5815           	addqb #4,%a5@
    8896:	6016           	bras 88ae <hdma1+0x142>
    8898:	6418           	bccs 88b2 <hdma1+0x146>
    889a:	6c19           	bges 88b5 <hdma1+0x149>
    889c:	6c19           	bges 88b7 <hdma1+0x14b>
    889e:	6818           	bvcs 88b8 <hdma1+0x14c>
    88a0:	6418           	bccs 88ba <hdma1+0x14e>
    88a2:	6417           	bccs 88bb <hdma1+0x14f>
    88a4:	6017           	bras 88bd <hdma1+0x151>
    88a6:	6016           	bras 88be <hdma1+0x152>
    88a8:	5c16           	addqb #6,%fp@
    88aa:	5c15           	addqb #6,%a5@
    88ac:	5815           	addqb #4,%a5@
    88ae:	5414           	addqb #2,%a4@
    88b0:	5414           	addqb #2,%a4@
    88b2:	5013           	addqb #8,%a3@
    88b4:	5012           	addqb #8,%a2@
    88b6:	4c12           	.short 0x4c12
    88b8:	4c11           	.short 0x4c11
    88ba:	4811           	nbcd %a1@
    88bc:	4410           	negb %a0@
    88be:	4410           	negb %a0@
    88c0:	400f           	.short 0x400f
    88c2:	400f           	.short 0x400f
    88c4:	3c0e           	movew %fp,%d6
    88c6:	380e           	movew %fp,%d4
    88c8:	380d           	movew %a5,%d4
    88ca:	340d           	movew %a5,%d2
    88cc:	340c           	movew %a4,%d2
    88ce:	300b           	movew %a3,%d0
    88d0:	300b           	movew %a3,%d0
    88d2:	2c0a           	movel %a2,%d6
    88d4:	280a           	movel %a2,%d4
    88d6:	2809           	movel %a1,%d4
    88d8:	2409           	movel %a1,%d2
    88da:	2408           	movel %a0,%d2
    88dc:	2008           	movel %a0,%d0
    88de:	2007           	movel %d7,%d0
    88e0:	1c07           	moveb %d7,%d6
    88e2:	1806           	moveb %d6,%d4
    88e4:	1806           	moveb %d6,%d4
    88e6:	1405           	moveb %d5,%d2
    88e8:	1404           	moveb %d4,%d2
    88ea:	1004           	moveb %d4,%d0
    88ec:	1003           	moveb %d3,%d0
    88ee:	0c03 0802      	cmpib #2,%d3
    88f2:	0802 0401      	btst #1,%d2
    88f6:	0401 0000      	subib #0,%d1
	...
    894a:	0000 4249      	orib #73,%d0
    894e:	4f53           	.short 0x4f53
    8950:	2076 2564 2e25 	moveal %fp@(00002e25)@(00000000),%a0
    8956:	640a           	bccs 8962 <hdma1+0x1f6>
    8958:	002a 2049 4e53 	orib #73,%a2@(20051)
    895e:	4552           	.short 0x4552
    8960:	5420           	addqb #2,%a0@-
    8962:	2043           	moveal %d3,%a0
    8964:	4152           	.short 0x4152
    8966:	5420           	addqb #2,%a0@-
    8968:	2a00           	movel %d0,%d5
    896a:	303a 2f00      	movew %pc@(b86c <_etext+0x2528>),%d0
    896e:	303a 2f73      	movew %pc@(b8e3 <_etext+0x259f>),%d0
    8972:	7461           	moveq #97,%d2
    8974:	7274           	moveq #116,%d1
    8976:	2e61           	moveal %a1@-,%sp
    8978:	7070           	moveq #112,%d0
    897a:	004e           	.short 0x004e
    897c:	6f74           	bles 89f2 <logo+0xa>
    897e:	2061           	moveal %a1@-,%a0
    8980:	2062           	moveal %a2@-,%a0
    8982:	6f6f           	bles 89f3 <logo+0xb>
    8984:	7420           	moveq #32,%d2
    8986:	6469           	bccs 89f1 <logo+0x9>
    8988:	736b           	.short 0x736b
    898a:	2e00           	movel %d0,%d7
    898c:	4661           	notw %a1@-
    898e:	696c           	bvss 89fc <logo+0x14>
    8990:	6564           	bcss 89f6 <logo+0xe>
    8992:	2074 6f20 7265 	moveal %a4@(00007265,%d6:l:8),%a0
    8998:	6164           	bsrs 89fe <logo+0x16>
    899a:	2e20           	movel %a0@-,%d7
    899c:	0025 7300      	orib #0,%a5@-
    89a0:	4675 636b 6564 	notw %a5@(00006564)@(2075702c)
    89a6:	2075 702c 
    89aa:	2079 6f2e 0041 	moveal 6f2e0041 <__end+0x6e2dfdb1>,%a0
    89b0:	6464           	bccs 8a16 <logo+0x2e>
    89b2:	7265           	moveq #101,%d1
    89b4:	7373           	.short 0x7373
    89b6:	2065           	moveal %a5@-,%a0
    89b8:	7272           	moveq #114,%d1
    89ba:	6f72           	bles 8a2e <logo+0x46>
    89bc:	2100           	movel %d0,%a0@-
    89be:	496c           	.short 0x496c
    89c0:	6c65           	bges 8a27 <logo+0x3f>
    89c2:	6761           	beqs 8a25 <logo+0x3d>
    89c4:	6c20           	bges 89e6 <hdma1+0x27a>
    89c6:	6d61           	blts 8a29 <logo+0x41>
    89c8:	6e67           	bgts 8a31 <logo+0x49>
    89ca:	7261           	moveq #97,%d1
    89cc:	7370           	.short 0x7370
    89ce:	2100           	movel %d0,%a0@-
    89d0:	4469 7669      	negw %a1@(30313)
    89d4:	7369           	.short 0x7369
    89d6:	6f6e           	bles 8a46 <logo+0x5e>
    89d8:	2062           	moveal %a2@-,%a0
    89da:	7920           	.short 0x7920
    89dc:	7a65           	moveq #101,%d5
    89de:	726f           	moveq #111,%d1
    89e0:	2e20           	movel %a0@-,%d7
    89e2:	576f 772e      	subqw #3,%sp@(30510)
	...

000089e8 <logo>:
    89e8:	2007 2007 2007 410b b80b 530b b80b 530b      . . .A...S...S.
    89f8:	b80b 500b b80b 550b b80b 4c0b b80b 4c0b     ..P...U...L...L.
    8a08:	2007 2007 2007 2007 2007 2007 2007 2007      . . . . . . . .
    8a18:	2007 8790 8790 8790 8790 8790 8790 8790      ...............
    8a28:	8790 8790 8790 8790 8790 8790 8790 2007     .............. .
    8a38:	2007 2007 2007 2007 2007 2007 2007 2007      . . . . . . . .
    8a48:	2007 8701 2090 2090 2010 8701 2090 2090      ... . . ... . .
    8a58:	2010 8701 2090 2090 2010 8701 8701 2007      ... . . ..... .
    8a68:	2007 2007 2007 8407 8808 2007 2007 2007      . . ..... . . .
    8a78:	2090 2090 2010 2007 2090 2090 2010 2007      . . . . . . . .
    8a88:	2090 2090 2010 870f 830f 840f 2007 2007      . . ....... . .
    8a98:	840f 870f 2007 2007 2007 2007 2090 2090     .... . . . . . .
    8aa8:	2010 2007 2090 2090 2010 2007 2090 2090      . . . . . . . .
    8ab8:	2010 2007 2007 2007 870f 830f 830f 2007      . . . ....... .
    8ac8:	2007 2007 2007 8709 8719 8719 8719 8719      . . ...........
    8ad8:	8719 8719 8719 8719 8719 8719 8719 8719     ................
    8ae8:	8719 8710 840f 870f 2007 870f 830f 840f     ........ .......
    8af8:	2007 2007 2007 4b00 6100 7700 6100 2000      . . .K.a.w.a. .
    8b08:	3200 3000 3100 3700 2007 2007 2007 8408     2.0.1.7. . . ...
    8b18:	8707 2007 2007 2007 2007 2007 8707 8808     .. . . . . .....
    8b28:	2007 5b44 4542 5547 5d20 0000 0000 0000      .[DEBUG] ......
	...

00008f2a <textLibrary>:
    8f2a:	0000 0894 0000 0600 0000 07de 0000 061e     ................
    8f3a:	0000 05c8 0000 05ec 0000 0638               ...........8

00008f46 <palette>:
    8f46:	0000 5400 02a0 56a0 0015 5415 0115 56b5     ..T...V...T...V.
    8f56:	294a 7d4a 2bea 7fea 295f 7d5f 2bff 7fff     )J}J+...)_}_+...

00008f66 <drawingLibrary>:
    8f66:	0000 08f4 0000 095e 0000 0a7c 0000 0a9e     .......^...|....
    8f76:	0000 0ac2 0000 0b3a 0000 0922 0000 0bb2     .......:..."....
    8f86:	0000 090e                                   ....

00008f8a <miscLibrary>:
    8f8a:	0000 0ee8 0000 0f1e 0000 0f6e 0000 10f2     ...........n....
    8f9a:	0000 0fbe 0000 0fde 0000 0ffa 0000 1024     ...............$
    8faa:	0000 104e 0000 1072 5375 6363 6565 6465     ...N...rSucceede
    8fba:	642e 0041 2068 6172 6420 6572 726f 7220     d..A hard error 
    8fca:	6f63 6375 7272 6564 2069 6e20 7468 6520     occurred in the 
    8fda:	6c6f 772d 6c65 7665 6c20 6469 736b 2049     low-level disk I
    8fea:	2f4f 206c 6179 6572 2e00 4173 7365 7274     /O layer..Assert
    8ffa:	696f 6e20 6661 696c 6564 2e00 5468 6520     ion failed..The 
    900a:	7068 7973 6963 616c 2064 7269 7665 2063     physical drive c
    901a:	616e 6e6f 7420 776f 726b 2e00 436f 756c     annot work..Coul
    902a:	6420 6e6f 7420 6669 6e64 2074 6865 2066     d not find the f
    903a:	696c 652e 0043 6f75 6c64 206e 6f74 2066     ile..Could not f
    904a:	696e 6420 7468 6520 7061 7468 2e00 5468     ind the path..Th
    905a:	6520 7061 7468 206e 616d 6520 666f 726d     e path name form
    906a:	6174 2069 7320 696e 7661 6c69 642e 0041     at is invalid..A
    907a:	6363 6573 7320 6465 6e69 6564 206f 7220     ccess denied or 
    908a:	6469 7265 6374 6f72 7920 6973 2066 756c     directory is ful
    909a:	6c2e 0041 6363 6573 7320 6465 6e69 6564     l..Access denied
    90aa:	2e00 5468 6520 6669 6c65 206f 7220 6469     ..The file or di
    90ba:	7265 6374 6f72 7920 6f62 6a65 6374 2069     rectory object i
    90ca:	7320 696e 7661 6c69 642e 0054 6865 2064     s invalid..The d
    90da:	7269 7665 2069 7320 7772 6974 652d 7072     rive is write-pr
    90ea:	6f74 6563 7465 642e 0054 6865 206c 6f67     otected..The log
    90fa:	6963 616c 2064 7269 7665 206e 756d 6265     ical drive numbe
    910a:	7220 6973 2069 6e76 616c 6964 2e00 5468     r is invalid..Th
    911a:	6520 766f 6c75 6d65 2068 6173 206e 6f20     e volume has no 
    912a:	776f 726b 2061 7265 612e 003c 4652 5f4d     work area..<FR_M
    913a:	4b46 535f 4142 4f52 5445 443e 003c 4652     KFS_ABORTED>.<FR
    914a:	5f54 494d 454f 5554 3e00 3c46 525f 4c4f     _TIMEOUT>.<FR_LO
    915a:	434b 4544 3e00 3c46 525f 4e4f 545f 454e     CKED>.<FR_NOT_EN
    916a:	4f55 4748 5f43 4f52 453e 0054 6f6f 206d     OUGH_CORE>.Too m
    917a:	616e 7920 6f70 656e 2066 696c 6573 2e00     any open files..
    918a:	5061 7261 6d65 7465 7220 6973 2069 6e76     Parameter is inv
    919a:	616c 6964 2e00 3c49 6e76 616c 6964 2065     alid..<Invalid e
    91aa:	7272 2023 3e00                              rr #>.

000091b0 <FSErrors>:
    91b0:	0000 8fb2 0000 8fbd 0000 8ff4 0000 9006     ................
    91c0:	0000 9026 0000 903f 0000 9058 0000 9079     ...&...?...X...y
    91d0:	0000 909d 0000 90ac 0000 90d5 0000 90f3     ................
    91e0:	0000 9118 0000 9135 0000 9147 0000 9154     .......5...G...T
    91f0:	0000 9160 0000 9175 0000 918a 0000 91a0     ...`...u........

00009200 <diskLibrary>:
    9200:	0000 1250 0000 1156 0000 115c 0000 118a     ...P...V...\....
    9210:	0000 11b8 0000 11f6 0000 11fc 0000 110c     ................
    9220:	0000 1116 0000 112c 0000 127e 0000 1202     .......,...~....
    9230:	0000 1208 0000 12a0 0000 120e 0000 12d2     ................
    9240:	0000 12f4 0000 130a 0000 1136 0000 132c     ...........6...,
    9250:	0000 1342 0000 1358 0000 1214 0000 113a     ...B...X.......:
    9260:	3031 3233 3435 3637 3839 4142 4344 4546     0123456789ABCDEF
    9270:	4748 494a 4b4c 4d4e 4f50 5152 5354 5556     GHIJKLMNOPQRSTUV
    9280:	5758 595a 005b 4e49 4c5d 0046 4154 0046     WXYZ.[NIL].FAT.F
    9290:	4154 3332 0022 2a2b 2c3a 3b3c 3d3e 3f5b     AT32."*+,:;<=>?[
    92a0:	5d7c 7f00                                   ]|..

000092a4 <badchr.2220>:
    92a4:	2b2e 2c3b 3d5b 5d22 2a3a 3c3e 3f7c 7f00     +.,;=[]"*:<>?|..

000092b4 <ExCvt>:
    92b4:	809a 4541 8e41 8f80 4545 4549 4949 8e8f     ..EA.A..EEEIII..
    92c4:	9092 924f 994f 5555 5999 9a9b 9c9d 9e9f     ...O.OUUY.......
    92d4:	4149 4f55 a5a5 a6a7 a8a9 aaab acad aeaf     AIOU............
    92e4:	b0b1 b2b3 b4b5 b6b7 b8b9 babb bcbd bebf     ................
    92f4:	c0c1 c2c3 c4c5 c6c7 c8c9 cacb cccd cecf     ................
    9304:	d0d1 d2d3 d4d5 d6d7 d8d9 dadb dcdd dedf     ................
    9314:	e0e1 e2e3 e4e5 e6e7 e8e9 eaeb eced eeef     ................
    9324:	f0f1 f2f3 f4f5 f6f7 f8f9 fafb fcfd feff     ................

00009334 <__INIT_SECTION__>:
    9334:	4e56 0000      	linkw %fp,#0
    9338:	4e5e           	unlk %fp
    933a:	4e75           	rts

0000933c <__FINI_SECTION__>:
    933c:	4e56 0000      	linkw %fp,#0
    9340:	4e5e           	unlk %fp
    9342:	4e75           	rts
