
twohundred.elf:     file format elf32-m68k


Disassembly of section .text:

00020000 <initialize-0x20>:
   20000:	4153           	.short 0x4153
   20002:	5321           	subqb #1,%a1@-
   20004:	4efa 001a      	jmp %pc@(20020 <initialize>)
   20008:	3332 3078      	movew %a2@(00000078,%d3:w),%a1@-
   2000c:	3230 303f      	movew %a0@(0000003f,%d3:w),%d1
	...

00020020 <initialize>:
   20020:	46fc 2700      	movew #9984,%sr
   20024:	41f9 0001 0048 	lea 10048 <_stext>,%a0
   2002a:	43f9 0100 1000 	lea 1001000 <heap>,%a1
   20030:	203c 0000 0004 	movel #4,%d0
   20036:	e288           	lsrl #1,%d0
   20038:	5340           	subqw #1,%d0
   2003a:	32d8           	movew %a0@+,%a1@+
   2003c:	51c8 fffc      	dbf %d0,2003a <initialize+0x1a>
   20040:	41f9 01ff 0000 	lea 1ff0000 <__end+0xfeeff0>,%a0
   20046:	2e48           	moveal %a0,%sp
   20048:	4e56 fff8      	linkw %fp,#-8
   2004c:	4eb9 0002 fc6c 	jsr 2fc6c <main>
   20052:	60fe           	bras 20052 <initialize+0x32>

00020054 <picData>:
   20054:	4149           	.short 0x4149
   20056:	4d47           	.short 0x4d47
   20058:	0800 0140      	btst #64,%d0
   2005c:	00c8           	.short 0x00c8
   2005e:	0140           	bchg %d0,%d0
   20060:	0000 fa00      	orib #0,%d0
   20064:	0000 0018      	orib #24,%d0
   20068:	0000 0218      	orib #24,%d0
   2006c:	0000 5400      	orib #0,%d0
   20070:	02a0 56a0 0015 	andil #1453326357,%a0@-
   20076:	5415           	addqb #2,%a5@
   20078:	0155           	bchg %d0,%a5@
   2007a:	56b5 294a 7d4a 	addql #3,%a5@(00000000)@(00007d4a)
   20080:	2bea           	.short 0x2bea
   20082:	7fea           	.short 0x7fea
   20084:	295f 7d5f      	movel %sp@+,%a4@(32095)
   20088:	2bff           	.short 0x2bff
   2008a:	7fff           	.short 0x7fff
   2008c:	77bd           	.short 0x77bd
   2008e:	6f7b           	bles 2010b <picData+0xb7>
   20090:	6b5a           	bmis 200ec <picData+0x98>
   20092:	6318           	blss 200ac <picData+0x58>
   20094:	5ad6           	spl %fp@
   20096:	56b5 4e73      	addql #3,%a5@(00000073,%d4:l:8)
   2009a:	4631 3def 39ce 	notb @(000039ce)@(318c294a)
   200a0:	318c 294a 
   200a4:	2529 1ce7      	movel %a1@(7399),%a2@-
   200a8:	14a5           	moveb %a5@-,%a2@
   200aa:	1084           	moveb %d4,%a0@
   200ac:	001f 001d      	orib #29,%sp@+
   200b0:	001c 001a      	orib #26,%a4@+
   200b4:	0019 0017      	orib #23,%a1@+
   200b8:	0016 0014      	orib #20,%fp@
   200bc:	0013 0011      	orib #17,%a3@
   200c0:	000f           	.short 0x000f
   200c2:	000e           	.short 0x000e
   200c4:	000c           	.short 0x000c
   200c6:	000b           	.short 0x000b
   200c8:	0009           	.short 0x0009
   200ca:	0008           	.short 0x0008
   200cc:	6f7f           	bles 2014d <picData+0xf9>
   200ce:	5eff           	.short 0x5eff
   200d0:	4e7f           	.short 0x4e7f
   200d2:	3dff           	.short 0x3dff
   200d4:	2d7f           	.short 0x2d7f
   200d6:	211f           	movel %sp@+,%a0@-
   200d8:	109f           	moveb %sp@+,%a0@
   200da:	001f 2ebf      	orib #-65,%sp@+
   200de:	227f           	.short 0x227f
   200e0:	123f           	.short 0x123f
   200e2:	01ff           	.short 0x01ff
   200e4:	01bc           	.short 0x01bc
   200e6:	0199           	bclr %d0,%a1@+
   200e8:	0156           	bchg %d0,%fp@
   200ea:	0133 6fff 5fff 	btst %d0,@(5fff4fff)@(3fff2fff)
   200f0:	4fff 3fff 2fff 
   200f6:	23df 13df 03df 	movel %sp@+,13df03df <__end+0x12def3cf>
   200fc:	037c           	.short 0x037c
   200fe:	0319           	btst %d1,%a1@+
   20100:	02b6 0273 0210 	andil #41091600,@(0000014b)@(00000108,%d0:w)
   20106:	01ae 014b 0108 
   2010c:	2ffa           	.short 0x2ffa
   2010e:	23f8 13f6 03f4 	movel 13f6 <_sdata+0x13f2>,3f40392 <__end+0x2f3f382>
   20114:	0392 
   20116:	0330 02ce      	btst %d1,%a0@(ffffffce,%d0:w:2)
   2011a:	026c 6ffb 5ff7 	andiw #28667,%a4@(24567)
   20120:	4ff3 3ff0 2fec 	lea @(2fec23e8),%sp
   20126:	23e8 
   20128:	13e4 03e0 03e0 	moveb %a4@-,3e003e0 <__end+0x2dff3d0>
   2012e:	03a0           	bclr %d1,%a0@-
   20130:	0380           	bclr %d1,%d0
   20132:	0340           	bchg %d1,%d0
   20134:	0320           	btst %d1,%a0@-
   20136:	02e0           	.short 0x02e0
   20138:	02c0           	.short 0x02c0
   2013a:	0280 0260 0220 	andil #39846432,%d0
   20140:	01e0           	bset %d0,%a0@-
   20142:	01c0           	bset %d0,%d0
   20144:	0180           	bclr %d0,%d0
   20146:	0160           	bchg %d0,%a0@-
   20148:	0120           	btst %d0,%a0@-
   2014a:	0100           	btst %d0,%d0
   2014c:	7ffb           	.short 0x7ffb
   2014e:	7ff7           	.short 0x7ff7
   20150:	7ff3           	.short 0x7ff3
   20152:	7fef           	.short 0x7fef
   20154:	7feb           	.short 0x7feb
   20156:	7fe8           	.short 0x7fe8
   20158:	7fe4           	.short 0x7fe4
   2015a:	7fe0           	.short 0x7fe0
   2015c:	7380           	.short 0x7380
   2015e:	6720           	beqs 20180 <picData+0x12c>
   20160:	5ac0           	spl %d0
   20162:	4e60           	movel %a0,%usp
   20164:	4200           	clrb %d0
   20166:	39c0           	.short 0x39c0
   20168:	2d60 2100      	movel %a0@-,%fp@(8448)
   2016c:	7eeb           	moveq #-21,%d7
   2016e:	7ec8           	moveq #-56,%d7
   20170:	7ea4           	moveq #-92,%d7
   20172:	7e60           	moveq #96,%d7
   20174:	7220           	moveq #32,%d1
   20176:	65e0           	bcss 20158 <picData+0x104>
   20178:	59a0           	subql #4,%a0@-
   2017a:	4d60           	.short 0x4d60
   2017c:	7f7b           	.short 0x7f7b
   2017e:	7ef7           	moveq #-9,%d7
   20180:	7e73           	moveq #115,%d7
   20182:	7e0f           	moveq #15,%d7
   20184:	7d8b           	.short 0x7d8b
   20186:	7d08           	.short 0x7d08
   20188:	7c84           	moveq #-124,%d6
   2018a:	7c00           	moveq #0,%d6
   2018c:	7c00           	moveq #0,%d6
   2018e:	7400           	moveq #0,%d2
   20190:	7000           	moveq #0,%d0
   20192:	6800 6400      	bvcw 26594 <picData+0x6540>
   20196:	5c00           	addqb #6,%d0
   20198:	5800           	addqb #4,%d0
   2019a:	5000           	addqb #8,%d0
   2019c:	4c00           	.short 0x4c00
   2019e:	4400           	negb %d0
   201a0:	3c00           	movew %d0,%d6
   201a2:	3800           	movew %d0,%d4
   201a4:	3000           	movew %d0,%d0
   201a6:	2c00           	movel %d0,%d6
   201a8:	2400           	movel %d0,%d2
   201aa:	2000           	movel %d0,%d0
   201ac:	14a5           	moveb %a5@-,%a2@
   201ae:	1b9f 135f 0f3f 	moveb %sp@+,%a5@(00000000)@(0f3f071f)
   201b4:	071f 
   201b6:	02df           	.short 0x02df
   201b8:	7c96           	moveq #-106,%d6
   201ba:	7c15           	moveq #21,%d6
   201bc:	7013           	moveq #19,%d0
   201be:	6410           	bccs 201d0 <picData+0x17c>
   201c0:	580e           	.short 0x580e
   201c2:	4c0c           	.short 0x4c0c
   201c4:	400a           	.short 0x400a
   201c6:	3808           	movew %a0,%d4
   201c8:	2c06           	movel %d6,%d6
   201ca:	2005           	movel %d5,%d0
   201cc:	7f7f           	.short 0x7f7f
   201ce:	7eff           	moveq #-1,%d7
   201d0:	7e7f           	moveq #127,%d7
   201d2:	7dff           	.short 0x7dff
   201d4:	7d7f           	.short 0x7d7f
   201d6:	7d1f           	.short 0x7d1f
   201d8:	7c9f           	moveq #-97,%d6
   201da:	7c1f           	moveq #31,%d6
   201dc:	701c           	moveq #28,%d0
   201de:	6419           	bccs 201f9 <picData+0x1a5>
   201e0:	5816           	addqb #4,%fp@
   201e2:	4c13           	.short 0x4c13
   201e4:	4010           	negxb %a0@
   201e6:	380d           	movew %a5,%d4
   201e8:	2c0b           	movel %a3,%d6
   201ea:	2008           	movel %a0,%d0
   201ec:	6fbf           	bles 201ad <picData+0x159>
   201ee:	6b9f           	bmis 2018f <picData+0x13b>
   201f0:	637f           	blss 20271 <picData+0x21d>
   201f2:	5f5f           	subqw #7,%sp@+
   201f4:	5b3f           	.short 0x5b3f
   201f6:	531f           	subqb #1,%sp@+
   201f8:	4eff           	.short 0x4eff
   201fa:	4aff           	.short 0x4aff
   201fc:	42df           	.short 0x42df
   201fe:	3a9f           	movew %sp@+,%a5@
   20200:	327f           	.short 0x327f
   20202:	2e5e           	moveal %fp@+,%sp
   20204:	2e3d           	.short 0x2e3d
   20206:	2a3b 2a1a      	movel %pc@(20222 <picData+0x1ce>,%d2:l:2),%d5
   2020a:	25f9           	.short 0x25f9
   2020c:	25f7           	.short 0x25f7
   2020e:	21d6 21b5      	movel %fp@,21b5 <_sdata+0x21b1>
   20212:	1d94 1d93 1972 	moveb %a4@,@(00000000,%d1:l:4)@(19721971)
   20218:	1971 
   2021a:	1550 152e      	moveb %a0@,%a2@(5422)
   2021e:	112d 110b      	moveb %a5@(4363),%a0@-
   20222:	0cea           	.short 0x0cea
   20224:	0ce9           	.short 0x0ce9
   20226:	0cc8           	.short 0x0cc8
   20228:	08a7 0485      	bclr #-123,%sp@-
   2022c:	300c           	movew %a4,%d0
   2022e:	3180 3180      	movew %d0,@(00000000,%d3:w)
   20232:	0c00 1400      	cmpib #0,%d0
   20236:	0886 2409      	bclr #9,%d6
   2023a:	280a           	movel %a2,%d4
   2023c:	1800           	moveb %d0,%d4
   2023e:	0c63 2529      	cmpiw #9513,%a3@-
   20242:	2d6b 2108 18c6 	movel %a3@(8456),%fp@(6342)
   20248:	18c6           	moveb %d6,%a4@+
   2024a:	7bdb           	.short 0x7bdb
   2024c:	77b7           	.short 0x77b7
   2024e:	6f73           	bles 202c3 <picData+0x26f>
   20250:	672e           	beqs 20280 <picData+0x22c>
   20252:	6309           	blss 2025d <picData+0x209>
   20254:	5ac4           	spl %d4
   20256:	5ac4           	spl %d4
   20258:	5280           	addql #1,%d0
   2025a:	4e60           	movel %a0,%usp
   2025c:	4620           	notb %a0@-
   2025e:	4200           	clrb %d0
   20260:	3de0           	.short 0x3de0
   20262:	3de0           	.short 0x3de0
   20264:	39c0           	.short 0x39c0
   20266:	39c0           	.short 0x39c0
   20268:	35a0 4413      	movew %a0@-,%a2@(00000013,%d4:w:4)
   2026c:	2929 2929      	movel %a1@(10537),%a4@-
   20270:	2929 2929      	movel %a1@(10537),%a4@-
   20274:	2929 2929      	movel %a1@(10537),%a4@-
   20278:	2929 2929      	movel %a1@(10537),%a4@-
   2027c:	2929 2929      	movel %a1@(10537),%a4@-
   20280:	2929 2929      	movel %a1@(10537),%a4@-
   20284:	2929 2929      	movel %a1@(10537),%a4@-
   20288:	2929 2929      	movel %a1@(10537),%a4@-
   2028c:	2929 2929      	movel %a1@(10537),%a4@-
   20290:	2929 2929      	movel %a1@(10537),%a4@-
   20294:	2929 2929      	movel %a1@(10537),%a4@-
   20298:	2929 2929      	movel %a1@(10537),%a4@-
   2029c:	2929 2929      	movel %a1@(10537),%a4@-
   202a0:	2929 2929      	movel %a1@(10537),%a4@-
   202a4:	2929 2929      	movel %a1@(10537),%a4@-
   202a8:	2929 2929      	movel %a1@(10537),%a4@-
   202ac:	2929 2929      	movel %a1@(10537),%a4@-
   202b0:	2929 2929      	movel %a1@(10537),%a4@-
   202b4:	2929 2929      	movel %a1@(10537),%a4@-
   202b8:	2929 2929      	movel %a1@(10537),%a4@-
   202bc:	2929 2929      	movel %a1@(10537),%a4@-
   202c0:	2929 2929      	movel %a1@(10537),%a4@-
   202c4:	2929 2929      	movel %a1@(10537),%a4@-
   202c8:	2929 2929      	movel %a1@(10537),%a4@-
   202cc:	2929 2929      	movel %a1@(10537),%a4@-
   202d0:	2929 2929      	movel %a1@(10537),%a4@-
   202d4:	2929 2929      	movel %a1@(10537),%a4@-
   202d8:	2929 2929      	movel %a1@(10537),%a4@-
   202dc:	2929 2929      	movel %a1@(10537),%a4@-
   202e0:	2929 2929      	movel %a1@(10537),%a4@-
   202e4:	2929 2929      	movel %a1@(10537),%a4@-
   202e8:	2929 2929      	movel %a1@(10537),%a4@-
   202ec:	2929 2929      	movel %a1@(10537),%a4@-
   202f0:	2929 2929      	movel %a1@(10537),%a4@-
   202f4:	2929 2929      	movel %a1@(10537),%a4@-
   202f8:	2929 2929      	movel %a1@(10537),%a4@-
   202fc:	2929 2929      	movel %a1@(10537),%a4@-
   20300:	2929 2929      	movel %a1@(10537),%a4@-
   20304:	2929 2929      	movel %a1@(10537),%a4@-
   20308:	2929 2929      	movel %a1@(10537),%a4@-
   2030c:	2929 2929      	movel %a1@(10537),%a4@-
   20310:	2929 2929      	movel %a1@(10537),%a4@-
   20314:	2929 2929      	movel %a1@(10537),%a4@-
   20318:	2929 2929      	movel %a1@(10537),%a4@-
   2031c:	2929 2929      	movel %a1@(10537),%a4@-
   20320:	2929 2929      	movel %a1@(10537),%a4@-
   20324:	2929 2929      	movel %a1@(10537),%a4@-
   20328:	2929 2929      	movel %a1@(10537),%a4@-
   2032c:	2929 2929      	movel %a1@(10537),%a4@-
   20330:	2929 2929      	movel %a1@(10537),%a4@-
   20334:	2929 2929      	movel %a1@(10537),%a4@-
   20338:	2929 2929      	movel %a1@(10537),%a4@-
   2033c:	2929 2929      	movel %a1@(10537),%a4@-
   20340:	2929 2929      	movel %a1@(10537),%a4@-
   20344:	2929 2929      	movel %a1@(10537),%a4@-
   20348:	2929 2929      	movel %a1@(10537),%a4@-
   2034c:	2929 2929      	movel %a1@(10537),%a4@-
   20350:	2929 2929      	movel %a1@(10537),%a4@-
   20354:	2929 2929      	movel %a1@(10537),%a4@-
   20358:	2929 2929      	movel %a1@(10537),%a4@-
   2035c:	2929 2929      	movel %a1@(10537),%a4@-
   20360:	2929 2929      	movel %a1@(10537),%a4@-
   20364:	2929 2929      	movel %a1@(10537),%a4@-
   20368:	2929 2929      	movel %a1@(10537),%a4@-
   2036c:	2929 2929      	movel %a1@(10537),%a4@-
   20370:	2929 2929      	movel %a1@(10537),%a4@-
   20374:	2929 2929      	movel %a1@(10537),%a4@-
   20378:	2929 2929      	movel %a1@(10537),%a4@-
   2037c:	2929 2929      	movel %a1@(10537),%a4@-
   20380:	2929 2929      	movel %a1@(10537),%a4@-
   20384:	2929 2929      	movel %a1@(10537),%a4@-
   20388:	2929 2929      	movel %a1@(10537),%a4@-
   2038c:	2929 2929      	movel %a1@(10537),%a4@-
   20390:	2929 2929      	movel %a1@(10537),%a4@-
   20394:	2929 2929      	movel %a1@(10537),%a4@-
   20398:	2929 2929      	movel %a1@(10537),%a4@-
   2039c:	2929 2929      	movel %a1@(10537),%a4@-
   203a0:	2929 2929      	movel %a1@(10537),%a4@-
   203a4:	2929 2929      	movel %a1@(10537),%a4@-
   203a8:	2929 2929      	movel %a1@(10537),%a4@-
   203ac:	2929 2929      	movel %a1@(10537),%a4@-
   203b0:	2929 2929      	movel %a1@(10537),%a4@-
   203b4:	2929 2929      	movel %a1@(10537),%a4@-
   203b8:	2929 2929      	movel %a1@(10537),%a4@-
   203bc:	2929 2929      	movel %a1@(10537),%a4@-
   203c0:	2929 2929      	movel %a1@(10537),%a4@-
   203c4:	2929 2929      	movel %a1@(10537),%a4@-
   203c8:	2929 2929      	movel %a1@(10537),%a4@-
   203cc:	2929 2929      	movel %a1@(10537),%a4@-
   203d0:	2929 2929      	movel %a1@(10537),%a4@-
   203d4:	2929 2929      	movel %a1@(10537),%a4@-
   203d8:	2929 2929      	movel %a1@(10537),%a4@-
   203dc:	2929 2929      	movel %a1@(10537),%a4@-
   203e0:	2929 2929      	movel %a1@(10537),%a4@-
   203e4:	2929 2929      	movel %a1@(10537),%a4@-
   203e8:	2929 2929      	movel %a1@(10537),%a4@-
   203ec:	2929 2929      	movel %a1@(10537),%a4@-
   203f0:	2929 2929      	movel %a1@(10537),%a4@-
   203f4:	2929 2929      	movel %a1@(10537),%a4@-
   203f8:	2929 2929      	movel %a1@(10537),%a4@-
   203fc:	2929 2929      	movel %a1@(10537),%a4@-
   20400:	2929 2929      	movel %a1@(10537),%a4@-
   20404:	2929 2929      	movel %a1@(10537),%a4@-
   20408:	2929 2929      	movel %a1@(10537),%a4@-
   2040c:	2929 2929      	movel %a1@(10537),%a4@-
   20410:	2929 2929      	movel %a1@(10537),%a4@-
   20414:	2929 2929      	movel %a1@(10537),%a4@-
   20418:	2929 2929      	movel %a1@(10537),%a4@-
   2041c:	2929 2929      	movel %a1@(10537),%a4@-
   20420:	2929 2929      	movel %a1@(10537),%a4@-
   20424:	2929 2929      	movel %a1@(10537),%a4@-
   20428:	2929 2929      	movel %a1@(10537),%a4@-
   2042c:	2929 2929      	movel %a1@(10537),%a4@-
   20430:	2929 2929      	movel %a1@(10537),%a4@-
   20434:	2929 2929      	movel %a1@(10537),%a4@-
   20438:	2929 2929      	movel %a1@(10537),%a4@-
   2043c:	2929 2929      	movel %a1@(10537),%a4@-
   20440:	2929 2929      	movel %a1@(10537),%a4@-
   20444:	2929 2929      	movel %a1@(10537),%a4@-
   20448:	2929 2929      	movel %a1@(10537),%a4@-
   2044c:	2929 2929      	movel %a1@(10537),%a4@-
   20450:	2929 2929      	movel %a1@(10537),%a4@-
   20454:	2929 2929      	movel %a1@(10537),%a4@-
   20458:	2929 2929      	movel %a1@(10537),%a4@-
   2045c:	2929 2929      	movel %a1@(10537),%a4@-
   20460:	2929 2929      	movel %a1@(10537),%a4@-
   20464:	2929 2929      	movel %a1@(10537),%a4@-
   20468:	2929 2929      	movel %a1@(10537),%a4@-
   2046c:	2929 2929      	movel %a1@(10537),%a4@-
   20470:	2929 2929      	movel %a1@(10537),%a4@-
   20474:	2929 2929      	movel %a1@(10537),%a4@-
   20478:	2929 2929      	movel %a1@(10537),%a4@-
   2047c:	2929 2929      	movel %a1@(10537),%a4@-
   20480:	2929 2929      	movel %a1@(10537),%a4@-
   20484:	2929 2929      	movel %a1@(10537),%a4@-
   20488:	2929 2929      	movel %a1@(10537),%a4@-
   2048c:	2929 2929      	movel %a1@(10537),%a4@-
   20490:	2929 2929      	movel %a1@(10537),%a4@-
   20494:	2929 2929      	movel %a1@(10537),%a4@-
   20498:	2929 2929      	movel %a1@(10537),%a4@-
   2049c:	2929 2929      	movel %a1@(10537),%a4@-
   204a0:	2929 2929      	movel %a1@(10537),%a4@-
   204a4:	2929 2929      	movel %a1@(10537),%a4@-
   204a8:	2929 2929      	movel %a1@(10537),%a4@-
   204ac:	2929 2929      	movel %a1@(10537),%a4@-
   204b0:	2929 2929      	movel %a1@(10537),%a4@-
   204b4:	2929 2929      	movel %a1@(10537),%a4@-
   204b8:	2929 2929      	movel %a1@(10537),%a4@-
   204bc:	2929 2929      	movel %a1@(10537),%a4@-
   204c0:	2929 2929      	movel %a1@(10537),%a4@-
   204c4:	2929 2929      	movel %a1@(10537),%a4@-
   204c8:	2929 2929      	movel %a1@(10537),%a4@-
   204cc:	2929 2929      	movel %a1@(10537),%a4@-
   204d0:	2929 2929      	movel %a1@(10537),%a4@-
   204d4:	2929 2929      	movel %a1@(10537),%a4@-
   204d8:	2929 2929      	movel %a1@(10537),%a4@-
   204dc:	2929 2929      	movel %a1@(10537),%a4@-
   204e0:	2929 2929      	movel %a1@(10537),%a4@-
   204e4:	2929 2929      	movel %a1@(10537),%a4@-
   204e8:	2929 2929      	movel %a1@(10537),%a4@-
   204ec:	2929 2929      	movel %a1@(10537),%a4@-
   204f0:	2929 2929      	movel %a1@(10537),%a4@-
   204f4:	2929 2929      	movel %a1@(10537),%a4@-
   204f8:	2929 2929      	movel %a1@(10537),%a4@-
   204fc:	2929 2929      	movel %a1@(10537),%a4@-
   20500:	2929 2929      	movel %a1@(10537),%a4@-
   20504:	2929 2929      	movel %a1@(10537),%a4@-
   20508:	2929 2929      	movel %a1@(10537),%a4@-
   2050c:	2929 2929      	movel %a1@(10537),%a4@-
   20510:	2929 2929      	movel %a1@(10537),%a4@-
   20514:	2929 2929      	movel %a1@(10537),%a4@-
   20518:	2929 2929      	movel %a1@(10537),%a4@-
   2051c:	2929 2929      	movel %a1@(10537),%a4@-
   20520:	2929 2929      	movel %a1@(10537),%a4@-
   20524:	2929 2929      	movel %a1@(10537),%a4@-
   20528:	2929 2929      	movel %a1@(10537),%a4@-
   2052c:	2929 2929      	movel %a1@(10537),%a4@-
   20530:	2929 2929      	movel %a1@(10537),%a4@-
   20534:	2929 2929      	movel %a1@(10537),%a4@-
   20538:	2929 2929      	movel %a1@(10537),%a4@-
   2053c:	2929 2929      	movel %a1@(10537),%a4@-
   20540:	2929 2929      	movel %a1@(10537),%a4@-
   20544:	2929 2929      	movel %a1@(10537),%a4@-
   20548:	2929 2929      	movel %a1@(10537),%a4@-
   2054c:	2929 2929      	movel %a1@(10537),%a4@-
   20550:	2929 2929      	movel %a1@(10537),%a4@-
   20554:	2929 2929      	movel %a1@(10537),%a4@-
   20558:	2929 2929      	movel %a1@(10537),%a4@-
   2055c:	2929 2929      	movel %a1@(10537),%a4@-
   20560:	2929 2929      	movel %a1@(10537),%a4@-
   20564:	2929 2929      	movel %a1@(10537),%a4@-
   20568:	2929 2929      	movel %a1@(10537),%a4@-
   2056c:	2929 2929      	movel %a1@(10537),%a4@-
   20570:	2929 2929      	movel %a1@(10537),%a4@-
   20574:	2929 2929      	movel %a1@(10537),%a4@-
   20578:	2929 2929      	movel %a1@(10537),%a4@-
   2057c:	2929 2929      	movel %a1@(10537),%a4@-
   20580:	2929 2929      	movel %a1@(10537),%a4@-
   20584:	2929 2929      	movel %a1@(10537),%a4@-
   20588:	2929 2929      	movel %a1@(10537),%a4@-
   2058c:	2929 2929      	movel %a1@(10537),%a4@-
   20590:	2929 2929      	movel %a1@(10537),%a4@-
   20594:	2929 2929      	movel %a1@(10537),%a4@-
   20598:	2929 2929      	movel %a1@(10537),%a4@-
   2059c:	2929 2929      	movel %a1@(10537),%a4@-
   205a0:	2929 2929      	movel %a1@(10537),%a4@-
   205a4:	2929 2929      	movel %a1@(10537),%a4@-
   205a8:	2929 2929      	movel %a1@(10537),%a4@-
   205ac:	2929 2929      	movel %a1@(10537),%a4@-
   205b0:	2929 2929      	movel %a1@(10537),%a4@-
   205b4:	2929 2929      	movel %a1@(10537),%a4@-
   205b8:	2929 2929      	movel %a1@(10537),%a4@-
   205bc:	2929 2929      	movel %a1@(10537),%a4@-
   205c0:	2929 2929      	movel %a1@(10537),%a4@-
   205c4:	2929 2929      	movel %a1@(10537),%a4@-
   205c8:	2929 2929      	movel %a1@(10537),%a4@-
   205cc:	2929 2929      	movel %a1@(10537),%a4@-
   205d0:	2929 2929      	movel %a1@(10537),%a4@-
   205d4:	2929 2929      	movel %a1@(10537),%a4@-
   205d8:	2929 2929      	movel %a1@(10537),%a4@-
   205dc:	2929 2929      	movel %a1@(10537),%a4@-
   205e0:	2929 2929      	movel %a1@(10537),%a4@-
   205e4:	2929 2929      	movel %a1@(10537),%a4@-
   205e8:	2929 2929      	movel %a1@(10537),%a4@-
   205ec:	2929 2929      	movel %a1@(10537),%a4@-
   205f0:	2929 2929      	movel %a1@(10537),%a4@-
   205f4:	2929 2929      	movel %a1@(10537),%a4@-
   205f8:	2929 2929      	movel %a1@(10537),%a4@-
   205fc:	2929 2929      	movel %a1@(10537),%a4@-
   20600:	2929 2929      	movel %a1@(10537),%a4@-
   20604:	2929 2929      	movel %a1@(10537),%a4@-
   20608:	2929 2929      	movel %a1@(10537),%a4@-
   2060c:	2929 2929      	movel %a1@(10537),%a4@-
   20610:	2929 2929      	movel %a1@(10537),%a4@-
   20614:	2929 2929      	movel %a1@(10537),%a4@-
   20618:	2929 2929      	movel %a1@(10537),%a4@-
   2061c:	2929 2929      	movel %a1@(10537),%a4@-
   20620:	2929 2929      	movel %a1@(10537),%a4@-
   20624:	2929 2929      	movel %a1@(10537),%a4@-
   20628:	2929 2929      	movel %a1@(10537),%a4@-
   2062c:	2929 2929      	movel %a1@(10537),%a4@-
   20630:	2929 2929      	movel %a1@(10537),%a4@-
   20634:	2929 2929      	movel %a1@(10537),%a4@-
   20638:	2929 2929      	movel %a1@(10537),%a4@-
   2063c:	2929 2929      	movel %a1@(10537),%a4@-
   20640:	2929 2929      	movel %a1@(10537),%a4@-
   20644:	2929 2929      	movel %a1@(10537),%a4@-
   20648:	2929 2929      	movel %a1@(10537),%a4@-
   2064c:	2929 2929      	movel %a1@(10537),%a4@-
   20650:	2929 2929      	movel %a1@(10537),%a4@-
   20654:	2929 2929      	movel %a1@(10537),%a4@-
   20658:	2929 2929      	movel %a1@(10537),%a4@-
   2065c:	2929 2929      	movel %a1@(10537),%a4@-
   20660:	2929 2929      	movel %a1@(10537),%a4@-
   20664:	2929 2929      	movel %a1@(10537),%a4@-
   20668:	2929 2929      	movel %a1@(10537),%a4@-
   2066c:	2929 2929      	movel %a1@(10537),%a4@-
   20670:	2929 2929      	movel %a1@(10537),%a4@-
   20674:	2929 2929      	movel %a1@(10537),%a4@-
   20678:	2929 2929      	movel %a1@(10537),%a4@-
   2067c:	2929 2929      	movel %a1@(10537),%a4@-
   20680:	2929 2929      	movel %a1@(10537),%a4@-
   20684:	2929 2929      	movel %a1@(10537),%a4@-
   20688:	2929 2929      	movel %a1@(10537),%a4@-
   2068c:	2929 2929      	movel %a1@(10537),%a4@-
   20690:	2929 2929      	movel %a1@(10537),%a4@-
   20694:	2929 2929      	movel %a1@(10537),%a4@-
   20698:	2929 2929      	movel %a1@(10537),%a4@-
   2069c:	2929 2929      	movel %a1@(10537),%a4@-
   206a0:	2929 2929      	movel %a1@(10537),%a4@-
   206a4:	2929 2929      	movel %a1@(10537),%a4@-
   206a8:	2929 2929      	movel %a1@(10537),%a4@-
   206ac:	2929 2929      	movel %a1@(10537),%a4@-
   206b0:	2929 2929      	movel %a1@(10537),%a4@-
   206b4:	2929 2929      	movel %a1@(10537),%a4@-
   206b8:	2929 2929      	movel %a1@(10537),%a4@-
   206bc:	2929 2929      	movel %a1@(10537),%a4@-
   206c0:	2929 2929      	movel %a1@(10537),%a4@-
   206c4:	2929 2929      	movel %a1@(10537),%a4@-
   206c8:	2929 2929      	movel %a1@(10537),%a4@-
   206cc:	2929 2929      	movel %a1@(10537),%a4@-
   206d0:	2929 2929      	movel %a1@(10537),%a4@-
   206d4:	2929 2929      	movel %a1@(10537),%a4@-
   206d8:	2929 2929      	movel %a1@(10537),%a4@-
   206dc:	2929 2929      	movel %a1@(10537),%a4@-
   206e0:	2929 2929      	movel %a1@(10537),%a4@-
   206e4:	2929 2929      	movel %a1@(10537),%a4@-
   206e8:	2929 2929      	movel %a1@(10537),%a4@-
   206ec:	2929 2929      	movel %a1@(10537),%a4@-
   206f0:	2929 2929      	movel %a1@(10537),%a4@-
   206f4:	2929 2929      	movel %a1@(10537),%a4@-
   206f8:	2929 2929      	movel %a1@(10537),%a4@-
   206fc:	2929 2929      	movel %a1@(10537),%a4@-
   20700:	2929 2929      	movel %a1@(10537),%a4@-
   20704:	2929 2929      	movel %a1@(10537),%a4@-
   20708:	2929 2929      	movel %a1@(10537),%a4@-
   2070c:	2929 2929      	movel %a1@(10537),%a4@-
   20710:	2929 2929      	movel %a1@(10537),%a4@-
   20714:	2929 2929      	movel %a1@(10537),%a4@-
   20718:	2929 2929      	movel %a1@(10537),%a4@-
   2071c:	2929 2929      	movel %a1@(10537),%a4@-
   20720:	2929 2929      	movel %a1@(10537),%a4@-
   20724:	2929 2929      	movel %a1@(10537),%a4@-
   20728:	2929 2929      	movel %a1@(10537),%a4@-
   2072c:	2929 2929      	movel %a1@(10537),%a4@-
   20730:	2929 2929      	movel %a1@(10537),%a4@-
   20734:	2929 2929      	movel %a1@(10537),%a4@-
   20738:	2929 2929      	movel %a1@(10537),%a4@-
   2073c:	2929 2929      	movel %a1@(10537),%a4@-
   20740:	2929 2929      	movel %a1@(10537),%a4@-
   20744:	2929 2929      	movel %a1@(10537),%a4@-
   20748:	2929 2929      	movel %a1@(10537),%a4@-
   2074c:	2929 2929      	movel %a1@(10537),%a4@-
   20750:	2929 2929      	movel %a1@(10537),%a4@-
   20754:	2929 2929      	movel %a1@(10537),%a4@-
   20758:	2929 2929      	movel %a1@(10537),%a4@-
   2075c:	2929 2929      	movel %a1@(10537),%a4@-
   20760:	2929 2929      	movel %a1@(10537),%a4@-
   20764:	2929 2929      	movel %a1@(10537),%a4@-
   20768:	2929 2929      	movel %a1@(10537),%a4@-
   2076c:	2929 2929      	movel %a1@(10537),%a4@-
   20770:	2929 2929      	movel %a1@(10537),%a4@-
   20774:	2929 2929      	movel %a1@(10537),%a4@-
   20778:	2929 2929      	movel %a1@(10537),%a4@-
   2077c:	2929 2929      	movel %a1@(10537),%a4@-
   20780:	2929 2929      	movel %a1@(10537),%a4@-
   20784:	2929 2929      	movel %a1@(10537),%a4@-
   20788:	2929 2929      	movel %a1@(10537),%a4@-
   2078c:	2929 2929      	movel %a1@(10537),%a4@-
   20790:	2929 2929      	movel %a1@(10537),%a4@-
   20794:	2929 2929      	movel %a1@(10537),%a4@-
   20798:	2929 2929      	movel %a1@(10537),%a4@-
   2079c:	2929 2929      	movel %a1@(10537),%a4@-
   207a0:	2929 2929      	movel %a1@(10537),%a4@-
   207a4:	2929 2929      	movel %a1@(10537),%a4@-
   207a8:	2929 2929      	movel %a1@(10537),%a4@-
   207ac:	2929 2929      	movel %a1@(10537),%a4@-
   207b0:	2929 2929      	movel %a1@(10537),%a4@-
   207b4:	2929 2929      	movel %a1@(10537),%a4@-
   207b8:	2929 2929      	movel %a1@(10537),%a4@-
   207bc:	2929 2929      	movel %a1@(10537),%a4@-
   207c0:	2929 2929      	movel %a1@(10537),%a4@-
   207c4:	2929 2929      	movel %a1@(10537),%a4@-
   207c8:	2929 2929      	movel %a1@(10537),%a4@-
   207cc:	2929 2929      	movel %a1@(10537),%a4@-
   207d0:	2929 2929      	movel %a1@(10537),%a4@-
   207d4:	2929 2929      	movel %a1@(10537),%a4@-
   207d8:	2929 2929      	movel %a1@(10537),%a4@-
   207dc:	2929 2929      	movel %a1@(10537),%a4@-
   207e0:	2929 2929      	movel %a1@(10537),%a4@-
   207e4:	2929 2929      	movel %a1@(10537),%a4@-
   207e8:	2929 2929      	movel %a1@(10537),%a4@-
   207ec:	2929 2929      	movel %a1@(10537),%a4@-
   207f0:	2929 2929      	movel %a1@(10537),%a4@-
   207f4:	2929 2929      	movel %a1@(10537),%a4@-
   207f8:	2929 2929      	movel %a1@(10537),%a4@-
   207fc:	2929 2929      	movel %a1@(10537),%a4@-
   20800:	2929 2929      	movel %a1@(10537),%a4@-
   20804:	2929 2929      	movel %a1@(10537),%a4@-
   20808:	2929 2929      	movel %a1@(10537),%a4@-
   2080c:	2929 2929      	movel %a1@(10537),%a4@-
   20810:	2929 2929      	movel %a1@(10537),%a4@-
   20814:	2929 2929      	movel %a1@(10537),%a4@-
   20818:	2929 2929      	movel %a1@(10537),%a4@-
   2081c:	2929 2929      	movel %a1@(10537),%a4@-
   20820:	2929 2929      	movel %a1@(10537),%a4@-
   20824:	2929 2929      	movel %a1@(10537),%a4@-
   20828:	2929 2929      	movel %a1@(10537),%a4@-
   2082c:	2929 2929      	movel %a1@(10537),%a4@-
   20830:	2929 2929      	movel %a1@(10537),%a4@-
   20834:	2929 2929      	movel %a1@(10537),%a4@-
   20838:	2929 2929      	movel %a1@(10537),%a4@-
   2083c:	2929 2929      	movel %a1@(10537),%a4@-
   20840:	2929 2929      	movel %a1@(10537),%a4@-
   20844:	2929 2929      	movel %a1@(10537),%a4@-
   20848:	2929 2929      	movel %a1@(10537),%a4@-
   2084c:	2929 2929      	movel %a1@(10537),%a4@-
   20850:	2929 2929      	movel %a1@(10537),%a4@-
   20854:	2929 2929      	movel %a1@(10537),%a4@-
   20858:	2929 2929      	movel %a1@(10537),%a4@-
   2085c:	2929 2929      	movel %a1@(10537),%a4@-
   20860:	2929 2929      	movel %a1@(10537),%a4@-
   20864:	2929 2929      	movel %a1@(10537),%a4@-
   20868:	2929 2929      	movel %a1@(10537),%a4@-
   2086c:	2929 2929      	movel %a1@(10537),%a4@-
   20870:	2929 2929      	movel %a1@(10537),%a4@-
   20874:	2929 2929      	movel %a1@(10537),%a4@-
   20878:	2929 2929      	movel %a1@(10537),%a4@-
   2087c:	2929 2929      	movel %a1@(10537),%a4@-
   20880:	2929 2929      	movel %a1@(10537),%a4@-
   20884:	2929 2929      	movel %a1@(10537),%a4@-
   20888:	2929 2929      	movel %a1@(10537),%a4@-
   2088c:	2929 2929      	movel %a1@(10537),%a4@-
   20890:	2929 2929      	movel %a1@(10537),%a4@-
   20894:	2929 2929      	movel %a1@(10537),%a4@-
   20898:	2929 2929      	movel %a1@(10537),%a4@-
   2089c:	2929 2929      	movel %a1@(10537),%a4@-
   208a0:	2929 2929      	movel %a1@(10537),%a4@-
   208a4:	2929 2929      	movel %a1@(10537),%a4@-
   208a8:	2929 2929      	movel %a1@(10537),%a4@-
   208ac:	2929 2929      	movel %a1@(10537),%a4@-
   208b0:	2929 2929      	movel %a1@(10537),%a4@-
   208b4:	2929 2929      	movel %a1@(10537),%a4@-
   208b8:	2929 2929      	movel %a1@(10537),%a4@-
   208bc:	2929 2929      	movel %a1@(10537),%a4@-
   208c0:	2929 2929      	movel %a1@(10537),%a4@-
   208c4:	2929 2929      	movel %a1@(10537),%a4@-
   208c8:	2929 2929      	movel %a1@(10537),%a4@-
   208cc:	2929 2929      	movel %a1@(10537),%a4@-
   208d0:	2929 2929      	movel %a1@(10537),%a4@-
   208d4:	2929 2929      	movel %a1@(10537),%a4@-
   208d8:	2929 2929      	movel %a1@(10537),%a4@-
   208dc:	2929 2929      	movel %a1@(10537),%a4@-
   208e0:	2929 2929      	movel %a1@(10537),%a4@-
   208e4:	2929 2929      	movel %a1@(10537),%a4@-
   208e8:	2929 2929      	movel %a1@(10537),%a4@-
   208ec:	2929 2929      	movel %a1@(10537),%a4@-
   208f0:	2929 2929      	movel %a1@(10537),%a4@-
   208f4:	2929 2929      	movel %a1@(10537),%a4@-
   208f8:	2929 2929      	movel %a1@(10537),%a4@-
   208fc:	2929 2929      	movel %a1@(10537),%a4@-
   20900:	2929 2929      	movel %a1@(10537),%a4@-
   20904:	2929 2929      	movel %a1@(10537),%a4@-
   20908:	2929 2929      	movel %a1@(10537),%a4@-
   2090c:	2929 2929      	movel %a1@(10537),%a4@-
   20910:	2929 2929      	movel %a1@(10537),%a4@-
   20914:	2929 2929      	movel %a1@(10537),%a4@-
   20918:	2929 2929      	movel %a1@(10537),%a4@-
   2091c:	2929 2929      	movel %a1@(10537),%a4@-
   20920:	2929 2929      	movel %a1@(10537),%a4@-
   20924:	2929 2929      	movel %a1@(10537),%a4@-
   20928:	2929 2929      	movel %a1@(10537),%a4@-
   2092c:	2929 2929      	movel %a1@(10537),%a4@-
   20930:	2929 2929      	movel %a1@(10537),%a4@-
   20934:	2929 2929      	movel %a1@(10537),%a4@-
   20938:	2929 2929      	movel %a1@(10537),%a4@-
   2093c:	2929 2929      	movel %a1@(10537),%a4@-
   20940:	2929 2929      	movel %a1@(10537),%a4@-
   20944:	2929 2929      	movel %a1@(10537),%a4@-
   20948:	2929 2929      	movel %a1@(10537),%a4@-
   2094c:	2929 2929      	movel %a1@(10537),%a4@-
   20950:	2929 2929      	movel %a1@(10537),%a4@-
   20954:	2929 2929      	movel %a1@(10537),%a4@-
   20958:	2929 2929      	movel %a1@(10537),%a4@-
   2095c:	2929 2929      	movel %a1@(10537),%a4@-
   20960:	2929 2929      	movel %a1@(10537),%a4@-
   20964:	2929 2929      	movel %a1@(10537),%a4@-
   20968:	2929 2929      	movel %a1@(10537),%a4@-
   2096c:	2929 2929      	movel %a1@(10537),%a4@-
   20970:	2929 2929      	movel %a1@(10537),%a4@-
   20974:	2929 2929      	movel %a1@(10537),%a4@-
   20978:	2929 2929      	movel %a1@(10537),%a4@-
   2097c:	2929 2929      	movel %a1@(10537),%a4@-
   20980:	2929 2929      	movel %a1@(10537),%a4@-
   20984:	2929 2929      	movel %a1@(10537),%a4@-
   20988:	2929 2929      	movel %a1@(10537),%a4@-
   2098c:	2929 2929      	movel %a1@(10537),%a4@-
   20990:	2929 2929      	movel %a1@(10537),%a4@-
   20994:	2929 2929      	movel %a1@(10537),%a4@-
   20998:	2929 2929      	movel %a1@(10537),%a4@-
   2099c:	2929 2929      	movel %a1@(10537),%a4@-
   209a0:	2929 2929      	movel %a1@(10537),%a4@-
   209a4:	2929 2929      	movel %a1@(10537),%a4@-
   209a8:	2929 2929      	movel %a1@(10537),%a4@-
   209ac:	2929 2929      	movel %a1@(10537),%a4@-
   209b0:	2929 2929      	movel %a1@(10537),%a4@-
   209b4:	2929 2929      	movel %a1@(10537),%a4@-
   209b8:	2929 2929      	movel %a1@(10537),%a4@-
   209bc:	2929 2929      	movel %a1@(10537),%a4@-
   209c0:	2929 2929      	movel %a1@(10537),%a4@-
   209c4:	2929 2929      	movel %a1@(10537),%a4@-
   209c8:	2929 2929      	movel %a1@(10537),%a4@-
   209cc:	2929 2929      	movel %a1@(10537),%a4@-
   209d0:	2929 2929      	movel %a1@(10537),%a4@-
   209d4:	2929 2929      	movel %a1@(10537),%a4@-
   209d8:	2929 2929      	movel %a1@(10537),%a4@-
   209dc:	2929 2929      	movel %a1@(10537),%a4@-
   209e0:	2929 2929      	movel %a1@(10537),%a4@-
   209e4:	2929 2929      	movel %a1@(10537),%a4@-
   209e8:	2929 2929      	movel %a1@(10537),%a4@-
   209ec:	2929 2929      	movel %a1@(10537),%a4@-
   209f0:	2929 2929      	movel %a1@(10537),%a4@-
   209f4:	2929 2929      	movel %a1@(10537),%a4@-
   209f8:	2929 2929      	movel %a1@(10537),%a4@-
   209fc:	2929 2929      	movel %a1@(10537),%a4@-
   20a00:	2929 2929      	movel %a1@(10537),%a4@-
   20a04:	2929 2929      	movel %a1@(10537),%a4@-
   20a08:	2929 2929      	movel %a1@(10537),%a4@-
   20a0c:	2929 2929      	movel %a1@(10537),%a4@-
   20a10:	2929 2929      	movel %a1@(10537),%a4@-
   20a14:	2929 2929      	movel %a1@(10537),%a4@-
   20a18:	2929 2929      	movel %a1@(10537),%a4@-
   20a1c:	2929 2929      	movel %a1@(10537),%a4@-
   20a20:	2929 2929      	movel %a1@(10537),%a4@-
   20a24:	2929 2929      	movel %a1@(10537),%a4@-
   20a28:	2929 2929      	movel %a1@(10537),%a4@-
   20a2c:	2929 2929      	movel %a1@(10537),%a4@-
   20a30:	2929 2929      	movel %a1@(10537),%a4@-
   20a34:	2929 2929      	movel %a1@(10537),%a4@-
   20a38:	2929 2929      	movel %a1@(10537),%a4@-
   20a3c:	2929 2929      	movel %a1@(10537),%a4@-
   20a40:	2929 2929      	movel %a1@(10537),%a4@-
   20a44:	2929 2929      	movel %a1@(10537),%a4@-
   20a48:	2929 2929      	movel %a1@(10537),%a4@-
   20a4c:	2929 2929      	movel %a1@(10537),%a4@-
   20a50:	2929 2929      	movel %a1@(10537),%a4@-
   20a54:	2929 2929      	movel %a1@(10537),%a4@-
   20a58:	2929 2929      	movel %a1@(10537),%a4@-
   20a5c:	2929 2929      	movel %a1@(10537),%a4@-
   20a60:	2929 2929      	movel %a1@(10537),%a4@-
   20a64:	2929 2929      	movel %a1@(10537),%a4@-
   20a68:	2929 2929      	movel %a1@(10537),%a4@-
   20a6c:	2929 2929      	movel %a1@(10537),%a4@-
   20a70:	2929 2929      	movel %a1@(10537),%a4@-
   20a74:	2929 2929      	movel %a1@(10537),%a4@-
   20a78:	2929 2929      	movel %a1@(10537),%a4@-
   20a7c:	2929 2929      	movel %a1@(10537),%a4@-
   20a80:	2929 2929      	movel %a1@(10537),%a4@-
   20a84:	2929 2929      	movel %a1@(10537),%a4@-
   20a88:	2929 2929      	movel %a1@(10537),%a4@-
   20a8c:	2929 2929      	movel %a1@(10537),%a4@-
   20a90:	2929 2929      	movel %a1@(10537),%a4@-
   20a94:	2929 2929      	movel %a1@(10537),%a4@-
   20a98:	2929 2929      	movel %a1@(10537),%a4@-
   20a9c:	2929 2929      	movel %a1@(10537),%a4@-
   20aa0:	2929 2929      	movel %a1@(10537),%a4@-
   20aa4:	2929 2929      	movel %a1@(10537),%a4@-
   20aa8:	2929 2929      	movel %a1@(10537),%a4@-
   20aac:	2929 2929      	movel %a1@(10537),%a4@-
   20ab0:	2929 2929      	movel %a1@(10537),%a4@-
   20ab4:	2929 2929      	movel %a1@(10537),%a4@-
   20ab8:	2929 2929      	movel %a1@(10537),%a4@-
   20abc:	2929 2929      	movel %a1@(10537),%a4@-
   20ac0:	2929 2929      	movel %a1@(10537),%a4@-
   20ac4:	2929 2929      	movel %a1@(10537),%a4@-
   20ac8:	2929 2929      	movel %a1@(10537),%a4@-
   20acc:	2929 2929      	movel %a1@(10537),%a4@-
   20ad0:	2929 2929      	movel %a1@(10537),%a4@-
   20ad4:	2929 2929      	movel %a1@(10537),%a4@-
   20ad8:	2929 2929      	movel %a1@(10537),%a4@-
   20adc:	2929 2929      	movel %a1@(10537),%a4@-
   20ae0:	2929 2929      	movel %a1@(10537),%a4@-
   20ae4:	2929 2929      	movel %a1@(10537),%a4@-
   20ae8:	2929 2929      	movel %a1@(10537),%a4@-
   20aec:	2929 2929      	movel %a1@(10537),%a4@-
   20af0:	2929 2929      	movel %a1@(10537),%a4@-
   20af4:	2929 2929      	movel %a1@(10537),%a4@-
   20af8:	2929 2929      	movel %a1@(10537),%a4@-
   20afc:	2929 2929      	movel %a1@(10537),%a4@-
   20b00:	2929 2929      	movel %a1@(10537),%a4@-
   20b04:	2929 2929      	movel %a1@(10537),%a4@-
   20b08:	2929 2929      	movel %a1@(10537),%a4@-
   20b0c:	2929 2929      	movel %a1@(10537),%a4@-
   20b10:	2929 2929      	movel %a1@(10537),%a4@-
   20b14:	2929 2929      	movel %a1@(10537),%a4@-
   20b18:	2929 2929      	movel %a1@(10537),%a4@-
   20b1c:	2929 2929      	movel %a1@(10537),%a4@-
   20b20:	2929 2929      	movel %a1@(10537),%a4@-
   20b24:	2929 2929      	movel %a1@(10537),%a4@-
   20b28:	2929 2929      	movel %a1@(10537),%a4@-
   20b2c:	2929 2929      	movel %a1@(10537),%a4@-
   20b30:	2929 2929      	movel %a1@(10537),%a4@-
   20b34:	2929 2929      	movel %a1@(10537),%a4@-
   20b38:	2929 2929      	movel %a1@(10537),%a4@-
   20b3c:	2929 2929      	movel %a1@(10537),%a4@-
   20b40:	2929 2929      	movel %a1@(10537),%a4@-
   20b44:	2929 2929      	movel %a1@(10537),%a4@-
   20b48:	2929 2929      	movel %a1@(10537),%a4@-
   20b4c:	2929 2929      	movel %a1@(10537),%a4@-
   20b50:	2929 2929      	movel %a1@(10537),%a4@-
   20b54:	2929 2929      	movel %a1@(10537),%a4@-
   20b58:	2929 2929      	movel %a1@(10537),%a4@-
   20b5c:	2929 2929      	movel %a1@(10537),%a4@-
   20b60:	2929 2929      	movel %a1@(10537),%a4@-
   20b64:	2929 2929      	movel %a1@(10537),%a4@-
   20b68:	2929 2929      	movel %a1@(10537),%a4@-
   20b6c:	2929 2929      	movel %a1@(10537),%a4@-
   20b70:	2929 2929      	movel %a1@(10537),%a4@-
   20b74:	2929 2929      	movel %a1@(10537),%a4@-
   20b78:	2929 2929      	movel %a1@(10537),%a4@-
   20b7c:	2929 2929      	movel %a1@(10537),%a4@-
   20b80:	2929 2929      	movel %a1@(10537),%a4@-
   20b84:	2929 2929      	movel %a1@(10537),%a4@-
   20b88:	2929 2929      	movel %a1@(10537),%a4@-
   20b8c:	2929 2929      	movel %a1@(10537),%a4@-
   20b90:	2929 2929      	movel %a1@(10537),%a4@-
   20b94:	2929 2929      	movel %a1@(10537),%a4@-
   20b98:	2929 2929      	movel %a1@(10537),%a4@-
   20b9c:	2929 2929      	movel %a1@(10537),%a4@-
   20ba0:	2929 2929      	movel %a1@(10537),%a4@-
   20ba4:	2929 2929      	movel %a1@(10537),%a4@-
   20ba8:	2929 2929      	movel %a1@(10537),%a4@-
   20bac:	2929 2929      	movel %a1@(10537),%a4@-
   20bb0:	2929 2929      	movel %a1@(10537),%a4@-
   20bb4:	2929 2929      	movel %a1@(10537),%a4@-
   20bb8:	2929 2929      	movel %a1@(10537),%a4@-
   20bbc:	2929 2929      	movel %a1@(10537),%a4@-
   20bc0:	2929 2929      	movel %a1@(10537),%a4@-
   20bc4:	2929 2929      	movel %a1@(10537),%a4@-
   20bc8:	2929 2929      	movel %a1@(10537),%a4@-
   20bcc:	2929 2929      	movel %a1@(10537),%a4@-
   20bd0:	2929 2929      	movel %a1@(10537),%a4@-
   20bd4:	2929 2929      	movel %a1@(10537),%a4@-
   20bd8:	2929 2929      	movel %a1@(10537),%a4@-
   20bdc:	2929 2929      	movel %a1@(10537),%a4@-
   20be0:	2929 2929      	movel %a1@(10537),%a4@-
   20be4:	2929 2929      	movel %a1@(10537),%a4@-
   20be8:	2929 2929      	movel %a1@(10537),%a4@-
   20bec:	2929 2929      	movel %a1@(10537),%a4@-
   20bf0:	2929 2929      	movel %a1@(10537),%a4@-
   20bf4:	2929 2929      	movel %a1@(10537),%a4@-
   20bf8:	2929 2929      	movel %a1@(10537),%a4@-
   20bfc:	2929 2929      	movel %a1@(10537),%a4@-
   20c00:	2929 2929      	movel %a1@(10537),%a4@-
   20c04:	2929 2929      	movel %a1@(10537),%a4@-
   20c08:	2929 2929      	movel %a1@(10537),%a4@-
   20c0c:	2929 2929      	movel %a1@(10537),%a4@-
   20c10:	2929 2929      	movel %a1@(10537),%a4@-
   20c14:	2929 2929      	movel %a1@(10537),%a4@-
   20c18:	2929 2929      	movel %a1@(10537),%a4@-
   20c1c:	2929 2929      	movel %a1@(10537),%a4@-
   20c20:	2929 2929      	movel %a1@(10537),%a4@-
   20c24:	2929 2929      	movel %a1@(10537),%a4@-
   20c28:	2929 2929      	movel %a1@(10537),%a4@-
   20c2c:	2929 2929      	movel %a1@(10537),%a4@-
   20c30:	2929 2929      	movel %a1@(10537),%a4@-
   20c34:	2929 2929      	movel %a1@(10537),%a4@-
   20c38:	2929 2929      	movel %a1@(10537),%a4@-
   20c3c:	2929 2929      	movel %a1@(10537),%a4@-
   20c40:	2929 2929      	movel %a1@(10537),%a4@-
   20c44:	2929 2929      	movel %a1@(10537),%a4@-
   20c48:	2929 2929      	movel %a1@(10537),%a4@-
   20c4c:	2929 2929      	movel %a1@(10537),%a4@-
   20c50:	2929 2929      	movel %a1@(10537),%a4@-
   20c54:	2929 2929      	movel %a1@(10537),%a4@-
   20c58:	2929 2929      	movel %a1@(10537),%a4@-
   20c5c:	2929 2929      	movel %a1@(10537),%a4@-
   20c60:	2929 2929      	movel %a1@(10537),%a4@-
   20c64:	2929 2929      	movel %a1@(10537),%a4@-
   20c68:	2929 2929      	movel %a1@(10537),%a4@-
   20c6c:	2929 2929      	movel %a1@(10537),%a4@-
   20c70:	2929 2929      	movel %a1@(10537),%a4@-
   20c74:	2929 2929      	movel %a1@(10537),%a4@-
   20c78:	2929 2929      	movel %a1@(10537),%a4@-
   20c7c:	2929 2929      	movel %a1@(10537),%a4@-
   20c80:	2929 2929      	movel %a1@(10537),%a4@-
   20c84:	2929 2929      	movel %a1@(10537),%a4@-
   20c88:	2929 2929      	movel %a1@(10537),%a4@-
   20c8c:	2929 2929      	movel %a1@(10537),%a4@-
   20c90:	2929 2929      	movel %a1@(10537),%a4@-
   20c94:	2929 2929      	movel %a1@(10537),%a4@-
   20c98:	2929 2929      	movel %a1@(10537),%a4@-
   20c9c:	2929 2929      	movel %a1@(10537),%a4@-
   20ca0:	2929 2929      	movel %a1@(10537),%a4@-
   20ca4:	2929 2929      	movel %a1@(10537),%a4@-
   20ca8:	2929 2929      	movel %a1@(10537),%a4@-
   20cac:	2929 2929      	movel %a1@(10537),%a4@-
   20cb0:	2929 2929      	movel %a1@(10537),%a4@-
   20cb4:	2929 2929      	movel %a1@(10537),%a4@-
   20cb8:	2929 2929      	movel %a1@(10537),%a4@-
   20cbc:	2929 2929      	movel %a1@(10537),%a4@-
   20cc0:	2929 2929      	movel %a1@(10537),%a4@-
   20cc4:	2929 2929      	movel %a1@(10537),%a4@-
   20cc8:	2929 2929      	movel %a1@(10537),%a4@-
   20ccc:	2929 2929      	movel %a1@(10537),%a4@-
   20cd0:	2929 2929      	movel %a1@(10537),%a4@-
   20cd4:	2929 2929      	movel %a1@(10537),%a4@-
   20cd8:	2929 2929      	movel %a1@(10537),%a4@-
   20cdc:	2929 2929      	movel %a1@(10537),%a4@-
   20ce0:	2929 2929      	movel %a1@(10537),%a4@-
   20ce4:	2929 2929      	movel %a1@(10537),%a4@-
   20ce8:	2929 2929      	movel %a1@(10537),%a4@-
   20cec:	2929 2929      	movel %a1@(10537),%a4@-
   20cf0:	2929 2929      	movel %a1@(10537),%a4@-
   20cf4:	2929 2929      	movel %a1@(10537),%a4@-
   20cf8:	2929 2929      	movel %a1@(10537),%a4@-
   20cfc:	2929 2929      	movel %a1@(10537),%a4@-
   20d00:	2929 2929      	movel %a1@(10537),%a4@-
   20d04:	2929 2929      	movel %a1@(10537),%a4@-
   20d08:	2929 2929      	movel %a1@(10537),%a4@-
   20d0c:	2929 2929      	movel %a1@(10537),%a4@-
   20d10:	2929 2929      	movel %a1@(10537),%a4@-
   20d14:	2929 2929      	movel %a1@(10537),%a4@-
   20d18:	2929 2929      	movel %a1@(10537),%a4@-
   20d1c:	2929 2929      	movel %a1@(10537),%a4@-
   20d20:	2929 2929      	movel %a1@(10537),%a4@-
   20d24:	2929 2929      	movel %a1@(10537),%a4@-
   20d28:	2929 2929      	movel %a1@(10537),%a4@-
   20d2c:	2929 2929      	movel %a1@(10537),%a4@-
   20d30:	2929 2929      	movel %a1@(10537),%a4@-
   20d34:	2929 2929      	movel %a1@(10537),%a4@-
   20d38:	2929 2929      	movel %a1@(10537),%a4@-
   20d3c:	2929 2929      	movel %a1@(10537),%a4@-
   20d40:	2929 2929      	movel %a1@(10537),%a4@-
   20d44:	2929 2929      	movel %a1@(10537),%a4@-
   20d48:	2929 2929      	movel %a1@(10537),%a4@-
   20d4c:	2929 2929      	movel %a1@(10537),%a4@-
   20d50:	2929 2929      	movel %a1@(10537),%a4@-
   20d54:	2929 2929      	movel %a1@(10537),%a4@-
   20d58:	2929 2929      	movel %a1@(10537),%a4@-
   20d5c:	2929 2929      	movel %a1@(10537),%a4@-
   20d60:	2929 2929      	movel %a1@(10537),%a4@-
   20d64:	2929 2929      	movel %a1@(10537),%a4@-
   20d68:	2929 2929      	movel %a1@(10537),%a4@-
   20d6c:	2929 2929      	movel %a1@(10537),%a4@-
   20d70:	2929 2929      	movel %a1@(10537),%a4@-
   20d74:	2929 2929      	movel %a1@(10537),%a4@-
   20d78:	2929 2929      	movel %a1@(10537),%a4@-
   20d7c:	2929 2929      	movel %a1@(10537),%a4@-
   20d80:	2929 2929      	movel %a1@(10537),%a4@-
   20d84:	2929 2929      	movel %a1@(10537),%a4@-
   20d88:	2929 2929      	movel %a1@(10537),%a4@-
   20d8c:	2929 2929      	movel %a1@(10537),%a4@-
   20d90:	2929 2929      	movel %a1@(10537),%a4@-
   20d94:	2929 2929      	movel %a1@(10537),%a4@-
   20d98:	2929 2929      	movel %a1@(10537),%a4@-
   20d9c:	2929 2929      	movel %a1@(10537),%a4@-
   20da0:	2929 2929      	movel %a1@(10537),%a4@-
   20da4:	2929 2929      	movel %a1@(10537),%a4@-
   20da8:	2929 2929      	movel %a1@(10537),%a4@-
   20dac:	2929 2929      	movel %a1@(10537),%a4@-
   20db0:	2929 2929      	movel %a1@(10537),%a4@-
   20db4:	2929 2929      	movel %a1@(10537),%a4@-
   20db8:	2929 2929      	movel %a1@(10537),%a4@-
   20dbc:	2929 2929      	movel %a1@(10537),%a4@-
   20dc0:	2929 2929      	movel %a1@(10537),%a4@-
   20dc4:	2929 2929      	movel %a1@(10537),%a4@-
   20dc8:	2929 2929      	movel %a1@(10537),%a4@-
   20dcc:	2929 2929      	movel %a1@(10537),%a4@-
   20dd0:	2929 2929      	movel %a1@(10537),%a4@-
   20dd4:	2929 2929      	movel %a1@(10537),%a4@-
   20dd8:	2929 2929      	movel %a1@(10537),%a4@-
   20ddc:	2929 2929      	movel %a1@(10537),%a4@-
   20de0:	2929 2929      	movel %a1@(10537),%a4@-
   20de4:	2929 2929      	movel %a1@(10537),%a4@-
   20de8:	2929 2929      	movel %a1@(10537),%a4@-
   20dec:	2929 2929      	movel %a1@(10537),%a4@-
   20df0:	2929 2929      	movel %a1@(10537),%a4@-
   20df4:	2929 2929      	movel %a1@(10537),%a4@-
   20df8:	2929 2929      	movel %a1@(10537),%a4@-
   20dfc:	2929 2929      	movel %a1@(10537),%a4@-
   20e00:	2929 2929      	movel %a1@(10537),%a4@-
   20e04:	2929 2929      	movel %a1@(10537),%a4@-
   20e08:	2929 2929      	movel %a1@(10537),%a4@-
   20e0c:	2929 2929      	movel %a1@(10537),%a4@-
   20e10:	2929 2929      	movel %a1@(10537),%a4@-
   20e14:	2929 2929      	movel %a1@(10537),%a4@-
   20e18:	2929 2929      	movel %a1@(10537),%a4@-
   20e1c:	2929 2929      	movel %a1@(10537),%a4@-
   20e20:	2929 2929      	movel %a1@(10537),%a4@-
   20e24:	2929 2929      	movel %a1@(10537),%a4@-
   20e28:	2929 2929      	movel %a1@(10537),%a4@-
   20e2c:	2929 2929      	movel %a1@(10537),%a4@-
   20e30:	2929 2929      	movel %a1@(10537),%a4@-
   20e34:	2929 2929      	movel %a1@(10537),%a4@-
   20e38:	2929 2929      	movel %a1@(10537),%a4@-
   20e3c:	2929 2929      	movel %a1@(10537),%a4@-
   20e40:	2929 2929      	movel %a1@(10537),%a4@-
   20e44:	2929 2929      	movel %a1@(10537),%a4@-
   20e48:	2929 2929      	movel %a1@(10537),%a4@-
   20e4c:	2929 2929      	movel %a1@(10537),%a4@-
   20e50:	2929 2929      	movel %a1@(10537),%a4@-
   20e54:	2929 2929      	movel %a1@(10537),%a4@-
   20e58:	2929 2929      	movel %a1@(10537),%a4@-
   20e5c:	2929 2929      	movel %a1@(10537),%a4@-
   20e60:	2929 2929      	movel %a1@(10537),%a4@-
   20e64:	2929 2929      	movel %a1@(10537),%a4@-
   20e68:	2929 2929      	movel %a1@(10537),%a4@-
   20e6c:	2929 2929      	movel %a1@(10537),%a4@-
   20e70:	2929 2929      	movel %a1@(10537),%a4@-
   20e74:	2929 2929      	movel %a1@(10537),%a4@-
   20e78:	2929 2929      	movel %a1@(10537),%a4@-
   20e7c:	2929 2929      	movel %a1@(10537),%a4@-
   20e80:	2929 2929      	movel %a1@(10537),%a4@-
   20e84:	2929 2929      	movel %a1@(10537),%a4@-
   20e88:	2929 2929      	movel %a1@(10537),%a4@-
   20e8c:	2929 2929      	movel %a1@(10537),%a4@-
   20e90:	2929 2929      	movel %a1@(10537),%a4@-
   20e94:	2929 2929      	movel %a1@(10537),%a4@-
   20e98:	2929 2929      	movel %a1@(10537),%a4@-
   20e9c:	2929 2929      	movel %a1@(10537),%a4@-
   20ea0:	2929 2929      	movel %a1@(10537),%a4@-
   20ea4:	2929 2929      	movel %a1@(10537),%a4@-
   20ea8:	2929 2929      	movel %a1@(10537),%a4@-
   20eac:	2929 2929      	movel %a1@(10537),%a4@-
   20eb0:	2929 2929      	movel %a1@(10537),%a4@-
   20eb4:	2929 2929      	movel %a1@(10537),%a4@-
   20eb8:	2929 2929      	movel %a1@(10537),%a4@-
   20ebc:	2929 2929      	movel %a1@(10537),%a4@-
   20ec0:	2929 2929      	movel %a1@(10537),%a4@-
   20ec4:	2929 2929      	movel %a1@(10537),%a4@-
   20ec8:	2929 2929      	movel %a1@(10537),%a4@-
   20ecc:	2929 2929      	movel %a1@(10537),%a4@-
   20ed0:	2929 2929      	movel %a1@(10537),%a4@-
   20ed4:	2929 2929      	movel %a1@(10537),%a4@-
   20ed8:	2929 2929      	movel %a1@(10537),%a4@-
   20edc:	2929 2929      	movel %a1@(10537),%a4@-
   20ee0:	2929 2929      	movel %a1@(10537),%a4@-
   20ee4:	2929 2929      	movel %a1@(10537),%a4@-
   20ee8:	2929 2929      	movel %a1@(10537),%a4@-
   20eec:	2929 2929      	movel %a1@(10537),%a4@-
   20ef0:	2929 2929      	movel %a1@(10537),%a4@-
   20ef4:	2929 2929      	movel %a1@(10537),%a4@-
   20ef8:	2929 2929      	movel %a1@(10537),%a4@-
   20efc:	2929 2929      	movel %a1@(10537),%a4@-
   20f00:	2929 2929      	movel %a1@(10537),%a4@-
   20f04:	2929 2929      	movel %a1@(10537),%a4@-
   20f08:	2929 2929      	movel %a1@(10537),%a4@-
   20f0c:	2929 2929      	movel %a1@(10537),%a4@-
   20f10:	2929 2929      	movel %a1@(10537),%a4@-
   20f14:	2929 2929      	movel %a1@(10537),%a4@-
   20f18:	2929 2929      	movel %a1@(10537),%a4@-
   20f1c:	2929 2929      	movel %a1@(10537),%a4@-
   20f20:	2929 2929      	movel %a1@(10537),%a4@-
   20f24:	2929 2929      	movel %a1@(10537),%a4@-
   20f28:	2929 2929      	movel %a1@(10537),%a4@-
   20f2c:	2929 2929      	movel %a1@(10537),%a4@-
   20f30:	2929 2929      	movel %a1@(10537),%a4@-
   20f34:	2929 2929      	movel %a1@(10537),%a4@-
   20f38:	2929 2929      	movel %a1@(10537),%a4@-
   20f3c:	2929 2929      	movel %a1@(10537),%a4@-
   20f40:	2929 2929      	movel %a1@(10537),%a4@-
   20f44:	2929 2929      	movel %a1@(10537),%a4@-
   20f48:	2929 2929      	movel %a1@(10537),%a4@-
   20f4c:	2929 2929      	movel %a1@(10537),%a4@-
   20f50:	2929 2929      	movel %a1@(10537),%a4@-
   20f54:	2929 2929      	movel %a1@(10537),%a4@-
   20f58:	2929 2929      	movel %a1@(10537),%a4@-
   20f5c:	2929 2929      	movel %a1@(10537),%a4@-
   20f60:	2929 2929      	movel %a1@(10537),%a4@-
   20f64:	2929 2929      	movel %a1@(10537),%a4@-
   20f68:	2929 2929      	movel %a1@(10537),%a4@-
   20f6c:	2929 2929      	movel %a1@(10537),%a4@-
   20f70:	2929 2929      	movel %a1@(10537),%a4@-
   20f74:	2929 2929      	movel %a1@(10537),%a4@-
   20f78:	2929 2929      	movel %a1@(10537),%a4@-
   20f7c:	2929 2929      	movel %a1@(10537),%a4@-
   20f80:	2929 2929      	movel %a1@(10537),%a4@-
   20f84:	2929 2929      	movel %a1@(10537),%a4@-
   20f88:	2929 2929      	movel %a1@(10537),%a4@-
   20f8c:	2929 2929      	movel %a1@(10537),%a4@-
   20f90:	2929 2929      	movel %a1@(10537),%a4@-
   20f94:	2929 2929      	movel %a1@(10537),%a4@-
   20f98:	2929 2929      	movel %a1@(10537),%a4@-
   20f9c:	2929 2929      	movel %a1@(10537),%a4@-
   20fa0:	2929 2929      	movel %a1@(10537),%a4@-
   20fa4:	2929 2929      	movel %a1@(10537),%a4@-
   20fa8:	2929 2929      	movel %a1@(10537),%a4@-
   20fac:	2929 2929      	movel %a1@(10537),%a4@-
   20fb0:	2929 2929      	movel %a1@(10537),%a4@-
   20fb4:	2929 2929      	movel %a1@(10537),%a4@-
   20fb8:	2929 2929      	movel %a1@(10537),%a4@-
   20fbc:	2929 2929      	movel %a1@(10537),%a4@-
   20fc0:	2929 2929      	movel %a1@(10537),%a4@-
   20fc4:	2929 2929      	movel %a1@(10537),%a4@-
   20fc8:	2929 2929      	movel %a1@(10537),%a4@-
   20fcc:	2929 2929      	movel %a1@(10537),%a4@-
   20fd0:	2929 2929      	movel %a1@(10537),%a4@-
   20fd4:	2929 2929      	movel %a1@(10537),%a4@-
   20fd8:	2929 2929      	movel %a1@(10537),%a4@-
   20fdc:	2929 2929      	movel %a1@(10537),%a4@-
   20fe0:	2929 2929      	movel %a1@(10537),%a4@-
   20fe4:	2929 2929      	movel %a1@(10537),%a4@-
   20fe8:	2929 2929      	movel %a1@(10537),%a4@-
   20fec:	2929 2929      	movel %a1@(10537),%a4@-
   20ff0:	2929 2929      	movel %a1@(10537),%a4@-
   20ff4:	2929 2929      	movel %a1@(10537),%a4@-
   20ff8:	2929 2929      	movel %a1@(10537),%a4@-
   20ffc:	2929 2929      	movel %a1@(10537),%a4@-
   21000:	2929 2929      	movel %a1@(10537),%a4@-
   21004:	2929 2929      	movel %a1@(10537),%a4@-
   21008:	2929 2929      	movel %a1@(10537),%a4@-
   2100c:	2929 2929      	movel %a1@(10537),%a4@-
   21010:	2929 2929      	movel %a1@(10537),%a4@-
   21014:	2929 2929      	movel %a1@(10537),%a4@-
   21018:	2929 2929      	movel %a1@(10537),%a4@-
   2101c:	2929 2929      	movel %a1@(10537),%a4@-
   21020:	2929 2929      	movel %a1@(10537),%a4@-
   21024:	2929 2929      	movel %a1@(10537),%a4@-
   21028:	2929 2929      	movel %a1@(10537),%a4@-
   2102c:	2929 2929      	movel %a1@(10537),%a4@-
   21030:	2929 2929      	movel %a1@(10537),%a4@-
   21034:	2929 2929      	movel %a1@(10537),%a4@-
   21038:	2929 2929      	movel %a1@(10537),%a4@-
   2103c:	2929 2929      	movel %a1@(10537),%a4@-
   21040:	2929 2929      	movel %a1@(10537),%a4@-
   21044:	2929 2929      	movel %a1@(10537),%a4@-
   21048:	2929 2929      	movel %a1@(10537),%a4@-
   2104c:	2929 2929      	movel %a1@(10537),%a4@-
   21050:	2929 2929      	movel %a1@(10537),%a4@-
   21054:	2929 2929      	movel %a1@(10537),%a4@-
   21058:	2929 2929      	movel %a1@(10537),%a4@-
   2105c:	2929 2929      	movel %a1@(10537),%a4@-
   21060:	2929 2929      	movel %a1@(10537),%a4@-
   21064:	2929 2929      	movel %a1@(10537),%a4@-
   21068:	2929 2929      	movel %a1@(10537),%a4@-
   2106c:	2929 2929      	movel %a1@(10537),%a4@-
   21070:	2929 2929      	movel %a1@(10537),%a4@-
   21074:	2929 2929      	movel %a1@(10537),%a4@-
   21078:	2929 2929      	movel %a1@(10537),%a4@-
   2107c:	2929 2929      	movel %a1@(10537),%a4@-
   21080:	2929 2929      	movel %a1@(10537),%a4@-
   21084:	2929 2929      	movel %a1@(10537),%a4@-
   21088:	2929 2929      	movel %a1@(10537),%a4@-
   2108c:	2929 2929      	movel %a1@(10537),%a4@-
   21090:	2929 2929      	movel %a1@(10537),%a4@-
   21094:	2929 2929      	movel %a1@(10537),%a4@-
   21098:	2929 2929      	movel %a1@(10537),%a4@-
   2109c:	2929 2929      	movel %a1@(10537),%a4@-
   210a0:	2929 2929      	movel %a1@(10537),%a4@-
   210a4:	2929 2929      	movel %a1@(10537),%a4@-
   210a8:	2929 2929      	movel %a1@(10537),%a4@-
   210ac:	2929 2929      	movel %a1@(10537),%a4@-
   210b0:	2929 2929      	movel %a1@(10537),%a4@-
   210b4:	2929 2929      	movel %a1@(10537),%a4@-
   210b8:	2929 2929      	movel %a1@(10537),%a4@-
   210bc:	2929 2929      	movel %a1@(10537),%a4@-
   210c0:	2929 2929      	movel %a1@(10537),%a4@-
   210c4:	2929 2929      	movel %a1@(10537),%a4@-
   210c8:	2929 2929      	movel %a1@(10537),%a4@-
   210cc:	2929 2929      	movel %a1@(10537),%a4@-
   210d0:	2929 2929      	movel %a1@(10537),%a4@-
   210d4:	2929 2929      	movel %a1@(10537),%a4@-
   210d8:	2929 2929      	movel %a1@(10537),%a4@-
   210dc:	2929 2929      	movel %a1@(10537),%a4@-
   210e0:	2929 2929      	movel %a1@(10537),%a4@-
   210e4:	2929 2929      	movel %a1@(10537),%a4@-
   210e8:	2929 2929      	movel %a1@(10537),%a4@-
   210ec:	2929 2929      	movel %a1@(10537),%a4@-
   210f0:	2929 2929      	movel %a1@(10537),%a4@-
   210f4:	2929 2929      	movel %a1@(10537),%a4@-
   210f8:	2929 2929      	movel %a1@(10537),%a4@-
   210fc:	2929 2929      	movel %a1@(10537),%a4@-
   21100:	2929 2929      	movel %a1@(10537),%a4@-
   21104:	2929 2929      	movel %a1@(10537),%a4@-
   21108:	2929 2929      	movel %a1@(10537),%a4@-
   2110c:	2929 2929      	movel %a1@(10537),%a4@-
   21110:	2929 2929      	movel %a1@(10537),%a4@-
   21114:	2929 2929      	movel %a1@(10537),%a4@-
   21118:	2929 2929      	movel %a1@(10537),%a4@-
   2111c:	2929 2929      	movel %a1@(10537),%a4@-
   21120:	2929 2929      	movel %a1@(10537),%a4@-
   21124:	2929 2929      	movel %a1@(10537),%a4@-
   21128:	2929 2929      	movel %a1@(10537),%a4@-
   2112c:	2929 2929      	movel %a1@(10537),%a4@-
   21130:	2929 2929      	movel %a1@(10537),%a4@-
   21134:	2929 2929      	movel %a1@(10537),%a4@-
   21138:	2929 2929      	movel %a1@(10537),%a4@-
   2113c:	2929 2929      	movel %a1@(10537),%a4@-
   21140:	2929 2929      	movel %a1@(10537),%a4@-
   21144:	2929 2929      	movel %a1@(10537),%a4@-
   21148:	2929 2929      	movel %a1@(10537),%a4@-
   2114c:	2929 2929      	movel %a1@(10537),%a4@-
   21150:	2929 2929      	movel %a1@(10537),%a4@-
   21154:	2929 2929      	movel %a1@(10537),%a4@-
   21158:	2929 2929      	movel %a1@(10537),%a4@-
   2115c:	2929 2929      	movel %a1@(10537),%a4@-
   21160:	2929 2929      	movel %a1@(10537),%a4@-
   21164:	2929 2929      	movel %a1@(10537),%a4@-
   21168:	2929 2929      	movel %a1@(10537),%a4@-
   2116c:	2929 2929      	movel %a1@(10537),%a4@-
   21170:	2929 2929      	movel %a1@(10537),%a4@-
   21174:	2929 2929      	movel %a1@(10537),%a4@-
   21178:	2929 2929      	movel %a1@(10537),%a4@-
   2117c:	2929 2929      	movel %a1@(10537),%a4@-
   21180:	2929 2929      	movel %a1@(10537),%a4@-
   21184:	2929 2929      	movel %a1@(10537),%a4@-
   21188:	2929 2929      	movel %a1@(10537),%a4@-
   2118c:	2929 2929      	movel %a1@(10537),%a4@-
   21190:	2929 2929      	movel %a1@(10537),%a4@-
   21194:	2929 2929      	movel %a1@(10537),%a4@-
   21198:	2929 2929      	movel %a1@(10537),%a4@-
   2119c:	2929 2929      	movel %a1@(10537),%a4@-
   211a0:	2929 2929      	movel %a1@(10537),%a4@-
   211a4:	2929 2929      	movel %a1@(10537),%a4@-
   211a8:	2929 2929      	movel %a1@(10537),%a4@-
   211ac:	2929 2929      	movel %a1@(10537),%a4@-
   211b0:	2929 2929      	movel %a1@(10537),%a4@-
   211b4:	2929 2929      	movel %a1@(10537),%a4@-
   211b8:	2929 2929      	movel %a1@(10537),%a4@-
   211bc:	2929 2929      	movel %a1@(10537),%a4@-
   211c0:	2929 2929      	movel %a1@(10537),%a4@-
   211c4:	2929 2929      	movel %a1@(10537),%a4@-
   211c8:	2929 2929      	movel %a1@(10537),%a4@-
   211cc:	2929 2929      	movel %a1@(10537),%a4@-
   211d0:	2929 2929      	movel %a1@(10537),%a4@-
   211d4:	2929 2929      	movel %a1@(10537),%a4@-
   211d8:	2929 2929      	movel %a1@(10537),%a4@-
   211dc:	2929 2929      	movel %a1@(10537),%a4@-
   211e0:	2929 2929      	movel %a1@(10537),%a4@-
   211e4:	2929 2929      	movel %a1@(10537),%a4@-
   211e8:	2929 2929      	movel %a1@(10537),%a4@-
   211ec:	2929 2929      	movel %a1@(10537),%a4@-
   211f0:	2929 2929      	movel %a1@(10537),%a4@-
   211f4:	2929 2929      	movel %a1@(10537),%a4@-
   211f8:	2929 2929      	movel %a1@(10537),%a4@-
   211fc:	2929 2929      	movel %a1@(10537),%a4@-
   21200:	2929 2929      	movel %a1@(10537),%a4@-
   21204:	2929 2929      	movel %a1@(10537),%a4@-
   21208:	2929 2929      	movel %a1@(10537),%a4@-
   2120c:	2929 2929      	movel %a1@(10537),%a4@-
   21210:	2929 2929      	movel %a1@(10537),%a4@-
   21214:	2929 2929      	movel %a1@(10537),%a4@-
   21218:	2929 2929      	movel %a1@(10537),%a4@-
   2121c:	2929 2929      	movel %a1@(10537),%a4@-
   21220:	2929 2929      	movel %a1@(10537),%a4@-
   21224:	2929 2929      	movel %a1@(10537),%a4@-
   21228:	2929 2929      	movel %a1@(10537),%a4@-
   2122c:	2929 2929      	movel %a1@(10537),%a4@-
   21230:	2929 2929      	movel %a1@(10537),%a4@-
   21234:	2929 2929      	movel %a1@(10537),%a4@-
   21238:	2929 2929      	movel %a1@(10537),%a4@-
   2123c:	2929 2929      	movel %a1@(10537),%a4@-
   21240:	2929 2929      	movel %a1@(10537),%a4@-
   21244:	2929 2929      	movel %a1@(10537),%a4@-
   21248:	2929 2929      	movel %a1@(10537),%a4@-
   2124c:	2929 2929      	movel %a1@(10537),%a4@-
   21250:	2929 2929      	movel %a1@(10537),%a4@-
   21254:	2929 2929      	movel %a1@(10537),%a4@-
   21258:	2929 2929      	movel %a1@(10537),%a4@-
   2125c:	2929 2929      	movel %a1@(10537),%a4@-
   21260:	2929 2929      	movel %a1@(10537),%a4@-
   21264:	2929 2929      	movel %a1@(10537),%a4@-
   21268:	2929 2929      	movel %a1@(10537),%a4@-
   2126c:	2929 2929      	movel %a1@(10537),%a4@-
   21270:	2929 2929      	movel %a1@(10537),%a4@-
   21274:	2929 2929      	movel %a1@(10537),%a4@-
   21278:	2929 2929      	movel %a1@(10537),%a4@-
   2127c:	2929 2929      	movel %a1@(10537),%a4@-
   21280:	2929 2929      	movel %a1@(10537),%a4@-
   21284:	2929 2929      	movel %a1@(10537),%a4@-
   21288:	2929 2929      	movel %a1@(10537),%a4@-
   2128c:	2929 2929      	movel %a1@(10537),%a4@-
   21290:	2929 2929      	movel %a1@(10537),%a4@-
   21294:	2929 2929      	movel %a1@(10537),%a4@-
   21298:	2929 2929      	movel %a1@(10537),%a4@-
   2129c:	2929 2929      	movel %a1@(10537),%a4@-
   212a0:	2929 2929      	movel %a1@(10537),%a4@-
   212a4:	2929 2929      	movel %a1@(10537),%a4@-
   212a8:	2929 2929      	movel %a1@(10537),%a4@-
   212ac:	2929 2929      	movel %a1@(10537),%a4@-
   212b0:	2929 2929      	movel %a1@(10537),%a4@-
   212b4:	2929 2929      	movel %a1@(10537),%a4@-
   212b8:	2929 2929      	movel %a1@(10537),%a4@-
   212bc:	2929 2929      	movel %a1@(10537),%a4@-
   212c0:	2929 2929      	movel %a1@(10537),%a4@-
   212c4:	2929 2929      	movel %a1@(10537),%a4@-
   212c8:	2929 2929      	movel %a1@(10537),%a4@-
   212cc:	2929 2929      	movel %a1@(10537),%a4@-
   212d0:	2929 2929      	movel %a1@(10537),%a4@-
   212d4:	2929 2929      	movel %a1@(10537),%a4@-
   212d8:	2929 2929      	movel %a1@(10537),%a4@-
   212dc:	2929 2929      	movel %a1@(10537),%a4@-
   212e0:	2929 2929      	movel %a1@(10537),%a4@-
   212e4:	2929 2929      	movel %a1@(10537),%a4@-
   212e8:	2929 2929      	movel %a1@(10537),%a4@-
   212ec:	2929 2929      	movel %a1@(10537),%a4@-
   212f0:	2929 2929      	movel %a1@(10537),%a4@-
   212f4:	2929 2929      	movel %a1@(10537),%a4@-
   212f8:	2929 2929      	movel %a1@(10537),%a4@-
   212fc:	2929 2929      	movel %a1@(10537),%a4@-
   21300:	2929 2929      	movel %a1@(10537),%a4@-
   21304:	2929 2929      	movel %a1@(10537),%a4@-
   21308:	2929 2929      	movel %a1@(10537),%a4@-
   2130c:	2929 2929      	movel %a1@(10537),%a4@-
   21310:	2929 2929      	movel %a1@(10537),%a4@-
   21314:	2929 2929      	movel %a1@(10537),%a4@-
   21318:	2929 2929      	movel %a1@(10537),%a4@-
   2131c:	2929 2929      	movel %a1@(10537),%a4@-
   21320:	2929 2929      	movel %a1@(10537),%a4@-
   21324:	2929 2929      	movel %a1@(10537),%a4@-
   21328:	2929 2929      	movel %a1@(10537),%a4@-
   2132c:	2929 2929      	movel %a1@(10537),%a4@-
   21330:	2929 2929      	movel %a1@(10537),%a4@-
   21334:	2929 2929      	movel %a1@(10537),%a4@-
   21338:	2929 2929      	movel %a1@(10537),%a4@-
   2133c:	2929 2929      	movel %a1@(10537),%a4@-
   21340:	2929 2929      	movel %a1@(10537),%a4@-
   21344:	2929 2929      	movel %a1@(10537),%a4@-
   21348:	2929 2929      	movel %a1@(10537),%a4@-
   2134c:	2929 2929      	movel %a1@(10537),%a4@-
   21350:	2929 2929      	movel %a1@(10537),%a4@-
   21354:	2929 2929      	movel %a1@(10537),%a4@-
   21358:	2929 2929      	movel %a1@(10537),%a4@-
   2135c:	2929 2929      	movel %a1@(10537),%a4@-
   21360:	2929 2929      	movel %a1@(10537),%a4@-
   21364:	2929 2929      	movel %a1@(10537),%a4@-
   21368:	2929 2929      	movel %a1@(10537),%a4@-
   2136c:	2929 2929      	movel %a1@(10537),%a4@-
   21370:	2929 2929      	movel %a1@(10537),%a4@-
   21374:	2929 2929      	movel %a1@(10537),%a4@-
   21378:	2929 2929      	movel %a1@(10537),%a4@-
   2137c:	2929 2929      	movel %a1@(10537),%a4@-
   21380:	2929 2929      	movel %a1@(10537),%a4@-
   21384:	2929 2929      	movel %a1@(10537),%a4@-
   21388:	2929 2929      	movel %a1@(10537),%a4@-
   2138c:	2929 2929      	movel %a1@(10537),%a4@-
   21390:	2929 2929      	movel %a1@(10537),%a4@-
   21394:	2929 2929      	movel %a1@(10537),%a4@-
   21398:	2929 2929      	movel %a1@(10537),%a4@-
   2139c:	2929 2929      	movel %a1@(10537),%a4@-
   213a0:	2929 2929      	movel %a1@(10537),%a4@-
   213a4:	2929 2929      	movel %a1@(10537),%a4@-
   213a8:	2929 2929      	movel %a1@(10537),%a4@-
   213ac:	2929 2929      	movel %a1@(10537),%a4@-
   213b0:	2929 2929      	movel %a1@(10537),%a4@-
   213b4:	2929 2929      	movel %a1@(10537),%a4@-
   213b8:	2929 2929      	movel %a1@(10537),%a4@-
   213bc:	2929 2929      	movel %a1@(10537),%a4@-
   213c0:	2929 2929      	movel %a1@(10537),%a4@-
   213c4:	2929 2929      	movel %a1@(10537),%a4@-
   213c8:	2929 2929      	movel %a1@(10537),%a4@-
   213cc:	2929 2929      	movel %a1@(10537),%a4@-
   213d0:	2929 2929      	movel %a1@(10537),%a4@-
   213d4:	2929 2929      	movel %a1@(10537),%a4@-
   213d8:	2929 2929      	movel %a1@(10537),%a4@-
   213dc:	2929 2929      	movel %a1@(10537),%a4@-
   213e0:	2929 2929      	movel %a1@(10537),%a4@-
   213e4:	2929 2929      	movel %a1@(10537),%a4@-
   213e8:	2929 2929      	movel %a1@(10537),%a4@-
   213ec:	2929 2929      	movel %a1@(10537),%a4@-
   213f0:	2929 2929      	movel %a1@(10537),%a4@-
   213f4:	2929 2929      	movel %a1@(10537),%a4@-
   213f8:	2929 2929      	movel %a1@(10537),%a4@-
   213fc:	2996 9696      	movel %fp@,%a4@(ffffff96,%a1:w:8)
   21400:	964a           	subw %a2,%d3
   21402:	4a4a           	.short 0x4a4a
   21404:	4a4a           	.short 0x4a4a
   21406:	9696           	subl %fp@,%d3
   21408:	9898           	subl %a0@+,%d4
   2140a:	9898           	subl %a0@+,%d4
   2140c:	9898           	subl %a0@+,%d4
   2140e:	9898           	subl %a0@+,%d4
   21410:	9999           	subl %d4,%a1@+
   21412:	9999           	subl %d4,%a1@+
   21414:	9999           	subl %d4,%a1@+
   21416:	9a9a           	subl %a2@+,%d5
   21418:	9a9a           	subl %a2@+,%d5
   2141a:	9a9a           	subl %a2@+,%d5
   2141c:	9a9a           	subl %a2@+,%d5
   2141e:	9b9b           	subl %d5,%a3@+
   21420:	9b9b           	subl %d5,%a3@+
   21422:	9b9b           	subl %d5,%a3@+
   21424:	9c9c           	subl %a4@+,%d6
   21426:	9c9c           	subl %a4@+,%d6
   21428:	9c9c           	subl %a4@+,%d6
   2142a:	2b29 2929      	movel %a1@(10537),%a5@-
   2142e:	2929 2929      	movel %a1@(10537),%a4@-
   21432:	2929 291a      	movel %a1@(10522),%a4@-
   21436:	1a1a           	moveb %a2@+,%d5
   21438:	1a1a           	moveb %a2@+,%d5
   2143a:	1a1a           	moveb %a2@+,%d5
   2143c:	1a1a           	moveb %a2@+,%d5
   2143e:	1a1a           	moveb %a2@+,%d5
   21440:	1a1a           	moveb %a2@+,%d5
   21442:	1a1a           	moveb %a2@+,%d5
   21444:	1a1a           	moveb %a2@+,%d5
   21446:	1a1a           	moveb %a2@+,%d5
   21448:	1a1a           	moveb %a2@+,%d5
   2144a:	1a1a           	moveb %a2@+,%d5
   2144c:	1a1a           	moveb %a2@+,%d5
   2144e:	1a1a           	moveb %a2@+,%d5
   21450:	1a1a           	moveb %a2@+,%d5
   21452:	1a1a           	moveb %a2@+,%d5
   21454:	1b1b           	moveb %a3@+,%a5@-
   21456:	1b1b           	moveb %a3@+,%a5@-
   21458:	1b1b           	moveb %a3@+,%a5@-
   2145a:	1b1b           	moveb %a3@+,%a5@-
   2145c:	1b1b           	moveb %a3@+,%a5@-
   2145e:	1b1b           	moveb %a3@+,%a5@-
   21460:	1b1b           	moveb %a3@+,%a5@-
   21462:	1b1b           	moveb %a3@+,%a5@-
   21464:	1b1b           	moveb %a3@+,%a5@-
   21466:	1b1b           	moveb %a3@+,%a5@-
   21468:	1b1b           	moveb %a3@+,%a5@-
   2146a:	1b1b           	moveb %a3@+,%a5@-
   2146c:	1b1b           	moveb %a3@+,%a5@-
   2146e:	1b1b           	moveb %a3@+,%a5@-
   21470:	1b1b           	moveb %a3@+,%a5@-
   21472:	1b1b           	moveb %a3@+,%a5@-
   21474:	1b1c           	moveb %a4@+,%a5@-
   21476:	1c1c           	moveb %a4@+,%d6
   21478:	1c1c           	moveb %a4@+,%d6
   2147a:	1c1c           	moveb %a4@+,%d6
   2147c:	1c1c           	moveb %a4@+,%d6
   2147e:	1c1c           	moveb %a4@+,%d6
   21480:	1c1c           	moveb %a4@+,%d6
   21482:	1c1c           	moveb %a4@+,%d6
   21484:	1c1c           	moveb %a4@+,%d6
   21486:	1c1c           	moveb %a4@+,%d6
   21488:	1c1c           	moveb %a4@+,%d6
   2148a:	1c1c           	moveb %a4@+,%d6
   2148c:	1c1c           	moveb %a4@+,%d6
   2148e:	1c1c           	moveb %a4@+,%d6
   21490:	1c1c           	moveb %a4@+,%d6
   21492:	1c1c           	moveb %a4@+,%d6
   21494:	1c1c           	moveb %a4@+,%d6
   21496:	1c1c           	moveb %a4@+,%d6
   21498:	1c1c           	moveb %a4@+,%d6
   2149a:	1c1c           	moveb %a4@+,%d6
   2149c:	1d1d           	moveb %a5@+,%fp@-
   2149e:	1d1d           	moveb %a5@+,%fp@-
   214a0:	1d1d           	moveb %a5@+,%fp@-
   214a2:	1d1d           	moveb %a5@+,%fp@-
   214a4:	1d1d           	moveb %a5@+,%fp@-
   214a6:	1d1d           	moveb %a5@+,%fp@-
   214a8:	1d1d           	moveb %a5@+,%fp@-
   214aa:	1d1d           	moveb %a5@+,%fp@-
   214ac:	1d1d           	moveb %a5@+,%fp@-
   214ae:	1d1d           	moveb %a5@+,%fp@-
   214b0:	1d1d           	moveb %a5@+,%fp@-
   214b2:	1d1d           	moveb %a5@+,%fp@-
   214b4:	1d1d           	moveb %a5@+,%fp@-
   214b6:	1d1d           	moveb %a5@+,%fp@-
   214b8:	1d1d           	moveb %a5@+,%fp@-
   214ba:	1e1e           	moveb %fp@+,%d7
   214bc:	1e1e           	moveb %fp@+,%d7
   214be:	1e1e           	moveb %fp@+,%d7
   214c0:	1e1e           	moveb %fp@+,%d7
   214c2:	1e1e           	moveb %fp@+,%d7
   214c4:	1e1e           	moveb %fp@+,%d7
   214c6:	1e1e           	moveb %fp@+,%d7
   214c8:	1e1e           	moveb %fp@+,%d7
   214ca:	1e1e           	moveb %fp@+,%d7
   214cc:	1e1e           	moveb %fp@+,%d7
   214ce:	1e1e           	moveb %fp@+,%d7
   214d0:	1e1e           	moveb %fp@+,%d7
   214d2:	1e1e           	moveb %fp@+,%d7
   214d4:	1e1e           	moveb %fp@+,%d7
   214d6:	1e1e           	moveb %fp@+,%d7
   214d8:	1e1e           	moveb %fp@+,%d7
   214da:	1e1e           	moveb %fp@+,%d7
   214dc:	1e1e           	moveb %fp@+,%d7
   214de:	1e1e           	moveb %fp@+,%d7
   214e0:	2b29 2929      	movel %a1@(10537),%a5@-
   214e4:	2998 9898      	movel %a0@+,%a4@(ffffff98,%a1:l)
   214e8:	9898           	subl %a0@+,%d4
   214ea:	9898           	subl %a0@+,%d4
   214ec:	9898           	subl %a0@+,%d4
   214ee:	9898           	subl %a0@+,%d4
   214f0:	9898           	subl %a0@+,%d4
   214f2:	9898           	subl %a0@+,%d4
   214f4:	9898           	subl %a0@+,%d4
   214f6:	9898           	subl %a0@+,%d4
   214f8:	9898           	subl %a0@+,%d4
   214fa:	9898           	subl %a0@+,%d4
   214fc:	9898           	subl %a0@+,%d4
   214fe:	9898           	subl %a0@+,%d4
   21500:	9999           	subl %d4,%a1@+
   21502:	9999           	subl %d4,%a1@+
   21504:	9999           	subl %d4,%a1@+
   21506:	9999           	subl %d4,%a1@+
   21508:	9999           	subl %d4,%a1@+
   2150a:	9999           	subl %d4,%a1@+
   2150c:	9999           	subl %d4,%a1@+
   2150e:	9999           	subl %d4,%a1@+
   21510:	9a9a           	subl %a2@+,%d5
   21512:	9a9a           	subl %a2@+,%d5
   21514:	9a9a           	subl %a2@+,%d5
   21516:	9a9a           	subl %a2@+,%d5
   21518:	9a9a           	subl %a2@+,%d5
   2151a:	9a9a           	subl %a2@+,%d5
   2151c:	9a9a           	subl %a2@+,%d5
   2151e:	9a9a           	subl %a2@+,%d5
   21520:	9a9a           	subl %a2@+,%d5
   21522:	9a9a           	subl %a2@+,%d5
   21524:	9a9a           	subl %a2@+,%d5
   21526:	9a9a           	subl %a2@+,%d5
   21528:	2929 2929      	movel %a1@(10537),%a4@-
   2152c:	2929 2929      	movel %a1@(10537),%a4@-
   21530:	2929 2929      	movel %a1@(10537),%a4@-
   21534:	2929 2929      	movel %a1@(10537),%a4@-
   21538:	2929 2929      	movel %a1@(10537),%a4@-
   2153c:	2996 9f9f 9f47 	movel %fp@,@(00000000)@(9f474747,%a1:l:8)
   21542:	4747 
   21544:	4747           	.short 0x4747
   21546:	9f9f           	subl %d7,%sp@+
   21548:	9f9f           	subl %d7,%sp@+
   2154a:	9f9f           	subl %d7,%sp@+
   2154c:	9f9f           	subl %d7,%sp@+
   2154e:	9f9f           	subl %d7,%sp@+
   21550:	9f9f           	subl %d7,%sp@+
   21552:	9f9f           	subl %d7,%sp@+
   21554:	9f9f           	subl %d7,%sp@+
   21556:	9f9f           	subl %d7,%sp@+
   21558:	9f9f           	subl %d7,%sp@+
   2155a:	9f9f           	subl %d7,%sp@+
   2155c:	9f9f           	subl %d7,%sp@+
   2155e:	9f9f           	subl %d7,%sp@+
   21560:	9f9f           	subl %d7,%sp@+
   21562:	9f9f           	subl %d7,%sp@+
   21564:	9f9f           	subl %d7,%sp@+
   21566:	9f9f           	subl %d7,%sp@+
   21568:	9f9f           	subl %d7,%sp@+
   2156a:	2e29 2929      	movel %a1@(10537),%d7
   2156e:	2929 2929      	movel %a1@(10537),%a4@-
   21572:	2929 291a      	movel %a1@(10522),%a4@-
	...
   2161e:	0000 2c29      	orib #41,%d0
   21622:	2929 2998      	movel %a1@(10648),%a4@-
   21626:	9f9f           	subl %d7,%sp@+
   21628:	9f9f           	subl %d7,%sp@+
   2162a:	9f9f           	subl %d7,%sp@+
   2162c:	9f9f           	subl %d7,%sp@+
   2162e:	9f9f           	subl %d7,%sp@+
   21630:	9f9f           	subl %d7,%sp@+
   21632:	9f9f           	subl %d7,%sp@+
   21634:	9f9f           	subl %d7,%sp@+
   21636:	9f9f           	subl %d7,%sp@+
   21638:	9f9f           	subl %d7,%sp@+
   2163a:	9f9f           	subl %d7,%sp@+
   2163c:	9f9f           	subl %d7,%sp@+
   2163e:	9f9f           	subl %d7,%sp@+
   21640:	9f9f           	subl %d7,%sp@+
   21642:	9f9f           	subl %d7,%sp@+
   21644:	9f9f           	subl %d7,%sp@+
   21646:	9f9f           	subl %d7,%sp@+
   21648:	9f9f           	subl %d7,%sp@+
   2164a:	9f9f           	subl %d7,%sp@+
   2164c:	9f9f           	subl %d7,%sp@+
   2164e:	9f9f           	subl %d7,%sp@+
   21650:	9f9f           	subl %d7,%sp@+
   21652:	9f9f           	subl %d7,%sp@+
   21654:	9f9f           	subl %d7,%sp@+
   21656:	9f9f           	subl %d7,%sp@+
   21658:	9f9f           	subl %d7,%sp@+
   2165a:	9f9f           	subl %d7,%sp@+
   2165c:	9f9f           	subl %d7,%sp@+
   2165e:	9f9f           	subl %d7,%sp@+
   21660:	9f9f           	subl %d7,%sp@+
   21662:	9f9f           	subl %d7,%sp@+
   21664:	9f9f           	subl %d7,%sp@+
   21666:	9f9f           	subl %d7,%sp@+
   21668:	2b29 2929      	movel %a1@(10537),%a5@-
   2166c:	2929 2929      	movel %a1@(10537),%a4@-
   21670:	2929 2929      	movel %a1@(10537),%a4@-
   21674:	2929 2929      	movel %a1@(10537),%a4@-
   21678:	2929 2929      	movel %a1@(10537),%a4@-
   2167c:	2996 9f9f 9f47 	movel %fp@,@(00000000)@(9f474747,%a1:l:8)
   21682:	4747 
   21684:	4747           	.short 0x4747
   21686:	9f9f           	subl %d7,%sp@+
   21688:	9f9f           	subl %d7,%sp@+
   2168a:	9f9f           	subl %d7,%sp@+
   2168c:	9f9f           	subl %d7,%sp@+
   2168e:	9f9f           	subl %d7,%sp@+
   21690:	9f9f           	subl %d7,%sp@+
   21692:	9f9f           	subl %d7,%sp@+
   21694:	9f9f           	subl %d7,%sp@+
   21696:	9f9f           	subl %d7,%sp@+
   21698:	9f9f           	subl %d7,%sp@+
   2169a:	9f9f           	subl %d7,%sp@+
   2169c:	9f9f           	subl %d7,%sp@+
   2169e:	9f9f           	subl %d7,%sp@+
   216a0:	9f9f           	subl %d7,%sp@+
   216a2:	9f9f           	subl %d7,%sp@+
   216a4:	9f47           	subxw %d7,%d7
   216a6:	9f9f           	subl %d7,%sp@+
   216a8:	9f9f           	subl %d7,%sp@+
   216aa:	2e2b 2929      	movel %a3@(10537),%d7
   216ae:	2929 2929      	movel %a1@(10537),%a4@-
   216b2:	2929 291a      	movel %a1@(10522),%a4@-
	...
   2175e:	0000 2e2b      	orib #43,%d0
   21762:	2929 2998      	movel %a1@(10648),%a4@-
   21766:	9f9f           	subl %d7,%sp@+
   21768:	9f9f           	subl %d7,%sp@+
   2176a:	9f9f           	subl %d7,%sp@+
   2176c:	9f9f           	subl %d7,%sp@+
   2176e:	9f9f           	subl %d7,%sp@+
   21770:	9f9f           	subl %d7,%sp@+
   21772:	9f9f           	subl %d7,%sp@+
   21774:	9f9f           	subl %d7,%sp@+
   21776:	9f9f           	subl %d7,%sp@+
   21778:	9f9f           	subl %d7,%sp@+
   2177a:	9f9f           	subl %d7,%sp@+
   2177c:	9f9f           	subl %d7,%sp@+
   2177e:	9f9f           	subl %d7,%sp@+
   21780:	9f9f           	subl %d7,%sp@+
   21782:	9f9f           	subl %d7,%sp@+
   21784:	9f9f           	subl %d7,%sp@+
   21786:	9f9f           	subl %d7,%sp@+
   21788:	9f9f           	subl %d7,%sp@+
   2178a:	9f9f           	subl %d7,%sp@+
   2178c:	9f9f           	subl %d7,%sp@+
   2178e:	9f9f           	subl %d7,%sp@+
   21790:	9f9f           	subl %d7,%sp@+
   21792:	9f9f           	subl %d7,%sp@+
   21794:	9f9f           	subl %d7,%sp@+
   21796:	9f9f           	subl %d7,%sp@+
   21798:	9f9f           	subl %d7,%sp@+
   2179a:	9f9f           	subl %d7,%sp@+
   2179c:	9f9f           	subl %d7,%sp@+
   2179e:	9f9f           	subl %d7,%sp@+
   217a0:	9f9f           	subl %d7,%sp@+
   217a2:	9f9f           	subl %d7,%sp@+
   217a4:	9f9f           	subl %d7,%sp@+
   217a6:	9f9f           	subl %d7,%sp@+
   217a8:	2c29 2929      	movel %a1@(10537),%d6
   217ac:	2929 2929      	movel %a1@(10537),%a4@-
   217b0:	2929 2929      	movel %a1@(10537),%a4@-
   217b4:	2929 2929      	movel %a1@(10537),%a4@-
   217b8:	2929 2929      	movel %a1@(10537),%a4@-
   217bc:	2996 9f9f 9f47 	movel %fp@,@(00000000)@(9f474747,%a1:l:8)
   217c2:	4747 
   217c4:	4747           	.short 0x4747
   217c6:	9f9f           	subl %d7,%sp@+
   217c8:	9f9f           	subl %d7,%sp@+
   217ca:	9f9f           	subl %d7,%sp@+
   217cc:	9f9f           	subl %d7,%sp@+
   217ce:	9f9f           	subl %d7,%sp@+
   217d0:	9f9f           	subl %d7,%sp@+
   217d2:	9f9f           	subl %d7,%sp@+
   217d4:	9f9f           	subl %d7,%sp@+
   217d6:	9f9f           	subl %d7,%sp@+
   217d8:	9f9f           	subl %d7,%sp@+
   217da:	9f9f           	subl %d7,%sp@+
   217dc:	9f9f           	subl %d7,%sp@+
   217de:	9f9f           	subl %d7,%sp@+
   217e0:	9f9f           	subl %d7,%sp@+
   217e2:	9f9f           	subl %d7,%sp@+
   217e4:	9f9f           	subl %d7,%sp@+
   217e6:	9f9f           	subl %d7,%sp@+
   217e8:	9f9f           	subl %d7,%sp@+
   217ea:	2e2c 2929      	movel %a4@(10537),%d7
   217ee:	2929 2929      	movel %a1@(10537),%a4@-
   217f2:	2929 291a      	movel %a1@(10522),%a4@-
   217f6:	0000 181b      	orib #27,%d0
   217fa:	1d00           	moveb %d0,%fp@-
   217fc:	0000 1c07      	orib #7,%d0
   21800:	1800           	moveb %d0,%d4
	...
   2189a:	0018 1b1d      	orib #29,%a0@+
   2189e:	0000 2e2c      	orib #44,%d0
   218a2:	2929 2998      	movel %a1@(10648),%a4@-
   218a6:	9f9f           	subl %d7,%sp@+
   218a8:	9f9f           	subl %d7,%sp@+
   218aa:	9f9f           	subl %d7,%sp@+
   218ac:	9f9f           	subl %d7,%sp@+
   218ae:	9f9f           	subl %d7,%sp@+
   218b0:	9f9f           	subl %d7,%sp@+
   218b2:	9f9f           	subl %d7,%sp@+
   218b4:	9f9f           	subl %d7,%sp@+
   218b6:	9f9f           	subl %d7,%sp@+
   218b8:	9f9f           	subl %d7,%sp@+
   218ba:	9f9f           	subl %d7,%sp@+
   218bc:	9f9f           	subl %d7,%sp@+
   218be:	9f9f           	subl %d7,%sp@+
   218c0:	9f9f           	subl %d7,%sp@+
   218c2:	9f9f           	subl %d7,%sp@+
   218c4:	9f9f           	subl %d7,%sp@+
   218c6:	9f9f           	subl %d7,%sp@+
   218c8:	9f9f           	subl %d7,%sp@+
   218ca:	9f9f           	subl %d7,%sp@+
   218cc:	9f9f           	subl %d7,%sp@+
   218ce:	9f9f           	subl %d7,%sp@+
   218d0:	9f9f           	subl %d7,%sp@+
   218d2:	9f9f           	subl %d7,%sp@+
   218d4:	9f9f           	subl %d7,%sp@+
   218d6:	9f9f           	subl %d7,%sp@+
   218d8:	9f9f           	subl %d7,%sp@+
   218da:	9f9f           	subl %d7,%sp@+
   218dc:	9f9f           	subl %d7,%sp@+
   218de:	9f9f           	subl %d7,%sp@+
   218e0:	9f9f           	subl %d7,%sp@+
   218e2:	9f9f           	subl %d7,%sp@+
   218e4:	9f9f           	subl %d7,%sp@+
   218e6:	9f9f           	subl %d7,%sp@+
   218e8:	2e2b 2929      	movel %a3@(10537),%d7
	...
   218fc:	0096 9f9f 9f47 	oril #-1616928953,%fp@
   21902:	4747           	.short 0x4747
   21904:	4747           	.short 0x4747
   21906:	9f9f           	subl %d7,%sp@+
   21908:	9f9f           	subl %d7,%sp@+
   2190a:	9f9f           	subl %d7,%sp@+
   2190c:	9f9f           	subl %d7,%sp@+
   2190e:	9f9f           	subl %d7,%sp@+
   21910:	9f9f           	subl %d7,%sp@+
   21912:	9f9f           	subl %d7,%sp@+
   21914:	9f9f           	subl %d7,%sp@+
   21916:	9f9f           	subl %d7,%sp@+
   21918:	9f9f           	subl %d7,%sp@+
   2191a:	9f9f           	subl %d7,%sp@+
   2191c:	9f9f           	subl %d7,%sp@+
   2191e:	9f9f           	subl %d7,%sp@+
   21920:	9f47           	subxw %d7,%d7
   21922:	9f9f           	subl %d7,%sp@+
   21924:	9f9f           	subl %d7,%sp@+
   21926:	479f           	chkw %sp@+,%d3
   21928:	9f9f           	subl %d7,%sp@+
	...
   21932:	0000 001a      	orib #26,%d0
   21936:	0000 1b1d      	orib #29,%d0
   2193a:	1f00           	moveb %d0,%sp@-
   2193c:	001e 0808      	orib #8,%fp@+
   21940:	1418           	moveb %a0@+,%d2
	...
   2195e:	0000 000f      	orib #15,%d0
   21962:	0f1c           	btst %d7,%a4@+
   21964:	001e 0000      	orib #0,%fp@+
   21968:	0000 0712      	orib #18,%d0
   2196c:	0700           	btst %d3,%d0
   2196e:	0719           	btst %d3,%a1@+
	...
   219d8:	0000 001b      	orib #27,%d0
   219dc:	1d1f           	moveb %sp@+,%fp@-
   219de:	0000 0000      	orib #0,%d0
   219e2:	0000 0098      	orib #-104,%d0
   219e6:	9f9f           	subl %d7,%sp@+
   219e8:	9f9f           	subl %d7,%sp@+
   219ea:	9f9f           	subl %d7,%sp@+
   219ec:	9f9f           	subl %d7,%sp@+
   219ee:	9f9f           	subl %d7,%sp@+
   219f0:	9f9f           	subl %d7,%sp@+
   219f2:	9f9f           	subl %d7,%sp@+
   219f4:	9f9f           	subl %d7,%sp@+
   219f6:	9f9f           	subl %d7,%sp@+
   219f8:	9f9f           	subl %d7,%sp@+
   219fa:	9f9f           	subl %d7,%sp@+
   219fc:	9f9f           	subl %d7,%sp@+
   219fe:	9f9f           	subl %d7,%sp@+
   21a00:	9f9f           	subl %d7,%sp@+
   21a02:	9f9f           	subl %d7,%sp@+
   21a04:	9f9f           	subl %d7,%sp@+
   21a06:	9f9f           	subl %d7,%sp@+
   21a08:	9f9f           	subl %d7,%sp@+
   21a0a:	9f9f           	subl %d7,%sp@+
   21a0c:	9f9f           	subl %d7,%sp@+
   21a0e:	9f9f           	subl %d7,%sp@+
   21a10:	9f9f           	subl %d7,%sp@+
   21a12:	9f9f           	subl %d7,%sp@+
   21a14:	9f9f           	subl %d7,%sp@+
   21a16:	9f9f           	subl %d7,%sp@+
   21a18:	9f9f           	subl %d7,%sp@+
   21a1a:	9f9f           	subl %d7,%sp@+
   21a1c:	9f9f           	subl %d7,%sp@+
   21a1e:	9f9f           	subl %d7,%sp@+
   21a20:	9f9f           	subl %d7,%sp@+
   21a22:	9f9f           	subl %d7,%sp@+
   21a24:	9f9f           	subl %d7,%sp@+
   21a26:	9f9f           	subl %d7,%sp@+
	...
   21a3c:	0096 9f9f 9f47 	oril #-1616928953,%fp@
   21a42:	4747           	.short 0x4747
   21a44:	4747           	.short 0x4747
   21a46:	9f9f           	subl %d7,%sp@+
   21a48:	9f9f           	subl %d7,%sp@+
   21a4a:	9f9f           	subl %d7,%sp@+
   21a4c:	9f9f           	subl %d7,%sp@+
   21a4e:	9f9f           	subl %d7,%sp@+
   21a50:	9f9f           	subl %d7,%sp@+
   21a52:	9f9f           	subl %d7,%sp@+
   21a54:	9f9f           	subl %d7,%sp@+
   21a56:	9f9f           	subl %d7,%sp@+
   21a58:	9f9f           	subl %d7,%sp@+
   21a5a:	9f9f           	subl %d7,%sp@+
   21a5c:	9f9f           	subl %d7,%sp@+
   21a5e:	9f9f           	subl %d7,%sp@+
   21a60:	9f4c           	subxw %a4@-,%sp@-
   21a62:	4747           	.short 0x4747
   21a64:	4747           	.short 0x4747
   21a66:	4c9f 9f9f      	movemw %sp@+,%d0-%d4/%d7-%a4/%sp
	...
   21a72:	0000 001a      	orib #26,%d0
   21a76:	0000 1d1f      	orib #31,%d0
   21a7a:	1f00           	moveb %d0,%sp@-
   21a7c:	0008           	.short 0x0008
   21a7e:	0808           	.short 0x0808
   21a80:	0814 0700      	btst #0,%a4@
   21a84:	0000 0000      	orib #0,%d0
   21a88:	0000 2a20      	orib #32,%d0
   21a8c:	1a00           	moveb %d0,%d5
	...
   21a9e:	0016 0f1a      	orib #26,%fp@
   21aa2:	1815           	moveb %a5@,%d4
   21aa4:	1817           	moveb %sp@,%d4
   21aa6:	0008           	.short 0x0008
   21aa8:	0717           	btst %d3,%sp@
   21aaa:	1a1a           	moveb %a2@+,%d5
   21aac:	1612           	moveb %a2@,%d3
   21aae:	1a17           	moveb %sp@,%d5
	...
   21b18:	0000 001d      	orib #29,%d0
   21b1c:	1f1f           	moveb %sp@+,%sp@-
   21b1e:	0000 0000      	orib #0,%d0
   21b22:	0000 0098      	orib #-104,%d0
   21b26:	9f9f           	subl %d7,%sp@+
   21b28:	9f9f           	subl %d7,%sp@+
   21b2a:	9f9f           	subl %d7,%sp@+
   21b2c:	9f9f           	subl %d7,%sp@+
   21b2e:	9f9f           	subl %d7,%sp@+
   21b30:	9f9f           	subl %d7,%sp@+
   21b32:	9f9f           	subl %d7,%sp@+
   21b34:	9f9f           	subl %d7,%sp@+
   21b36:	9f9f           	subl %d7,%sp@+
   21b38:	9f9f           	subl %d7,%sp@+
   21b3a:	9f9f           	subl %d7,%sp@+
   21b3c:	9f9f           	subl %d7,%sp@+
   21b3e:	9f9f           	subl %d7,%sp@+
   21b40:	9f9f           	subl %d7,%sp@+
   21b42:	9f9f           	subl %d7,%sp@+
   21b44:	9f9f           	subl %d7,%sp@+
   21b46:	9f9f           	subl %d7,%sp@+
   21b48:	9f9f           	subl %d7,%sp@+
   21b4a:	9f9f           	subl %d7,%sp@+
   21b4c:	9f9f           	subl %d7,%sp@+
   21b4e:	9f9f           	subl %d7,%sp@+
   21b50:	9f9f           	subl %d7,%sp@+
   21b52:	9f9f           	subl %d7,%sp@+
   21b54:	9f9f           	subl %d7,%sp@+
   21b56:	9f9f           	subl %d7,%sp@+
   21b58:	9f9f           	subl %d7,%sp@+
   21b5a:	9f9f           	subl %d7,%sp@+
   21b5c:	9f9f           	subl %d7,%sp@+
   21b5e:	9f9f           	subl %d7,%sp@+
   21b60:	9f9f           	subl %d7,%sp@+
   21b62:	9f9f           	subl %d7,%sp@+
   21b64:	9f9f           	subl %d7,%sp@+
   21b66:	9f9f           	subl %d7,%sp@+
	...
   21b7c:	0096 9f9f 9f47 	oril #-1616928953,%fp@
   21b82:	4747           	.short 0x4747
   21b84:	4747           	.short 0x4747
   21b86:	9f9f           	subl %d7,%sp@+
   21b88:	9f9f           	subl %d7,%sp@+
   21b8a:	9f9f           	subl %d7,%sp@+
   21b8c:	9f9f           	subl %d7,%sp@+
   21b8e:	9f9f           	subl %d7,%sp@+
   21b90:	9f9f           	subl %d7,%sp@+
   21b92:	9f9f           	subl %d7,%sp@+
   21b94:	9f9f           	subl %d7,%sp@+
   21b96:	9f9f           	subl %d7,%sp@+
   21b98:	9f9f           	subl %d7,%sp@+
   21b9a:	9f9f           	subl %d7,%sp@+
   21b9c:	9f9f           	subl %d7,%sp@+
   21b9e:	9f9f           	subl %d7,%sp@+
   21ba0:	9f9f           	subl %d7,%sp@+
   21ba2:	9f9f           	subl %d7,%sp@+
   21ba4:	9f9f           	subl %d7,%sp@+
   21ba6:	9f9f           	subl %d7,%sp@+
   21ba8:	9f9f           	subl %d7,%sp@+
	...
   21bb2:	0000 001a      	orib #26,%d0
   21bb6:	0000 0000      	orib #0,%d0
   21bba:	0000 081a      	orib #26,%d0
   21bbe:	1a1a           	moveb %a2@+,%d5
   21bc0:	1a1a           	moveb %a2@+,%d5
   21bc2:	070f 0700      	movepw %sp@(1792),%d3
   21bc6:	0000 0028      	orib #40,%d0
   21bca:	1b1a           	moveb %a2@+,%a5@-
   21bcc:	311a           	movew %a2@+,%a0@-
	...
   21bda:	0000 000c      	orib #12,%d0
   21bde:	131a           	moveb %a2@+,%a1@-
   21be0:	1a1a           	moveb %a2@+,%d5
   21be2:	1a1a           	moveb %a2@+,%d5
   21be4:	1828 161a      	moveb %a0@(5658),%d4
   21be8:	1a1a           	moveb %a2@+,%d5
   21bea:	1a1a           	moveb %a2@+,%d5
   21bec:	1a1a           	moveb %a2@+,%d5
   21bee:	3700           	movew %d0,%a3@-
	...
   21c38:	0000 0012      	orib #18,%d0
	...
   21c48:	0000 002d      	orib #45,%d0
   21c4c:	1707           	moveb %d7,%a3@-
   21c4e:	0000 000c      	orib #12,%d0
   21c52:	1800           	moveb %d0,%d4
	...
   21c64:	0098 9f9f 9f9f 	oril #-1616928865,%a0@+
   21c6a:	9f9f           	subl %d7,%sp@+
   21c6c:	9f9f           	subl %d7,%sp@+
   21c6e:	9f9f           	subl %d7,%sp@+
   21c70:	9f9f           	subl %d7,%sp@+
   21c72:	9f9f           	subl %d7,%sp@+
   21c74:	9f9f           	subl %d7,%sp@+
   21c76:	9f9f           	subl %d7,%sp@+
   21c78:	9f9f           	subl %d7,%sp@+
   21c7a:	9f9f           	subl %d7,%sp@+
   21c7c:	9f9f           	subl %d7,%sp@+
   21c7e:	9f9f           	subl %d7,%sp@+
   21c80:	9f9f           	subl %d7,%sp@+
   21c82:	9f9f           	subl %d7,%sp@+
   21c84:	9f9f           	subl %d7,%sp@+
   21c86:	9f9f           	subl %d7,%sp@+
   21c88:	9f9f           	subl %d7,%sp@+
   21c8a:	9f9f           	subl %d7,%sp@+
   21c8c:	9f9f           	subl %d7,%sp@+
   21c8e:	9f9f           	subl %d7,%sp@+
   21c90:	9f9f           	subl %d7,%sp@+
   21c92:	9f9f           	subl %d7,%sp@+
   21c94:	9f9f           	subl %d7,%sp@+
   21c96:	9f9f           	subl %d7,%sp@+
   21c98:	9f9f           	subl %d7,%sp@+
   21c9a:	9f9f           	subl %d7,%sp@+
   21c9c:	9f9f           	subl %d7,%sp@+
   21c9e:	9f9f           	subl %d7,%sp@+
   21ca0:	9f9f           	subl %d7,%sp@+
   21ca2:	9f9f           	subl %d7,%sp@+
   21ca4:	9f9f           	subl %d7,%sp@+
   21ca6:	9f9f           	subl %d7,%sp@+
	...
   21cbc:	0096 9f9f 9f47 	oril #-1616928953,%fp@
   21cc2:	4747           	.short 0x4747
   21cc4:	4747           	.short 0x4747
   21cc6:	9f9f           	subl %d7,%sp@+
   21cc8:	9f9f           	subl %d7,%sp@+
   21cca:	9f9f           	subl %d7,%sp@+
   21ccc:	9f9f           	subl %d7,%sp@+
   21cce:	9f9f           	subl %d7,%sp@+
   21cd0:	9f9f           	subl %d7,%sp@+
   21cd2:	9f9f           	subl %d7,%sp@+
   21cd4:	9f9f           	subl %d7,%sp@+
   21cd6:	9f9f           	subl %d7,%sp@+
   21cd8:	9f9f           	subl %d7,%sp@+
   21cda:	9f9f           	subl %d7,%sp@+
   21cdc:	9f9f           	subl %d7,%sp@+
   21cde:	9f9f           	subl %d7,%sp@+
   21ce0:	9f9f           	subl %d7,%sp@+
   21ce2:	9f9f           	subl %d7,%sp@+
   21ce4:	9f9f           	subl %d7,%sp@+
   21ce6:	9f9f           	subl %d7,%sp@+
   21ce8:	9f9f           	subl %d7,%sp@+
	...
   21cf2:	0000 001a      	orib #26,%d0
   21cf6:	0000 0000      	orib #0,%d0
   21cfa:	0032 1919 1919 	orib #25,%a2@(00000000,%d1:l)@(00000000)
   21d00:	1919           	moveb %a1@+,%a4@-
   21d02:	1919           	moveb %a1@+,%a4@-
   21d04:	070f 0000      	movepw %sp@(0),%d3
   21d08:	2419           	movel %a1@+,%d2
   21d0a:	1919           	moveb %a1@+,%a4@-
   21d0c:	1931 0f1b 0000 	moveb %a1@(00000000,%d0:l:8)@(00000000),%a4@-
   21d12:	0000 
	...
   21d1c:	0011 1919      	orib #25,%a1@
   21d20:	1900           	moveb %d0,%a4@-
   21d22:	1907           	moveb %d7,%a4@-
   21d24:	3500           	movew %d0,%a2@-
   21d26:	1819           	moveb %a1@+,%d4
   21d28:	1919           	moveb %a1@+,%a4@-
   21d2a:	0719           	btst %d3,%a1@+
   21d2c:	190c           	.short 0x190c
	...
   21d52:	0400 0000      	subib #0,%d0
	...
   21d76:	0018 1207      	orib #7,%a0@+
   21d7a:	1e18           	moveb %a0@+,%d7
   21d7c:	1208           	.short 0x1208
	...
   21d8a:	041a 1a1a      	subib #26,%a2@+
   21d8e:	110c           	.short 0x110c
   21d90:	2a1a           	movel %a2@+,%d5
   21d92:	1708           	.short 0x1708
	...
   21da4:	0098 9f9f 9f9f 	oril #-1616928865,%a0@+
   21daa:	9f9f           	subl %d7,%sp@+
   21dac:	9f9f           	subl %d7,%sp@+
   21dae:	9f9f           	subl %d7,%sp@+
   21db0:	9f9f           	subl %d7,%sp@+
   21db2:	9f9f           	subl %d7,%sp@+
   21db4:	9f9f           	subl %d7,%sp@+
   21db6:	9f9f           	subl %d7,%sp@+
   21db8:	9f9f           	subl %d7,%sp@+
   21dba:	9f9f           	subl %d7,%sp@+
   21dbc:	9f9f           	subl %d7,%sp@+
   21dbe:	9f9f           	subl %d7,%sp@+
   21dc0:	9f9f           	subl %d7,%sp@+
   21dc2:	9f9f           	subl %d7,%sp@+
   21dc4:	9f9f           	subl %d7,%sp@+
   21dc6:	9f9f           	subl %d7,%sp@+
   21dc8:	9f9f           	subl %d7,%sp@+
   21dca:	9f9f           	subl %d7,%sp@+
   21dcc:	9f9f           	subl %d7,%sp@+
   21dce:	9f9f           	subl %d7,%sp@+
   21dd0:	9f9f           	subl %d7,%sp@+
   21dd2:	9f9f           	subl %d7,%sp@+
   21dd4:	9f9f           	subl %d7,%sp@+
   21dd6:	9f9f           	subl %d7,%sp@+
   21dd8:	9f9f           	subl %d7,%sp@+
   21dda:	9f9f           	subl %d7,%sp@+
   21ddc:	9f9f           	subl %d7,%sp@+
   21dde:	9f9f           	subl %d7,%sp@+
   21de0:	9f9f           	subl %d7,%sp@+
   21de2:	9f9f           	subl %d7,%sp@+
   21de4:	9f9f           	subl %d7,%sp@+
   21de6:	9f9f           	subl %d7,%sp@+
	...
   21dfc:	0098 9f9f 9f47 	oril #-1616928953,%a0@+
   21e02:	4747           	.short 0x4747
   21e04:	4747           	.short 0x4747
   21e06:	9f9f           	subl %d7,%sp@+
   21e08:	4747           	.short 0x4747
   21e0a:	4747           	.short 0x4747
   21e0c:	4747           	.short 0x4747
   21e0e:	4747           	.short 0x4747
   21e10:	4747           	.short 0x4747
   21e12:	4747           	.short 0x4747
   21e14:	4747           	.short 0x4747
   21e16:	4a4c           	.short 0x4a4c
   21e18:	4e9f           	.short 0x4e9f
   21e1a:	9f9f           	subl %d7,%sp@+
   21e1c:	9f9f           	subl %d7,%sp@+
   21e1e:	9f9f           	subl %d7,%sp@+
   21e20:	9f9f           	subl %d7,%sp@+
   21e22:	9f9f           	subl %d7,%sp@+
   21e24:	9f9f           	subl %d7,%sp@+
   21e26:	9f9f           	subl %d7,%sp@+
   21e28:	9f9f           	subl %d7,%sp@+
	...
   21e32:	0000 001a      	orib #26,%d0
   21e36:	0000 0000      	orib #0,%d0
   21e3a:	2219           	movel %a1@+,%d1
   21e3c:	1919           	moveb %a1@+,%a4@-
   21e3e:	1919           	moveb %a1@+,%a4@-
   21e40:	1c19           	moveb %a1@+,%d6
   21e42:	1919           	moveb %a1@+,%a4@-
   21e44:	1932 0000      	moveb %a2@(00000000,%d0:w),%a4@-
   21e48:	3519           	movew %a1@+,%a2@-
   21e4a:	1919           	moveb %a1@+,%a4@-
   21e4c:	1919           	moveb %a1@+,%a4@-
   21e4e:	180f           	.short 0x180f
   21e50:	0700           	btst %d3,%d0
	...
   21e5a:	0000 0017      	orib #23,%d0
   21e5e:	1818           	moveb %a0@+,%d4
   21e60:	180f           	.short 0x180f
   21e62:	282a 0000      	movel %a2@(0),%d4
   21e66:	1918           	moveb %a0@+,%a4@-
   21e68:	1818           	moveb %a0@+,%d4
   21e6a:	0704           	btst %d3,%d4
   21e6c:	2a00           	movel %d0,%d5
	...
   21e8e:	0000 0024      	orib #36,%d0
   21e92:	0f00           	btst %d7,%d0
	...
   21ea0:	0004 130f      	orib #15,%d4
	...
   21eb8:	1919           	moveb %a1@+,%a4@-
   21eba:	1919           	moveb %a1@+,%a4@-
   21ebc:	1915           	moveb %a5@,%a4@-
   21ebe:	1211           	moveb %a1@,%d1
   21ec0:	0800 0000      	btst #0,%d0
   21ec4:	0000 0000      	orib #0,%d0
   21ec8:	0004 1919      	orib #25,%d4
   21ecc:	1919           	moveb %a1@+,%a4@-
   21ece:	1919           	moveb %a1@+,%a4@-
   21ed0:	1919           	moveb %a1@+,%a4@-
   21ed2:	191b           	moveb %a3@+,%a4@-
   21ed4:	001d 1307      	orib #7,%a5@+
	...
   21ee4:	0098 9f9f 9f9f 	oril #-1616928865,%a0@+
   21eea:	9f9f           	subl %d7,%sp@+
   21eec:	9f9f           	subl %d7,%sp@+
   21eee:	9f31 3131 3134 	subb %d7,%a1@(31342d36,%d3:w)@(00000000)
   21ef4:	2d36 
   21ef6:	3131 3131 3133 	movew %a1@(3133332a,%d3:w)@(00000000),%a0@-
   21efc:	332a 
   21efe:	9f00           	subxb %d0,%d7
   21f00:	3131 3131 3132 	movew %a1@(31323300,%d3:w)@(00000000),%a0@-
   21f06:	3300 
   21f08:	0031 3131 3131 	orib #49,%a1@(32339f00,%d3:w)@(00000000)
   21f0e:	3233 9f00 
   21f12:	3131 3131 3131 	movew %a1@(31310031,%d3:w)@(00000000),%a0@-
   21f18:	0031 
   21f1a:	3131 3131 319f 	movew %a1@(319f9f9f,%d3:w)@(00000000),%a0@-
   21f20:	9f9f 
   21f22:	9f9f           	subl %d7,%sp@+
   21f24:	9f9f           	subl %d7,%sp@+
   21f26:	9f9f           	subl %d7,%sp@+
	...
   21f3c:	0098 9f9f 9f47 	oril #-1616928953,%a0@+
   21f42:	4747           	.short 0x4747
   21f44:	4747           	.short 0x4747
   21f46:	9f9f           	subl %d7,%sp@+
   21f48:	4747           	.short 0x4747
   21f4a:	4747           	.short 0x4747
   21f4c:	4747           	.short 0x4747
   21f4e:	4747           	.short 0x4747
   21f50:	4747           	.short 0x4747
   21f52:	4747           	.short 0x4747
   21f54:	4747           	.short 0x4747
   21f56:	4747           	.short 0x4747
   21f58:	494c           	.short 0x494c
   21f5a:	4e9f           	.short 0x4e9f
   21f5c:	9f9f           	subl %d7,%sp@+
   21f5e:	9f9f           	subl %d7,%sp@+
   21f60:	9f9f           	subl %d7,%sp@+
   21f62:	9f9f           	subl %d7,%sp@+
   21f64:	9f9f           	subl %d7,%sp@+
   21f66:	9f9f           	subl %d7,%sp@+
   21f68:	9f9f           	subl %d7,%sp@+
	...
   21f72:	0000 001a      	orib #26,%d0
   21f76:	0000 0000      	orib #0,%d0
   21f7a:	3217           	movew %sp@,%d1
   21f7c:	1717           	moveb %sp@,%a3@-
   21f7e:	1700           	moveb %d0,%a3@-
   21f80:	0f17           	btst %d7,%sp@
   21f82:	1717           	moveb %sp@,%a3@-
   21f84:	170c           	.short 0x170c
   21f86:	001a 1717      	orib #23,%a2@+
   21f8a:	1717           	moveb %sp@,%a3@-
   21f8c:	1717           	moveb %sp@,%a3@-
   21f8e:	1717           	moveb %sp@,%a3@-
   21f90:	0f00           	btst %d7,%d0
	...
   21f9a:	0000 0018      	orib #24,%d0
   21f9e:	1817           	moveb %sp@,%d4
   21fa0:	170f           	.short 0x170f
   21fa2:	0000 0000      	orib #0,%d0
   21fa6:	1b17           	moveb %sp@,%a5@-
   21fa8:	1717           	moveb %sp@,%a3@-
   21faa:	1800           	moveb %d0,%d4
	...
   21fd0:	2217           	movel %sp@,%d1
   21fd2:	0f00           	btst %d7,%d0
	...
   21fe0:	0018 0818      	orib #24,%a0@+
   21fe4:	0f00           	btst %d7,%d0
	...
   21ff6:	0000 0418      	orib #24,%d0
   21ffa:	1818           	moveb %a0@+,%d4
   21ffc:	1818           	moveb %a0@+,%d4
   21ffe:	1818           	moveb %a0@+,%d4
   22000:	0700           	btst %d3,%d0
   22002:	0000 0000      	orib #0,%d0
   22006:	0000 2018      	orib #24,%d0
   2200a:	1818           	moveb %a0@+,%d4
   2200c:	1818           	moveb %a0@+,%d4
   2200e:	1818           	moveb %a0@+,%d4
   22010:	1818           	moveb %a0@+,%d4
   22012:	1818           	moveb %a0@+,%d4
   22014:	1818           	moveb %a0@+,%d4
   22016:	1818           	moveb %a0@+,%d4
   22018:	1215           	moveb %a5@,%d1
   2201a:	0800 0000      	btst #0,%d0
   2201e:	0000 0000      	orib #0,%d0
   22022:	0000 0098      	orib #-104,%d0
   22026:	9f9f           	subl %d7,%sp@+
   22028:	9f9f           	subl %d7,%sp@+
   2202a:	9f9f           	subl %d7,%sp@+
   2202c:	9f9f           	subl %d7,%sp@+
   2202e:	9631 2626      	subb %a1@(00000026,%d2:w:8),%d3
   22032:	262a 2d34      	movel %a2@(11572),%d3
   22036:	3126           	movew %fp@-,%a0@-
   22038:	2626           	movel %fp@-,%d3
   2203a:	2626           	movel %fp@-,%d3
   2203c:	2633 2a32      	movel %a3@(00000032,%d2:l:2),%d3
   22040:	3426           	movew %fp@-,%d2
   22042:	2626           	movel %fp@-,%d3
   22044:	2626           	movel %fp@-,%d3
   22046:	2035 3333 2226 	movel %a5@(22262626,%d3:w:2)@(26350033),%d0
   2204c:	2626 2635 0033 
   22052:	3426           	movew %fp@-,%d2
   22054:	2626           	movel %fp@-,%d3
   22056:	2600           	movel %d0,%d3
   22058:	3334 2626      	movew %a4@(00000026,%d2:w:8),%a1@-
   2205c:	2626           	movel %fp@-,%d3
   2205e:	269f           	movel %sp@+,%a3@
   22060:	9f9f           	subl %d7,%sp@+
   22062:	9f9f           	subl %d7,%sp@+
   22064:	9f9f           	subl %d7,%sp@+
   22066:	9f9f           	subl %d7,%sp@+
	...
   2207c:	0098 9f9f 9f47 	oril #-1616928953,%a0@+
   22082:	4747           	.short 0x4747
   22084:	4747           	.short 0x4747
   22086:	9f9f           	subl %d7,%sp@+
   22088:	4747           	.short 0x4747
   2208a:	4747           	.short 0x4747
   2208c:	4747           	.short 0x4747
   2208e:	4747           	.short 0x4747
   22090:	4747           	.short 0x4747
   22092:	4747           	.short 0x4747
   22094:	4747           	.short 0x4747
   22096:	4747           	.short 0x4747
   22098:	4747           	.short 0x4747
   2209a:	494d           	.short 0x494d
   2209c:	9f9f           	subl %d7,%sp@+
   2209e:	9f9f           	subl %d7,%sp@+
   220a0:	9f9f           	subl %d7,%sp@+
   220a2:	9f9f           	subl %d7,%sp@+
   220a4:	9f9f           	subl %d7,%sp@+
   220a6:	9f9f           	subl %d7,%sp@+
   220a8:	9f9f           	subl %d7,%sp@+
	...
   220b2:	0000 001a      	orib #26,%d0
   220b6:	0000 0000      	orib #0,%d0
   220ba:	0714           	btst %d3,%a4@
   220bc:	1717           	moveb %sp@,%a3@-
   220be:	2b00           	movel %d0,%a5@-
   220c0:	0f17           	btst %d7,%sp@
   220c2:	1717           	moveb %sp@,%a3@-
   220c4:	1736 0017      	moveb %fp@(00000017,%d0:w),%a3@-
   220c8:	1717           	moveb %sp@,%a3@-
   220ca:	1712           	moveb %a2@,%a3@-
   220cc:	1717           	moveb %sp@,%a3@-
   220ce:	1717           	moveb %sp@,%a3@-
   220d0:	0700           	btst %d3,%d0
	...
   220da:	0000 001a      	orib #26,%d0
   220de:	1716           	moveb %fp@,%a3@-
   220e0:	1611           	moveb %a1@,%d3
   220e2:	0000 0000      	orib #0,%d0
   220e6:	0416 1616      	subib #22,%fp@
   220ea:	1a00           	moveb %d0,%d5
   220ec:	0017 0000      	orib #0,%sp@
	...
   2210c:	0000 0035      	orib #53,%d0
   22110:	1616           	moveb %fp@,%d3
   22112:	0f00           	btst %d7,%d0
	...
   22120:	0708 1d1f      	movepw %a0@(7455),%d3
	...
   22138:	0000 2600      	orib #0,%d0
   2213c:	1717           	moveb %sp@,%a3@-
   2213e:	1717           	moveb %sp@,%a3@-
   22140:	0700           	btst %d3,%d0
   22142:	0000 0000      	orib #0,%d0
   22146:	0023 3717      	orib #23,%a3@-
   2214a:	1717           	moveb %sp@,%a3@-
   2214c:	1700           	moveb %d0,%a3@-
   2214e:	1717           	moveb %sp@,%a3@-
   22150:	1717           	moveb %sp@,%a3@-
   22152:	1717           	moveb %sp@,%a3@-
   22154:	1717           	moveb %sp@,%a3@-
   22156:	1717           	moveb %sp@,%a3@-
   22158:	1717           	moveb %sp@,%a3@-
   2215a:	1500           	moveb %d0,%a2@-
	...
   22164:	0099 9f9f 9f9f 	oril #-1616928865,%a1@+
   2216a:	9f9f           	subl %d7,%sp@+
   2216c:	9f9f           	subl %d7,%sp@+
   2216e:	1733 2526 2629 	moveb %a3@(00002629)@(00002d34,%d2:w:4),%a3@-
   22174:	2d34 
   22176:	3425           	movew %a5@-,%d2
   22178:	2625           	movel %a5@-,%d3
   2217a:	2526           	movel %fp@-,%a2@-
   2217c:	2528 3732      	movel %a0@(14130),%a2@-
   22180:	2525           	movel %a5@-,%a2@-
   22182:	2525           	movel %a5@-,%a2@-
   22184:	2525           	movel %a5@-,%a2@-
   22186:	2529 3325      	movel %a1@(13093),%a2@-
   2218a:	2528 2c25      	movel %a0@(11301),%a2@-
   2218e:	2525           	movel %a5@-,%a2@-
   22190:	0032 2525 252a 	orib #37,%a2@(00002a00,%d2:w:4)@(00003225)
   22196:	2a00 3225 
   2219a:	2525           	movel %a5@-,%a2@-
   2219c:	2a2a 2a9f      	movel %a2@(10911),%d5
   221a0:	9f9f           	subl %d7,%sp@+
   221a2:	9f9f           	subl %d7,%sp@+
   221a4:	9f9f           	subl %d7,%sp@+
   221a6:	9f9f           	subl %d7,%sp@+
	...
   221bc:	0098 9f9f 9f47 	oril #-1616928953,%a0@+
   221c2:	4747           	.short 0x4747
   221c4:	4747           	.short 0x4747
   221c6:	9f9f           	subl %d7,%sp@+
   221c8:	4747           	.short 0x4747
   221ca:	4747           	.short 0x4747
   221cc:	4747           	.short 0x4747
   221ce:	4747           	.short 0x4747
   221d0:	4747           	.short 0x4747
   221d2:	4747           	.short 0x4747
   221d4:	4747           	.short 0x4747
   221d6:	4747           	.short 0x4747
   221d8:	4747           	.short 0x4747
   221da:	4749           	.short 0x4749
   221dc:	4d9f           	chkw %sp@+,%d6
   221de:	9f9f           	subl %d7,%sp@+
   221e0:	9f9f           	subl %d7,%sp@+
   221e2:	9f9f           	subl %d7,%sp@+
   221e4:	9f9f           	subl %d7,%sp@+
   221e6:	9f9f           	subl %d7,%sp@+
   221e8:	9f9f           	subl %d7,%sp@+
	...
   221f2:	0000 001b      	orib #27,%d0
   221f6:	0000 0000      	orib #0,%d0
   221fa:	1811           	moveb %a1@,%d4
   221fc:	162b 0000      	moveb %a3@(0),%d3
   22200:	1116           	moveb %fp@,%a0@-
   22202:	1616           	moveb %fp@,%d3
   22204:	1622           	moveb %a2@-,%d3
   22206:	0007 1616      	orib #22,%d7
   2220a:	000f           	.short 0x000f
   2220c:	1616           	moveb %fp@,%d3
   2220e:	1616           	moveb %fp@,%d3
   22210:	3300           	movew %d0,%a1@-
	...
   2221a:	0000 001c      	orib #28,%d0
   2221e:	1616           	moveb %fp@,%d3
   22220:	1613           	moveb %a3@,%d3
   22222:	0000 000c      	orib #12,%d0
   22226:	0416 1616      	subib #22,%fp@
   2222a:	080c           	.short 0x080c
   2222c:	0c08           	.short 0x0c08
   2222e:	0000 001a      	orib #26,%d0
   22232:	170f           	.short 0x170f
   22234:	0000 0000      	orib #0,%d0
   22238:	0c07 0000      	cmpib #0,%d7
   2223c:	001c 0712      	orib #18,%a4@+
   22240:	0800 0000      	btst #0,%d0
   22244:	0000 0028      	orib #40,%d0
   22248:	080f           	.short 0x080f
   2224a:	0000 1800      	orib #0,%d0
   2224e:	0416 1616      	subib #22,%fp@
   22252:	0f11           	btst %d7,%a1@
   22254:	1300           	moveb %d0,%a1@-
   22256:	0000 0018      	orib #24,%d0
   2225a:	131b           	moveb %a3@+,%a1@-
   2225c:	0000 0000      	orib #0,%d0
   22260:	2d2d 0000      	movel %a5@(0),%fp@-
   22264:	0000 0007      	orib #7,%d0
   22268:	0800 0000      	btst #0,%d0
   2226c:	180f           	.short 0x180f
   2226e:	0700           	btst %d3,%d0
	...
   22278:	0000 001e      	orib #30,%d0
   2227c:	1616           	moveb %fp@,%d3
   2227e:	1616           	moveb %fp@,%d3
   22280:	1600           	moveb %d0,%d3
   22282:	0000 0000      	orib #0,%d0
   22286:	000c           	.short 0x000c
   22288:	1616           	moveb %fp@,%d3
   2228a:	1616           	moveb %fp@,%d3
   2228c:	0012 1616      	orib #22,%a2@
   22290:	1616           	moveb %fp@,%d3
   22292:	0000 1e16      	orib #22,%d0
   22296:	1616           	moveb %fp@,%d3
   22298:	1616           	moveb %fp@,%d3
   2229a:	1700           	moveb %d0,%a3@-
	...
   222a4:	0099 9f9f 9f9f 	oril #-1616928865,%a1@+
   222aa:	9f9f           	subl %d7,%sp@+
   222ac:	9f99           	subl %d7,%a1@+
   222ae:	3134 2625      	movew %a4@(00000025,%d2:w:8),%a0@-
   222b2:	2529 2d33      	movel %a1@(11571),%a2@-
   222b6:	3626           	movew %fp@-,%d3
   222b8:	2729 2625      	movel %a1@(9765),%a3@-
   222bc:	2628 3334      	movel %a0@(13108),%d3
   222c0:	2525           	movel %a5@-,%a2@-
   222c2:	2a32 2525 2529 	movel %a2@(00002529)@(00000000,%d2:w:4),%d5
   222c8:	2225           	movel %a5@-,%d1
   222ca:	2528 2c25      	movel %a0@(11301),%a2@-
   222ce:	2525           	movel %a5@-,%a2@-
   222d0:	0032 2525 252a 	orib #37,%a2@(00000000,%d2:w:4)@(00003225)
   222d6:	0000 3225 
   222da:	2525           	movel %a5@-,%a2@-
   222dc:	2a00           	movel %d0,%d5
   222de:	009f 9f9f 9f9f 	oril #-1616928865,%sp@+
   222e4:	9f9f           	subl %d7,%sp@+
   222e6:	9f9f           	subl %d7,%sp@+
	...
   222fc:	0098 9f9f 9f47 	oril #-1616928953,%a0@+
   22302:	4747           	.short 0x4747
   22304:	4747           	.short 0x4747
   22306:	9f9f           	subl %d7,%sp@+
   22308:	4747           	.short 0x4747
   2230a:	4747           	.short 0x4747
   2230c:	479f           	chkw %sp@+,%d3
   2230e:	9f9f           	subl %d7,%sp@+
   22310:	9f9f           	subl %d7,%sp@+
   22312:	9f9f           	subl %d7,%sp@+
   22314:	4d49           	.short 0x4d49
   22316:	4747           	.short 0x4747
   22318:	4747           	.short 0x4747
   2231a:	4747           	.short 0x4747
   2231c:	494e           	.short 0x494e
   2231e:	9f9f           	subl %d7,%sp@+
   22320:	9f9f           	subl %d7,%sp@+
   22322:	9f9f           	subl %d7,%sp@+
   22324:	9f9f           	subl %d7,%sp@+
   22326:	9f9f           	subl %d7,%sp@+
   22328:	9f9f           	subl %d7,%sp@+
	...
   22332:	0000 001b      	orib #27,%d0
   22336:	0000 0000      	orib #0,%d0
   2233a:	000f           	.short 0x000f
   2233c:	1504           	moveb %d4,%a2@-
   2233e:	0000 1216      	orib #22,%d0
   22342:	1616           	moveb %fp@,%d3
   22344:	1604           	moveb %d4,%d3
   22346:	0019 1504      	orib #4,%a1@+
   2234a:	0011 1515      	orib #21,%a1@
   2234e:	1515           	moveb %a5@,%a2@-
   22350:	1500           	moveb %d0,%a2@-
   22352:	0000 0000      	orib #0,%d0
   22356:	1a11           	moveb %a1@,%d5
   22358:	0f07           	btst %d7,%d7
   2235a:	0800 001e      	btst #30,%d0
   2235e:	1607           	moveb %d7,%d3
   22360:	0707           	btst %d3,%d7
   22362:	0000 0807      	orib #7,%d0
   22366:	0707           	btst %d3,%d7
   22368:	0707           	btst %d3,%d7
   2236a:	0707           	btst %d3,%d7
   2236c:	0708 001b      	movepw %a0@(27),%d3
   22370:	1b16           	moveb %fp@,%a5@-
   22372:	0707           	btst %d3,%d7
   22374:	0f00           	btst %d7,%d0
   22376:	000c           	.short 0x000c
   22378:	0707           	btst %d3,%d7
   2237a:	0f0f 1208      	movepw %sp@(4616),%d7
   2237e:	0707           	btst %d3,%d7
   22380:	120f           	.short 0x120f
   22382:	1200           	moveb %d0,%d1
   22384:	000c           	.short 0x000c
   22386:	2418           	movel %a0@+,%d2
   22388:	0712           	btst %d3,%a2@
   2238a:	0f07           	btst %d7,%d7
   2238c:	1508           	.short 0x1508
   2238e:	0707           	btst %d3,%d7
   22390:	0707           	btst %d3,%d7
   22392:	0707           	btst %d3,%d7
   22394:	0800 001a      	btst #26,%d0
   22398:	1907           	moveb %d7,%a4@-
   2239a:	070f 1b00      	movepw %sp@(6912),%d3
   2239e:	0021 1907      	orib #7,%a1@-
   223a2:	0f11           	btst %d7,%a1@
   223a4:	0800 0407      	btst #7,%d0
   223a8:	120f           	.short 0x120f
   223aa:	0f00           	btst %d7,%d0
   223ac:	1f07           	moveb %d7,%sp@-
   223ae:	120f           	.short 0x120f
   223b0:	1500           	moveb %d0,%a2@-
	...
   223ba:	001d 0707      	orib #7,%a5@+
   223be:	0707           	btst %d3,%d7
   223c0:	1800           	moveb %d0,%d4
   223c2:	0000 0000      	orib #0,%d0
   223c6:	0020 0707      	orib #7,%a0@-
   223ca:	0700           	btst %d3,%d0
   223cc:	0007 0707      	orib #7,%d7
   223d0:	0707           	btst %d3,%d7
   223d2:	0000 1e1b      	orib #27,%d0
   223d6:	0707           	btst %d3,%d7
   223d8:	0707           	btst %d3,%d7
   223da:	1800           	moveb %d0,%d4
	...
   223e4:	0099 9f9f 9f9f 	oril #-1616928865,%a1@+
   223ea:	9f9f           	subl %d7,%sp@+
   223ec:	9f96           	subl %d7,%fp@
   223ee:	3125           	movew %a5@-,%a0@-
   223f0:	2524           	movel %a4@-,%a2@-
   223f2:	2528 2d33      	movel %a0@(11571),%a2@-
   223f6:	2425           	movel %a5@-,%d2
   223f8:	2925           	movel %a5@-,%a4@-
   223fa:	2525           	movel %a5@-,%a2@-
   223fc:	252b 3225      	movel %a3@(12837),%a2@-
   22400:	2524           	movel %a4@-,%a2@-
   22402:	2432 2424      	movel %a2@(00000024,%d2:w:4),%d2
   22406:	292c 2425      	movel %a4@(9253),%a4@-
   2240a:	242a 3225      	movel %a2@(12837),%d2
   2240e:	242a 2734      	movel %a2@(10036),%d2
   22412:	2525           	movel %a5@-,%a2@-
   22414:	242a 9f2a      	movel %a2@(-24790),%d2
   22418:	3425           	movew %a5@-,%d2
   2241a:	2524           	movel %a4@-,%a2@-
   2241c:	2a9f           	movel %sp@+,%a5@
   2241e:	9f9f           	subl %d7,%sp@+
   22420:	9f9f           	subl %d7,%sp@+
   22422:	9f9f           	subl %d7,%sp@+
   22424:	9f9f           	subl %d7,%sp@+
   22426:	9f9f           	subl %d7,%sp@+
	...
   2243c:	0098 9f9f 9f47 	oril #-1616928953,%a0@+
   22442:	4747           	.short 0x4747
   22444:	4747           	.short 0x4747
   22446:	9f9f           	subl %d7,%sp@+
   22448:	4747           	.short 0x4747
   2244a:	4747           	.short 0x4747
   2244c:	479f           	chkw %sp@+,%d3
   2244e:	9f9f           	subl %d7,%sp@+
   22450:	9f9f           	subl %d7,%sp@+
   22452:	9f9f           	subl %d7,%sp@+
   22454:	9f9f           	subl %d7,%sp@+
   22456:	4947           	.short 0x4947
   22458:	4747           	.short 0x4747
   2245a:	4747           	.short 0x4747
   2245c:	474c           	.short 0x474c
   2245e:	9f9f           	subl %d7,%sp@+
   22460:	9f9f           	subl %d7,%sp@+
   22462:	9f9f           	subl %d7,%sp@+
   22464:	9f9f           	subl %d7,%sp@+
   22466:	9f9f           	subl %d7,%sp@+
   22468:	9f9f           	subl %d7,%sp@+
	...
   22472:	0000 001b      	orib #27,%d0
   22476:	0000 0000      	orib #0,%d0
   2247a:	0018 1436      	orib #54,%a0@+
   2247e:	0000 1307      	orib #7,%d0
   22482:	0707           	btst %d3,%d7
   22484:	0704           	btst %d3,%d4
   22486:	0000 0704      	orib #4,%d0
   2248a:	0012 0707      	orib #7,%a2@
   2248e:	0707           	btst %d3,%d7
   22490:	3600           	movew %d0,%d3
   22492:	0019 0707      	orib #7,%a1@+
   22496:	0707           	btst %d3,%d7
   22498:	0707           	btst %d3,%d7
   2249a:	0f31 001f      	btst %d7,%a1@(0000001f,%d0:w)
   2249e:	0714           	btst %d3,%a4@
   224a0:	1416           	moveb %fp@,%d2
   224a2:	0007 1414      	orib #20,%d7
   224a6:	1414           	moveb %a4@,%d2
   224a8:	1414           	moveb %a4@,%d2
   224aa:	1414           	moveb %a4@,%d2
   224ac:	1804           	moveb %d4,%d4
   224ae:	0c16 1414      	cmpib #20,%fp@
   224b2:	1414           	moveb %a4@,%d2
   224b4:	070f 0c14      	movepw %sp@(3092),%d3
   224b8:	1414           	moveb %a4@,%d2
   224ba:	1414           	moveb %a4@,%d2
   224bc:	1c18           	moveb %a0@+,%d6
   224be:	1414           	moveb %a4@,%d2
   224c0:	1414           	moveb %a4@,%d2
   224c2:	1421           	moveb %a1@-,%d2
   224c4:	1714           	moveb %a4@,%a3@-
   224c6:	1414           	moveb %a4@,%d2
   224c8:	1414           	moveb %a4@,%d2
   224ca:	1414           	moveb %a4@,%d2
   224cc:	0814 1414      	btst #20,%a4@
   224d0:	1414           	moveb %a4@,%d2
   224d2:	1414           	moveb %a4@,%d2
   224d4:	080c           	.short 0x080c
   224d6:	1914           	moveb %a4@,%a4@-
   224d8:	1414           	moveb %a4@,%d2
   224da:	1414           	moveb %a4@,%d2
   224dc:	0f1b           	btst %d7,%a3@+
   224de:	0c16 1414      	cmpib #20,%fp@
   224e2:	1414           	moveb %a4@,%d2
   224e4:	1204           	moveb %d4,%d1
   224e6:	1414           	moveb %a4@,%d2
   224e8:	1414           	moveb %a4@,%d2
   224ea:	1708           	.short 0x1708
   224ec:	1414           	moveb %a4@,%d2
   224ee:	1414           	moveb %a4@,%d2
   224f0:	141a           	moveb %a2@+,%d2
	...
   224fa:	001c 1414      	orib #20,%a4@+
   224fe:	1414           	moveb %a4@,%d2
   22500:	1a00           	moveb %d0,%d5
   22502:	0000 0000      	orib #0,%d0
   22506:	0004 1614      	orib #20,%d4
   2250a:	1a00           	moveb %d0,%d5
   2250c:	000c           	.short 0x000c
   2250e:	1414           	moveb %a4@,%d2
   22510:	1414           	moveb %a4@,%d2
   22512:	0000 0019      	orib #25,%d0
   22516:	1414           	moveb %a4@,%d2
   22518:	1414           	moveb %a4@,%d2
   2251a:	1a00           	moveb %d0,%d5
	...
   22524:	0099 9f9f 9f9f 	oril #-1616928865,%a1@+
   2252a:	9f9f           	subl %d7,%sp@+
   2252c:	9f17           	subb %d7,%sp@
   2252e:	3325           	movew %a5@-,%a1@-
   22530:	2825           	movel %a5@-,%d4
   22532:	2528 2d33      	movel %a0@(11571),%a2@-
   22536:	2325           	movel %a5@-,%a1@-
   22538:	2935 2525 252b 	movel %a5@(0000252b)@(00000000,%d2:w:4),%a4@-
   2253e:	3224           	movew %a4@-,%d1
   22540:	2424           	movel %a4@-,%d2
   22542:	3433 2524 292c 	movew %a3@(0000292c)@(00000000,%d2:w:4),%d2
   22548:	2424           	movel %a4@-,%d2
   2254a:	242c 362a      	movel %a4@(13866),%d2
   2254e:	2a2a 2233      	movel %a2@(8755),%d5
   22552:	2424           	movel %a4@-,%d2
   22554:	242a 0028      	movel %a2@(40),%d2
   22558:	3324           	movew %a4@-,%a1@-
   2255a:	2424           	movel %a4@-,%d2
   2255c:	2a00           	movel %d0,%d5
   2255e:	009f 9f9f 9f9f 	oril #-1616928865,%sp@+
   22564:	9f9f           	subl %d7,%sp@+
   22566:	9f9f           	subl %d7,%sp@+
	...
   2257c:	0098 9f9f 9f47 	oril #-1616928953,%a0@+
   22582:	4747           	.short 0x4747
   22584:	4747           	.short 0x4747
   22586:	9f9f           	subl %d7,%sp@+
   22588:	4747           	.short 0x4747
   2258a:	4747           	.short 0x4747
   2258c:	479f           	chkw %sp@+,%d3
   2258e:	9f9f           	subl %d7,%sp@+
   22590:	9f9f           	subl %d7,%sp@+
   22592:	9f9f           	subl %d7,%sp@+
   22594:	9f9f           	subl %d7,%sp@+
   22596:	9f49           	subxw %a1@-,%sp@-
   22598:	4747           	.short 0x4747
   2259a:	4747           	.short 0x4747
   2259c:	4749           	.short 0x4749
   2259e:	4e9f           	.short 0x4e9f
   225a0:	9f47           	subxw %d7,%d7
   225a2:	4747           	.short 0x4747
   225a4:	4747           	.short 0x4747
   225a6:	479f           	chkw %sp@+,%d3
   225a8:	9f9f           	subl %d7,%sp@+
	...
   225b2:	0000 001b      	orib #27,%d0
   225b6:	0000 0000      	orib #0,%d0
   225ba:	0000 1818      	orib #24,%d0
   225be:	0000 1414      	orib #20,%d0
   225c2:	1414           	moveb %a4@,%d2
   225c4:	1400           	moveb %d0,%d2
   225c6:	0000 0007      	orib #7,%d0
   225ca:	0414 1414      	subib #20,%a4@
   225ce:	1414           	moveb %a4@,%d2
   225d0:	0424 1714      	subib #20,%a4@-
   225d4:	1414           	moveb %a4@,%d2
   225d6:	0414 1414      	subib #20,%a4@
   225da:	1414           	moveb %a4@,%d2
   225dc:	0c00 1413      	cmpib #19,%d0
   225e0:	1318           	moveb %a0@+,%a1@-
   225e2:	0019 1308      	orib #8,%a1@+
   225e6:	1b13           	moveb %a3@,%a5@-
   225e8:	1313           	moveb %a3@,%a1@-
   225ea:	0800 000c      	btst #12,%d0
   225ee:	1313           	moveb %a3@,%a1@-
   225f0:	1313           	moveb %a3@,%a1@-
   225f2:	1313           	moveb %a3@,%a1@-
   225f4:	1313           	moveb %a3@,%a1@-
   225f6:	0708 1313      	movepw %a0@(4883),%d3
   225fa:	1313           	moveb %a3@,%a1@-
   225fc:	1813           	moveb %a3@,%d4
   225fe:	1313           	moveb %a3@,%a1@-
   22600:	1313           	moveb %a3@,%a1@-
   22602:	0c35 1313 1313 	cmpib #19,%a5@(00000000,%d1:w:2)@(0013130c)
   22608:	0013 130c 
   2260c:	0818 0013      	btst #19,%a0@+
   22610:	1313           	moveb %a3@,%a1@-
   22612:	0008           	.short 0x0008
   22614:	0413 1313      	subib #19,%a3@
   22618:	1313           	moveb %a3@,%a1@-
   2261a:	1313           	moveb %a3@,%a1@-
   2261c:	130f           	.short 0x130f
   2261e:	001b 1313      	orib #19,%a3@+
   22622:	1313           	moveb %a3@,%a1@-
   22624:	0404 1313      	subib #19,%d4
   22628:	1313           	moveb %a3@,%a1@-
   2262a:	0013 1313      	orib #19,%a3@
   2262e:	1313           	moveb %a3@,%a1@-
   22630:	0400 0000      	subib #0,%d0
   22634:	0000 0000      	orib #0,%d0
   22638:	0000 0008      	orib #8,%d0
   2263c:	1313           	moveb %a3@,%a1@-
   2263e:	131a           	moveb %a2@+,%a1@-
   22640:	0000 0000      	orib #0,%d0
   22644:	0000 0012      	orib #18,%d0
   22648:	1a13           	moveb %a3@,%d5
   2264a:	0700           	btst %d3,%d0
   2264c:	000c           	.short 0x000c
   2264e:	1313           	moveb %a3@,%a1@-
   22650:	1313           	moveb %a3@,%a1@-
   22652:	0000 0008      	orib #8,%d0
   22656:	1313           	moveb %a3@,%a1@-
   22658:	1313           	moveb %a3@,%a1@-
   2265a:	1b00           	moveb %d0,%a5@-
	...
   22664:	0099 9f9f 9f9f 	oril #-1616928865,%a1@+
   2266a:	9f9f           	subl %d7,%sp@+
   2266c:	9b31 3425      	subb %d5,%a1@(00000025,%d3:w:4)
   22670:	2c24           	movel %a4@-,%d6
   22672:	2527           	movel %sp@-,%a2@-
   22674:	2d34 2424      	movel %a4@(00000024,%d2:w:4),%fp@-
   22678:	2a32 2425      	movel %a2@(00000025,%d2:w:4),%d5
   2267c:	2437 3324 2424 	movel %sp@(00002424)@(00000000,%d3:w:2),%d2
   22682:	3224           	movew %a4@-,%d1
   22684:	2424           	movel %a4@-,%d2
   22686:	2921           	movel %a1@-,%a4@-
   22688:	2424           	movel %a4@-,%d2
   2268a:	252c 0000      	movel %a4@(0),%a2@-
   2268e:	0000 3334      	orib #52,%d0
   22692:	2424           	movel %a4@-,%d2
   22694:	2432 3334 2324 	movel %a2@(23242424)@(00000000,%d3:w:2),%d2
   2269a:	2424 
   2269c:	3233 2a9f      	movew %a3@(ffffff9f,%d2:l:2),%d1
   226a0:	9f9f           	subl %d7,%sp@+
   226a2:	9f22           	subb %d7,%a2@-
   226a4:	9f9f           	subl %d7,%sp@+
   226a6:	9f9f           	subl %d7,%sp@+
	...
   226bc:	0099 9f9f 9f47 	oril #-1616928953,%a1@+
   226c2:	4747           	.short 0x4747
   226c4:	4747           	.short 0x4747
   226c6:	9f9f           	subl %d7,%sp@+
   226c8:	4747           	.short 0x4747
   226ca:	4747           	.short 0x4747
   226cc:	479f           	chkw %sp@+,%d3
   226ce:	9f9f           	subl %d7,%sp@+
   226d0:	9f9f           	subl %d7,%sp@+
   226d2:	9f9f           	subl %d7,%sp@+
   226d4:	9f9f           	subl %d7,%sp@+
   226d6:	9f4d           	subxw %a5@-,%sp@-
   226d8:	4747           	.short 0x4747
   226da:	4747           	.short 0x4747
   226dc:	4747           	.short 0x4747
   226de:	4e9f           	.short 0x4e9f
   226e0:	9f9f           	subl %d7,%sp@+
   226e2:	4747           	.short 0x4747
   226e4:	4747           	.short 0x4747
   226e6:	9f9f           	subl %d7,%sp@+
   226e8:	9f9f           	subl %d7,%sp@+
	...
   226f2:	0000 001b      	orib #27,%d0
	...
   226fe:	0000 0713      	orib #19,%d0
   22702:	1313           	moveb %a3@,%a1@-
   22704:	132c 0000      	moveb %a4@(0),%a1@-
   22708:	0000 0016      	orib #22,%d0
   2270c:	1313           	moveb %a3@,%a1@-
   2270e:	1313           	moveb %a3@,%a1@-
   22710:	0421 1313      	subib #19,%a1@-
   22714:	1313           	moveb %a3@,%a1@-
   22716:	040c           	.short 0x040c
   22718:	1313           	moveb %a3@,%a1@-
   2271a:	1313           	moveb %a3@,%a1@-
   2271c:	1300           	moveb %d0,%a1@-
   2271e:	1312           	moveb %a2@,%a1@-
   22720:	121a           	moveb %a2@+,%d1
   22722:	0008           	.short 0x0008
   22724:	0800 1d12      	btst #18,%d0
   22728:	1212           	moveb %a2@,%d1
   2272a:	1c00           	moveb %d0,%d6
   2272c:	001b 1212      	orib #18,%a3@+
   22730:	1212           	moveb %a2@,%d1
   22732:	1212           	moveb %a2@,%d1
   22734:	1212           	moveb %a2@,%d1
   22736:	1204           	moveb %d4,%d1
   22738:	1212           	moveb %a2@,%d1
   2273a:	1212           	moveb %a2@,%d1
   2273c:	1212           	moveb %a2@,%d1
   2273e:	1212           	moveb %a2@,%d1
   22740:	1212           	moveb %a2@,%d1
   22742:	0721           	btst %d3,%a1@-
   22744:	1212           	moveb %a2@,%d1
   22746:	1212           	moveb %a2@,%d1
   22748:	0425 3700      	subib #0,%a5@-
   2274c:	0000 1e12      	orib #18,%d0
   22750:	1212           	moveb %a2@,%d1
   22752:	0000 0812      	orib #18,%d0
   22756:	1212           	moveb %a2@,%d1
   22758:	1212           	moveb %a2@,%d1
   2275a:	1212           	moveb %a2@,%d1
   2275c:	1212           	moveb %a2@,%d1
   2275e:	0804 1212      	btst #18,%d4
   22762:	1212           	moveb %a2@,%d1
   22764:	0400 0812      	subib #18,%d0
   22768:	1212           	moveb %a2@,%d1
   2276a:	1212           	moveb %a2@,%d1
   2276c:	1212           	moveb %a2@,%d1
   2276e:	1212           	moveb %a2@,%d1
   22770:	0c00 0000      	cmpib #0,%d0
   22774:	0000 0000      	orib #0,%d0
   22778:	0000 0c08      	orib #8,%d0
   2277c:	1118           	moveb %a0@+,%a0@-
   2277e:	0800 1628      	btst #40,%d0
   22782:	2832 0707 070f 	movel %a2@(00000000)@(070f080f,%d0:w:8),%d4
   22788:	080f 
   2278a:	0700           	btst %d3,%d0
   2278c:	0035 1111 1111 	orib #17,%a5@(00000000,%d1:w)@(00000000)
   22792:	0000 001d      	orib #29,%d0
   22796:	1111           	moveb %a1@,%a0@-
   22798:	1111           	moveb %a1@,%a0@-
   2279a:	1d00           	moveb %d0,%fp@-
	...
   227a4:	0099 9f9f 9f9f 	oril #-1616928865,%a1@+
   227aa:	9f9f           	subl %d7,%sp@+
   227ac:	9631 2428      	subb %a1@(00000028,%d2:w:4),%d3
   227b0:	3724           	movew %a4@-,%a3@-
   227b2:	2427           	movel %sp@-,%d2
   227b4:	2d35 2424      	movel %a5@(00000024,%d2:w:4),%fp@-
   227b8:	2c32 2424      	movel %a2@(00000024,%d2:w:4),%d6
   227bc:	2833 3623      	movel %a3@(00000023,%d3:w:8),%d4
   227c0:	2328 3223      	movel %a0@(12835),%a1@-
   227c4:	2427           	movel %sp@-,%d2
   227c6:	2933 2323 272a 	movel %a3@(0000272a,%d2:w:2)@(31313134),%a4@-
   227cc:	3131 3134 
   227d0:	3223           	movew %a3@-,%d1
   227d2:	2323           	movel %a3@-,%a1@-
   227d4:	2323           	movel %a3@-,%a1@-
   227d6:	2332 2323 2323 	movel %a2@(00002323,%d2:w:2)@(2323009f),%a1@-
   227dc:	2323 009f 
   227e0:	9f9f           	subl %d7,%sp@+
   227e2:	9f22           	subb %d7,%a2@-
   227e4:	9f9f           	subl %d7,%sp@+
   227e6:	9f9f           	subl %d7,%sp@+
	...
   227fc:	0099 9f9f 9f47 	oril #-1616928953,%a1@+
   22802:	4747           	.short 0x4747
   22804:	4747           	.short 0x4747
   22806:	9f9f           	subl %d7,%sp@+
   22808:	4747           	.short 0x4747
   2280a:	4747           	.short 0x4747
   2280c:	479f           	chkw %sp@+,%d3
   2280e:	9f9f           	subl %d7,%sp@+
   22810:	9f9f           	subl %d7,%sp@+
   22812:	9f9f           	subl %d7,%sp@+
   22814:	9f9f           	subl %d7,%sp@+
   22816:	9f4f           	subxw %sp@-,%sp@-
   22818:	4747           	.short 0x4747
   2281a:	4747           	.short 0x4747
   2281c:	4747           	.short 0x4747
   2281e:	4d9f           	chkw %sp@+,%d6
   22820:	9f47           	subxw %d7,%d7
   22822:	4747           	.short 0x4747
   22824:	4747           	.short 0x4747
   22826:	479f           	chkw %sp@+,%d3
   22828:	9f9f           	subl %d7,%sp@+
	...
   22832:	0000 001b      	orib #27,%d0
	...
   2283e:	0000 1613      	orib #19,%d0
   22842:	1212           	moveb %a2@,%d1
   22844:	122f 1707      	moveb %sp@(5895),%d1
   22848:	1718           	moveb %a0@+,%a3@-
   2284a:	1917           	moveb %sp@,%a4@-
   2284c:	1212           	moveb %a2@,%d1
   2284e:	1212           	moveb %a2@,%d1
   22850:	2735 1212      	movel %a5@(00000012,%d1:w:2),%a3@-
   22854:	1212           	moveb %a2@,%d1
   22856:	040c           	.short 0x040c
   22858:	1212           	moveb %a2@,%d1
   2285a:	1212           	moveb %a2@,%d1
   2285c:	3300           	movew %d0,%a1@-
   2285e:	1211           	moveb %a1@,%d1
   22860:	1118           	moveb %a0@+,%a0@-
   22862:	0000 0000      	orib #0,%d0
   22866:	0010 1111      	orib #17,%a0@
   2286a:	1e00           	moveb %d0,%d7
   2286c:	001d 1011      	orib #17,%a5@+
   22870:	1111           	moveb %a1@,%a0@-
   22872:	0011 1111      	orib #17,%a1@
   22876:	110c           	.short 0x110c
   22878:	1311           	moveb %a1@,%a1@-
   2287a:	1111           	moveb %a1@,%a0@-
   2287c:	1108           	.short 0x1108
   2287e:	1311           	moveb %a1@,%a1@-
   22880:	1111           	moveb %a1@,%a0@-
   22882:	0708 1511      	movepw %a0@(5393),%d3
   22886:	1111           	moveb %a1@,%a0@-
   22888:	0008           	.short 0x0008
   2288a:	0000 0000      	orib #0,%d0
   2288e:	1b11           	moveb %a1@,%a5@-
   22890:	1111           	moveb %a1@,%a0@-
   22892:	1d00           	moveb %d0,%fp@-
   22894:	1813           	moveb %a3@,%d4
   22896:	1111           	moveb %a1@,%a0@-
   22898:	1100           	moveb %d0,%a0@-
   2289a:	1311           	moveb %a1@,%a1@-
   2289c:	1111           	moveb %a1@,%a0@-
   2289e:	0804 1111      	btst #17,%d4
   228a2:	1111           	moveb %a1@,%a0@-
   228a4:	0400 0810      	subib #16,%d0
   228a8:	1111           	moveb %a1@,%a0@-
   228aa:	1116           	moveb %fp@,%a0@-
   228ac:	1c10           	moveb %a0@,%d6
   228ae:	1111           	moveb %a1@,%a0@-
   228b0:	0c00 0000      	cmpib #0,%d0
   228b4:	0000 0000      	orib #0,%d0
   228b8:	0000 110f      	orib #15,%d0
   228bc:	0f0f 0f15      	movepw %sp@(3861),%d7
   228c0:	1904           	moveb %d4,%a4@-
   228c2:	1311           	moveb %a1@,%a1@-
   228c4:	0f0f 0f00      	movepw %sp@(3840),%d7
   228c8:	0000 0f00      	orib #0,%d0
   228cc:	0020 190f      	orib #15,%a0@-
   228d0:	0f0f 0000      	movepw %sp@(0),%d7
   228d4:	001f 190f      	orib #15,%sp@+
   228d8:	0f0f 0000      	movepw %sp@(0),%d7
	...
   228e4:	0099 9f9f 9f9f 	oril #-1616928865,%a1@+
   228ea:	9f9f           	subl %d7,%sp@+
   228ec:	1733 242a      	moveb %a3@(0000002a,%d2:w:4),%a3@-
   228f0:	3424           	movew %a4@-,%d2
   228f2:	2326           	movel %fp@-,%a1@-
   228f4:	2d23           	movel %a3@-,%fp@-
   228f6:	2424           	movel %a4@-,%d2
   228f8:	2c33 2423      	movel %a3@(00000023,%d2:w:4),%d6
   228fc:	2832 2323 2328 	movel %a2@(00002328,%d2:w:2)@(32242329),%d4
   22902:	3224 2329 
   22906:	2c33 2323 2a22 	movel %a3@(00002a22,%d2:w:2)@(23232328),%d6
   2290c:	2323 2328 
   22910:	3222           	movew %a2@-,%d1
   22912:	2323           	movel %a3@-,%a1@-
   22914:	2a2a 0032      	movel %a2@(50),%d5
   22918:	2223           	movel %a3@-,%d1
   2291a:	232a 2a00      	movel %a2@(10752),%a1@-
   2291e:	009f 9f9f 9f34 	oril #-1616928972,%sp@+
   22924:	9f9f           	subl %d7,%sp@+
   22926:	9f9f           	subl %d7,%sp@+
	...
   2293c:	0099 9f9f 9f47 	oril #-1616928953,%a1@+
   22942:	4747           	.short 0x4747
   22944:	4747           	.short 0x4747
   22946:	9f9f           	subl %d7,%sp@+
   22948:	4747           	.short 0x4747
   2294a:	4747           	.short 0x4747
   2294c:	479f           	chkw %sp@+,%d3
   2294e:	9f9f           	subl %d7,%sp@+
   22950:	9f9f           	subl %d7,%sp@+
   22952:	9f9f           	subl %d7,%sp@+
   22954:	9f9f           	subl %d7,%sp@+
   22956:	9f9f           	subl %d7,%sp@+
   22958:	4747           	.short 0x4747
   2295a:	4747           	.short 0x4747
   2295c:	4747           	.short 0x4747
   2295e:	4d9f           	chkw %sp@+,%d6
   22960:	9f9f           	subl %d7,%sp@+
   22962:	9f9f           	subl %d7,%sp@+
   22964:	9f9f           	subl %d7,%sp@+
   22966:	9f9f           	subl %d7,%sp@+
   22968:	9f9f           	subl %d7,%sp@+
	...
   22972:	0000 001b      	orib #27,%d0
	...
   2297e:	0000 1619      	orib #25,%d0
   22982:	0f0f 0f00      	movepw %sp@(3840),%d7
   22986:	000f           	.short 0x000f
   22988:	0f0f 0019      	movepw %sp@(25),%d7
   2298c:	170f           	.short 0x170f
   2298e:	0f11           	btst %d7,%a1@
   22990:	2323           	movel %a3@-,%a1@-
   22992:	0f0f 0f0f      	movepw %sp@(3855),%d7
   22996:	1a04           	moveb %d4,%d5
   22998:	160f           	.short 0x160f
   2299a:	0f0f 3200      	movepw %sp@(12800),%d7
   2299e:	0f07           	btst %d7,%d7
   229a0:	0f16           	btst %d7,%fp@
   229a2:	0000 0000      	orib #0,%d0
   229a6:	1f19           	moveb %a1@+,%sp@-
   229a8:	0713           	btst %d3,%a3@
   229aa:	0000 0018      	orib #24,%d0
   229ae:	1807           	moveb %d7,%d4
   229b0:	070f 0700      	movepw %sp@(1792),%d3
   229b4:	180f           	.short 0x180f
   229b6:	0707           	btst %d3,%d7
   229b8:	0007 0707      	orib #7,%d7
   229bc:	1808           	.short 0x1808
   229be:	0007 070f      	orib #15,%d7
   229c2:	0c07 0017      	cmpib #23,%d7
   229c6:	0707           	btst %d3,%d7
   229c8:	0707           	btst %d3,%d7
   229ca:	071b           	btst %d3,%a3@+
   229cc:	0000 191a      	orib #26,%d0
   229d0:	0713           	btst %d3,%a3@
   229d2:	1900           	moveb %d0,%a4@-
   229d4:	0700           	btst %d3,%d0
   229d6:	0707           	btst %d3,%d7
   229d8:	0700           	btst %d3,%d0
   229da:	081b 0708      	btst #8,%a3@+
   229de:	0008           	.short 0x0008
   229e0:	1b07           	moveb %d7,%a5@-
   229e2:	070f 0800      	movepw %sp@(2048),%d3
   229e6:	0c18 0707      	cmpib #7,%a0@+
   229ea:	0f08 0018      	movepw %a0@(24),%d7
   229ee:	0707           	btst %d3,%d7
   229f0:	0400 0000      	subib #0,%d0
	...
   229fc:	0000 1e07      	orib #7,%d0
   22a00:	1b08           	.short 0x1b08
	...
   22a0a:	0000 0024      	orib #36,%d0
   22a0e:	0000 001b      	orib #27,%d0
   22a12:	0000 001f      	orib #31,%d0
   22a16:	0000 001b      	orib #27,%d0
	...
   22a22:	0000 0099      	orib #-103,%d0
   22a26:	9f9f           	subl %d7,%sp@+
   22a28:	9f9f           	subl %d7,%sp@+
   22a2a:	9f9b           	subl %d7,%a3@+
   22a2c:	3134 2329 3323 	movew %a4@(00003323,%d2:w:2)@(00000000),%a0@-
   22a32:	2326           	movel %fp@-,%a1@-
   22a34:	2b23           	movel %a3@-,%a5@-
   22a36:	2424           	movel %a4@-,%d2
   22a38:	2324           	movel %a4@-,%a1@-
   22a3a:	2423           	movel %a3@-,%d2
   22a3c:	2a32 2223      	movel %a2@(00000023,%d2:w:2),%d5
   22a40:	232b 3223      	movel %a3@(12835),%a1@-
   22a44:	2329 2134      	movel %a1@(8500),%a1@-
   22a48:	2223           	movel %a3@-,%d1
   22a4a:	2a22           	movel %a2@-,%d5
   22a4c:	2323           	movel %a3@-,%a1@-
   22a4e:	2800           	movel %d0,%d4
   22a50:	3222           	movew %a2@-,%d1
   22a52:	2323           	movel %a3@-,%a1@-
   22a54:	2a9f           	movel %sp@+,%a5@
   22a56:	9f32 2223      	subb %d7,%a2@(00000023,%d2:w:2)
   22a5a:	232a 9f9f      	movel %a2@(-24673),%a1@-
   22a5e:	9f9f           	subl %d7,%sp@+
   22a60:	9f9f           	subl %d7,%sp@+
   22a62:	2233 9f9f 9f9f 	movel @(00000000)@(9f9f0000,%a1:l:8),%d1
   22a68:	0000 
	...
   22a7a:	0000 0099      	orib #-103,%d0
   22a7e:	9f9f           	subl %d7,%sp@+
   22a80:	9f47           	subxw %d7,%d7
   22a82:	4747           	.short 0x4747
   22a84:	4747           	.short 0x4747
   22a86:	9f9f           	subl %d7,%sp@+
   22a88:	4747           	.short 0x4747
   22a8a:	4747           	.short 0x4747
   22a8c:	479f           	chkw %sp@+,%d3
   22a8e:	9f9f           	subl %d7,%sp@+
   22a90:	9f9f           	subl %d7,%sp@+
   22a92:	9f9f           	subl %d7,%sp@+
   22a94:	9f9f           	subl %d7,%sp@+
   22a96:	9f9f           	subl %d7,%sp@+
   22a98:	4747           	.short 0x4747
   22a9a:	4747           	.short 0x4747
   22a9c:	4747           	.short 0x4747
   22a9e:	4d9f           	chkw %sp@+,%d6
   22aa0:	9f9f           	subl %d7,%sp@+
   22aa2:	9f9f           	subl %d7,%sp@+
   22aa4:	9f9f           	subl %d7,%sp@+
   22aa6:	9f9f           	subl %d7,%sp@+
   22aa8:	9f9f           	subl %d7,%sp@+
	...
   22ab2:	0000 001c      	orib #28,%d0
	...
   22abe:	0000 1700      	orib #0,%d0
   22ac2:	0000 0000      	orib #0,%d0
   22ac6:	0000 001c      	orib #28,%d0
   22aca:	0007 0000      	orib #0,%d7
   22ace:	0017 2133      	orib #51,%sp@
   22ad2:	0000 0018      	orib #24,%d0
   22ad6:	161f           	moveb %sp@+,%d3
   22ad8:	0000 0018      	orib #24,%d0
   22adc:	0700           	btst %d3,%d0
   22ade:	0000 1d14      	orib #20,%d0
   22ae2:	0000 0000      	orib #0,%d0
   22ae6:	1c00           	moveb %d0,%d6
   22ae8:	0000 0000      	orib #0,%d0
   22aec:	0007 0000      	orib #0,%d7
   22af0:	001b 0f00      	orib #0,%a3@+
   22af4:	0011 000f      	orib #15,%a1@
   22af8:	1f00           	moveb %d0,%sp@-
   22afa:	0000 0819      	orib #25,%d0
   22afe:	0000 001b      	orib #27,%d0
   22b02:	0718           	btst %d3,%a0@+
   22b04:	1b00           	moveb %d0,%a5@-
   22b06:	0000 0000      	orib #0,%d0
   22b0a:	0013 0000      	orib #0,%a3@
   22b0e:	1700           	moveb %d0,%a3@-
   22b10:	0000 1400      	orib #0,%d0
   22b14:	1100           	moveb %d0,%a0@-
   22b16:	0000 0000      	orib #0,%d0
   22b1a:	0000 1900      	orib #0,%d0
   22b1e:	0017 0000      	orib #0,%sp@
   22b22:	001d 0700      	orib #0,%a5@+
   22b26:	1d00           	moveb %d0,%fp@-
   22b28:	0000 1b1c      	orib #28,%d0
	...
   22b34:	0000 0011      	orib #17,%d0
   22b38:	0700           	btst %d3,%d0
   22b3a:	0000 0000      	orib #0,%d0
   22b3e:	001e 1a00      	orib #0,%fp@+
   22b42:	0000 0000      	orib #0,%d0
   22b46:	1e00           	moveb %d0,%d7
   22b48:	0000 0000      	orib #0,%d0
   22b4c:	0028 0000 0000 	orib #0,%a0@(0)
   22b52:	0000 001e      	orib #30,%d0
	...
   22b62:	0000 0099      	orib #-103,%d0
   22b66:	9f9f           	subl %d7,%sp@+
   22b68:	9f9f           	subl %d7,%sp@+
   22b6a:	9f96           	subl %d7,%fp@
   22b6c:	3123           	movew %a3@-,%a0@-
   22b6e:	2329 3224      	movel %a1@(12836),%a1@-
   22b72:	2323           	movel %a3@-,%a1@-
   22b74:	2b23           	movel %a3@-,%a5@-
   22b76:	2323           	movel %a3@-,%a1@-
   22b78:	2323           	movel %a3@-,%a1@-
   22b7a:	2323           	movel %a3@-,%a1@-
   22b7c:	2a32 2223      	movel %a2@(00000023,%d2:w:2),%d5
   22b80:	222b 3423      	movel %a3@(13347),%d1
   22b84:	2329 3422      	movel %a1@(13346),%a1@-
   22b88:	2222           	movel %a2@-,%d1
   22b8a:	2a2c 2222      	movel %a4@(8738),%d5
   22b8e:	2800           	movel %d0,%d4
   22b90:	3422           	movew %a2@-,%d2
   22b92:	2226           	movel %fp@-,%d1
   22b94:	2a9f           	movel %sp@+,%a5@
   22b96:	0034 2222 262a 	orib #34,%a4@(0000002a,%d2:w:8)
   22b9c:	9f9f           	subl %d7,%sp@+
   22b9e:	9f9f           	subl %d7,%sp@+
   22ba0:	9f9f           	subl %d7,%sp@+
   22ba2:	3433 9f9f 9f9f 	movew @(00000000)@(9f9f0000,%a1:l:8),%d2
   22ba8:	0000 
	...
   22bba:	0000 0099      	orib #-103,%d0
   22bbe:	9f9f           	subl %d7,%sp@+
   22bc0:	9f47           	subxw %d7,%d7
   22bc2:	4747           	.short 0x4747
   22bc4:	4747           	.short 0x4747
   22bc6:	9f9f           	subl %d7,%sp@+
   22bc8:	4747           	.short 0x4747
   22bca:	4747           	.short 0x4747
   22bcc:	479f           	chkw %sp@+,%d3
   22bce:	9f9f           	subl %d7,%sp@+
   22bd0:	9f9f           	subl %d7,%sp@+
   22bd2:	9f9f           	subl %d7,%sp@+
   22bd4:	9f9f           	subl %d7,%sp@+
   22bd6:	9f9f           	subl %d7,%sp@+
   22bd8:	4747           	.short 0x4747
   22bda:	4747           	.short 0x4747
   22bdc:	4747           	.short 0x4747
   22bde:	4d9f           	chkw %sp@+,%d6
   22be0:	9f9f           	subl %d7,%sp@+
   22be2:	9f9f           	subl %d7,%sp@+
   22be4:	9f9f           	subl %d7,%sp@+
   22be6:	9f9f           	subl %d7,%sp@+
   22be8:	9f9f           	subl %d7,%sp@+
	...
   22bf2:	0000 001c      	orib #28,%d0
	...
   22bfe:	0000 192d      	orib #45,%d0
   22c02:	2d2d 2f00      	movel %a5@(12032),%fp@-
   22c06:	2d2d 2d2d      	movel %a5@(11565),%fp@-
   22c0a:	002d 2d2d 2f00 	orib #45,%a5@(12032)
   22c10:	2932 2d2d 2d00 	movel %a2@(00002d00)@(00000000,%d2:l:4),%a4@-
   22c16:	121e           	moveb %fp@+,%d1
   22c18:	2d2d 2d00      	movel %a5@(11520),%fp@-
   22c1c:	1300           	moveb %d0,%a1@-
   22c1e:	2d2b 0012      	movel %a3@(18),%fp@-
   22c22:	0000 0000      	orib #0,%d0
   22c26:	192b 2b2b      	moveb %a3@(11051),%a4@-
   22c2a:	0000 0018      	orib #24,%d0
   22c2e:	2b2b 2b00      	movel %a3@(11008),%a5@-
   22c32:	002a 0f00 0012 	orib #0,%a2@(18)
   22c38:	2b2b 2b00      	movel %a3@(11008),%a5@-
   22c3c:	080f           	.short 0x080f
   22c3e:	2b2b 2b00      	movel %a3@(11008),%a5@-
   22c42:	0700           	btst %d3,%d0
   22c44:	1717           	moveb %sp@,%a3@-
   22c46:	2b2b 2b2b      	movel %a3@(11051),%a5@-
   22c4a:	2b1a           	movel %a2@+,%a5@-
   22c4c:	1700           	moveb %d0,%a3@-
   22c4e:	182b 2b2b      	moveb %a3@(11051),%d4
   22c52:	0700           	btst %d3,%d0
   22c54:	132b 2b2b      	moveb %a3@(11051),%a1@-
   22c58:	2b00           	movel %d0,%a5@-
   22c5a:	2a07           	movel %d7,%d5
   22c5c:	0000 0012      	orib #18,%d0
   22c60:	2b2b 2b00      	movel %a3@(11008),%a5@-
   22c64:	0f00           	btst %d7,%d0
   22c66:	1c2b 2b2b      	moveb %a3@(11051),%d6
   22c6a:	0800 002b      	btst #43,%d0
   22c6e:	2b2b 0000      	movel %a3@(0),%a5@-
   22c72:	0000 0000      	orib #0,%d0
   22c76:	0f00           	btst %d7,%d0
   22c78:	0708 1d12      	movepw %a0@(7442),%d3
   22c7c:	2a2a 2a00      	movel %a2@(10752),%d5
   22c80:	1604           	moveb %d4,%d3
	...
   22c8a:	0000 002c      	orib #44,%d0
   22c8e:	2a2a 2a2a      	movel %a2@(10794),%d5
   22c92:	0000 001c      	orib #28,%d0
   22c96:	2a2a 2a2a      	movel %a2@(10794),%d5
	...
   22ca2:	0000 0099      	orib #-103,%d0
   22ca6:	9f9f           	subl %d7,%sp@+
   22ca8:	9f9f           	subl %d7,%sp@+
   22caa:	9f17           	subb %d7,%sp@
   22cac:	3323           	movew %a3@-,%a1@-
   22cae:	2324           	movel %a4@-,%a1@-
   22cb0:	3223           	movew %a3@-,%d1
   22cb2:	2323           	movel %a3@-,%a1@-
   22cb4:	2823           	movel %a3@-,%d4
   22cb6:	2323           	movel %a3@-,%a1@-
   22cb8:	2323           	movel %a3@-,%a1@-
   22cba:	2a00           	movel %d0,%d5
   22cbc:	3634 2222      	movew %a4@(00000022,%d2:w:2),%d3
   22cc0:	2834 2222      	movel %a4@(00000022,%d2:w:2),%d4
   22cc4:	2229 3322      	movel %a1@(13090),%d1
   22cc8:	2226           	movel %fp@-,%d1
   22cca:	2c32 2222      	movel %a2@(00000022,%d2:w:2),%d6
   22cce:	2a34 2122 222a 	movel %a4@(0000222a,%d2:w)@(0000009f),%d5
   22cd4:	009f 
   22cd6:	3421           	movew %a1@-,%d2
   22cd8:	2222           	movel %a2@-,%d1
   22cda:	2a00           	movel %d0,%d5
   22cdc:	9f9f           	subl %d7,%sp@+
   22cde:	9f9f           	subl %d7,%sp@+
   22ce0:	9f9f           	subl %d7,%sp@+
   22ce2:	3332 2b9f 9f9f 	movew @(00000000)@(9f9f0000,%d2:l:2),%a1@-
   22ce8:	0000 
	...
   22cfa:	0000 0099      	orib #-103,%d0
   22cfe:	9f9f           	subl %d7,%sp@+
   22d00:	9f47           	subxw %d7,%d7
   22d02:	4747           	.short 0x4747
   22d04:	4747           	.short 0x4747
   22d06:	9f9f           	subl %d7,%sp@+
   22d08:	4747           	.short 0x4747
   22d0a:	4747           	.short 0x4747
   22d0c:	479f           	chkw %sp@+,%d3
   22d0e:	9f9f           	subl %d7,%sp@+
   22d10:	9f9f           	subl %d7,%sp@+
   22d12:	9f9f           	subl %d7,%sp@+
   22d14:	9f9f           	subl %d7,%sp@+
   22d16:	9f4f           	subxw %sp@-,%sp@-
   22d18:	4747           	.short 0x4747
   22d1a:	4747           	.short 0x4747
   22d1c:	4747           	.short 0x4747
   22d1e:	4d9f           	chkw %sp@+,%d6
   22d20:	9f9f           	subl %d7,%sp@+
   22d22:	9f9f           	subl %d7,%sp@+
   22d24:	9f9f           	subl %d7,%sp@+
   22d26:	9f9f           	subl %d7,%sp@+
   22d28:	9f9f           	subl %d7,%sp@+
	...
   22d32:	0000 001c      	orib #28,%d0
	...
   22d3e:	0000 1a29      	orib #41,%d0
   22d42:	2929 292e      	movel %a1@(10542),%a4@-
   22d46:	2929 2929      	movel %a1@(10537),%a4@-
   22d4a:	2e29 2929      	movel %a1@(10537),%d7
   22d4e:	290f           	movel %sp,%a4@-
   22d50:	0007 2929      	orib #41,%d7
   22d54:	2929 0f1b      	movel %a1@(3867),%a4@-
   22d58:	2929 2929      	movel %a1@(10537),%a4@-
   22d5c:	1100           	moveb %d0,%a0@-
   22d5e:	2928 2810      	movel %a0@(10256),%a4@-
   22d62:	0000 1c1c      	orib #28,%d0
   22d66:	1728 2828      	moveb %a0@(10280),%a3@-
   22d6a:	1e00           	moveb %d0,%d7
   22d6c:	001c 2828      	orib #40,%a4@+
   22d70:	2828 280f      	movel %a0@(10255),%d4
   22d74:	0000 0017      	orib #23,%d0
   22d78:	2828 2828      	movel %a0@(10280),%d4
   22d7c:	0817 2828      	btst #40,%sp@
   22d80:	2828 1700      	movel %a0@(5888),%d4
   22d84:	0000 0019      	orib #25,%d0
   22d88:	2828 2828      	movel %a0@(10280),%d4
   22d8c:	0700           	btst %d3,%d0
   22d8e:	1a28 2828      	moveb %a0@(10280),%d5
   22d92:	1a00           	moveb %d0,%d5
   22d94:	1628 2828      	moveb %a0@(10280),%d3
   22d98:	2828 1900      	movel %a0@(6400),%d4
   22d9c:	0000 0011      	orib #17,%d0
   22da0:	2828 2828      	movel %a0@(10280),%d4
   22da4:	0700           	btst %d3,%d0
   22da6:	1928 2828      	moveb %a0@(10280),%a4@-
   22daa:	1c00           	moveb %d0,%d6
   22dac:	0028 2828 0800 	orib #40,%a0@(2048)
   22db2:	0000 0000      	orib #0,%d0
   22db6:	0726           	btst %d3,%fp@-
   22db8:	1700           	moveb %d0,%a3@-
   22dba:	000f           	.short 0x000f
   22dbc:	2626           	movel %fp@-,%d3
   22dbe:	2626           	movel %fp@-,%d3
   22dc0:	0700           	btst %d3,%d0
	...
   22dca:	0000 132f      	orib #47,%d0
   22dce:	2626           	movel %fp@-,%d3
   22dd0:	2626           	movel %fp@-,%d3
   22dd2:	0000 0726      	orib #38,%d0
   22dd6:	2626           	movel %fp@-,%d3
   22dd8:	2626           	movel %fp@-,%d3
	...
   22de2:	0000 0099      	orib #-103,%d0
   22de6:	9f9f           	subl %d7,%sp@+
   22de8:	9f9f           	subl %d7,%sp@+
   22dea:	9b31 3423      	subb %d5,%a1@(00000023,%d3:w:4)
   22dee:	2232 3122 2323 	movel %a2@(00002323,%d3:w)@(00002523),%d1
   22df4:	2523 
   22df6:	2329 282a      	movel %a1@(10282),%a1@-
   22dfa:	0000 3234      	orib #52,%d0
   22dfe:	2122           	movel %a2@-,%a0@-
   22e00:	2832 2222      	movel %a2@(00000022,%d2:w:2),%d4
   22e04:	222c 3321      	movel %a4@(13089),%d1
   22e08:	2126           	movel %fp@-,%a0@-
   22e0a:	2c33 2225      	movel %a3@(00000025,%d2:w:2),%d6
   22e0e:	2a32 2221      	movel %a2@(00000021,%d2:w:2),%d5
   22e12:	222a 0000      	movel %a2@(0),%d1
   22e16:	3222           	movew %a2@-,%d1
   22e18:	2122           	movel %a2@-,%a0@-
   22e1a:	2a00           	movel %d0,%d5
   22e1c:	0000 9f9f      	orib #-97,%d0
   22e20:	9f22           	subb %d7,%a2@-
   22e22:	3231 2b9f 9f9f 	movew @(00000000)@(9f9f0000,%d2:l:2),%d1
   22e28:	0000 
	...
   22e3a:	0000 009a      	orib #-102,%d0
   22e3e:	9f9f           	subl %d7,%sp@+
   22e40:	9f47           	subxw %d7,%d7
   22e42:	4747           	.short 0x4747
   22e44:	4747           	.short 0x4747
   22e46:	9f9f           	subl %d7,%sp@+
   22e48:	4747           	.short 0x4747
   22e4a:	4747           	.short 0x4747
   22e4c:	479f           	chkw %sp@+,%d3
   22e4e:	9f9f           	subl %d7,%sp@+
   22e50:	9f9f           	subl %d7,%sp@+
   22e52:	9f9f           	subl %d7,%sp@+
   22e54:	9f9f           	subl %d7,%sp@+
   22e56:	9f4d           	subxw %a5@-,%sp@-
   22e58:	4747           	.short 0x4747
   22e5a:	4747           	.short 0x4747
   22e5c:	4747           	.short 0x4747
   22e5e:	4e9f           	.short 0x4e9f
   22e60:	9f9f           	subl %d7,%sp@+
   22e62:	9f9f           	subl %d7,%sp@+
   22e64:	9f9f           	subl %d7,%sp@+
   22e66:	9f9f           	subl %d7,%sp@+
   22e68:	9f9f           	subl %d7,%sp@+
	...
   22e72:	0000 001c      	orib #28,%d0
	...
   22e7e:	0000 1b27      	orib #39,%d0
   22e82:	2727           	movel %sp@-,%a3@-
   22e84:	2727           	movel %sp@-,%a3@-
   22e86:	272b 2727      	movel %a3@(10023),%a3@-
   22e8a:	2727           	movel %sp@-,%a3@-
   22e8c:	2727           	movel %sp@-,%a3@-
   22e8e:	181b           	moveb %a3@+,%d4
   22e90:	0016 2727      	orib #39,%fp@
   22e94:	2727           	movel %sp@-,%a3@-
   22e96:	0f18           	btst %d7,%a0@+
   22e98:	0427 0404      	subib #4,%sp@-
   22e9c:	0f00           	btst %d7,%d0
   22e9e:	0425 2507      	subib #7,%a5@-
   22ea2:	0f07           	btst %d7,%d7
   22ea4:	1e1a           	moveb %a2@+,%d7
   22ea6:	0725           	btst %d3,%a5@-
   22ea8:	2525           	movel %a5@-,%a2@-
   22eaa:	1c00           	moveb %d0,%d6
   22eac:	001e 2525      	orib #37,%fp@+
   22eb0:	2525           	movel %a5@-,%a2@-
   22eb2:	0f00           	btst %d7,%d0
   22eb4:	0000 1e1a      	orib #26,%d0
   22eb8:	2525           	movel %a5@-,%a2@-
   22eba:	2525           	movel %a5@-,%a2@-
   22ebc:	0819 2525      	btst #37,%a1@+
   22ec0:	2525           	movel %a5@-,%a2@-
   22ec2:	1a00           	moveb %d0,%d5
   22ec4:	0007 0f17      	orib #23,%d7
   22ec8:	2525           	movel %a5@-,%a2@-
   22eca:	2525           	movel %a5@-,%a2@-
   22ecc:	0700           	btst %d3,%d0
   22ece:	1c25           	moveb %a5@-,%d6
   22ed0:	2525           	movel %a5@-,%a2@-
   22ed2:	1700           	moveb %d0,%a3@-
   22ed4:	1825           	moveb %a5@-,%d4
   22ed6:	2525           	movel %a5@-,%a2@-
   22ed8:	2508           	movel %a0,%a2@-
   22eda:	1800           	moveb %d0,%d4
   22edc:	001d 1d07      	orib #7,%a5@+
   22ee0:	2525           	movel %a5@-,%a2@-
   22ee2:	2525           	movel %a5@-,%a2@-
   22ee4:	0800 0725      	btst #37,%d0
   22ee8:	2525           	movel %a5@-,%a2@-
   22eea:	1700           	moveb %d0,%a3@-
   22eec:	0025 2525      	orib #37,%a5@-
   22ef0:	1800           	moveb %d0,%d4
   22ef2:	0000 0000      	orib #0,%d0
   22ef6:	1522           	moveb %a2@-,%a2@-
   22ef8:	2217           	movel %sp@,%d1
   22efa:	0011 2222      	orib #34,%a1@
   22efe:	2222           	movel %a2@-,%d1
   22f00:	1700           	moveb %d0,%a3@-
	...
   22f0a:	0000 0807      	orib #7,%d0
   22f0e:	2222           	movel %a2@-,%d1
   22f10:	2222           	movel %a2@-,%d1
   22f12:	0012 2222      	orib #34,%a2@
   22f16:	2222           	movel %a2@-,%d1
   22f18:	2222           	movel %a2@-,%d1
	...
   22f22:	0000 0099      	orib #-103,%d0
   22f26:	9f9f           	subl %d7,%sp@+
   22f28:	9f9f           	subl %d7,%sp@+
   22f2a:	9631 2223      	subb %a1@(00000023,%d2:w:2),%d3
   22f2e:	2222           	movel %a2@-,%d1
   22f30:	2322           	movel %a2@-,%a1@-
   22f32:	2223           	movel %a3@-,%d1
   22f34:	2222           	movel %a2@-,%d1
   22f36:	2300           	movel %d0,%a1@-
   22f38:	9b9b           	subl %d5,%a3@+
   22f3a:	9f9b           	subl %d7,%a3@+
   22f3c:	3222           	movew %a2@-,%d1
   22f3e:	2122           	movel %a2@-,%a0@-
   22f40:	2b32 2122 2933 	movel %a2@(00002933,%d2:w)@(00003421),%a5@-
   22f46:	3421 
   22f48:	2126           	movel %fp@-,%a0@-
   22f4a:	2a20           	movel %a0@-,%d5
   22f4c:	2128 0033      	movel %a0@(51),%a0@-
   22f50:	2120           	movel %a0@-,%a0@-
   22f52:	2132 322a      	movel %a2@(0000002a,%d3:w:2),%a0@-
   22f56:	3321           	movew %a1@-,%a1@-
   22f58:	2021           	movel %a1@-,%d0
   22f5a:	3232 3200      	movew %a2@(00000000,%d3:w:2),%d1
   22f5e:	9f9f           	subl %d7,%sp@+
   22f60:	9f33 4731 249f 	subb %d7,%a3@(249f9f9f,%d4:w:8)@(00000000)
   22f66:	9f9f 
	...
   22f7c:	009a 9f9f 9f47 	oril #-1616928953,%a2@+
   22f82:	4747           	.short 0x4747
   22f84:	4747           	.short 0x4747
   22f86:	9f9f           	subl %d7,%sp@+
   22f88:	4747           	.short 0x4747
   22f8a:	4747           	.short 0x4747
   22f8c:	479f           	chkw %sp@+,%d3
   22f8e:	9f9f           	subl %d7,%sp@+
   22f90:	9f9f           	subl %d7,%sp@+
   22f92:	9f9f           	subl %d7,%sp@+
   22f94:	9f9f           	subl %d7,%sp@+
   22f96:	9f49           	subxw %a1@-,%sp@-
   22f98:	4747           	.short 0x4747
   22f9a:	4747           	.short 0x4747
   22f9c:	4749           	.short 0x4749
   22f9e:	4e9f           	.short 0x4e9f
   22fa0:	9f9f           	subl %d7,%sp@+
   22fa2:	9f9f           	subl %d7,%sp@+
   22fa4:	9f9f           	subl %d7,%sp@+
   22fa6:	9f9f           	subl %d7,%sp@+
   22fa8:	9f9f           	subl %d7,%sp@+
	...
   22fb2:	0000 001c      	orib #28,%d0
	...
   22fbe:	0000 0824      	orib #36,%d0
   22fc2:	2424           	movel %a4@-,%d2
   22fc4:	2424           	movel %a4@-,%d2
   22fc6:	2400           	movel %d0,%d2
   22fc8:	2424           	movel %a4@-,%d2
   22fca:	2424           	movel %a4@-,%d2
   22fcc:	2424           	movel %a4@-,%d2
   22fce:	1700           	moveb %d0,%a3@-
   22fd0:	0018 2424      	orib #36,%a0@+
   22fd4:	2424           	movel %a4@-,%d2
   22fd6:	121e           	moveb %fp@+,%d1
   22fd8:	2424           	movel %a4@-,%d2
   22fda:	2424           	movel %a4@-,%d2
   22fdc:	071e           	btst %d3,%fp@+
   22fde:	2422           	movel %a2@-,%d2
   22fe0:	2222           	movel %a2@-,%d1
   22fe2:	2222           	movel %a2@-,%d1
   22fe4:	2218           	movel %a0@+,%d1
   22fe6:	0f22           	btst %d7,%a2@-
   22fe8:	2222           	movel %a2@-,%d1
   22fea:	1a00           	moveb %d0,%d5
   22fec:	0000 2222      	orib #34,%d0
   22ff0:	2222           	movel %a2@-,%d1
   22ff2:	070f 1800      	movepw %sp@(6144),%d3
   22ff6:	1e08           	.short 0x1e08
   22ff8:	2323           	movel %a3@-,%a1@-
   22ffa:	2323           	movel %a3@-,%a1@-
   22ffc:	0708 2323      	movepw %a0@(8995),%d3
   23000:	2323           	movel %a3@-,%a1@-
   23002:	0800 0723      	btst #35,%d0
   23006:	2308           	movel %a0,%a1@-
   23008:	2323           	movel %a3@-,%a1@-
   2300a:	2323           	movel %a3@-,%a1@-
   2300c:	1300           	moveb %d0,%a1@-
   2300e:	1e23           	moveb %a3@-,%d7
   23010:	2323           	movel %a3@-,%a1@-
   23012:	1208           	.short 0x1208
   23014:	1a22           	moveb %a2@-,%d5
   23016:	2222           	movel %a2@-,%d1
   23018:	2223           	movel %a3@-,%d1
   2301a:	0f13           	btst %d7,%a3@
   2301c:	1822           	moveb %a2@-,%d4
   2301e:	1b18           	moveb %a0@+,%a5@-
   23020:	2323           	movel %a3@-,%a1@-
   23022:	2323           	movel %a3@-,%a1@-
   23024:	0700           	btst %d3,%d0
   23026:	1923           	moveb %a3@-,%a4@-
   23028:	2323           	movel %a3@-,%a1@-
   2302a:	1108           	.short 0x1108
   2302c:	0023 2323      	orib #35,%a3@-
   23030:	1207           	moveb %d7,%d1
   23032:	0000 0000      	orib #0,%d0
   23036:	1735 3535 0813 	moveb %a5@(08133535)@(00000000,%d3:w:4),%a3@-
   2303c:	3535 
   2303e:	3535 1900      	movew %a5@(00000000,%d1:l),%a2@-
	...
   2304a:	0000 3535      	orib #53,%d0
   2304e:	3535 3535 1935 	movew %a5@(19353535)@(00000000,%d3:w:4),%a2@-
   23054:	3535 
   23056:	3535 351c      	movew %a5@(00000000)@(00000000,%d3:w:4),%a2@-
	...
   23062:	0000 0099      	orib #-103,%d0
   23066:	9f9f           	subl %d7,%sp@+
   23068:	9f9f           	subl %d7,%sp@+
   2306a:	1733 3d22 223d 	moveb %a3@(0000223d,%d3:l:4)@(00002222),%a3@-
   23070:	2222 
   23072:	3d22           	movew %a2@-,%fp@-
   23074:	223d           	.short 0x223d
   23076:	2200           	movel %d0,%d1
   23078:	9b9f           	subl %d5,%sp@+
   2307a:	9f9b           	subl %d7,%a3@+
   2307c:	3121           	movew %a1@-,%a0@-
   2307e:	2121           	movel %a1@-,%a0@-
   23080:	2b34 3d21 2933 	movel %a4@(00002933,%d3:l:4)@(00000000),%a5@-
   23086:	3421           	movew %a1@-,%d2
   23088:	3d21           	movew %a1@-,%fp@-
   2308a:	213d           	.short 0x213d
   2308c:	2128 0033      	movel %a0@(51),%a0@-
   23090:	203d           	.short 0x203d
   23092:	2020           	movel %a0@-,%d0
   23094:	3d29 3320      	movew %a1@(13088),%fp@-
   23098:	3d20           	movew %a0@-,%fp@-
   2309a:	203d           	.short 0x203d
   2309c:	2900           	movel %d0,%a4@-
   2309e:	9f9f           	subl %d7,%sp@+
   230a0:	2131 4031      	movel %a1@(00000031,%d4:w),%a0@-
   230a4:	369f           	movew %sp@+,%a3@
   230a6:	9f9f           	subl %d7,%sp@+
	...
   230bc:	009a 9f9f 9f47 	oril #-1616928953,%a2@+
   230c2:	4747           	.short 0x4747
   230c4:	4747           	.short 0x4747
   230c6:	9f9f           	subl %d7,%sp@+
   230c8:	4747           	.short 0x4747
   230ca:	4747           	.short 0x4747
   230cc:	479f           	chkw %sp@+,%d3
   230ce:	9f9f           	subl %d7,%sp@+
   230d0:	9f9f           	subl %d7,%sp@+
   230d2:	9f9f           	subl %d7,%sp@+
   230d4:	9f9f           	subl %d7,%sp@+
   230d6:	4947           	.short 0x4947
   230d8:	4747           	.short 0x4747
   230da:	4747           	.short 0x4747
   230dc:	474c           	.short 0x474c
   230de:	9f9f           	subl %d7,%sp@+
   230e0:	9f9f           	subl %d7,%sp@+
   230e2:	9f9f           	subl %d7,%sp@+
   230e4:	9f9f           	subl %d7,%sp@+
   230e6:	9f9f           	subl %d7,%sp@+
   230e8:	9f9f           	subl %d7,%sp@+
	...
   230f2:	0000 001c      	orib #28,%d0
	...
   230fe:	0000 0836      	orib #54,%d0
   23102:	3636 3636      	movew %fp@(00000036,%d3:w:8),%d3
   23106:	2600           	movel %d0,%d3
   23108:	3636 3636      	movew %fp@(00000036,%d3:w:8),%d3
   2310c:	3616           	movew %fp@,%d3
   2310e:	0000 001a      	orib #26,%d0
   23112:	3636 3636      	movew %fp@(00000036,%d3:w:8),%d3
   23116:	1e36 3636      	moveb %fp@(00000036,%d3:w:8),%d7
   2311a:	3618           	movew %a0@+,%d3
   2311c:	001d 3635      	orib #53,%a5@+
   23120:	3535 3535 0819 	movew %a5@(08191635)@(00000000,%d3:w:4),%a2@-
   23126:	1635 
   23128:	3535 1800      	movew %a5@(00000000,%d1:l),%a2@-
   2312c:	001d 3535      	orib #53,%a5@+
   23130:	3535 3535 3535 	movew %a5@(35351e08)@(00000000,%d3:w:4),%a2@-
   23136:	1e08 
   23138:	3535 3535 3508 	movew %a5@(35083535)@(00000000,%d3:w:4),%a2@-
   2313e:	3535 
   23140:	3535 3500      	movew %a5@(00000000,%d3:w:4),%a2@-
   23144:	2535 3535 3535 	movel %a5@(3535351a)@(00000000,%d3:w:4),%a2@-
   2314a:	351a 
   2314c:	071d           	btst %d3,%a5@+
   2314e:	0035 3535 351a 	orib #53,%a5@(00000000,%d3:w:4)@(00000835)
   23154:	0835 
   23156:	3535 3535 3535 	movew %a5@(35353508)@(00000000,%d3:w:4),%a2@-
   2315c:	3508 
   2315e:	1e08           	.short 0x1e08
   23160:	3535 3535 3508 	movew %a5@(35080035)@(00000000,%d3:w:4),%a2@-
   23166:	0035 
   23168:	3535 3508      	movew %a5@(00000000,%d3:w:4),%a2@-
   2316c:	0035 3535 3508 	orib #53,%a5@(00000000,%d3:w:4)
   23172:	0000 0000      	orib #0,%d0
   23176:	1818           	moveb %a0@+,%d4
   23178:	1834 0c18      	moveb %a4@(00000018,%d0:l:4),%d4
   2317c:	1818           	moveb %a0@+,%d4
   2317e:	3434 1b00      	movew %a4@(00000000,%d1:l:2),%d2
	...
   2318e:	3434 3434      	movew %a4@(00000034,%d3:w:4),%d2
   23192:	3434 3434      	movew %a4@(00000034,%d3:w:4),%d2
   23196:	340c           	movew %a4,%d2
   23198:	0700           	btst %d3,%d0
	...
   231a2:	0000 009a      	orib #-102,%d0
   231a6:	9f9f           	subl %d7,%sp@+
   231a8:	9f9b           	subl %d7,%a3@+
   231aa:	3134 2220      	movew %a4@(00000020,%d2:w:2),%a0@-
   231ae:	3d34 203d      	movew %a4@(0000003d,%d2:w),%fp@-
   231b2:	2220           	movel %a0@-,%d1
   231b4:	3d22           	movew %a2@-,%fp@-
   231b6:	249b           	movel %a3@+,%a2@
   231b8:	9f9f           	subl %d7,%sp@+
   231ba:	9f00           	subxb %d0,%d7
   231bc:	2620           	movel %a0@-,%d3
   231be:	3d20           	movew %a0@-,%fp@-
   231c0:	203d           	.short 0x203d
   231c2:	2229 2924      	movel %a1@(10532),%d1
   231c6:	3435 2424      	movew %a5@(00000024,%d2:w:4),%d2
   231ca:	2829 282a      	movel %a1@(10282),%d4
   231ce:	002a 2a2a 2a2a 	orib #42,%a2@(10794)
   231d4:	2a2a 2a2a      	movel %a2@(10794),%d5
   231d8:	2a2a 2a2a      	movel %a2@(10794),%d5
   231dc:	2a00           	movel %d0,%d5
   231de:	9f22           	subb %d7,%a2@-
   231e0:	3140 4047      	movew %d0,%a0@(16455)
   231e4:	3221           	movew %a1@-,%d1
   231e6:	2a9f           	movel %sp@+,%a5@
	...
   231fc:	009a 9f9f 9f47 	oril #-1616928953,%a2@+
   23202:	4747           	.short 0x4747
   23204:	4747           	.short 0x4747
   23206:	9f9f           	subl %d7,%sp@+
   23208:	4747           	.short 0x4747
   2320a:	4747           	.short 0x4747
   2320c:	479f           	chkw %sp@+,%d3
   2320e:	9f9f           	subl %d7,%sp@+
   23210:	9f9f           	subl %d7,%sp@+
   23212:	9f9f           	subl %d7,%sp@+
   23214:	4d49           	.short 0x4d49
   23216:	4747           	.short 0x4747
   23218:	4747           	.short 0x4747
   2321a:	4747           	.short 0x4747
   2321c:	494e           	.short 0x494e
   2321e:	9f9f           	subl %d7,%sp@+
   23220:	9f9f           	subl %d7,%sp@+
   23222:	9f9f           	subl %d7,%sp@+
   23224:	9f9f           	subl %d7,%sp@+
   23226:	9f9f           	subl %d7,%sp@+
   23228:	9f9f           	subl %d7,%sp@+
	...
   23232:	0000 001c      	orib #28,%d0
	...
   2323e:	001c 0808      	orib #8,%a4@+
   23242:	0834 3434 1d00 	btst #52,%a4@(00000000,%d1:l:4)
   23248:	0000 3434      	orib #52,%d0
   2324c:	1800           	moveb %d0,%d4
   2324e:	0000 001d      	orib #29,%d0
   23252:	1d1d           	moveb %a5@+,%fp@-
   23254:	3434 3434      	movew %a4@(00000034,%d3:w:4),%d2
   23258:	340c           	movew %a4,%d2
   2325a:	0700           	btst %d3,%d0
   2325c:	001c 0c18      	orib #24,%a4@+
   23260:	3333 3333 0700 	movew %a3@(07001833,%d3:w:2)@(33331600),%a1@-
   23266:	1833 3333 1600 
   2326c:	0008           	.short 0x0008
   2326e:	3333 3333 3333 	movew %a3@(33333308,%d3:w:2)@(1e001b33),%a1@-
   23274:	3308 1e00 1b33 
   2327a:	3333 1900      	movew %a3@(00000000,%d1:l),%a1@-
   2327e:	1933 3333 1800 	moveb %a3@(1800081e,%d3:w:2)@(33330708),%a4@-
   23284:	081e 3333 0708 
   2328a:	1e00           	moveb %d0,%d7
   2328c:	001d 1a33      	orib #51,%a5@+
   23290:	3333 0700      	movew %a3@(00000000,%d0:w:8),%a1@-
   23294:	1c1c           	moveb %a4@+,%d6
   23296:	3333 3333 3333 	movew %a3@(33333307,%d3:w:2)@(00003733),%a1@-
   2329c:	3307 0000 3733 
   232a2:	3333 1808      	movew %a3@(00000008,%d1:l),%a1@-
   232a6:	0033 3333 0808 	orib #51,%a3@(00000008,%d0:l)
   232ac:	1b33 3333 0800 	moveb %a3@(08000000,%d3:w:2)@(00001632),%a5@-
   232b2:	0000 0000 1632 
   232b8:	3232 3232      	movew %a2@(00000032,%d3:w:2),%d1
   232bc:	3232 3232      	movew %a2@(00000032,%d3:w:2),%d1
   232c0:	0800 0000      	btst #0,%d0
   232c4:	0000 0000      	orib #0,%d0
   232c8:	0000 001f      	orib #31,%d0
   232cc:	3232 3232      	movew %a2@(00000032,%d3:w:2),%d1
   232d0:	3232 3232      	movew %a2@(00000032,%d3:w:2),%d1
   232d4:	3232 3213      	movew %a2@(00000013,%d3:w:2),%d1
	...
   232e4:	009a 9f9f 9f96 	oril #-1616928874,%a2@+
   232ea:	313c 3c21      	movew #15393,%a0@-
   232ee:	2b2b 313c      	movel %a3@(12604),%a5@-
   232f2:	3c36 3c3c      	movew %fp@(0000003c,%d3:l:4),%d6
   232f6:	289b           	movel %a3@+,%a4@
   232f8:	9f9f           	subl %d7,%sp@+
   232fa:	9f00           	subxb %d0,%d7
   232fc:	2a26           	movel %fp@-,%d5
   232fe:	252a 2a2a      	movel %a2@(10794),%a2@-
   23302:	2a2a 0000      	movel %a2@(0),%d5
   23306:	0000 3f3d      	orib #61,%d0
   2330a:	3947 4747      	movew %d7,%a4@(18247)
   2330e:	4747           	.short 0x4747
   23310:	4747           	.short 0x4747
   23312:	4747           	.short 0x4747
   23314:	4747           	.short 0x4747
   23316:	4747           	.short 0x4747
   23318:	4747           	.short 0x4747
   2331a:	4747           	.short 0x4747
   2331c:	4747           	.short 0x4747
   2331e:	4740           	.short 0x4740
   23320:	4040           	negxw %d0
   23322:	4040           	negxw %d0
   23324:	4747           	.short 0x4747
   23326:	359f 0000      	movew %sp@+,%a2@(00000000,%d0:w)
	...
   2333a:	0000 009a      	orib #-102,%d0
   2333e:	9f9f           	subl %d7,%sp@+
   23340:	9f47           	subxw %d7,%d7
   23342:	4747           	.short 0x4747
   23344:	4747           	.short 0x4747
   23346:	9f9f           	subl %d7,%sp@+
   23348:	4747           	.short 0x4747
   2334a:	4747           	.short 0x4747
   2334c:	4747           	.short 0x4747
   2334e:	4747           	.short 0x4747
   23350:	4747           	.short 0x4747
   23352:	4747           	.short 0x4747
   23354:	4747           	.short 0x4747
   23356:	4747           	.short 0x4747
   23358:	4747           	.short 0x4747
   2335a:	4749           	.short 0x4749
   2335c:	4e9f           	.short 0x4e9f
   2335e:	9f9f           	subl %d7,%sp@+
   23360:	9f9f           	subl %d7,%sp@+
   23362:	9f9f           	subl %d7,%sp@+
   23364:	9f9f           	subl %d7,%sp@+
   23366:	9f9f           	subl %d7,%sp@+
   23368:	9f9f           	subl %d7,%sp@+
	...
   23372:	0000 001c      	orib #28,%d0
	...
   2337e:	0019 081c      	orib #28,%a1@+
   23382:	1d1e           	moveb %fp@+,%fp@-
   23384:	1f1c           	moveb %a4@+,%sp@-
   23386:	0000 1f1d      	orib #29,%d0
   2338a:	1c08           	.short 0x1c08
   2338c:	0000 0000      	orib #0,%d0
   23390:	0000 1d08      	orib #8,%d0
   23394:	1d1e           	moveb %fp@+,%fp@-
   23396:	1f00           	moveb %d0,%sp@-
   23398:	1e07           	moveb %d7,%d7
   2339a:	0000 001d      	orib #29,%d0
   2339e:	181a           	moveb %a2@+,%d4
   233a0:	1a18           	moveb %a0@+,%d5
   233a2:	0807 0000      	btst #0,%d7
   233a6:	1a32 3232      	moveb %a2@(00000032,%d3:w:2),%d5
   233aa:	1800           	moveb %d0,%d4
   233ac:	0000 1c18      	orib #24,%d0
   233b0:	0708 1c1e      	movepw %a0@(7198),%d3
   233b4:	001e 0000      	orib #0,%fp@+
   233b8:	1d1e           	moveb %fp@+,%fp@-
   233ba:	0007 0000      	orib #0,%d7
   233be:	1d1e           	moveb %fp@+,%fp@-
   233c0:	0007 0000      	orib #0,%d7
   233c4:	0000 1f18      	orib #24,%d0
   233c8:	0000 0000      	orib #0,%d0
   233cc:	0000 001d      	orib #29,%d0
   233d0:	0018 0000      	orib #0,%a0@+
   233d4:	001c 0818      	orib #24,%a4@+
   233d8:	0708 1d1f      	movepw %a0@(7455),%d3
   233dc:	1f1b           	moveb %a3@+,%sp@-
   233de:	0000 1d1e      	orib #30,%d0
   233e2:	0018 0000      	orib #0,%a0@+
   233e6:	001d 0008      	orib #8,%a5@+
   233ea:	0000 001d      	orib #29,%d0
   233ee:	0008           	.short 0x0008
   233f0:	0000 0000      	orib #0,%d0
   233f4:	0000 0019      	orib #25,%d0
   233f8:	3030 3030      	movew %a0@(00000030,%d3:w),%d0
   233fc:	1508           	.short 0x1508
   233fe:	1b1b           	moveb %a3@+,%a5@-
	...
   23408:	0000 001d      	orib #29,%d0
   2340c:	0718           	btst %d3,%a0@+
   2340e:	1c1e           	moveb %fp@+,%d6
   23410:	1f00           	moveb %d0,%sp@-
   23412:	0000 0000      	orib #0,%d0
   23416:	001c 0000      	orib #0,%a4@+
	...
   23422:	0000 009a      	orib #-102,%d0
   23426:	9f9f           	subl %d7,%sp@+
   23428:	9f17           	subb %d7,%sp@
   2342a:	3335 3624      	movew %a5@(00000024,%d3:w:8),%a1@-
   2342e:	002b 313c 353c 	orib #60,%a3@(13628)
   23434:	353c 2a9b      	movew #10907,%a2@-
   23438:	9f9f           	subl %d7,%sp@+
   2343a:	9f9b           	subl %d7,%a3@+
   2343c:	002a 2a2a 003f 	orib #42,%a2@(63)
   23442:	3dc7           	.short 0x3dc7
   23444:	4747           	.short 0x4747
   23446:	4747           	.short 0x4747
   23448:	c7c7           	mulsw %d7,%d3
   2344a:	ca39 3939 3939 	andb 39393939 <__end+0x38392929>,%d5
   23450:	3939 3939 1619 	movew 39391619 <__end+0x38390609>,%a4@-
   23456:	0000 0000      	orib #0,%d0
   2345a:	0000 2b21      	orib #33,%d0
   2345e:	3347 4740      	movew %d7,%a1@(18240)
   23462:	4047           	negxw %d7
   23464:	3125           	movew %a5@-,%a0@-
   23466:	2a9f           	movel %sp@+,%a5@
   23468:	0000 0000      	orib #0,%d0
   2346c:	2c2c 2c2c      	movel %a4@(11308),%d6
   23470:	2c2c 2c2c      	movel %a4@(11308),%d6
   23474:	2c2c 2c2c      	movel %a4@(11308),%d6
   23478:	2c2c 2c2c      	movel %a4@(11308),%d6
   2347c:	2c9a           	movel %a2@+,%fp@
   2347e:	9f9f           	subl %d7,%sp@+
   23480:	9f47           	subxw %d7,%d7
   23482:	4747           	.short 0x4747
   23484:	4747           	.short 0x4747
   23486:	9f9f           	subl %d7,%sp@+
   23488:	4747           	.short 0x4747
   2348a:	4747           	.short 0x4747
   2348c:	4747           	.short 0x4747
   2348e:	4747           	.short 0x4747
   23490:	4747           	.short 0x4747
   23492:	4747           	.short 0x4747
   23494:	4747           	.short 0x4747
   23496:	4747           	.short 0x4747
   23498:	4747           	.short 0x4747
   2349a:	494d           	.short 0x494d
   2349c:	9f9f           	subl %d7,%sp@+
   2349e:	9f9f           	subl %d7,%sp@+
   234a0:	9f47           	subxw %d7,%d7
   234a2:	4747           	.short 0x4747
   234a4:	4747           	.short 0x4747
   234a6:	479f           	chkw %sp@+,%d3
   234a8:	9f9f           	subl %d7,%sp@+
   234aa:	2f2f 2c2c      	movel %sp@(11308),%sp@-
   234ae:	2c2c 2c2c      	movel %a4@(11308),%d6
   234b2:	2c2c 2c1d      	movel %a4@(11293),%d6
	...
   234e2:	0008           	.short 0x0008
   234e4:	0008           	.short 0x0008
   234e6:	1e31 3131 1a00 	moveb %a1@(1a000000,%d3:w)@(00000000),%d7
   234ec:	0000 
   234ee:	0000 0000      	orib #0,%d0
   234f2:	001e 1e1e      	orib #30,%fp@+
	...
   2351a:	1e1e           	moveb %fp@+,%d7
   2351c:	1e00           	moveb %d0,%d7
	...
   23536:	0000 0810      	orib #16,%d0
   2353a:	1012           	moveb %a2@,%d0
	...
   23548:	0000 0008      	orib #8,%d0
   2354c:	1700           	moveb %d0,%a3@-
	...
   2355e:	0000 2f2f      	orib #47,%d0
   23562:	2c2c 2c9a      	movel %a4@(11418),%d6
   23566:	9f9f           	subl %d7,%sp@+
   23568:	9b31 3435      	subb %d5,%a1@(00000035,%d3:w:4)
   2356c:	3429 9b2b      	movew %a1@(-25813),%d2
   23570:	3135 343b      	movew %a5@(0000003b,%d3:w:4),%a0@-
   23574:	3524           	movew %a4@-,%a2@-
   23576:	2a9b           	movel %a3@+,%a5@
   23578:	9b00           	subxb %d0,%d5
   2357a:	3f3d           	.short 0x3f3d
   2357c:	3838 3838      	movew 3838 <_sdata+0x3834>,%d4
   23580:	3a3a 3a3a      	movew %pc@(26fbc <picData+0x6f68>),%d5
   23584:	3a3a 3a3a      	movew %pc@(26fc0 <picData+0x6f6c>),%d5
   23588:	3a3a 3a3b      	movew %pc@(26fc5 <picData+0x6f71>),%d5
   2358c:	3c3d           	.short 0x3c3d
   2358e:	272c 9f9f      	movel %a4@(-24673),%a3@-
   23592:	9f9f           	subl %d7,%sp@+
   23594:	9f9f           	subl %d7,%sp@+
   23596:	9f9f           	subl %d7,%sp@+
   23598:	9f9f           	subl %d7,%sp@+
   2359a:	9f9f           	subl %d7,%sp@+
   2359c:	9f9f           	subl %d7,%sp@+
   2359e:	2b33 3147 3131 	movel %a3@(00000000)@(3131259f),%a5@-
   235a4:	259f 
   235a6:	9f9f           	subl %d7,%sp@+
   235a8:	0000 2c2c      	orib #44,%d0
	...
   235bc:	009a 9f9f 9f47 	oril #-1616928953,%a2@+
   235c2:	4747           	.short 0x4747
   235c4:	4747           	.short 0x4747
   235c6:	9f9f           	subl %d7,%sp@+
   235c8:	4747           	.short 0x4747
   235ca:	4747           	.short 0x4747
   235cc:	4747           	.short 0x4747
   235ce:	4747           	.short 0x4747
   235d0:	4747           	.short 0x4747
   235d2:	4747           	.short 0x4747
   235d4:	4747           	.short 0x4747
   235d6:	4747           	.short 0x4747
   235d8:	494d           	.short 0x494d
   235da:	4e9f           	.short 0x4e9f
   235dc:	9f9f           	subl %d7,%sp@+
   235de:	9f9f           	subl %d7,%sp@+
   235e0:	9f9f           	subl %d7,%sp@+
   235e2:	9f9f           	subl %d7,%sp@+
   235e4:	9f9f           	subl %d7,%sp@+
   235e6:	9f9f           	subl %d7,%sp@+
   235e8:	9f9f           	subl %d7,%sp@+
	...
   235f2:	0000 001d      	orib #29,%d0
	...
   23622:	0830 3030 3030 	btst #48,%a0@(00000030,%d3:w)
   23628:	3030 0800      	movew %a0@(00000000,%d0:l),%d0
	...
   23678:	001e 1200      	orib #0,%fp@+
	...
   23694:	0000 2e2e      	orib #46,%d0
   23698:	2e00           	movel %d0,%d7
   2369a:	2e2e 002e      	movel %fp@(46),%d7
   2369e:	2e00           	movel %d0,%d7
   236a0:	0000 0000      	orib #0,%d0
   236a4:	009a 9f9f 9631 	oril #-1616931279,%a2@+
   236aa:	343b 3400      	movew %pc@(236ac <picData+0x3658>,%d3:w:4),%d2
   236ae:	9f2b 313b      	subb %d7,%a3@(12603)
   236b2:	3b25           	movew %a5@-,%a5@-
   236b4:	282b 2b33      	movel %a3@(11059),%d4
   236b8:	3232 3233      	movew %a2@(00000033,%d3:w:2),%d1
   236bc:	343b 3b34 3b3b 	movew %pc@(3b3d71f9 <__end+0x3a3d61e9>)@(00000000,%d3:l:2),%d2
   236c2:	3b3b 
   236c4:	3b3b 3b3b 3d25 	movew %pc@(3d2762f2 <__end+0x3c2752e2>,%d3:l:2)@(9f9f9f9f),%a5@-
   236ca:	2c2c 9f9f 9f9f 
   236d0:	9f9f           	subl %d7,%sp@+
   236d2:	9f9f           	subl %d7,%sp@+
   236d4:	9f9f           	subl %d7,%sp@+
   236d6:	9f9f           	subl %d7,%sp@+
   236d8:	9f9f           	subl %d7,%sp@+
   236da:	9f9f           	subl %d7,%sp@+
   236dc:	9f9f           	subl %d7,%sp@+
   236de:	9f21           	subb %d7,%a1@-
   236e0:	3247           	moveaw %d7,%a1
   236e2:	3121           	movew %a1@-,%a0@-
   236e4:	9f9f           	subl %d7,%sp@+
   236e6:	9f9f           	subl %d7,%sp@+
   236e8:	0000 0000      	orib #0,%d0
   236ec:	2929 2929      	movel %a1@(10537),%a4@-
   236f0:	2929 2929      	movel %a1@(10537),%a4@-
   236f4:	2929 2929      	movel %a1@(10537),%a4@-
   236f8:	2929 2929      	movel %a1@(10537),%a4@-
   236fc:	299a 9f9f 9f47 	movel %a2@+,@(00000000)@(9f474747,%a1:l:8)
   23702:	4747 
   23704:	4747           	.short 0x4747
   23706:	9f9f           	subl %d7,%sp@+
   23708:	4747           	.short 0x4747
   2370a:	4747           	.short 0x4747
   2370c:	4747           	.short 0x4747
   2370e:	4747           	.short 0x4747
   23710:	4747           	.short 0x4747
   23712:	4747           	.short 0x4747
   23714:	4749           	.short 0x4749
   23716:	4a4d           	.short 0x4a4d
   23718:	4e9f           	.short 0x4e9f
   2371a:	9f9f           	subl %d7,%sp@+
   2371c:	9f9f           	subl %d7,%sp@+
   2371e:	9f9f           	subl %d7,%sp@+
   23720:	9f9f           	subl %d7,%sp@+
   23722:	9f9f           	subl %d7,%sp@+
   23724:	9f9f           	subl %d7,%sp@+
   23726:	9f9f           	subl %d7,%sp@+
   23728:	9f9f           	subl %d7,%sp@+
   2372a:	2e2e 2929      	movel %fp@(10537),%d7
   2372e:	2929 2929      	movel %a1@(10537),%a4@-
   23732:	2929 291d      	movel %a1@(10525),%a4@-
	...
   2375e:	0000 0008      	orib #8,%d0
   23762:	3030 3030      	movew %a0@(00000030,%d3:w),%d0
   23766:	3030 1422      	movew %a0@(00000022,%d1:w:4),%d0
   2376a:	2800           	movel %d0,%d4
	...
   237d4:	0000 002e      	orib #46,%d0
   237d8:	0000 2e00      	orib #0,%d0
   237dc:	2e00           	movel %d0,%d7
   237de:	2e00           	movel %d0,%d7
   237e0:	2e2e 2929      	movel %fp@(10537),%d7
   237e4:	299a 9f9b 1731 	movel %a2@+,@(00000000,%a1:l:8)@(17313b3b)
   237ea:	3b3b 
   237ec:	249b           	movel %a3@+,%a2@
   237ee:	9f28 2b2b      	subb %d7,%a0@(11051)
   237f2:	2935 3232      	movel %a5@(00000032,%d3:w:2),%a4@-
   237f6:	3335 3b35 353b 	movew %a5@(353b3535)@(00000000,%d3:l:2),%a1@-
   237fc:	3535 
   237fe:	3b35 353b 2035 	movew %a5@(20353b25,%d3:w:4)@(2c009f9f),%a5@-
   23804:	3b25 2c00 9f9f 
   2380a:	9f9f           	subl %d7,%sp@+
   2380c:	9f9f           	subl %d7,%sp@+
   2380e:	9f9f           	subl %d7,%sp@+
   23810:	9f9f           	subl %d7,%sp@+
   23812:	9f9f           	subl %d7,%sp@+
   23814:	9f9f           	subl %d7,%sp@+
   23816:	9f9f           	subl %d7,%sp@+
   23818:	9f9f           	subl %d7,%sp@+
   2381a:	9f9f           	subl %d7,%sp@+
   2381c:	9f9f           	subl %d7,%sp@+
   2381e:	9f21           	subb %d7,%a1@-
   23820:	3234 219f 9f9f 	movew @(00000000)@(9f9f9f9f,%d2:w),%d1
   23826:	9f9f 
   23828:	2e2e 2929      	movel %fp@(10537),%d7
   2382c:	2929 2929      	movel %a1@(10537),%a4@-
   23830:	2929 2929      	movel %a1@(10537),%a4@-
   23834:	2929 2929      	movel %a1@(10537),%a4@-
   23838:	2929 2929      	movel %a1@(10537),%a4@-
   2383c:	299b 9f9f 9f9f 	movel %a3@+,@(00000000)@(9f9f9f9f,%a1:l:8)
   23842:	9f9f 
   23844:	9f9f           	subl %d7,%sp@+
   23846:	9f9f           	subl %d7,%sp@+
   23848:	9f9f           	subl %d7,%sp@+
   2384a:	9f9f           	subl %d7,%sp@+
   2384c:	9f9f           	subl %d7,%sp@+
   2384e:	9f9f           	subl %d7,%sp@+
   23850:	9f9f           	subl %d7,%sp@+
   23852:	9f9f           	subl %d7,%sp@+
   23854:	9f9f           	subl %d7,%sp@+
   23856:	9f9f           	subl %d7,%sp@+
   23858:	9f9f           	subl %d7,%sp@+
   2385a:	9f9f           	subl %d7,%sp@+
   2385c:	9f9f           	subl %d7,%sp@+
   2385e:	9f9f           	subl %d7,%sp@+
   23860:	9f9f           	subl %d7,%sp@+
   23862:	9f9f           	subl %d7,%sp@+
   23864:	9f9f           	subl %d7,%sp@+
   23866:	9f9f           	subl %d7,%sp@+
   23868:	9f9f           	subl %d7,%sp@+
   2386a:	2e2e 2929      	movel %fp@(10537),%d7
   2386e:	2929 2929      	movel %a1@(10537),%a4@-
   23872:	2929 291d      	movel %a1@(10525),%a4@-
	...
   2389e:	0000 1c32      	orib #50,%d0
   238a2:	0825 2532      	btst #50,%a5@-
   238a6:	3033 0000      	movew %a3@(00000000,%d0:w),%d0
	...
   23916:	002e 0000 2e00 	orib #0,%fp@(11776)
   2391c:	0000 2e00      	orib #0,%d0
   23920:	2e2e 2929      	movel %fp@(10537),%d7
   23924:	299a 9f96 3132 	movel %a2@+,@(00000000)@(00003132,%a1:l:8)
   2392a:	3b3b 0000      	movew %pc@(2392c <picData+0x38d8>,%d0:w),%a5@-
   2392e:	0000 3432      	orib #50,%d0
   23932:	3132 3420      	movew %a2@(00000020,%d3:w:4),%a0@-
   23936:	2020           	movel %a0@-,%d0
   23938:	2020           	movel %a0@-,%d0
   2393a:	2020           	movel %a0@-,%d0
   2393c:	2020           	movel %a0@-,%d0
   2393e:	2020           	movel %a0@-,%d0
   23940:	2020           	movel %a0@-,%d0
   23942:	2527           	movel %sp@-,%a2@-
   23944:	2d9f 9f9f 9f9f 	movel %sp@+,@(00000000)@(9f9f9f9f,%a1:l:8)
   2394a:	9f9f 
   2394c:	9f9f           	subl %d7,%sp@+
   2394e:	9f9f           	subl %d7,%sp@+
   23950:	9f9f           	subl %d7,%sp@+
   23952:	9f9f           	subl %d7,%sp@+
   23954:	9f9f           	subl %d7,%sp@+
   23956:	9f9f           	subl %d7,%sp@+
   23958:	9f9f           	subl %d7,%sp@+
   2395a:	9f9f           	subl %d7,%sp@+
   2395c:	9f9f           	subl %d7,%sp@+
   2395e:	9f23           	subb %d7,%a3@-
   23960:	3334 259f 9f9f 	movew @(00000000)@(9f9f9f9f,%d2:w:4),%a1@-
   23966:	9f9f 
   23968:	2e2e 2929      	movel %fp@(10537),%d7
   2396c:	2929 2929      	movel %a1@(10537),%a4@-
   23970:	2929 2929      	movel %a1@(10537),%a4@-
   23974:	2929 2929      	movel %a1@(10537),%a4@-
   23978:	2929 2929      	movel %a1@(10537),%a4@-
   2397c:	299b 9f9f 9f9f 	movel %a3@+,@(00000000)@(9f9f9f9f,%a1:l:8)
   23982:	9f9f 
   23984:	9f9f           	subl %d7,%sp@+
   23986:	9f9f           	subl %d7,%sp@+
   23988:	9f9f           	subl %d7,%sp@+
   2398a:	9f9f           	subl %d7,%sp@+
   2398c:	9f9f           	subl %d7,%sp@+
   2398e:	9f9f           	subl %d7,%sp@+
   23990:	9f9f           	subl %d7,%sp@+
   23992:	9f9f           	subl %d7,%sp@+
   23994:	9f9f           	subl %d7,%sp@+
   23996:	9f9f           	subl %d7,%sp@+
   23998:	9f9f           	subl %d7,%sp@+
   2399a:	9f9f           	subl %d7,%sp@+
   2399c:	9f9f           	subl %d7,%sp@+
   2399e:	9f9f           	subl %d7,%sp@+
   239a0:	9f9f           	subl %d7,%sp@+
   239a2:	9f9f           	subl %d7,%sp@+
   239a4:	9f9f           	subl %d7,%sp@+
   239a6:	9f9f           	subl %d7,%sp@+
   239a8:	9f9f           	subl %d7,%sp@+
   239aa:	2e2e 2929      	movel %fp@(10537),%d7
   239ae:	2929 2929      	movel %a1@(10537),%a4@-
   239b2:	2929 291d      	movel %a1@(10525),%a4@-
	...
   239de:	0000 1e1e      	orib #30,%d0
   239e2:	0000 002a      	orib #42,%d0
   239e6:	1a00           	moveb %d0,%d5
	...
   23a60:	2e2e 2929      	movel %fp@(10537),%d7
   23a64:	299a 9f17 313b 	movel %a2@+,%a4@(00000000)@(313b2b2b,%a1:l:8)
   23a6a:	2b2b 
   23a6c:	3533 3132 3334 	movew %a3@(33342222,%d3:w)@(00002222),%a2@-
   23a72:	2222 2222 
   23a76:	2222           	movel %a2@-,%d1
   23a78:	2222           	movel %a2@-,%d1
   23a7a:	2222           	movel %a2@-,%d1
   23a7c:	2222           	movel %a2@-,%d1
   23a7e:	2222           	movel %a2@-,%d1
   23a80:	272a 009f      	movel %a2@(159),%a3@-
   23a84:	9f9f           	subl %d7,%sp@+
   23a86:	9f9f           	subl %d7,%sp@+
   23a88:	9f9f           	subl %d7,%sp@+
   23a8a:	9f9f           	subl %d7,%sp@+
   23a8c:	9f9f           	subl %d7,%sp@+
   23a8e:	9f9f           	subl %d7,%sp@+
   23a90:	9f9f           	subl %d7,%sp@+
   23a92:	9f9f           	subl %d7,%sp@+
   23a94:	9f9f           	subl %d7,%sp@+
   23a96:	9f9f           	subl %d7,%sp@+
   23a98:	9f9f           	subl %d7,%sp@+
   23a9a:	9f9f           	subl %d7,%sp@+
   23a9c:	9f9f           	subl %d7,%sp@+
   23a9e:	9f23           	subb %d7,%a3@-
   23aa0:	3320           	movew %a0@-,%a1@-
   23aa2:	9f9f           	subl %d7,%sp@+
   23aa4:	9f9f           	subl %d7,%sp@+
   23aa6:	9f9f           	subl %d7,%sp@+
   23aa8:	2e2e 2929      	movel %fp@(10537),%d7
   23aac:	2929 2929      	movel %a1@(10537),%a4@-
   23ab0:	2929 2929      	movel %a1@(10537),%a4@-
   23ab4:	2929 2929      	movel %a1@(10537),%a4@-
   23ab8:	2929 2929      	movel %a1@(10537),%a4@-
   23abc:	299b 9f9f 4c47 	movel %a3@+,@(00000000)@(4c47479f,%a1:l:8)
   23ac2:	479f 
   23ac4:	9f4c           	subxw %a4@-,%sp@-
   23ac6:	474c           	.short 0x474c
   23ac8:	9f9f           	subl %d7,%sp@+
   23aca:	4747           	.short 0x4747
   23acc:	9f9f           	subl %d7,%sp@+
   23ace:	4747           	.short 0x4747
   23ad0:	479f           	chkw %sp@+,%d3
   23ad2:	9f47           	subxw %d7,%d7
   23ad4:	9f47           	subxw %d7,%d7
   23ad6:	9f9f           	subl %d7,%sp@+
   23ad8:	9f47           	subxw %d7,%d7
   23ada:	4747           	.short 0x4747
   23adc:	9f9f           	subl %d7,%sp@+
   23ade:	9f47           	subxw %d7,%d7
   23ae0:	474c           	.short 0x474c
   23ae2:	9f9f           	subl %d7,%sp@+
   23ae4:	9f47           	subxw %d7,%d7
   23ae6:	479f           	chkw %sp@+,%d3
   23ae8:	9f9f           	subl %d7,%sp@+
   23aea:	2e2e 2929      	movel %fp@(10537),%d7
   23aee:	2929 2929      	movel %a1@(10537),%a4@-
   23af2:	2929 291e      	movel %a1@(10526),%a4@-
	...
   23b9e:	0000 2e2e      	orib #46,%d0
   23ba2:	2929 299a      	movel %a1@(10650),%a4@-
   23ba6:	9b33 282b      	subb %d5,%a3@(0000002b,%d2:l)
   23baa:	0033 3132 3423 	orib #50,%a3@(00000023,%d3:w:4)
   23bb0:	2323           	movel %a3@-,%a1@-
   23bb2:	2323           	movel %a3@-,%a1@-
   23bb4:	2323           	movel %a3@-,%a1@-
   23bb6:	2323           	movel %a3@-,%a1@-
   23bb8:	2323           	movel %a3@-,%a1@-
   23bba:	2323           	movel %a3@-,%a1@-
   23bbc:	2323           	movel %a3@-,%a1@-
   23bbe:	2729 2900      	movel %a1@(10496),%a3@-
   23bc2:	9f9f           	subl %d7,%sp@+
   23bc4:	9f9f           	subl %d7,%sp@+
   23bc6:	9f9f           	subl %d7,%sp@+
   23bc8:	9f9f           	subl %d7,%sp@+
   23bca:	9f9f           	subl %d7,%sp@+
   23bcc:	9f9f           	subl %d7,%sp@+
   23bce:	9f9f           	subl %d7,%sp@+
   23bd0:	9f9f           	subl %d7,%sp@+
   23bd2:	9f9f           	subl %d7,%sp@+
   23bd4:	9f9f           	subl %d7,%sp@+
   23bd6:	9f9f           	subl %d7,%sp@+
   23bd8:	9f9f           	subl %d7,%sp@+
   23bda:	9f9f           	subl %d7,%sp@+
   23bdc:	9f9f           	subl %d7,%sp@+
   23bde:	9f23           	subb %d7,%a3@-
   23be0:	3425           	movew %a5@-,%d2
   23be2:	9f9f           	subl %d7,%sp@+
   23be4:	9f9f           	subl %d7,%sp@+
   23be6:	9f9f           	subl %d7,%sp@+
   23be8:	2e2e 2929      	movel %fp@(10537),%d7
   23bec:	2929 2929      	movel %a1@(10537),%a4@-
   23bf0:	2929 2929      	movel %a1@(10537),%a4@-
   23bf4:	2929 2929      	movel %a1@(10537),%a4@-
   23bf8:	2929 2929      	movel %a1@(10537),%a4@-
   23bfc:	299b 9f9f 474b 	movel %a3@+,@(00000000)@(474b9f9f,%a1:l:8)
   23c02:	9f9f 
   23c04:	9f47           	subxw %d7,%d7
   23c06:	9f47           	subxw %d7,%d7
   23c08:	9f9f           	subl %d7,%sp@+
   23c0a:	479f           	chkw %sp@+,%d3
   23c0c:	9f9f           	subl %d7,%sp@+
   23c0e:	9f47           	subxw %d7,%d7
   23c10:	9f9f           	subl %d7,%sp@+
   23c12:	9f47           	subxw %d7,%d7
   23c14:	9f47           	subxw %d7,%d7
   23c16:	9f9f           	subl %d7,%sp@+
   23c18:	9f47           	subxw %d7,%d7
   23c1a:	9f47           	subxw %d7,%d7
   23c1c:	9f9f           	subl %d7,%sp@+
   23c1e:	9f47           	subxw %d7,%d7
   23c20:	9f47           	subxw %d7,%d7
   23c22:	9f9f           	subl %d7,%sp@+
   23c24:	9f47           	subxw %d7,%d7
   23c26:	9f9f           	subl %d7,%sp@+
   23c28:	9f9f           	subl %d7,%sp@+
   23c2a:	2e2e 2929      	movel %fp@(10537),%d7
   23c2e:	2929 2929      	movel %a1@(10537),%a4@-
   23c32:	2929 291e      	movel %a1@(10526),%a4@-
	...
   23c72:	1d00           	moveb %d0,%fp@-
   23c74:	1d1d           	moveb %a5@+,%fp@-
   23c76:	1d00           	moveb %d0,%fp@-
   23c78:	1d1d           	moveb %a5@+,%fp@-
   23c7a:	1d00           	moveb %d0,%fp@-
   23c7c:	1d1d           	moveb %a5@+,%fp@-
   23c7e:	1d00           	moveb %d0,%fp@-
   23c80:	0000 0000      	orib #0,%d0
   23c84:	1d00           	moveb %d0,%fp@-
   23c86:	0000 0000      	orib #0,%d0
   23c8a:	001d 1d1d      	orib #29,%a5@+
   23c8e:	001d 1d1d      	orib #29,%a5@+
   23c92:	001d 1d1d      	orib #29,%a5@+
   23c96:	1d1d           	moveb %a5@+,%fp@-
   23c98:	1d00           	moveb %d0,%fp@-
   23c9a:	1d00           	moveb %d0,%fp@-
   23c9c:	1d00           	moveb %d0,%fp@-
   23c9e:	1d1d           	moveb %a5@+,%fp@-
   23ca0:	1d00           	moveb %d0,%fp@-
   23ca2:	1d1d           	moveb %a5@+,%fp@-
   23ca4:	1d00           	moveb %d0,%fp@-
   23ca6:	1d1d           	moveb %a5@+,%fp@-
   23ca8:	1d00           	moveb %d0,%fp@-
	...
   23cde:	0000 2e2e      	orib #46,%d0
   23ce2:	2929 299a      	movel %a1@(10650),%a4@-
   23ce6:	0000 0033      	orib #51,%d0
   23cea:	3231 3425      	movew %a1@(00000025,%d3:w:4),%d1
   23cee:	2525           	movel %a5@-,%a2@-
   23cf0:	2525           	movel %a5@-,%a2@-
   23cf2:	2525           	movel %a5@-,%a2@-
   23cf4:	2525           	movel %a5@-,%a2@-
   23cf6:	2525           	movel %a5@-,%a2@-
   23cf8:	2525           	movel %a5@-,%a2@-
   23cfa:	2525           	movel %a5@-,%a2@-
   23cfc:	2527           	movel %sp@-,%a2@-
   23cfe:	2b2b 9f9f      	movel %a3@(-24673),%a5@-
   23d02:	9f9f           	subl %d7,%sp@+
   23d04:	9f9f           	subl %d7,%sp@+
   23d06:	9f9f           	subl %d7,%sp@+
   23d08:	9f9f           	subl %d7,%sp@+
   23d0a:	9f9f           	subl %d7,%sp@+
   23d0c:	9f9f           	subl %d7,%sp@+
   23d0e:	9f9f           	subl %d7,%sp@+
   23d10:	9f9f           	subl %d7,%sp@+
   23d12:	9f9f           	subl %d7,%sp@+
   23d14:	9f9f           	subl %d7,%sp@+
   23d16:	9f9f           	subl %d7,%sp@+
   23d18:	9f9f           	subl %d7,%sp@+
   23d1a:	9f9f           	subl %d7,%sp@+
   23d1c:	9f9f           	subl %d7,%sp@+
   23d1e:	9f25           	subb %d7,%a5@-
   23d20:	249f           	movel %sp@+,%a2@
   23d22:	9f9f           	subl %d7,%sp@+
   23d24:	9f9f           	subl %d7,%sp@+
   23d26:	9f9f           	subl %d7,%sp@+
   23d28:	2e2e 2929      	movel %fp@(10537),%d7
   23d2c:	2929 2929      	movel %a1@(10537),%a4@-
   23d30:	2929 2929      	movel %a1@(10537),%a4@-
   23d34:	2929 2929      	movel %a1@(10537),%a4@-
   23d38:	2929 2929      	movel %a1@(10537),%a4@-
   23d3c:	299b 9f9f 9f47 	movel %a3@+,@(00000000)@(9f479f9f,%a1:l:8)
   23d42:	9f9f 
   23d44:	9f47           	subxw %d7,%d7
   23d46:	9f47           	subxw %d7,%d7
   23d48:	9f9f           	subl %d7,%sp@+
   23d4a:	4747           	.short 0x4747
   23d4c:	9f9f           	subl %d7,%sp@+
   23d4e:	9f47           	subxw %d7,%d7
   23d50:	9f9f           	subl %d7,%sp@+
   23d52:	9f47           	subxw %d7,%d7
   23d54:	4747           	.short 0x4747
   23d56:	9f9f           	subl %d7,%sp@+
   23d58:	9f47           	subxw %d7,%d7
   23d5a:	4747           	.short 0x4747
   23d5c:	9f9f           	subl %d7,%sp@+
   23d5e:	9f47           	subxw %d7,%d7
   23d60:	479f           	chkw %sp@+,%d3
   23d62:	9f9f           	subl %d7,%sp@+
   23d64:	9f47           	subxw %d7,%d7
   23d66:	479f           	chkw %sp@+,%d3
   23d68:	9f9f           	subl %d7,%sp@+
   23d6a:	2e2e 2929      	movel %fp@(10537),%d7
   23d6e:	2929 2929      	movel %a1@(10537),%a4@-
   23d72:	2929 291e      	movel %a1@(10526),%a4@-
	...
   23dae:	1d1d           	moveb %a5@+,%fp@-
   23db0:	0000 1d00      	orib #0,%d0
   23db4:	1d00           	moveb %d0,%fp@-
   23db6:	1d00           	moveb %d0,%fp@-
   23db8:	1d00           	moveb %d0,%fp@-
   23dba:	1d00           	moveb %d0,%fp@-
   23dbc:	001f 1d00      	orib #0,%sp@+
   23dc0:	0000 0000      	orib #0,%d0
   23dc4:	1d00           	moveb %d0,%fp@-
   23dc6:	1d1d           	moveb %a5@+,%fp@-
   23dc8:	0000 001d      	orib #29,%d0
   23dcc:	0000 001d      	orib #29,%d0
   23dd0:	001d 001d      	orib #29,%a5@+
   23dd4:	0000 001d      	orib #29,%d0
   23dd8:	0000 1d00      	orib #0,%d0
   23ddc:	1d00           	moveb %d0,%fp@-
   23dde:	1d00           	moveb %d0,%fp@-
   23de0:	1d00           	moveb %d0,%fp@-
   23de2:	1d00           	moveb %d0,%fp@-
   23de4:	1d00           	moveb %d0,%fp@-
   23de6:	1d00           	moveb %d0,%fp@-
	...
   23e20:	2e2e 2929      	movel %fp@(10537),%d7
   23e24:	299a 0000      	movel %a2@+,%a4@(00000000,%d0:w)
	...
   23e40:	9f9f           	subl %d7,%sp@+
   23e42:	9f9f           	subl %d7,%sp@+
   23e44:	9f9f           	subl %d7,%sp@+
   23e46:	9f9f           	subl %d7,%sp@+
   23e48:	9f9f           	subl %d7,%sp@+
   23e4a:	9f9f           	subl %d7,%sp@+
   23e4c:	9f9f           	subl %d7,%sp@+
   23e4e:	9f9f           	subl %d7,%sp@+
   23e50:	9f9f           	subl %d7,%sp@+
   23e52:	9f9f           	subl %d7,%sp@+
   23e54:	9f9f           	subl %d7,%sp@+
   23e56:	9f9f           	subl %d7,%sp@+
   23e58:	9f9f           	subl %d7,%sp@+
   23e5a:	9f9f           	subl %d7,%sp@+
   23e5c:	9f9f           	subl %d7,%sp@+
   23e5e:	9f27           	subb %d7,%sp@-
   23e60:	2a9f           	movel %sp@+,%a5@
   23e62:	9f9f           	subl %d7,%sp@+
   23e64:	9f9f           	subl %d7,%sp@+
   23e66:	9f9f           	subl %d7,%sp@+
   23e68:	2e2e 2929      	movel %fp@(10537),%d7
   23e6c:	2929 2929      	movel %a1@(10537),%a4@-
   23e70:	2929 2929      	movel %a1@(10537),%a4@-
   23e74:	2929 2929      	movel %a1@(10537),%a4@-
   23e78:	2929 2929      	movel %a1@(10537),%a4@-
   23e7c:	299b 9f9f 9f4d 	movel %a3@+,@(00000000)@(9f4d479f,%a1:l:8)
   23e82:	479f 
   23e84:	9f47           	subxw %d7,%d7
   23e86:	9f47           	subxw %d7,%d7
   23e88:	9f9f           	subl %d7,%sp@+
   23e8a:	479f           	chkw %sp@+,%d3
   23e8c:	9f9f           	subl %d7,%sp@+
   23e8e:	9f47           	subxw %d7,%d7
   23e90:	9f9f           	subl %d7,%sp@+
   23e92:	9f47           	subxw %d7,%d7
   23e94:	4747           	.short 0x4747
   23e96:	9f9f           	subl %d7,%sp@+
   23e98:	9f47           	subxw %d7,%d7
   23e9a:	9f47           	subxw %d7,%d7
   23e9c:	9f9f           	subl %d7,%sp@+
   23e9e:	9f47           	subxw %d7,%d7
   23ea0:	9f47           	subxw %d7,%d7
   23ea2:	9f9f           	subl %d7,%sp@+
   23ea4:	9f47           	subxw %d7,%d7
   23ea6:	9f9f           	subl %d7,%sp@+
   23ea8:	9f9f           	subl %d7,%sp@+
   23eaa:	2e2e 2929      	movel %fp@(10537),%d7
   23eae:	2929 2929      	movel %a1@(10537),%a4@-
   23eb2:	2929 291e      	movel %a1@(10526),%a4@-
   23eb6:	0000 0000      	orib #0,%d0
   23eba:	0000 001f      	orib #31,%d0
   23ebe:	1d1d           	moveb %a5@+,%fp@-
   23ec0:	1d1d           	moveb %a5@+,%fp@-
   23ec2:	1d1d           	moveb %a5@+,%fp@-
   23ec4:	1d1d           	moveb %a5@+,%fp@-
   23ec6:	1d1d           	moveb %a5@+,%fp@-
   23ec8:	1d1d           	moveb %a5@+,%fp@-
   23eca:	1d1d           	moveb %a5@+,%fp@-
   23ecc:	1d1d           	moveb %a5@+,%fp@-
   23ece:	1d1d           	moveb %a5@+,%fp@-
   23ed0:	1d1d           	moveb %a5@+,%fp@-
   23ed2:	1d1d           	moveb %a5@+,%fp@-
   23ed4:	1d1d           	moveb %a5@+,%fp@-
   23ed6:	1d1d           	moveb %a5@+,%fp@-
   23ed8:	1d1d           	moveb %a5@+,%fp@-
   23eda:	1d1d           	moveb %a5@+,%fp@-
   23edc:	1d1d           	moveb %a5@+,%fp@-
   23ede:	1d1d           	moveb %a5@+,%fp@-
   23ee0:	1d1d           	moveb %a5@+,%fp@-
   23ee2:	1d1d           	moveb %a5@+,%fp@-
   23ee4:	1d1d           	moveb %a5@+,%fp@-
   23ee6:	1d1d           	moveb %a5@+,%fp@-
   23ee8:	1d1d           	moveb %a5@+,%fp@-
   23eea:	1d00           	moveb %d0,%fp@-
   23eec:	001d 1e00      	orib #0,%a5@+
   23ef0:	0000 1d00      	orib #0,%d0
   23ef4:	1d1d           	moveb %a5@+,%fp@-
   23ef6:	1d00           	moveb %d0,%fp@-
   23ef8:	1d1d           	moveb %a5@+,%fp@-
   23efa:	1d00           	moveb %d0,%fp@-
   23efc:	1f1d           	moveb %a5@+,%sp@-
   23efe:	1f00           	moveb %d0,%sp@-
   23f00:	0000 0000      	orib #0,%d0
   23f04:	1d00           	moveb %d0,%fp@-
   23f06:	1d00           	moveb %d0,%fp@-
   23f08:	1d00           	moveb %d0,%fp@-
   23f0a:	001d 1d1d      	orib #29,%a5@+
   23f0e:	001d 001d      	orib #29,%a5@+
   23f12:	001d 1d1d      	orib #29,%a5@+
   23f16:	001d 0000      	orib #0,%a5@+
   23f1a:	1d00           	moveb %d0,%fp@-
   23f1c:	1d00           	moveb %d0,%fp@-
   23f1e:	1d00           	moveb %d0,%fp@-
   23f20:	1d00           	moveb %d0,%fp@-
   23f22:	1d00           	moveb %d0,%fp@-
   23f24:	1d00           	moveb %d0,%fp@-
   23f26:	1d1d           	moveb %a5@+,%fp@-
   23f28:	0000 001d      	orib #29,%d0
   23f2c:	1d1d           	moveb %a5@+,%fp@-
   23f2e:	1d1d           	moveb %a5@+,%fp@-
   23f30:	1d1d           	moveb %a5@+,%fp@-
   23f32:	1d1d           	moveb %a5@+,%fp@-
   23f34:	1d1d           	moveb %a5@+,%fp@-
   23f36:	1d1d           	moveb %a5@+,%fp@-
   23f38:	1d1d           	moveb %a5@+,%fp@-
   23f3a:	1d1d           	moveb %a5@+,%fp@-
   23f3c:	1d1d           	moveb %a5@+,%fp@-
   23f3e:	1d1d           	moveb %a5@+,%fp@-
   23f40:	1d1d           	moveb %a5@+,%fp@-
   23f42:	1d1d           	moveb %a5@+,%fp@-
   23f44:	1d1d           	moveb %a5@+,%fp@-
   23f46:	1d1d           	moveb %a5@+,%fp@-
   23f48:	1d1d           	moveb %a5@+,%fp@-
   23f4a:	1d1d           	moveb %a5@+,%fp@-
   23f4c:	1d1d           	moveb %a5@+,%fp@-
   23f4e:	1d1d           	moveb %a5@+,%fp@-
   23f50:	1d1d           	moveb %a5@+,%fp@-
   23f52:	1d1d           	moveb %a5@+,%fp@-
   23f54:	1d1d           	moveb %a5@+,%fp@-
   23f56:	1d1f           	moveb %sp@+,%fp@-
	...
   23f60:	2e2e 2929      	movel %fp@(10537),%d7
   23f64:	299a 9f9f 9f9f 	movel %a2@+,@(00000000)@(9f9f9f9f,%a1:l:8)
   23f6a:	9f9f 
   23f6c:	9f9f           	subl %d7,%sp@+
   23f6e:	9f9f           	subl %d7,%sp@+
   23f70:	9f9f           	subl %d7,%sp@+
   23f72:	9f9f           	subl %d7,%sp@+
   23f74:	9f9f           	subl %d7,%sp@+
   23f76:	9f9f           	subl %d7,%sp@+
   23f78:	9f9f           	subl %d7,%sp@+
   23f7a:	9f9f           	subl %d7,%sp@+
   23f7c:	9f9f           	subl %d7,%sp@+
   23f7e:	9f9f           	subl %d7,%sp@+
   23f80:	9f9f           	subl %d7,%sp@+
   23f82:	9f9f           	subl %d7,%sp@+
   23f84:	9f9f           	subl %d7,%sp@+
   23f86:	9f9f           	subl %d7,%sp@+
   23f88:	9f9f           	subl %d7,%sp@+
   23f8a:	9f9f           	subl %d7,%sp@+
   23f8c:	9f9f           	subl %d7,%sp@+
   23f8e:	9f9f           	subl %d7,%sp@+
   23f90:	9f9f           	subl %d7,%sp@+
   23f92:	9f9f           	subl %d7,%sp@+
   23f94:	9f9f           	subl %d7,%sp@+
   23f96:	9f9f           	subl %d7,%sp@+
   23f98:	9f9f           	subl %d7,%sp@+
   23f9a:	9f9f           	subl %d7,%sp@+
   23f9c:	9f9f           	subl %d7,%sp@+
   23f9e:	9f27           	subb %d7,%sp@-
   23fa0:	9f9f           	subl %d7,%sp@+
   23fa2:	9f9f           	subl %d7,%sp@+
   23fa4:	9f9f           	subl %d7,%sp@+
   23fa6:	9f9f           	subl %d7,%sp@+
   23fa8:	2e2e 2929      	movel %fp@(10537),%d7
   23fac:	2929 2929      	movel %a1@(10537),%a4@-
   23fb0:	2929 2929      	movel %a1@(10537),%a4@-
   23fb4:	2929 2929      	movel %a1@(10537),%a4@-
   23fb8:	2929 2929      	movel %a1@(10537),%a4@-
   23fbc:	299c 9f9f 9f4b 	movel %a4@+,@(00000000)@(9f4b479f,%a1:l:8)
   23fc2:	479f 
   23fc4:	9f47           	subxw %d7,%d7
   23fc6:	9f47           	subxw %d7,%d7
   23fc8:	9f9f           	subl %d7,%sp@+
   23fca:	479f           	chkw %sp@+,%d3
   23fcc:	9f9f           	subl %d7,%sp@+
   23fce:	9f47           	subxw %d7,%d7
   23fd0:	9f9f           	subl %d7,%sp@+
   23fd2:	9f47           	subxw %d7,%d7
   23fd4:	4747           	.short 0x4747
   23fd6:	9f9f           	subl %d7,%sp@+
   23fd8:	9f47           	subxw %d7,%d7
   23fda:	9f47           	subxw %d7,%d7
   23fdc:	9f9f           	subl %d7,%sp@+
   23fde:	9f47           	subxw %d7,%d7
   23fe0:	9f47           	subxw %d7,%d7
   23fe2:	9f9f           	subl %d7,%sp@+
   23fe4:	9f47           	subxw %d7,%d7
   23fe6:	9f9f           	subl %d7,%sp@+
   23fe8:	9f9f           	subl %d7,%sp@+
   23fea:	2e2e 2929      	movel %fp@(10537),%d7
   23fee:	2929 2929      	movel %a1@(10537),%a4@-
   23ff2:	2929 291e      	movel %a1@(10526),%a4@-
   23ff6:	0000 181b      	orib #27,%d0
   23ffa:	1d00           	moveb %d0,%fp@-
	...
   2402c:	001d 1f00      	orib #0,%a5@+
   24030:	0000 1d00      	orib #0,%d0
   24034:	0000 1d00      	orib #0,%d0
   24038:	0000 1d00      	orib #0,%d0
   2403c:	1d1d           	moveb %a5@+,%fp@-
   2403e:	0000 0000      	orib #0,%d0
   24042:	0000 1d00      	orib #0,%d0
   24046:	1d00           	moveb %d0,%fp@-
   24048:	1d00           	moveb %d0,%fp@-
   2404a:	0000 001d      	orib #29,%d0
   2404e:	001d 001d      	orib #29,%a5@+
   24052:	001d 0000      	orib #0,%a5@+
   24056:	001d 0000      	orib #0,%a5@+
   2405a:	1d1d           	moveb %a5@+,%fp@-
   2405c:	1d00           	moveb %d0,%fp@-
   2405e:	1d1d           	moveb %a5@+,%fp@-
   24060:	1d00           	moveb %d0,%fp@-
   24062:	1d1d           	moveb %a5@+,%fp@-
   24064:	0000 1d00      	orib #0,%d0
	...
   24098:	0000 0018      	orib #24,%d0
   2409c:	1b1d           	moveb %a5@+,%a5@-
   2409e:	0000 2e2e      	orib #46,%d0
   240a2:	2929 299f      	movel %a1@(10655),%a4@-
   240a6:	9f9f           	subl %d7,%sp@+
   240a8:	9f9f           	subl %d7,%sp@+
   240aa:	9f9f           	subl %d7,%sp@+
   240ac:	9f9f           	subl %d7,%sp@+
   240ae:	9f9f           	subl %d7,%sp@+
   240b0:	9f9f           	subl %d7,%sp@+
   240b2:	9f9f           	subl %d7,%sp@+
   240b4:	9f9f           	subl %d7,%sp@+
   240b6:	9f9f           	subl %d7,%sp@+
   240b8:	9f9f           	subl %d7,%sp@+
   240ba:	9f9f           	subl %d7,%sp@+
   240bc:	9f9f           	subl %d7,%sp@+
   240be:	9f9f           	subl %d7,%sp@+
   240c0:	9f9f           	subl %d7,%sp@+
   240c2:	9f9f           	subl %d7,%sp@+
   240c4:	9f9f           	subl %d7,%sp@+
   240c6:	9f9f           	subl %d7,%sp@+
   240c8:	9f9f           	subl %d7,%sp@+
   240ca:	9f9f           	subl %d7,%sp@+
   240cc:	9f9f           	subl %d7,%sp@+
   240ce:	9f9f           	subl %d7,%sp@+
   240d0:	9f9f           	subl %d7,%sp@+
   240d2:	9f9f           	subl %d7,%sp@+
   240d4:	9f9f           	subl %d7,%sp@+
   240d6:	9f9f           	subl %d7,%sp@+
   240d8:	9f9f           	subl %d7,%sp@+
   240da:	9f9f           	subl %d7,%sp@+
   240dc:	9f9f           	subl %d7,%sp@+
   240de:	9f2a 9f9f      	subb %d7,%a2@(-24673)
   240e2:	9f9f           	subl %d7,%sp@+
   240e4:	9f9f           	subl %d7,%sp@+
   240e6:	9f9f           	subl %d7,%sp@+
   240e8:	2e2e 2929      	movel %fp@(10537),%d7
   240ec:	2929 2929      	movel %a1@(10537),%a4@-
   240f0:	2929 2929      	movel %a1@(10537),%a4@-
   240f4:	2929 2929      	movel %a1@(10537),%a4@-
   240f8:	2929 2929      	movel %a1@(10537),%a4@-
   240fc:	299c 9f9f 4747 	movel %a4@+,@(00000000)@(47474c9f,%a1:l:8)
   24102:	4c9f 
   24104:	9f4c           	subxw %a4@-,%sp@-
   24106:	474c           	.short 0x474c
   24108:	9f9f           	subl %d7,%sp@+
   2410a:	479f           	chkw %sp@+,%d3
   2410c:	9f9f           	subl %d7,%sp@+
   2410e:	9f47           	subxw %d7,%d7
   24110:	9f9f           	subl %d7,%sp@+
   24112:	9f47           	subxw %d7,%d7
   24114:	9f47           	subxw %d7,%d7
   24116:	9f9f           	subl %d7,%sp@+
   24118:	9f47           	subxw %d7,%d7
   2411a:	9f47           	subxw %d7,%d7
   2411c:	9f9f           	subl %d7,%sp@+
   2411e:	9f47           	subxw %d7,%d7
   24120:	9f47           	subxw %d7,%d7
   24122:	9f9f           	subl %d7,%sp@+
   24124:	9f47           	subxw %d7,%d7
   24126:	479f           	chkw %sp@+,%d3
   24128:	9f9f           	subl %d7,%sp@+
   2412a:	2e2e 2929      	movel %fp@(10537),%d7
   2412e:	2929 2929      	movel %a1@(10537),%a4@-
   24132:	2929 291e      	movel %a1@(10526),%a4@-
   24136:	0000 1b1d      	orib #29,%d0
   2413a:	1f00           	moveb %d0,%sp@-
	...
   2416c:	0000 1d1d      	orib #29,%d0
   24170:	0000 1d00      	orib #0,%d0
   24174:	0000 1d00      	orib #0,%d0
   24178:	0000 1d00      	orib #0,%d0
   2417c:	1d1d           	moveb %a5@+,%fp@-
   2417e:	1d00           	moveb %d0,%fp@-
   24180:	0000 0000      	orib #0,%d0
   24184:	1d00           	moveb %d0,%fp@-
   24186:	1d1d           	moveb %a5@+,%fp@-
   24188:	0000 001d      	orib #29,%d0
   2418c:	1d1d           	moveb %a5@+,%fp@-
   2418e:	001d 1d1d      	orib #29,%a5@+
   24192:	001d 0000      	orib #0,%a5@+
   24196:	001d 0000      	orib #0,%a5@+
   2419a:	1d00           	moveb %d0,%fp@-
   2419c:	1d00           	moveb %d0,%fp@-
   2419e:	1d00           	moveb %d0,%fp@-
   241a0:	1d00           	moveb %d0,%fp@-
   241a2:	1d00           	moveb %d0,%fp@-
   241a4:	1d00           	moveb %d0,%fp@-
   241a6:	1d1d           	moveb %a5@+,%fp@-
   241a8:	1d00           	moveb %d0,%fp@-
	...
   241da:	001b 1d1f      	orib #31,%a3@+
   241de:	0000 2e2e      	orib #46,%d0
   241e2:	2929 299f      	movel %a1@(10655),%a4@-
   241e6:	9f9f           	subl %d7,%sp@+
   241e8:	9f9f           	subl %d7,%sp@+
   241ea:	9f9f           	subl %d7,%sp@+
   241ec:	9f9f           	subl %d7,%sp@+
   241ee:	9f9f           	subl %d7,%sp@+
   241f0:	9f9f           	subl %d7,%sp@+
   241f2:	9f9f           	subl %d7,%sp@+
   241f4:	9f9f           	subl %d7,%sp@+
   241f6:	9f9f           	subl %d7,%sp@+
   241f8:	9f9f           	subl %d7,%sp@+
   241fa:	9f9f           	subl %d7,%sp@+
   241fc:	9f9f           	subl %d7,%sp@+
   241fe:	9f9f           	subl %d7,%sp@+
   24200:	9f9f           	subl %d7,%sp@+
   24202:	9f9f           	subl %d7,%sp@+
   24204:	9f9f           	subl %d7,%sp@+
   24206:	9f9f           	subl %d7,%sp@+
   24208:	9f9f           	subl %d7,%sp@+
   2420a:	9f9f           	subl %d7,%sp@+
   2420c:	9f9f           	subl %d7,%sp@+
   2420e:	9f9f           	subl %d7,%sp@+
   24210:	9f9f           	subl %d7,%sp@+
   24212:	9f9f           	subl %d7,%sp@+
   24214:	9f9f           	subl %d7,%sp@+
   24216:	9f9f           	subl %d7,%sp@+
   24218:	9f9f           	subl %d7,%sp@+
   2421a:	9f9f           	subl %d7,%sp@+
   2421c:	9f9f           	subl %d7,%sp@+
   2421e:	9f2a 9f9f      	subb %d7,%a2@(-24673)
   24222:	9f9f           	subl %d7,%sp@+
   24224:	9f9f           	subl %d7,%sp@+
   24226:	9f9f           	subl %d7,%sp@+
   24228:	2e2e 2929      	movel %fp@(10537),%d7
   2422c:	2929 2929      	movel %a1@(10537),%a4@-
   24230:	2929 2929      	movel %a1@(10537),%a4@-
   24234:	2929 2929      	movel %a1@(10537),%a4@-
   24238:	2929 2929      	movel %a1@(10537),%a4@-
   2423c:	299c 9f9f 9f9f 	movel %a4@+,@(00000000)@(9f9f9f9f,%a1:l:8)
   24242:	9f9f 
   24244:	9f9f           	subl %d7,%sp@+
   24246:	9f9f           	subl %d7,%sp@+
   24248:	9f9f           	subl %d7,%sp@+
   2424a:	9f9f           	subl %d7,%sp@+
   2424c:	9f9f           	subl %d7,%sp@+
   2424e:	9f9f           	subl %d7,%sp@+
   24250:	9f9f           	subl %d7,%sp@+
   24252:	9f9f           	subl %d7,%sp@+
   24254:	9f9f           	subl %d7,%sp@+
   24256:	9f9f           	subl %d7,%sp@+
   24258:	9f9f           	subl %d7,%sp@+
   2425a:	9f9f           	subl %d7,%sp@+
   2425c:	9f9f           	subl %d7,%sp@+
   2425e:	9f9f           	subl %d7,%sp@+
   24260:	9f9f           	subl %d7,%sp@+
   24262:	9f9f           	subl %d7,%sp@+
   24264:	9f9f           	subl %d7,%sp@+
   24266:	9f9f           	subl %d7,%sp@+
   24268:	9f9f           	subl %d7,%sp@+
   2426a:	2e2e 2929      	movel %fp@(10537),%d7
   2426e:	2929 2929      	movel %a1@(10537),%a4@-
   24272:	2929 291e      	movel %a1@(10526),%a4@-
   24276:	0000 1d1f      	orib #31,%d0
   2427a:	1f00           	moveb %d0,%sp@-
	...
   24318:	0000 001d      	orib #29,%d0
   2431c:	1f1f           	moveb %sp@+,%sp@-
   2431e:	0000 2e2e      	orib #46,%d0
   24322:	2929 299f      	movel %a1@(10655),%a4@-
   24326:	9f9f           	subl %d7,%sp@+
   24328:	9f9f           	subl %d7,%sp@+
   2432a:	9f9f           	subl %d7,%sp@+
   2432c:	9f9f           	subl %d7,%sp@+
   2432e:	9f9f           	subl %d7,%sp@+
   24330:	9f9f           	subl %d7,%sp@+
   24332:	9f9f           	subl %d7,%sp@+
   24334:	9f9f           	subl %d7,%sp@+
   24336:	9f9f           	subl %d7,%sp@+
   24338:	9f9f           	subl %d7,%sp@+
   2433a:	9f9f           	subl %d7,%sp@+
   2433c:	9f9f           	subl %d7,%sp@+
   2433e:	9f9f           	subl %d7,%sp@+
   24340:	9f9f           	subl %d7,%sp@+
   24342:	9f9f           	subl %d7,%sp@+
   24344:	9f9f           	subl %d7,%sp@+
   24346:	9f9f           	subl %d7,%sp@+
   24348:	9f9f           	subl %d7,%sp@+
   2434a:	9f9f           	subl %d7,%sp@+
   2434c:	9f9f           	subl %d7,%sp@+
   2434e:	9f9f           	subl %d7,%sp@+
   24350:	9f9f           	subl %d7,%sp@+
   24352:	9f9f           	subl %d7,%sp@+
   24354:	9f9f           	subl %d7,%sp@+
   24356:	9f9f           	subl %d7,%sp@+
   24358:	9f9f           	subl %d7,%sp@+
   2435a:	9f9f           	subl %d7,%sp@+
   2435c:	9f9f           	subl %d7,%sp@+
   2435e:	9f9f           	subl %d7,%sp@+
   24360:	9f9f           	subl %d7,%sp@+
   24362:	9f9f           	subl %d7,%sp@+
   24364:	9f9f           	subl %d7,%sp@+
   24366:	9f9f           	subl %d7,%sp@+
   24368:	2e2e 2929      	movel %fp@(10537),%d7
   2436c:	2929 2929      	movel %a1@(10537),%a4@-
   24370:	2929 2929      	movel %a1@(10537),%a4@-
   24374:	2929 2929      	movel %a1@(10537),%a4@-
   24378:	2929 2929      	movel %a1@(10537),%a4@-
   2437c:	299c 9f9f 9f9f 	movel %a4@+,@(00000000)@(9f9f9f9f,%a1:l:8)
   24382:	9f9f 
   24384:	9f9f           	subl %d7,%sp@+
   24386:	9f9f           	subl %d7,%sp@+
   24388:	9f9f           	subl %d7,%sp@+
   2438a:	9f9f           	subl %d7,%sp@+
   2438c:	9f9f           	subl %d7,%sp@+
   2438e:	9f9f           	subl %d7,%sp@+
   24390:	9f9f           	subl %d7,%sp@+
   24392:	9f9f           	subl %d7,%sp@+
   24394:	9f9f           	subl %d7,%sp@+
   24396:	9f9f           	subl %d7,%sp@+
   24398:	9f9f           	subl %d7,%sp@+
   2439a:	9f9f           	subl %d7,%sp@+
   2439c:	9f9f           	subl %d7,%sp@+
   2439e:	9f9f           	subl %d7,%sp@+
   243a0:	9f9f           	subl %d7,%sp@+
   243a2:	9f9f           	subl %d7,%sp@+
   243a4:	9f9f           	subl %d7,%sp@+
   243a6:	9f9f           	subl %d7,%sp@+
   243a8:	9f9f           	subl %d7,%sp@+
   243aa:	2e2e 2929      	movel %fp@(10537),%d7
   243ae:	2929 2929      	movel %a1@(10537),%a4@-
   243b2:	2929 291e      	movel %a1@(10526),%a4@-
	...
   2445e:	0000 2e2e      	orib #46,%d0
   24462:	2929 299f      	movel %a1@(10655),%a4@-
   24466:	9f9f           	subl %d7,%sp@+
   24468:	9f9f           	subl %d7,%sp@+
   2446a:	9f9f           	subl %d7,%sp@+
   2446c:	9f9f           	subl %d7,%sp@+
   2446e:	9f9f           	subl %d7,%sp@+
   24470:	9f9f           	subl %d7,%sp@+
   24472:	9f9f           	subl %d7,%sp@+
   24474:	9f9f           	subl %d7,%sp@+
   24476:	9f9f           	subl %d7,%sp@+
   24478:	9f9f           	subl %d7,%sp@+
   2447a:	9f9f           	subl %d7,%sp@+
   2447c:	9f9f           	subl %d7,%sp@+
   2447e:	9f9f           	subl %d7,%sp@+
   24480:	9f9f           	subl %d7,%sp@+
   24482:	9f9f           	subl %d7,%sp@+
   24484:	9f9f           	subl %d7,%sp@+
   24486:	9f9f           	subl %d7,%sp@+
   24488:	9f9f           	subl %d7,%sp@+
   2448a:	9f9f           	subl %d7,%sp@+
   2448c:	9f9f           	subl %d7,%sp@+
   2448e:	9f9f           	subl %d7,%sp@+
   24490:	9f9f           	subl %d7,%sp@+
   24492:	9f9f           	subl %d7,%sp@+
   24494:	9f9f           	subl %d7,%sp@+
   24496:	9f9f           	subl %d7,%sp@+
   24498:	9f9f           	subl %d7,%sp@+
   2449a:	9f9f           	subl %d7,%sp@+
   2449c:	9f9f           	subl %d7,%sp@+
   2449e:	9f9f           	subl %d7,%sp@+
   244a0:	9f9f           	subl %d7,%sp@+
   244a2:	9f9f           	subl %d7,%sp@+
   244a4:	9f9f           	subl %d7,%sp@+
   244a6:	9f9f           	subl %d7,%sp@+
   244a8:	2e2e 2929      	movel %fp@(10537),%d7
   244ac:	2929 2929      	movel %a1@(10537),%a4@-
   244b0:	2929 2929      	movel %a1@(10537),%a4@-
   244b4:	2929 2929      	movel %a1@(10537),%a4@-
   244b8:	2929 2929      	movel %a1@(10537),%a4@-
   244bc:	299c 9f9f 9f9f 	movel %a4@+,@(00000000)@(9f9f9f9f,%a1:l:8)
   244c2:	9f9f 
   244c4:	9f9f           	subl %d7,%sp@+
   244c6:	9f9f           	subl %d7,%sp@+
   244c8:	9f9f           	subl %d7,%sp@+
   244ca:	9f9f           	subl %d7,%sp@+
   244cc:	9f9f           	subl %d7,%sp@+
   244ce:	9f9f           	subl %d7,%sp@+
   244d0:	9f9f           	subl %d7,%sp@+
   244d2:	9f9f           	subl %d7,%sp@+
   244d4:	9f9f           	subl %d7,%sp@+
   244d6:	9f9f           	subl %d7,%sp@+
   244d8:	9f9f           	subl %d7,%sp@+
   244da:	9f9f           	subl %d7,%sp@+
   244dc:	9f9f           	subl %d7,%sp@+
   244de:	9f9f           	subl %d7,%sp@+
   244e0:	9f9f           	subl %d7,%sp@+
   244e2:	9f9f           	subl %d7,%sp@+
   244e4:	9f9f           	subl %d7,%sp@+
   244e6:	9f9f           	subl %d7,%sp@+
   244e8:	9f9f           	subl %d7,%sp@+
   244ea:	2e2e 2929      	movel %fp@(10537),%d7
   244ee:	2929 2929      	movel %a1@(10537),%a4@-
   244f2:	2929 2900      	movel %a1@(10496),%a4@-
	...
   2459e:	0000 2e2e      	orib #46,%d0
   245a2:	2929 299f      	movel %a1@(10655),%a4@-
   245a6:	9f9f           	subl %d7,%sp@+
   245a8:	9f9f           	subl %d7,%sp@+
   245aa:	9f9f           	subl %d7,%sp@+
   245ac:	9f9f           	subl %d7,%sp@+
   245ae:	9f9f           	subl %d7,%sp@+
   245b0:	9f9f           	subl %d7,%sp@+
   245b2:	9f9f           	subl %d7,%sp@+
   245b4:	9f9f           	subl %d7,%sp@+
   245b6:	9f9f           	subl %d7,%sp@+
   245b8:	9f9f           	subl %d7,%sp@+
   245ba:	9f9f           	subl %d7,%sp@+
   245bc:	9f9f           	subl %d7,%sp@+
   245be:	9f9f           	subl %d7,%sp@+
   245c0:	9f9f           	subl %d7,%sp@+
   245c2:	9f9f           	subl %d7,%sp@+
   245c4:	9f9f           	subl %d7,%sp@+
   245c6:	9f9f           	subl %d7,%sp@+
   245c8:	9f9f           	subl %d7,%sp@+
   245ca:	9f9f           	subl %d7,%sp@+
   245cc:	9f9f           	subl %d7,%sp@+
   245ce:	9f9f           	subl %d7,%sp@+
   245d0:	9f9f           	subl %d7,%sp@+
   245d2:	9f9f           	subl %d7,%sp@+
   245d4:	9f9f           	subl %d7,%sp@+
   245d6:	9f9f           	subl %d7,%sp@+
   245d8:	9f9f           	subl %d7,%sp@+
   245da:	9f9f           	subl %d7,%sp@+
   245dc:	9f9f           	subl %d7,%sp@+
   245de:	9f9f           	subl %d7,%sp@+
   245e0:	9f9f           	subl %d7,%sp@+
   245e2:	9f9f           	subl %d7,%sp@+
   245e4:	9f9f           	subl %d7,%sp@+
   245e6:	9f9f           	subl %d7,%sp@+
   245e8:	2e2e 2929      	movel %fp@(10537),%d7
   245ec:	2929 2929      	movel %a1@(10537),%a4@-
   245f0:	2929 2929      	movel %a1@(10537),%a4@-
   245f4:	2929 2929      	movel %a1@(10537),%a4@-
   245f8:	2929 2929      	movel %a1@(10537),%a4@-
   245fc:	292b 2c2d      	movel %a3@(11309),%a4@-
   24600:	2e2e 2e2e      	movel %fp@(11822),%d7
   24604:	2e2e 2e2e      	movel %fp@(11822),%d7
   24608:	2e2e 2e2e      	movel %fp@(11822),%d7
   2460c:	2e2e 2e2e      	movel %fp@(11822),%d7
   24610:	2e2e 2e2e      	movel %fp@(11822),%d7
   24614:	2e2e 2e2e      	movel %fp@(11822),%d7
   24618:	2e2e 2e2e      	movel %fp@(11822),%d7
   2461c:	2e2e 2e2e      	movel %fp@(11822),%d7
   24620:	2e2e 2e2e      	movel %fp@(11822),%d7
   24624:	2e2e 2e2e      	movel %fp@(11822),%d7
   24628:	2e2e 2e2e      	movel %fp@(11822),%d7
   2462c:	2929 2929      	movel %a1@(10537),%a4@-
   24630:	2929 2929      	movel %a1@(10537),%a4@-
   24634:	292b 2c2d      	movel %a3@(11309),%a4@-
   24638:	2e2e 2e2e      	movel %fp@(11822),%d7
   2463c:	2e2e 2e2e      	movel %fp@(11822),%d7
   24640:	2e2e 2e2e      	movel %fp@(11822),%d7
   24644:	2e2e 2e2e      	movel %fp@(11822),%d7
   24648:	2e2e 2e2e      	movel %fp@(11822),%d7
   2464c:	2e2e 2e2e      	movel %fp@(11822),%d7
   24650:	2e2e 2e2e      	movel %fp@(11822),%d7
   24654:	2e2e 2e2e      	movel %fp@(11822),%d7
   24658:	2e2e 2e2e      	movel %fp@(11822),%d7
   2465c:	2e2e 2e2e      	movel %fp@(11822),%d7
   24660:	2e2e 2e2e      	movel %fp@(11822),%d7
   24664:	2e2e 2e2e      	movel %fp@(11822),%d7
   24668:	2e2e 2e2e      	movel %fp@(11822),%d7
   2466c:	2e2e 2e2e      	movel %fp@(11822),%d7
   24670:	2e2e 2e2e      	movel %fp@(11822),%d7
   24674:	2e2e 2e2e      	movel %fp@(11822),%d7
   24678:	2e2e 2e2e      	movel %fp@(11822),%d7
   2467c:	2e2e 2e2e      	movel %fp@(11822),%d7
   24680:	2e2e 2e2e      	movel %fp@(11822),%d7
   24684:	2e2e 2e2e      	movel %fp@(11822),%d7
   24688:	2e2e 2e2e      	movel %fp@(11822),%d7
   2468c:	2e2e 2e2e      	movel %fp@(11822),%d7
   24690:	2e2e 2e2e      	movel %fp@(11822),%d7
   24694:	2e2e 2e2e      	movel %fp@(11822),%d7
   24698:	2e2e 2e2e      	movel %fp@(11822),%d7
   2469c:	2e2e 2e2e      	movel %fp@(11822),%d7
   246a0:	2e2e 2e2e      	movel %fp@(11822),%d7
   246a4:	2e2e 2e2e      	movel %fp@(11822),%d7
   246a8:	2e2e 2e2e      	movel %fp@(11822),%d7
   246ac:	2e2e 2e2e      	movel %fp@(11822),%d7
   246b0:	2e2e 2e2e      	movel %fp@(11822),%d7
   246b4:	2e2e 2e2e      	movel %fp@(11822),%d7
   246b8:	2e2e 2e2e      	movel %fp@(11822),%d7
   246bc:	2e2e 2e2e      	movel %fp@(11822),%d7
   246c0:	2e2e 2e2e      	movel %fp@(11822),%d7
   246c4:	2e2e 2e2e      	movel %fp@(11822),%d7
   246c8:	2e2e 2e2e      	movel %fp@(11822),%d7
   246cc:	2e2e 2e2e      	movel %fp@(11822),%d7
   246d0:	2e2e 2e2e      	movel %fp@(11822),%d7
   246d4:	2e2e 2e2e      	movel %fp@(11822),%d7
   246d8:	2e2e 2e2e      	movel %fp@(11822),%d7
   246dc:	2e2e 2e2e      	movel %fp@(11822),%d7
   246e0:	2e2e 2929      	movel %fp@(10537),%d7
   246e4:	2929 2b2c      	movel %a1@(11052),%a4@-
   246e8:	2d2e 2e2e      	movel %fp@(11822),%fp@-
   246ec:	2e2e 2e2e      	movel %fp@(11822),%d7
   246f0:	2e2e 2e2e      	movel %fp@(11822),%d7
   246f4:	2e2e 2e2e      	movel %fp@(11822),%d7
   246f8:	2e2e 2e2e      	movel %fp@(11822),%d7
   246fc:	2e2e 2e2e      	movel %fp@(11822),%d7
   24700:	2e2e 2e2e      	movel %fp@(11822),%d7
   24704:	2e2e 2e2e      	movel %fp@(11822),%d7
   24708:	2e2e 2e2e      	movel %fp@(11822),%d7
   2470c:	2e2e 2e2e      	movel %fp@(11822),%d7
   24710:	2e2e 2e2e      	movel %fp@(11822),%d7
   24714:	2e2e 2e2e      	movel %fp@(11822),%d7
   24718:	2e2e 2e2e      	movel %fp@(11822),%d7
   2471c:	2e2e 2e2e      	movel %fp@(11822),%d7
   24720:	2e2e 2e2e      	movel %fp@(11822),%d7
   24724:	2e2e 2e2e      	movel %fp@(11822),%d7
   24728:	2e2e 2929      	movel %fp@(10537),%d7
   2472c:	2929 2929      	movel %a1@(10537),%a4@-
   24730:	2929 2929      	movel %a1@(10537),%a4@-
   24734:	2929 2929      	movel %a1@(10537),%a4@-
   24738:	2929 2929      	movel %a1@(10537),%a4@-
   2473c:	2929 292b      	movel %a1@(10539),%a4@-
   24740:	2c2d 2e2e      	movel %a5@(11822),%d6
   24744:	2e2e 2e2e      	movel %fp@(11822),%d7
   24748:	2e2e 2e2e      	movel %fp@(11822),%d7
   2474c:	2e2e 2e2e      	movel %fp@(11822),%d7
   24750:	2e2e 2e2e      	movel %fp@(11822),%d7
   24754:	2e2e 2e2e      	movel %fp@(11822),%d7
   24758:	2e2e 2e2e      	movel %fp@(11822),%d7
   2475c:	2e2e 2e2e      	movel %fp@(11822),%d7
   24760:	2e2e 2e2e      	movel %fp@(11822),%d7
   24764:	2e2e 2e2e      	movel %fp@(11822),%d7
   24768:	2e2e 2e2e      	movel %fp@(11822),%d7
   2476c:	2929 2929      	movel %a1@(10537),%a4@-
   24770:	2929 2929      	movel %a1@(10537),%a4@-
   24774:	2929 292b      	movel %a1@(10539),%a4@-
   24778:	2c2d 2e2e      	movel %a5@(11822),%d6
   2477c:	2e2e 2e2e      	movel %fp@(11822),%d7
   24780:	2e2e 2e2e      	movel %fp@(11822),%d7
   24784:	2e2e 2e2e      	movel %fp@(11822),%d7
   24788:	2e2e 2e2e      	movel %fp@(11822),%d7
   2478c:	2e2e 2e2e      	movel %fp@(11822),%d7
   24790:	2e2e 2e2e      	movel %fp@(11822),%d7
   24794:	2e2e 2e2e      	movel %fp@(11822),%d7
   24798:	2e2e 2e2e      	movel %fp@(11822),%d7
   2479c:	2e2e 2e2e      	movel %fp@(11822),%d7
   247a0:	2e2e 2e2e      	movel %fp@(11822),%d7
   247a4:	2e2e 2e2e      	movel %fp@(11822),%d7
   247a8:	2e2e 2e2e      	movel %fp@(11822),%d7
   247ac:	2e2e 2e2e      	movel %fp@(11822),%d7
   247b0:	2e2e 2e2e      	movel %fp@(11822),%d7
   247b4:	2e2e 2e2e      	movel %fp@(11822),%d7
   247b8:	2e2e 2e2e      	movel %fp@(11822),%d7
   247bc:	2e2e 2e2e      	movel %fp@(11822),%d7
   247c0:	2e2e 2e2e      	movel %fp@(11822),%d7
   247c4:	2e2e 2e2e      	movel %fp@(11822),%d7
   247c8:	2e2e 2e2e      	movel %fp@(11822),%d7
   247cc:	2e2e 2e2e      	movel %fp@(11822),%d7
   247d0:	2e2e 2e2e      	movel %fp@(11822),%d7
   247d4:	2e2e 2e2e      	movel %fp@(11822),%d7
   247d8:	2e2e 2e2e      	movel %fp@(11822),%d7
   247dc:	2e2e 2e2e      	movel %fp@(11822),%d7
   247e0:	2e2e 2e2e      	movel %fp@(11822),%d7
   247e4:	2e2e 2e2e      	movel %fp@(11822),%d7
   247e8:	2e2e 2e2e      	movel %fp@(11822),%d7
   247ec:	2e2e 2e2e      	movel %fp@(11822),%d7
   247f0:	2e2e 2e2e      	movel %fp@(11822),%d7
   247f4:	2e2e 2e2e      	movel %fp@(11822),%d7
   247f8:	2e2e 2e2e      	movel %fp@(11822),%d7
   247fc:	2e2e 2e2e      	movel %fp@(11822),%d7
   24800:	2e2e 2e2e      	movel %fp@(11822),%d7
   24804:	2e2e 2e2e      	movel %fp@(11822),%d7
   24808:	2e2e 2e2e      	movel %fp@(11822),%d7
   2480c:	2e2e 2e2e      	movel %fp@(11822),%d7
   24810:	2e2e 2e2e      	movel %fp@(11822),%d7
   24814:	2e2e 2e2e      	movel %fp@(11822),%d7
   24818:	2e2e 2e2e      	movel %fp@(11822),%d7
   2481c:	2e2e 2e2e      	movel %fp@(11822),%d7
   24820:	2e2e 2929      	movel %fp@(10537),%d7
   24824:	2929 2929      	movel %a1@(10537),%a4@-
   24828:	2b2c 2d2e      	movel %a4@(11566),%a5@-
   2482c:	2e2e 2e2e      	movel %fp@(11822),%d7
   24830:	2e2e 2e2e      	movel %fp@(11822),%d7
   24834:	2e2e 2e2e      	movel %fp@(11822),%d7
   24838:	2e2e 2e2e      	movel %fp@(11822),%d7
   2483c:	2e2e 2e2e      	movel %fp@(11822),%d7
   24840:	2e2e 2e2e      	movel %fp@(11822),%d7
   24844:	2e2e 2e2e      	movel %fp@(11822),%d7
   24848:	2e2e 2e2e      	movel %fp@(11822),%d7
   2484c:	2e2e 2e2e      	movel %fp@(11822),%d7
   24850:	2e2e 2e2e      	movel %fp@(11822),%d7
   24854:	2e2e 2e2e      	movel %fp@(11822),%d7
   24858:	2e2e 2e2e      	movel %fp@(11822),%d7
   2485c:	2e2e 2e2e      	movel %fp@(11822),%d7
   24860:	2e2e 2e2e      	movel %fp@(11822),%d7
   24864:	2e2e 2e2e      	movel %fp@(11822),%d7
   24868:	2e2e 2929      	movel %fp@(10537),%d7
   2486c:	2929 2929      	movel %a1@(10537),%a4@-
   24870:	2929 2929      	movel %a1@(10537),%a4@-
   24874:	2929 2929      	movel %a1@(10537),%a4@-
   24878:	2929 2929      	movel %a1@(10537),%a4@-
   2487c:	2929 2929      	movel %a1@(10537),%a4@-
   24880:	2929 2929      	movel %a1@(10537),%a4@-
   24884:	2929 2929      	movel %a1@(10537),%a4@-
   24888:	2929 2929      	movel %a1@(10537),%a4@-
   2488c:	2929 2929      	movel %a1@(10537),%a4@-
   24890:	2929 2929      	movel %a1@(10537),%a4@-
   24894:	2929 2929      	movel %a1@(10537),%a4@-
   24898:	2929 2929      	movel %a1@(10537),%a4@-
   2489c:	2929 2929      	movel %a1@(10537),%a4@-
   248a0:	2929 2929      	movel %a1@(10537),%a4@-
   248a4:	2929 2929      	movel %a1@(10537),%a4@-
   248a8:	2929 2929      	movel %a1@(10537),%a4@-
   248ac:	2929 2929      	movel %a1@(10537),%a4@-
   248b0:	2929 2929      	movel %a1@(10537),%a4@-
   248b4:	2929 2929      	movel %a1@(10537),%a4@-
   248b8:	2929 2929      	movel %a1@(10537),%a4@-
   248bc:	2929 2929      	movel %a1@(10537),%a4@-
   248c0:	2929 2929      	movel %a1@(10537),%a4@-
   248c4:	2929 2929      	movel %a1@(10537),%a4@-
   248c8:	2929 2929      	movel %a1@(10537),%a4@-
   248cc:	2929 2929      	movel %a1@(10537),%a4@-
   248d0:	2929 2929      	movel %a1@(10537),%a4@-
   248d4:	2929 2929      	movel %a1@(10537),%a4@-
   248d8:	2929 2929      	movel %a1@(10537),%a4@-
   248dc:	2929 2929      	movel %a1@(10537),%a4@-
   248e0:	2929 2929      	movel %a1@(10537),%a4@-
   248e4:	2929 2929      	movel %a1@(10537),%a4@-
   248e8:	2929 2929      	movel %a1@(10537),%a4@-
   248ec:	2929 2929      	movel %a1@(10537),%a4@-
   248f0:	2929 2929      	movel %a1@(10537),%a4@-
   248f4:	2929 2929      	movel %a1@(10537),%a4@-
   248f8:	2929 2929      	movel %a1@(10537),%a4@-
   248fc:	2929 2929      	movel %a1@(10537),%a4@-
   24900:	2929 2929      	movel %a1@(10537),%a4@-
   24904:	2929 2929      	movel %a1@(10537),%a4@-
   24908:	2929 2929      	movel %a1@(10537),%a4@-
   2490c:	2929 2929      	movel %a1@(10537),%a4@-
   24910:	2929 2929      	movel %a1@(10537),%a4@-
   24914:	2929 2929      	movel %a1@(10537),%a4@-
   24918:	2929 2929      	movel %a1@(10537),%a4@-
   2491c:	2929 2929      	movel %a1@(10537),%a4@-
   24920:	2929 2929      	movel %a1@(10537),%a4@-
   24924:	2929 2929      	movel %a1@(10537),%a4@-
   24928:	2929 2929      	movel %a1@(10537),%a4@-
   2492c:	2929 2929      	movel %a1@(10537),%a4@-
   24930:	2929 2929      	movel %a1@(10537),%a4@-
   24934:	2929 2929      	movel %a1@(10537),%a4@-
   24938:	2929 2929      	movel %a1@(10537),%a4@-
   2493c:	2929 2929      	movel %a1@(10537),%a4@-
   24940:	2929 2929      	movel %a1@(10537),%a4@-
   24944:	2929 2929      	movel %a1@(10537),%a4@-
   24948:	2929 2929      	movel %a1@(10537),%a4@-
   2494c:	2929 2929      	movel %a1@(10537),%a4@-
   24950:	2929 2929      	movel %a1@(10537),%a4@-
   24954:	2929 2929      	movel %a1@(10537),%a4@-
   24958:	2929 2929      	movel %a1@(10537),%a4@-
   2495c:	2929 2929      	movel %a1@(10537),%a4@-
   24960:	2929 2929      	movel %a1@(10537),%a4@-
   24964:	2929 2929      	movel %a1@(10537),%a4@-
   24968:	2929 2929      	movel %a1@(10537),%a4@-
   2496c:	2929 2929      	movel %a1@(10537),%a4@-
   24970:	2929 2929      	movel %a1@(10537),%a4@-
   24974:	2929 2929      	movel %a1@(10537),%a4@-
   24978:	2929 2929      	movel %a1@(10537),%a4@-
   2497c:	2929 2929      	movel %a1@(10537),%a4@-
   24980:	2929 2929      	movel %a1@(10537),%a4@-
   24984:	2929 2929      	movel %a1@(10537),%a4@-
   24988:	2929 2929      	movel %a1@(10537),%a4@-
   2498c:	2929 2929      	movel %a1@(10537),%a4@-
   24990:	2929 2929      	movel %a1@(10537),%a4@-
   24994:	2929 2929      	movel %a1@(10537),%a4@-
   24998:	2929 2929      	movel %a1@(10537),%a4@-
   2499c:	2929 2929      	movel %a1@(10537),%a4@-
   249a0:	2929 2929      	movel %a1@(10537),%a4@-
   249a4:	2929 2929      	movel %a1@(10537),%a4@-
   249a8:	2929 2929      	movel %a1@(10537),%a4@-
   249ac:	2929 2929      	movel %a1@(10537),%a4@-
   249b0:	2929 2929      	movel %a1@(10537),%a4@-
   249b4:	2929 2929      	movel %a1@(10537),%a4@-
   249b8:	2929 2929      	movel %a1@(10537),%a4@-
   249bc:	2929 2929      	movel %a1@(10537),%a4@-
   249c0:	2929 2929      	movel %a1@(10537),%a4@-
   249c4:	2929 2929      	movel %a1@(10537),%a4@-
   249c8:	2929 2929      	movel %a1@(10537),%a4@-
   249cc:	2929 2929      	movel %a1@(10537),%a4@-
   249d0:	2929 2929      	movel %a1@(10537),%a4@-
   249d4:	2929 2929      	movel %a1@(10537),%a4@-
   249d8:	2929 2929      	movel %a1@(10537),%a4@-
   249dc:	2929 2929      	movel %a1@(10537),%a4@-
   249e0:	2929 2929      	movel %a1@(10537),%a4@-
   249e4:	2929 2929      	movel %a1@(10537),%a4@-
   249e8:	2929 2929      	movel %a1@(10537),%a4@-
   249ec:	2929 2929      	movel %a1@(10537),%a4@-
   249f0:	2929 2929      	movel %a1@(10537),%a4@-
   249f4:	2929 2929      	movel %a1@(10537),%a4@-
   249f8:	2929 2929      	movel %a1@(10537),%a4@-
   249fc:	2929 2929      	movel %a1@(10537),%a4@-
   24a00:	2929 2929      	movel %a1@(10537),%a4@-
   24a04:	2929 2929      	movel %a1@(10537),%a4@-
   24a08:	2929 2929      	movel %a1@(10537),%a4@-
   24a0c:	2929 2929      	movel %a1@(10537),%a4@-
   24a10:	2929 2929      	movel %a1@(10537),%a4@-
   24a14:	2929 2929      	movel %a1@(10537),%a4@-
   24a18:	2929 2929      	movel %a1@(10537),%a4@-
   24a1c:	2929 2929      	movel %a1@(10537),%a4@-
   24a20:	2929 2929      	movel %a1@(10537),%a4@-
   24a24:	2929 2929      	movel %a1@(10537),%a4@-
   24a28:	2929 2929      	movel %a1@(10537),%a4@-
   24a2c:	2929 2929      	movel %a1@(10537),%a4@-
   24a30:	2929 2929      	movel %a1@(10537),%a4@-
   24a34:	2929 2929      	movel %a1@(10537),%a4@-
   24a38:	2929 2929      	movel %a1@(10537),%a4@-
   24a3c:	2929 2929      	movel %a1@(10537),%a4@-
   24a40:	2929 2929      	movel %a1@(10537),%a4@-
   24a44:	2929 2929      	movel %a1@(10537),%a4@-
   24a48:	2929 2929      	movel %a1@(10537),%a4@-
   24a4c:	2929 2929      	movel %a1@(10537),%a4@-
   24a50:	2929 2929      	movel %a1@(10537),%a4@-
   24a54:	2929 2929      	movel %a1@(10537),%a4@-
   24a58:	2929 2929      	movel %a1@(10537),%a4@-
   24a5c:	2929 2929      	movel %a1@(10537),%a4@-
   24a60:	2929 2929      	movel %a1@(10537),%a4@-
   24a64:	2929 2929      	movel %a1@(10537),%a4@-
   24a68:	2929 2929      	movel %a1@(10537),%a4@-
   24a6c:	2929 2929      	movel %a1@(10537),%a4@-
   24a70:	2929 2929      	movel %a1@(10537),%a4@-
   24a74:	2929 2929      	movel %a1@(10537),%a4@-
   24a78:	2929 2929      	movel %a1@(10537),%a4@-
   24a7c:	2929 2929      	movel %a1@(10537),%a4@-
   24a80:	2929 2929      	movel %a1@(10537),%a4@-
   24a84:	2929 2929      	movel %a1@(10537),%a4@-
   24a88:	2929 2929      	movel %a1@(10537),%a4@-
   24a8c:	2929 2929      	movel %a1@(10537),%a4@-
   24a90:	2929 2929      	movel %a1@(10537),%a4@-
   24a94:	2929 2929      	movel %a1@(10537),%a4@-
   24a98:	2929 2929      	movel %a1@(10537),%a4@-
   24a9c:	2929 2929      	movel %a1@(10537),%a4@-
   24aa0:	2929 2929      	movel %a1@(10537),%a4@-
   24aa4:	2929 2929      	movel %a1@(10537),%a4@-
   24aa8:	2929 2929      	movel %a1@(10537),%a4@-
   24aac:	2929 2929      	movel %a1@(10537),%a4@-
   24ab0:	2929 2929      	movel %a1@(10537),%a4@-
   24ab4:	2929 2929      	movel %a1@(10537),%a4@-
   24ab8:	2929 2929      	movel %a1@(10537),%a4@-
   24abc:	2929 2929      	movel %a1@(10537),%a4@-
   24ac0:	2929 2929      	movel %a1@(10537),%a4@-
   24ac4:	2929 2929      	movel %a1@(10537),%a4@-
   24ac8:	2929 2929      	movel %a1@(10537),%a4@-
   24acc:	2929 2929      	movel %a1@(10537),%a4@-
   24ad0:	2929 2929      	movel %a1@(10537),%a4@-
   24ad4:	2929 2929      	movel %a1@(10537),%a4@-
   24ad8:	2929 2929      	movel %a1@(10537),%a4@-
   24adc:	2929 2929      	movel %a1@(10537),%a4@-
   24ae0:	2929 2929      	movel %a1@(10537),%a4@-
   24ae4:	2929 2929      	movel %a1@(10537),%a4@-
   24ae8:	2929 2929      	movel %a1@(10537),%a4@-
   24aec:	2929 2929      	movel %a1@(10537),%a4@-
   24af0:	2929 2929      	movel %a1@(10537),%a4@-
   24af4:	2929 2929      	movel %a1@(10537),%a4@-
   24af8:	2929 2929      	movel %a1@(10537),%a4@-
   24afc:	2929 2929      	movel %a1@(10537),%a4@-
   24b00:	2929 2929      	movel %a1@(10537),%a4@-
   24b04:	2929 2929      	movel %a1@(10537),%a4@-
   24b08:	2929 2929      	movel %a1@(10537),%a4@-
   24b0c:	2929 2929      	movel %a1@(10537),%a4@-
   24b10:	2929 2929      	movel %a1@(10537),%a4@-
   24b14:	2929 2929      	movel %a1@(10537),%a4@-
   24b18:	2929 2929      	movel %a1@(10537),%a4@-
   24b1c:	2929 2929      	movel %a1@(10537),%a4@-
   24b20:	2929 2929      	movel %a1@(10537),%a4@-
   24b24:	2929 2929      	movel %a1@(10537),%a4@-
   24b28:	2929 2929      	movel %a1@(10537),%a4@-
   24b2c:	2929 2929      	movel %a1@(10537),%a4@-
   24b30:	2929 2929      	movel %a1@(10537),%a4@-
   24b34:	2929 2929      	movel %a1@(10537),%a4@-
   24b38:	2929 2929      	movel %a1@(10537),%a4@-
   24b3c:	2929 2929      	movel %a1@(10537),%a4@-
   24b40:	2929 2929      	movel %a1@(10537),%a4@-
   24b44:	2929 2929      	movel %a1@(10537),%a4@-
   24b48:	2929 2929      	movel %a1@(10537),%a4@-
   24b4c:	2929 2929      	movel %a1@(10537),%a4@-
   24b50:	2929 2929      	movel %a1@(10537),%a4@-
   24b54:	2929 2929      	movel %a1@(10537),%a4@-
   24b58:	2929 2929      	movel %a1@(10537),%a4@-
   24b5c:	2929 2929      	movel %a1@(10537),%a4@-
   24b60:	2929 2929      	movel %a1@(10537),%a4@-
   24b64:	2929 2929      	movel %a1@(10537),%a4@-
   24b68:	2929 2929      	movel %a1@(10537),%a4@-
   24b6c:	2929 2929      	movel %a1@(10537),%a4@-
   24b70:	2929 2929      	movel %a1@(10537),%a4@-
   24b74:	2929 2929      	movel %a1@(10537),%a4@-
   24b78:	2929 2929      	movel %a1@(10537),%a4@-
   24b7c:	2929 2929      	movel %a1@(10537),%a4@-
   24b80:	2929 2929      	movel %a1@(10537),%a4@-
   24b84:	2929 2929      	movel %a1@(10537),%a4@-
   24b88:	2929 2929      	movel %a1@(10537),%a4@-
   24b8c:	2929 2929      	movel %a1@(10537),%a4@-
   24b90:	2929 2929      	movel %a1@(10537),%a4@-
   24b94:	2929 2929      	movel %a1@(10537),%a4@-
   24b98:	2929 2929      	movel %a1@(10537),%a4@-
   24b9c:	2929 2929      	movel %a1@(10537),%a4@-
   24ba0:	2929 2929      	movel %a1@(10537),%a4@-
   24ba4:	2929 2929      	movel %a1@(10537),%a4@-
   24ba8:	2929 2929      	movel %a1@(10537),%a4@-
   24bac:	2929 2929      	movel %a1@(10537),%a4@-
   24bb0:	2929 2929      	movel %a1@(10537),%a4@-
   24bb4:	2929 2929      	movel %a1@(10537),%a4@-
   24bb8:	2929 2929      	movel %a1@(10537),%a4@-
   24bbc:	2929 2929      	movel %a1@(10537),%a4@-
   24bc0:	2929 2929      	movel %a1@(10537),%a4@-
   24bc4:	2929 2929      	movel %a1@(10537),%a4@-
   24bc8:	2929 2929      	movel %a1@(10537),%a4@-
   24bcc:	2929 2929      	movel %a1@(10537),%a4@-
   24bd0:	2929 2929      	movel %a1@(10537),%a4@-
   24bd4:	2929 2929      	movel %a1@(10537),%a4@-
   24bd8:	2929 2929      	movel %a1@(10537),%a4@-
   24bdc:	2929 2929      	movel %a1@(10537),%a4@-
   24be0:	2929 2929      	movel %a1@(10537),%a4@-
   24be4:	2929 2929      	movel %a1@(10537),%a4@-
   24be8:	2929 2929      	movel %a1@(10537),%a4@-
   24bec:	2929 2929      	movel %a1@(10537),%a4@-
   24bf0:	2929 2929      	movel %a1@(10537),%a4@-
   24bf4:	2929 2929      	movel %a1@(10537),%a4@-
   24bf8:	2929 2929      	movel %a1@(10537),%a4@-
   24bfc:	2929 2929      	movel %a1@(10537),%a4@-
   24c00:	2929 2929      	movel %a1@(10537),%a4@-
   24c04:	2929 2929      	movel %a1@(10537),%a4@-
   24c08:	2929 2929      	movel %a1@(10537),%a4@-
   24c0c:	2929 2929      	movel %a1@(10537),%a4@-
   24c10:	2929 2929      	movel %a1@(10537),%a4@-
   24c14:	2929 2929      	movel %a1@(10537),%a4@-
   24c18:	2929 2929      	movel %a1@(10537),%a4@-
   24c1c:	2929 2929      	movel %a1@(10537),%a4@-
   24c20:	2929 2929      	movel %a1@(10537),%a4@-
   24c24:	2929 2929      	movel %a1@(10537),%a4@-
   24c28:	2929 2929      	movel %a1@(10537),%a4@-
   24c2c:	2929 2929      	movel %a1@(10537),%a4@-
   24c30:	2929 2929      	movel %a1@(10537),%a4@-
   24c34:	2929 2929      	movel %a1@(10537),%a4@-
   24c38:	2929 2929      	movel %a1@(10537),%a4@-
   24c3c:	2929 2929      	movel %a1@(10537),%a4@-
   24c40:	2929 2929      	movel %a1@(10537),%a4@-
   24c44:	2929 2929      	movel %a1@(10537),%a4@-
   24c48:	2929 2929      	movel %a1@(10537),%a4@-
   24c4c:	2929 2929      	movel %a1@(10537),%a4@-
   24c50:	2929 2929      	movel %a1@(10537),%a4@-
   24c54:	2929 2929      	movel %a1@(10537),%a4@-
   24c58:	2929 2929      	movel %a1@(10537),%a4@-
   24c5c:	2929 2929      	movel %a1@(10537),%a4@-
   24c60:	2929 2929      	movel %a1@(10537),%a4@-
   24c64:	2929 2929      	movel %a1@(10537),%a4@-
   24c68:	2929 2929      	movel %a1@(10537),%a4@-
   24c6c:	2929 2929      	movel %a1@(10537),%a4@-
   24c70:	2929 2929      	movel %a1@(10537),%a4@-
   24c74:	2929 2929      	movel %a1@(10537),%a4@-
   24c78:	2929 2929      	movel %a1@(10537),%a4@-
   24c7c:	2929 2929      	movel %a1@(10537),%a4@-
   24c80:	2929 2929      	movel %a1@(10537),%a4@-
   24c84:	2929 2929      	movel %a1@(10537),%a4@-
   24c88:	2929 2929      	movel %a1@(10537),%a4@-
   24c8c:	2929 2929      	movel %a1@(10537),%a4@-
   24c90:	2929 2929      	movel %a1@(10537),%a4@-
   24c94:	2929 2929      	movel %a1@(10537),%a4@-
   24c98:	2929 2929      	movel %a1@(10537),%a4@-
   24c9c:	2929 2929      	movel %a1@(10537),%a4@-
   24ca0:	2929 2929      	movel %a1@(10537),%a4@-
   24ca4:	2929 2929      	movel %a1@(10537),%a4@-
   24ca8:	2929 2929      	movel %a1@(10537),%a4@-
   24cac:	2929 2929      	movel %a1@(10537),%a4@-
   24cb0:	2929 2929      	movel %a1@(10537),%a4@-
   24cb4:	2929 2929      	movel %a1@(10537),%a4@-
   24cb8:	2929 2929      	movel %a1@(10537),%a4@-
   24cbc:	2929 2929      	movel %a1@(10537),%a4@-
   24cc0:	2929 2929      	movel %a1@(10537),%a4@-
   24cc4:	2929 2929      	movel %a1@(10537),%a4@-
   24cc8:	2929 2929      	movel %a1@(10537),%a4@-
   24ccc:	2929 2929      	movel %a1@(10537),%a4@-
   24cd0:	2929 2929      	movel %a1@(10537),%a4@-
   24cd4:	2929 2929      	movel %a1@(10537),%a4@-
   24cd8:	2929 2929      	movel %a1@(10537),%a4@-
   24cdc:	2929 2929      	movel %a1@(10537),%a4@-
   24ce0:	2929 2929      	movel %a1@(10537),%a4@-
   24ce4:	2929 2929      	movel %a1@(10537),%a4@-
   24ce8:	2929 2929      	movel %a1@(10537),%a4@-
   24cec:	2929 2929      	movel %a1@(10537),%a4@-
   24cf0:	2929 2929      	movel %a1@(10537),%a4@-
   24cf4:	2929 2929      	movel %a1@(10537),%a4@-
   24cf8:	2929 2929      	movel %a1@(10537),%a4@-
   24cfc:	2929 2929      	movel %a1@(10537),%a4@-
   24d00:	2929 2929      	movel %a1@(10537),%a4@-
   24d04:	2929 2929      	movel %a1@(10537),%a4@-
   24d08:	2929 2929      	movel %a1@(10537),%a4@-
   24d0c:	2929 2929      	movel %a1@(10537),%a4@-
   24d10:	2929 2929      	movel %a1@(10537),%a4@-
   24d14:	2929 2929      	movel %a1@(10537),%a4@-
   24d18:	2929 2929      	movel %a1@(10537),%a4@-
   24d1c:	2929 2929      	movel %a1@(10537),%a4@-
   24d20:	2929 2929      	movel %a1@(10537),%a4@-
   24d24:	2929 2929      	movel %a1@(10537),%a4@-
   24d28:	2929 2929      	movel %a1@(10537),%a4@-
   24d2c:	2929 2929      	movel %a1@(10537),%a4@-
   24d30:	2929 2929      	movel %a1@(10537),%a4@-
   24d34:	2929 2929      	movel %a1@(10537),%a4@-
   24d38:	2929 2929      	movel %a1@(10537),%a4@-
   24d3c:	2929 2929      	movel %a1@(10537),%a4@-
   24d40:	2929 2929      	movel %a1@(10537),%a4@-
   24d44:	2929 2929      	movel %a1@(10537),%a4@-
   24d48:	2929 2929      	movel %a1@(10537),%a4@-
   24d4c:	2929 2929      	movel %a1@(10537),%a4@-
   24d50:	2929 2929      	movel %a1@(10537),%a4@-
   24d54:	2929 2929      	movel %a1@(10537),%a4@-
   24d58:	2929 2929      	movel %a1@(10537),%a4@-
   24d5c:	2929 2929      	movel %a1@(10537),%a4@-
   24d60:	2929 2929      	movel %a1@(10537),%a4@-
   24d64:	2929 2929      	movel %a1@(10537),%a4@-
   24d68:	2929 2929      	movel %a1@(10537),%a4@-
   24d6c:	2929 2929      	movel %a1@(10537),%a4@-
   24d70:	2929 2929      	movel %a1@(10537),%a4@-
   24d74:	2929 2929      	movel %a1@(10537),%a4@-
   24d78:	2929 2929      	movel %a1@(10537),%a4@-
   24d7c:	2929 2929      	movel %a1@(10537),%a4@-
   24d80:	2929 2929      	movel %a1@(10537),%a4@-
   24d84:	2929 2929      	movel %a1@(10537),%a4@-
   24d88:	2929 2929      	movel %a1@(10537),%a4@-
   24d8c:	2929 2929      	movel %a1@(10537),%a4@-
   24d90:	2929 2929      	movel %a1@(10537),%a4@-
   24d94:	2929 2929      	movel %a1@(10537),%a4@-
   24d98:	2929 2929      	movel %a1@(10537),%a4@-
   24d9c:	2929 2929      	movel %a1@(10537),%a4@-
   24da0:	2929 2929      	movel %a1@(10537),%a4@-
   24da4:	2929 2929      	movel %a1@(10537),%a4@-
   24da8:	2929 2929      	movel %a1@(10537),%a4@-
   24dac:	2929 2929      	movel %a1@(10537),%a4@-
   24db0:	2929 2929      	movel %a1@(10537),%a4@-
   24db4:	2929 2929      	movel %a1@(10537),%a4@-
   24db8:	2929 2929      	movel %a1@(10537),%a4@-
   24dbc:	2929 2929      	movel %a1@(10537),%a4@-
   24dc0:	2929 2929      	movel %a1@(10537),%a4@-
   24dc4:	2929 2929      	movel %a1@(10537),%a4@-
   24dc8:	2929 2929      	movel %a1@(10537),%a4@-
   24dcc:	2929 2929      	movel %a1@(10537),%a4@-
   24dd0:	2929 2929      	movel %a1@(10537),%a4@-
   24dd4:	2929 2929      	movel %a1@(10537),%a4@-
   24dd8:	2929 2929      	movel %a1@(10537),%a4@-
   24ddc:	2929 2929      	movel %a1@(10537),%a4@-
   24de0:	2929 2929      	movel %a1@(10537),%a4@-
   24de4:	2929 2929      	movel %a1@(10537),%a4@-
   24de8:	2929 2929      	movel %a1@(10537),%a4@-
   24dec:	2929 2929      	movel %a1@(10537),%a4@-
   24df0:	2929 2929      	movel %a1@(10537),%a4@-
   24df4:	2929 2929      	movel %a1@(10537),%a4@-
   24df8:	2929 2929      	movel %a1@(10537),%a4@-
   24dfc:	2929 2929      	movel %a1@(10537),%a4@-
   24e00:	2929 2929      	movel %a1@(10537),%a4@-
   24e04:	2929 2929      	movel %a1@(10537),%a4@-
   24e08:	2929 2929      	movel %a1@(10537),%a4@-
   24e0c:	2929 2929      	movel %a1@(10537),%a4@-
   24e10:	2929 2929      	movel %a1@(10537),%a4@-
   24e14:	2929 2929      	movel %a1@(10537),%a4@-
   24e18:	2929 2929      	movel %a1@(10537),%a4@-
   24e1c:	2929 2929      	movel %a1@(10537),%a4@-
   24e20:	2929 2929      	movel %a1@(10537),%a4@-
   24e24:	2929 2929      	movel %a1@(10537),%a4@-
   24e28:	2929 2929      	movel %a1@(10537),%a4@-
   24e2c:	2929 2929      	movel %a1@(10537),%a4@-
   24e30:	2929 2929      	movel %a1@(10537),%a4@-
   24e34:	2929 2929      	movel %a1@(10537),%a4@-
   24e38:	2929 2929      	movel %a1@(10537),%a4@-
   24e3c:	2929 2929      	movel %a1@(10537),%a4@-
   24e40:	2929 2929      	movel %a1@(10537),%a4@-
   24e44:	2929 2929      	movel %a1@(10537),%a4@-
   24e48:	2929 2929      	movel %a1@(10537),%a4@-
   24e4c:	2929 2929      	movel %a1@(10537),%a4@-
   24e50:	2929 2929      	movel %a1@(10537),%a4@-
   24e54:	2929 2929      	movel %a1@(10537),%a4@-
   24e58:	2929 2929      	movel %a1@(10537),%a4@-
   24e5c:	2929 2929      	movel %a1@(10537),%a4@-
   24e60:	2929 2929      	movel %a1@(10537),%a4@-
   24e64:	2929 2929      	movel %a1@(10537),%a4@-
   24e68:	2929 2929      	movel %a1@(10537),%a4@-
   24e6c:	2929 2929      	movel %a1@(10537),%a4@-
   24e70:	2929 2929      	movel %a1@(10537),%a4@-
   24e74:	2929 2929      	movel %a1@(10537),%a4@-
   24e78:	2929 2929      	movel %a1@(10537),%a4@-
   24e7c:	2929 2929      	movel %a1@(10537),%a4@-
   24e80:	2929 2929      	movel %a1@(10537),%a4@-
   24e84:	2929 2929      	movel %a1@(10537),%a4@-
   24e88:	2929 2929      	movel %a1@(10537),%a4@-
   24e8c:	2929 2929      	movel %a1@(10537),%a4@-
   24e90:	2929 2929      	movel %a1@(10537),%a4@-
   24e94:	2929 2929      	movel %a1@(10537),%a4@-
   24e98:	2929 2929      	movel %a1@(10537),%a4@-
   24e9c:	2929 2929      	movel %a1@(10537),%a4@-
   24ea0:	2929 2929      	movel %a1@(10537),%a4@-
   24ea4:	2929 2929      	movel %a1@(10537),%a4@-
   24ea8:	2929 2929      	movel %a1@(10537),%a4@-
   24eac:	2929 2929      	movel %a1@(10537),%a4@-
   24eb0:	2929 2929      	movel %a1@(10537),%a4@-
   24eb4:	2929 2929      	movel %a1@(10537),%a4@-
   24eb8:	2929 2929      	movel %a1@(10537),%a4@-
   24ebc:	2929 2929      	movel %a1@(10537),%a4@-
   24ec0:	2929 2929      	movel %a1@(10537),%a4@-
   24ec4:	2929 2929      	movel %a1@(10537),%a4@-
   24ec8:	2929 2929      	movel %a1@(10537),%a4@-
   24ecc:	2929 2929      	movel %a1@(10537),%a4@-
   24ed0:	2929 2929      	movel %a1@(10537),%a4@-
   24ed4:	2929 2929      	movel %a1@(10537),%a4@-
   24ed8:	2929 2929      	movel %a1@(10537),%a4@-
   24edc:	2929 2929      	movel %a1@(10537),%a4@-
   24ee0:	2929 2929      	movel %a1@(10537),%a4@-
   24ee4:	2929 2929      	movel %a1@(10537),%a4@-
   24ee8:	2929 2929      	movel %a1@(10537),%a4@-
   24eec:	2929 2929      	movel %a1@(10537),%a4@-
   24ef0:	2929 2929      	movel %a1@(10537),%a4@-
   24ef4:	2929 2929      	movel %a1@(10537),%a4@-
   24ef8:	2929 2929      	movel %a1@(10537),%a4@-
   24efc:	2929 2929      	movel %a1@(10537),%a4@-
   24f00:	2929 2929      	movel %a1@(10537),%a4@-
   24f04:	2929 2929      	movel %a1@(10537),%a4@-
   24f08:	2929 2929      	movel %a1@(10537),%a4@-
   24f0c:	2929 2929      	movel %a1@(10537),%a4@-
   24f10:	2929 2929      	movel %a1@(10537),%a4@-
   24f14:	2929 2929      	movel %a1@(10537),%a4@-
   24f18:	2929 2929      	movel %a1@(10537),%a4@-
   24f1c:	2929 2929      	movel %a1@(10537),%a4@-
   24f20:	2929 2929      	movel %a1@(10537),%a4@-
   24f24:	2929 2929      	movel %a1@(10537),%a4@-
   24f28:	2929 2929      	movel %a1@(10537),%a4@-
   24f2c:	2929 2929      	movel %a1@(10537),%a4@-
   24f30:	2929 2929      	movel %a1@(10537),%a4@-
   24f34:	2929 2929      	movel %a1@(10537),%a4@-
   24f38:	2929 2929      	movel %a1@(10537),%a4@-
   24f3c:	2929 2929      	movel %a1@(10537),%a4@-
   24f40:	2929 2929      	movel %a1@(10537),%a4@-
   24f44:	2929 2929      	movel %a1@(10537),%a4@-
   24f48:	2929 2929      	movel %a1@(10537),%a4@-
   24f4c:	2929 2929      	movel %a1@(10537),%a4@-
   24f50:	2929 2929      	movel %a1@(10537),%a4@-
   24f54:	2929 2929      	movel %a1@(10537),%a4@-
   24f58:	2929 2929      	movel %a1@(10537),%a4@-
   24f5c:	2929 2929      	movel %a1@(10537),%a4@-
   24f60:	2929 2929      	movel %a1@(10537),%a4@-
   24f64:	2929 2929      	movel %a1@(10537),%a4@-
   24f68:	2929 2929      	movel %a1@(10537),%a4@-
   24f6c:	2929 2929      	movel %a1@(10537),%a4@-
   24f70:	2929 2929      	movel %a1@(10537),%a4@-
   24f74:	2929 2929      	movel %a1@(10537),%a4@-
   24f78:	2929 2929      	movel %a1@(10537),%a4@-
   24f7c:	2929 2929      	movel %a1@(10537),%a4@-
   24f80:	2929 2929      	movel %a1@(10537),%a4@-
   24f84:	2929 2929      	movel %a1@(10537),%a4@-
   24f88:	2929 2929      	movel %a1@(10537),%a4@-
   24f8c:	2929 2929      	movel %a1@(10537),%a4@-
   24f90:	2929 2929      	movel %a1@(10537),%a4@-
   24f94:	2929 2929      	movel %a1@(10537),%a4@-
   24f98:	2929 2929      	movel %a1@(10537),%a4@-
   24f9c:	2929 2929      	movel %a1@(10537),%a4@-
   24fa0:	2929 2929      	movel %a1@(10537),%a4@-
   24fa4:	2929 2929      	movel %a1@(10537),%a4@-
   24fa8:	2929 2929      	movel %a1@(10537),%a4@-
   24fac:	2929 2929      	movel %a1@(10537),%a4@-
   24fb0:	2929 2929      	movel %a1@(10537),%a4@-
   24fb4:	2929 2929      	movel %a1@(10537),%a4@-
   24fb8:	2929 2929      	movel %a1@(10537),%a4@-
   24fbc:	2929 2929      	movel %a1@(10537),%a4@-
   24fc0:	2929 2929      	movel %a1@(10537),%a4@-
   24fc4:	2929 2929      	movel %a1@(10537),%a4@-
   24fc8:	2929 2929      	movel %a1@(10537),%a4@-
   24fcc:	2929 2929      	movel %a1@(10537),%a4@-
   24fd0:	2929 2929      	movel %a1@(10537),%a4@-
   24fd4:	2929 2929      	movel %a1@(10537),%a4@-
   24fd8:	2929 2929      	movel %a1@(10537),%a4@-
   24fdc:	2929 2929      	movel %a1@(10537),%a4@-
   24fe0:	2929 2929      	movel %a1@(10537),%a4@-
   24fe4:	2929 2929      	movel %a1@(10537),%a4@-
   24fe8:	2929 2929      	movel %a1@(10537),%a4@-
   24fec:	2929 2929      	movel %a1@(10537),%a4@-
   24ff0:	2929 2929      	movel %a1@(10537),%a4@-
   24ff4:	2929 2929      	movel %a1@(10537),%a4@-
   24ff8:	2929 2929      	movel %a1@(10537),%a4@-
   24ffc:	2929 2929      	movel %a1@(10537),%a4@-
   25000:	2929 2929      	movel %a1@(10537),%a4@-
   25004:	2929 2929      	movel %a1@(10537),%a4@-
   25008:	2929 2929      	movel %a1@(10537),%a4@-
   2500c:	2929 2929      	movel %a1@(10537),%a4@-
   25010:	2929 2929      	movel %a1@(10537),%a4@-
   25014:	2929 2929      	movel %a1@(10537),%a4@-
   25018:	2929 2929      	movel %a1@(10537),%a4@-
   2501c:	2929 2929      	movel %a1@(10537),%a4@-
   25020:	2929 2929      	movel %a1@(10537),%a4@-
   25024:	2929 2929      	movel %a1@(10537),%a4@-
   25028:	2929 2929      	movel %a1@(10537),%a4@-
   2502c:	2929 2929      	movel %a1@(10537),%a4@-
   25030:	2929 2929      	movel %a1@(10537),%a4@-
   25034:	2929 2929      	movel %a1@(10537),%a4@-
   25038:	2929 2929      	movel %a1@(10537),%a4@-
   2503c:	2929 2929      	movel %a1@(10537),%a4@-
   25040:	2929 2929      	movel %a1@(10537),%a4@-
   25044:	2929 2929      	movel %a1@(10537),%a4@-
   25048:	2929 2929      	movel %a1@(10537),%a4@-
   2504c:	2929 2929      	movel %a1@(10537),%a4@-
   25050:	2929 2929      	movel %a1@(10537),%a4@-
   25054:	2929 2929      	movel %a1@(10537),%a4@-
   25058:	2929 2929      	movel %a1@(10537),%a4@-
   2505c:	2929 2929      	movel %a1@(10537),%a4@-
   25060:	2929 2929      	movel %a1@(10537),%a4@-
   25064:	2929 2929      	movel %a1@(10537),%a4@-
   25068:	2929 2929      	movel %a1@(10537),%a4@-
   2506c:	2929 2929      	movel %a1@(10537),%a4@-
   25070:	2929 2929      	movel %a1@(10537),%a4@-
   25074:	2929 2929      	movel %a1@(10537),%a4@-
   25078:	2929 2929      	movel %a1@(10537),%a4@-
   2507c:	2929 2929      	movel %a1@(10537),%a4@-
   25080:	2929 2929      	movel %a1@(10537),%a4@-
   25084:	2929 2929      	movel %a1@(10537),%a4@-
   25088:	2929 2929      	movel %a1@(10537),%a4@-
   2508c:	2929 2929      	movel %a1@(10537),%a4@-
   25090:	2929 2929      	movel %a1@(10537),%a4@-
   25094:	2929 2929      	movel %a1@(10537),%a4@-
   25098:	2929 2929      	movel %a1@(10537),%a4@-
   2509c:	2929 2929      	movel %a1@(10537),%a4@-
   250a0:	2929 2929      	movel %a1@(10537),%a4@-
   250a4:	2929 2929      	movel %a1@(10537),%a4@-
   250a8:	2929 2929      	movel %a1@(10537),%a4@-
   250ac:	2929 2929      	movel %a1@(10537),%a4@-
   250b0:	2929 2929      	movel %a1@(10537),%a4@-
   250b4:	2929 2929      	movel %a1@(10537),%a4@-
   250b8:	2929 2929      	movel %a1@(10537),%a4@-
   250bc:	2929 2929      	movel %a1@(10537),%a4@-
   250c0:	2929 2929      	movel %a1@(10537),%a4@-
   250c4:	2929 2929      	movel %a1@(10537),%a4@-
   250c8:	2929 2929      	movel %a1@(10537),%a4@-
   250cc:	2929 2929      	movel %a1@(10537),%a4@-
   250d0:	2929 2929      	movel %a1@(10537),%a4@-
   250d4:	2929 2929      	movel %a1@(10537),%a4@-
   250d8:	2929 2929      	movel %a1@(10537),%a4@-
   250dc:	2929 2929      	movel %a1@(10537),%a4@-
   250e0:	2929 2929      	movel %a1@(10537),%a4@-
   250e4:	2929 2929      	movel %a1@(10537),%a4@-
   250e8:	2929 2929      	movel %a1@(10537),%a4@-
   250ec:	2929 2929      	movel %a1@(10537),%a4@-
   250f0:	2929 2929      	movel %a1@(10537),%a4@-
   250f4:	2929 2929      	movel %a1@(10537),%a4@-
   250f8:	2929 2929      	movel %a1@(10537),%a4@-
   250fc:	2929 2929      	movel %a1@(10537),%a4@-
   25100:	2929 2929      	movel %a1@(10537),%a4@-
   25104:	2929 2929      	movel %a1@(10537),%a4@-
   25108:	2929 2929      	movel %a1@(10537),%a4@-
   2510c:	2929 2929      	movel %a1@(10537),%a4@-
   25110:	2929 2929      	movel %a1@(10537),%a4@-
   25114:	2929 2929      	movel %a1@(10537),%a4@-
   25118:	2929 2929      	movel %a1@(10537),%a4@-
   2511c:	2929 2929      	movel %a1@(10537),%a4@-
   25120:	2929 2929      	movel %a1@(10537),%a4@-
   25124:	2929 2929      	movel %a1@(10537),%a4@-
   25128:	2929 2929      	movel %a1@(10537),%a4@-
   2512c:	2929 2929      	movel %a1@(10537),%a4@-
   25130:	2929 2929      	movel %a1@(10537),%a4@-
   25134:	2929 2929      	movel %a1@(10537),%a4@-
   25138:	2929 2929      	movel %a1@(10537),%a4@-
   2513c:	2929 2929      	movel %a1@(10537),%a4@-
   25140:	2929 2929      	movel %a1@(10537),%a4@-
   25144:	2929 2929      	movel %a1@(10537),%a4@-
   25148:	2929 2929      	movel %a1@(10537),%a4@-
   2514c:	2929 2929      	movel %a1@(10537),%a4@-
   25150:	2929 2929      	movel %a1@(10537),%a4@-
   25154:	2929 2929      	movel %a1@(10537),%a4@-
   25158:	2929 2929      	movel %a1@(10537),%a4@-
   2515c:	2929 2929      	movel %a1@(10537),%a4@-
   25160:	2929 2929      	movel %a1@(10537),%a4@-
   25164:	2929 2929      	movel %a1@(10537),%a4@-
   25168:	2929 2929      	movel %a1@(10537),%a4@-
   2516c:	2929 2929      	movel %a1@(10537),%a4@-
   25170:	2929 2929      	movel %a1@(10537),%a4@-
   25174:	2929 2929      	movel %a1@(10537),%a4@-
   25178:	2929 2929      	movel %a1@(10537),%a4@-
   2517c:	2929 2929      	movel %a1@(10537),%a4@-
   25180:	2929 2929      	movel %a1@(10537),%a4@-
   25184:	2929 2929      	movel %a1@(10537),%a4@-
   25188:	2929 2929      	movel %a1@(10537),%a4@-
   2518c:	2929 2929      	movel %a1@(10537),%a4@-
   25190:	2929 2929      	movel %a1@(10537),%a4@-
   25194:	2929 2929      	movel %a1@(10537),%a4@-
   25198:	2929 2929      	movel %a1@(10537),%a4@-
   2519c:	2929 2929      	movel %a1@(10537),%a4@-
   251a0:	2929 2929      	movel %a1@(10537),%a4@-
   251a4:	2929 2929      	movel %a1@(10537),%a4@-
   251a8:	2929 2929      	movel %a1@(10537),%a4@-
   251ac:	2929 2929      	movel %a1@(10537),%a4@-
   251b0:	2929 2929      	movel %a1@(10537),%a4@-
   251b4:	2929 2929      	movel %a1@(10537),%a4@-
   251b8:	2929 2929      	movel %a1@(10537),%a4@-
   251bc:	2929 2929      	movel %a1@(10537),%a4@-
   251c0:	2929 2929      	movel %a1@(10537),%a4@-
   251c4:	2929 2929      	movel %a1@(10537),%a4@-
   251c8:	2929 2929      	movel %a1@(10537),%a4@-
   251cc:	2929 2929      	movel %a1@(10537),%a4@-
   251d0:	2929 2929      	movel %a1@(10537),%a4@-
   251d4:	2929 2929      	movel %a1@(10537),%a4@-
   251d8:	2929 2929      	movel %a1@(10537),%a4@-
   251dc:	2929 2929      	movel %a1@(10537),%a4@-
   251e0:	2929 2929      	movel %a1@(10537),%a4@-
   251e4:	2929 2929      	movel %a1@(10537),%a4@-
   251e8:	2929 2929      	movel %a1@(10537),%a4@-
   251ec:	2929 2929      	movel %a1@(10537),%a4@-
   251f0:	2929 2929      	movel %a1@(10537),%a4@-
   251f4:	2929 2929      	movel %a1@(10537),%a4@-
   251f8:	2929 2929      	movel %a1@(10537),%a4@-
   251fc:	2929 2929      	movel %a1@(10537),%a4@-
   25200:	2929 2929      	movel %a1@(10537),%a4@-
   25204:	2929 2929      	movel %a1@(10537),%a4@-
   25208:	2929 2929      	movel %a1@(10537),%a4@-
   2520c:	2929 2929      	movel %a1@(10537),%a4@-
   25210:	2929 2929      	movel %a1@(10537),%a4@-
   25214:	2929 2929      	movel %a1@(10537),%a4@-
   25218:	2929 2929      	movel %a1@(10537),%a4@-
   2521c:	2929 2929      	movel %a1@(10537),%a4@-
   25220:	2929 2929      	movel %a1@(10537),%a4@-
   25224:	2929 2929      	movel %a1@(10537),%a4@-
   25228:	2929 2929      	movel %a1@(10537),%a4@-
   2522c:	2929 2929      	movel %a1@(10537),%a4@-
   25230:	2929 2929      	movel %a1@(10537),%a4@-
   25234:	2929 2929      	movel %a1@(10537),%a4@-
   25238:	2929 2929      	movel %a1@(10537),%a4@-
   2523c:	2929 2929      	movel %a1@(10537),%a4@-
   25240:	2929 2929      	movel %a1@(10537),%a4@-
   25244:	2929 2929      	movel %a1@(10537),%a4@-
   25248:	2929 2929      	movel %a1@(10537),%a4@-
   2524c:	2929 2929      	movel %a1@(10537),%a4@-
   25250:	2929 2929      	movel %a1@(10537),%a4@-
   25254:	2929 2929      	movel %a1@(10537),%a4@-
   25258:	2929 2929      	movel %a1@(10537),%a4@-
   2525c:	2929 2929      	movel %a1@(10537),%a4@-
   25260:	2929 2929      	movel %a1@(10537),%a4@-
   25264:	2929 2929      	movel %a1@(10537),%a4@-
   25268:	2929 2929      	movel %a1@(10537),%a4@-
   2526c:	2929 2929      	movel %a1@(10537),%a4@-
   25270:	2929 2929      	movel %a1@(10537),%a4@-
   25274:	2929 2929      	movel %a1@(10537),%a4@-
   25278:	2929 2929      	movel %a1@(10537),%a4@-
   2527c:	2929 2929      	movel %a1@(10537),%a4@-
   25280:	2929 2929      	movel %a1@(10537),%a4@-
   25284:	2929 2929      	movel %a1@(10537),%a4@-
   25288:	2929 2929      	movel %a1@(10537),%a4@-
   2528c:	2929 2929      	movel %a1@(10537),%a4@-
   25290:	2929 2929      	movel %a1@(10537),%a4@-
   25294:	2929 2929      	movel %a1@(10537),%a4@-
   25298:	2929 2929      	movel %a1@(10537),%a4@-
   2529c:	2929 2929      	movel %a1@(10537),%a4@-
   252a0:	2929 2929      	movel %a1@(10537),%a4@-
   252a4:	2929 2929      	movel %a1@(10537),%a4@-
   252a8:	2929 2929      	movel %a1@(10537),%a4@-
   252ac:	2929 2929      	movel %a1@(10537),%a4@-
   252b0:	2929 2929      	movel %a1@(10537),%a4@-
   252b4:	2929 2929      	movel %a1@(10537),%a4@-
   252b8:	2929 2929      	movel %a1@(10537),%a4@-
   252bc:	2929 2929      	movel %a1@(10537),%a4@-
   252c0:	2929 2929      	movel %a1@(10537),%a4@-
   252c4:	2929 2929      	movel %a1@(10537),%a4@-
   252c8:	2929 2929      	movel %a1@(10537),%a4@-
   252cc:	2929 2929      	movel %a1@(10537),%a4@-
   252d0:	2929 2929      	movel %a1@(10537),%a4@-
   252d4:	2929 2929      	movel %a1@(10537),%a4@-
   252d8:	2929 2929      	movel %a1@(10537),%a4@-
   252dc:	2929 2929      	movel %a1@(10537),%a4@-
   252e0:	2929 2929      	movel %a1@(10537),%a4@-
   252e4:	2929 2929      	movel %a1@(10537),%a4@-
   252e8:	2929 2929      	movel %a1@(10537),%a4@-
   252ec:	2929 2929      	movel %a1@(10537),%a4@-
   252f0:	2929 2929      	movel %a1@(10537),%a4@-
   252f4:	2929 2929      	movel %a1@(10537),%a4@-
   252f8:	2929 2929      	movel %a1@(10537),%a4@-
   252fc:	2929 2929      	movel %a1@(10537),%a4@-
   25300:	2929 2929      	movel %a1@(10537),%a4@-
   25304:	2929 2929      	movel %a1@(10537),%a4@-
   25308:	2929 2929      	movel %a1@(10537),%a4@-
   2530c:	2929 2929      	movel %a1@(10537),%a4@-
   25310:	2929 2929      	movel %a1@(10537),%a4@-
   25314:	2929 2929      	movel %a1@(10537),%a4@-
   25318:	2929 2929      	movel %a1@(10537),%a4@-
   2531c:	2929 2929      	movel %a1@(10537),%a4@-
   25320:	2929 2929      	movel %a1@(10537),%a4@-
   25324:	2929 2929      	movel %a1@(10537),%a4@-
   25328:	2929 2929      	movel %a1@(10537),%a4@-
   2532c:	2929 2929      	movel %a1@(10537),%a4@-
   25330:	2929 2929      	movel %a1@(10537),%a4@-
   25334:	2929 2929      	movel %a1@(10537),%a4@-
   25338:	2929 2929      	movel %a1@(10537),%a4@-
   2533c:	2929 2929      	movel %a1@(10537),%a4@-
   25340:	2929 2929      	movel %a1@(10537),%a4@-
   25344:	2929 2929      	movel %a1@(10537),%a4@-
   25348:	2929 2929      	movel %a1@(10537),%a4@-
   2534c:	2929 2929      	movel %a1@(10537),%a4@-
   25350:	2929 2929      	movel %a1@(10537),%a4@-
   25354:	2929 2929      	movel %a1@(10537),%a4@-
   25358:	2929 2929      	movel %a1@(10537),%a4@-
   2535c:	2929 2929      	movel %a1@(10537),%a4@-
   25360:	2929 2929      	movel %a1@(10537),%a4@-
   25364:	2929 2929      	movel %a1@(10537),%a4@-
   25368:	2929 2929      	movel %a1@(10537),%a4@-
   2536c:	2929 2929      	movel %a1@(10537),%a4@-
   25370:	2929 2929      	movel %a1@(10537),%a4@-
   25374:	2929 2929      	movel %a1@(10537),%a4@-
   25378:	2929 2929      	movel %a1@(10537),%a4@-
   2537c:	2929 2929      	movel %a1@(10537),%a4@-
   25380:	2929 2929      	movel %a1@(10537),%a4@-
   25384:	2929 2929      	movel %a1@(10537),%a4@-
   25388:	2929 2929      	movel %a1@(10537),%a4@-
   2538c:	2929 2929      	movel %a1@(10537),%a4@-
   25390:	2929 2929      	movel %a1@(10537),%a4@-
   25394:	2929 2929      	movel %a1@(10537),%a4@-
   25398:	2929 2929      	movel %a1@(10537),%a4@-
   2539c:	2929 2929      	movel %a1@(10537),%a4@-
   253a0:	2929 2929      	movel %a1@(10537),%a4@-
   253a4:	2929 2929      	movel %a1@(10537),%a4@-
   253a8:	2929 2929      	movel %a1@(10537),%a4@-
   253ac:	2929 2929      	movel %a1@(10537),%a4@-
   253b0:	2929 2929      	movel %a1@(10537),%a4@-
   253b4:	2929 2929      	movel %a1@(10537),%a4@-
   253b8:	2929 2929      	movel %a1@(10537),%a4@-
   253bc:	2929 2929      	movel %a1@(10537),%a4@-
   253c0:	2929 2929      	movel %a1@(10537),%a4@-
   253c4:	2929 2929      	movel %a1@(10537),%a4@-
   253c8:	2929 2929      	movel %a1@(10537),%a4@-
   253cc:	2929 2929      	movel %a1@(10537),%a4@-
   253d0:	2929 2929      	movel %a1@(10537),%a4@-
   253d4:	2929 2929      	movel %a1@(10537),%a4@-
   253d8:	2929 2929      	movel %a1@(10537),%a4@-
   253dc:	2929 2929      	movel %a1@(10537),%a4@-
   253e0:	2929 2929      	movel %a1@(10537),%a4@-
   253e4:	2929 2929      	movel %a1@(10537),%a4@-
   253e8:	2929 2929      	movel %a1@(10537),%a4@-
   253ec:	2929 2929      	movel %a1@(10537),%a4@-
   253f0:	2929 2929      	movel %a1@(10537),%a4@-
   253f4:	2929 2929      	movel %a1@(10537),%a4@-
   253f8:	2929 2929      	movel %a1@(10537),%a4@-
   253fc:	2929 2929      	movel %a1@(10537),%a4@-
   25400:	2929 2929      	movel %a1@(10537),%a4@-
   25404:	2929 2929      	movel %a1@(10537),%a4@-
   25408:	2929 2929      	movel %a1@(10537),%a4@-
   2540c:	2929 2929      	movel %a1@(10537),%a4@-
   25410:	2929 2929      	movel %a1@(10537),%a4@-
   25414:	2929 2929      	movel %a1@(10537),%a4@-
   25418:	2929 2929      	movel %a1@(10537),%a4@-
   2541c:	2929 2929      	movel %a1@(10537),%a4@-
   25420:	2929 2929      	movel %a1@(10537),%a4@-
   25424:	2929 2929      	movel %a1@(10537),%a4@-
   25428:	2929 2929      	movel %a1@(10537),%a4@-
   2542c:	2929 2929      	movel %a1@(10537),%a4@-
   25430:	2929 2929      	movel %a1@(10537),%a4@-
   25434:	2929 2929      	movel %a1@(10537),%a4@-
   25438:	2929 2929      	movel %a1@(10537),%a4@-
   2543c:	2929 2929      	movel %a1@(10537),%a4@-
   25440:	2929 2929      	movel %a1@(10537),%a4@-
   25444:	2929 2929      	movel %a1@(10537),%a4@-
   25448:	2929 2929      	movel %a1@(10537),%a4@-
   2544c:	2929 2929      	movel %a1@(10537),%a4@-
   25450:	2929 2929      	movel %a1@(10537),%a4@-
   25454:	2929 2929      	movel %a1@(10537),%a4@-
   25458:	2929 2929      	movel %a1@(10537),%a4@-
   2545c:	2929 2929      	movel %a1@(10537),%a4@-
   25460:	2929 2929      	movel %a1@(10537),%a4@-
   25464:	2929 2929      	movel %a1@(10537),%a4@-
   25468:	2929 2929      	movel %a1@(10537),%a4@-
   2546c:	2929 2929      	movel %a1@(10537),%a4@-
   25470:	2929 2929      	movel %a1@(10537),%a4@-
   25474:	2929 2929      	movel %a1@(10537),%a4@-
   25478:	2929 2929      	movel %a1@(10537),%a4@-
   2547c:	2929 2929      	movel %a1@(10537),%a4@-
   25480:	2929 2929      	movel %a1@(10537),%a4@-
   25484:	2929 2929      	movel %a1@(10537),%a4@-
   25488:	2929 2929      	movel %a1@(10537),%a4@-
   2548c:	2929 2929      	movel %a1@(10537),%a4@-
   25490:	2929 2929      	movel %a1@(10537),%a4@-
   25494:	2929 2929      	movel %a1@(10537),%a4@-
   25498:	2929 2929      	movel %a1@(10537),%a4@-
   2549c:	2929 2929      	movel %a1@(10537),%a4@-
   254a0:	2929 2929      	movel %a1@(10537),%a4@-
   254a4:	2929 2929      	movel %a1@(10537),%a4@-
   254a8:	2929 2929      	movel %a1@(10537),%a4@-
   254ac:	2929 2929      	movel %a1@(10537),%a4@-
   254b0:	2929 2929      	movel %a1@(10537),%a4@-
   254b4:	2929 2929      	movel %a1@(10537),%a4@-
   254b8:	2929 2929      	movel %a1@(10537),%a4@-
   254bc:	2929 2929      	movel %a1@(10537),%a4@-
   254c0:	2929 2929      	movel %a1@(10537),%a4@-
   254c4:	2929 2929      	movel %a1@(10537),%a4@-
   254c8:	2929 2929      	movel %a1@(10537),%a4@-
   254cc:	2929 2929      	movel %a1@(10537),%a4@-
   254d0:	2929 2929      	movel %a1@(10537),%a4@-
   254d4:	2929 2929      	movel %a1@(10537),%a4@-
   254d8:	2929 2929      	movel %a1@(10537),%a4@-
   254dc:	2929 2929      	movel %a1@(10537),%a4@-
   254e0:	2929 2929      	movel %a1@(10537),%a4@-
   254e4:	2929 2929      	movel %a1@(10537),%a4@-
   254e8:	2929 2929      	movel %a1@(10537),%a4@-
   254ec:	2929 2929      	movel %a1@(10537),%a4@-
   254f0:	2929 2929      	movel %a1@(10537),%a4@-
   254f4:	2929 2929      	movel %a1@(10537),%a4@-
   254f8:	2929 2929      	movel %a1@(10537),%a4@-
   254fc:	2929 2929      	movel %a1@(10537),%a4@-
   25500:	2929 2929      	movel %a1@(10537),%a4@-
   25504:	2929 2929      	movel %a1@(10537),%a4@-
   25508:	2929 2929      	movel %a1@(10537),%a4@-
   2550c:	2929 2929      	movel %a1@(10537),%a4@-
   25510:	2929 2929      	movel %a1@(10537),%a4@-
   25514:	2929 2929      	movel %a1@(10537),%a4@-
   25518:	2929 2929      	movel %a1@(10537),%a4@-
   2551c:	2929 2929      	movel %a1@(10537),%a4@-
   25520:	2929 2929      	movel %a1@(10537),%a4@-
   25524:	2929 2929      	movel %a1@(10537),%a4@-
   25528:	2929 2929      	movel %a1@(10537),%a4@-
   2552c:	2929 2929      	movel %a1@(10537),%a4@-
   25530:	2929 2929      	movel %a1@(10537),%a4@-
   25534:	2929 2929      	movel %a1@(10537),%a4@-
   25538:	2929 2929      	movel %a1@(10537),%a4@-
   2553c:	2929 2929      	movel %a1@(10537),%a4@-
   25540:	2929 2929      	movel %a1@(10537),%a4@-
   25544:	2929 2929      	movel %a1@(10537),%a4@-
   25548:	2929 2929      	movel %a1@(10537),%a4@-
   2554c:	2929 2929      	movel %a1@(10537),%a4@-
   25550:	2929 2929      	movel %a1@(10537),%a4@-
   25554:	2929 2929      	movel %a1@(10537),%a4@-
   25558:	2929 2929      	movel %a1@(10537),%a4@-
   2555c:	2929 2929      	movel %a1@(10537),%a4@-
   25560:	2929 2929      	movel %a1@(10537),%a4@-
   25564:	2929 2929      	movel %a1@(10537),%a4@-
   25568:	2929 2929      	movel %a1@(10537),%a4@-
   2556c:	2929 2929      	movel %a1@(10537),%a4@-
   25570:	2929 2929      	movel %a1@(10537),%a4@-
   25574:	2929 2929      	movel %a1@(10537),%a4@-
   25578:	2929 2929      	movel %a1@(10537),%a4@-
   2557c:	2929 2929      	movel %a1@(10537),%a4@-
   25580:	2929 2929      	movel %a1@(10537),%a4@-
   25584:	2929 2929      	movel %a1@(10537),%a4@-
   25588:	2929 2929      	movel %a1@(10537),%a4@-
   2558c:	2929 2929      	movel %a1@(10537),%a4@-
   25590:	2929 2929      	movel %a1@(10537),%a4@-
   25594:	2929 2929      	movel %a1@(10537),%a4@-
   25598:	2929 2929      	movel %a1@(10537),%a4@-
   2559c:	2929 2929      	movel %a1@(10537),%a4@-
   255a0:	2929 2929      	movel %a1@(10537),%a4@-
   255a4:	2929 2929      	movel %a1@(10537),%a4@-
   255a8:	2929 2929      	movel %a1@(10537),%a4@-
   255ac:	2929 2929      	movel %a1@(10537),%a4@-
   255b0:	2929 2929      	movel %a1@(10537),%a4@-
   255b4:	2929 2929      	movel %a1@(10537),%a4@-
   255b8:	2929 2929      	movel %a1@(10537),%a4@-
   255bc:	2929 2929      	movel %a1@(10537),%a4@-
   255c0:	2929 2929      	movel %a1@(10537),%a4@-
   255c4:	2929 2929      	movel %a1@(10537),%a4@-
   255c8:	2929 2929      	movel %a1@(10537),%a4@-
   255cc:	2929 2929      	movel %a1@(10537),%a4@-
   255d0:	2929 2929      	movel %a1@(10537),%a4@-
   255d4:	2929 2929      	movel %a1@(10537),%a4@-
   255d8:	2929 2929      	movel %a1@(10537),%a4@-
   255dc:	2929 2929      	movel %a1@(10537),%a4@-
   255e0:	2929 2929      	movel %a1@(10537),%a4@-
   255e4:	2929 2929      	movel %a1@(10537),%a4@-
   255e8:	2929 2929      	movel %a1@(10537),%a4@-
   255ec:	2929 2929      	movel %a1@(10537),%a4@-
   255f0:	2929 2929      	movel %a1@(10537),%a4@-
   255f4:	2929 2929      	movel %a1@(10537),%a4@-
   255f8:	2929 2929      	movel %a1@(10537),%a4@-
   255fc:	2929 2929      	movel %a1@(10537),%a4@-
   25600:	2929 2929      	movel %a1@(10537),%a4@-
   25604:	2929 2929      	movel %a1@(10537),%a4@-
   25608:	2929 2929      	movel %a1@(10537),%a4@-
   2560c:	2929 2929      	movel %a1@(10537),%a4@-
   25610:	2929 2929      	movel %a1@(10537),%a4@-
   25614:	2929 2929      	movel %a1@(10537),%a4@-
   25618:	2929 2929      	movel %a1@(10537),%a4@-
   2561c:	2929 2929      	movel %a1@(10537),%a4@-
   25620:	2929 2929      	movel %a1@(10537),%a4@-
   25624:	2929 2929      	movel %a1@(10537),%a4@-
   25628:	2929 2929      	movel %a1@(10537),%a4@-
   2562c:	2929 2929      	movel %a1@(10537),%a4@-
   25630:	2929 2929      	movel %a1@(10537),%a4@-
   25634:	2929 2929      	movel %a1@(10537),%a4@-
   25638:	2929 2929      	movel %a1@(10537),%a4@-
   2563c:	2929 2929      	movel %a1@(10537),%a4@-
   25640:	2929 2929      	movel %a1@(10537),%a4@-
   25644:	2929 2929      	movel %a1@(10537),%a4@-
   25648:	2929 2929      	movel %a1@(10537),%a4@-
   2564c:	2929 2929      	movel %a1@(10537),%a4@-
   25650:	2929 2929      	movel %a1@(10537),%a4@-
   25654:	2929 2929      	movel %a1@(10537),%a4@-
   25658:	2929 2929      	movel %a1@(10537),%a4@-
   2565c:	2929 2929      	movel %a1@(10537),%a4@-
   25660:	2929 2929      	movel %a1@(10537),%a4@-
   25664:	2929 2929      	movel %a1@(10537),%a4@-
   25668:	2929 2929      	movel %a1@(10537),%a4@-
   2566c:	2929 2929      	movel %a1@(10537),%a4@-
   25670:	2929 2929      	movel %a1@(10537),%a4@-
   25674:	2929 2929      	movel %a1@(10537),%a4@-
   25678:	2929 2929      	movel %a1@(10537),%a4@-
   2567c:	2929 2929      	movel %a1@(10537),%a4@-
   25680:	2929 2929      	movel %a1@(10537),%a4@-
   25684:	2929 2929      	movel %a1@(10537),%a4@-
   25688:	2929 2929      	movel %a1@(10537),%a4@-
   2568c:	2929 2929      	movel %a1@(10537),%a4@-
   25690:	2929 2929      	movel %a1@(10537),%a4@-
   25694:	2929 2929      	movel %a1@(10537),%a4@-
   25698:	2929 2929      	movel %a1@(10537),%a4@-
   2569c:	2929 2929      	movel %a1@(10537),%a4@-
   256a0:	2929 2929      	movel %a1@(10537),%a4@-
   256a4:	2929 2929      	movel %a1@(10537),%a4@-
   256a8:	2929 2929      	movel %a1@(10537),%a4@-
   256ac:	2929 2929      	movel %a1@(10537),%a4@-
   256b0:	2929 2929      	movel %a1@(10537),%a4@-
   256b4:	2929 2929      	movel %a1@(10537),%a4@-
   256b8:	2929 2929      	movel %a1@(10537),%a4@-
   256bc:	2929 2929      	movel %a1@(10537),%a4@-
   256c0:	2929 2929      	movel %a1@(10537),%a4@-
   256c4:	2929 2929      	movel %a1@(10537),%a4@-
   256c8:	2929 2929      	movel %a1@(10537),%a4@-
   256cc:	2929 2929      	movel %a1@(10537),%a4@-
   256d0:	2929 2929      	movel %a1@(10537),%a4@-
   256d4:	2929 2929      	movel %a1@(10537),%a4@-
   256d8:	2929 2929      	movel %a1@(10537),%a4@-
   256dc:	2929 2929      	movel %a1@(10537),%a4@-
   256e0:	2929 2929      	movel %a1@(10537),%a4@-
   256e4:	2929 2929      	movel %a1@(10537),%a4@-
   256e8:	2929 2929      	movel %a1@(10537),%a4@-
   256ec:	2929 2929      	movel %a1@(10537),%a4@-
   256f0:	2929 2929      	movel %a1@(10537),%a4@-
   256f4:	2929 2929      	movel %a1@(10537),%a4@-
   256f8:	2929 2929      	movel %a1@(10537),%a4@-
   256fc:	2929 2929      	movel %a1@(10537),%a4@-
   25700:	2929 2929      	movel %a1@(10537),%a4@-
   25704:	2929 2929      	movel %a1@(10537),%a4@-
   25708:	2929 2929      	movel %a1@(10537),%a4@-
   2570c:	2929 2929      	movel %a1@(10537),%a4@-
   25710:	2929 2929      	movel %a1@(10537),%a4@-
   25714:	2929 2929      	movel %a1@(10537),%a4@-
   25718:	2929 2929      	movel %a1@(10537),%a4@-
   2571c:	2929 2929      	movel %a1@(10537),%a4@-
   25720:	2929 2929      	movel %a1@(10537),%a4@-
   25724:	2929 2929      	movel %a1@(10537),%a4@-
   25728:	2929 2929      	movel %a1@(10537),%a4@-
   2572c:	2929 2929      	movel %a1@(10537),%a4@-
   25730:	2929 2929      	movel %a1@(10537),%a4@-
   25734:	2929 2929      	movel %a1@(10537),%a4@-
   25738:	2929 2929      	movel %a1@(10537),%a4@-
   2573c:	2929 2929      	movel %a1@(10537),%a4@-
   25740:	2929 2929      	movel %a1@(10537),%a4@-
   25744:	2929 2929      	movel %a1@(10537),%a4@-
   25748:	2929 2929      	movel %a1@(10537),%a4@-
   2574c:	2929 2929      	movel %a1@(10537),%a4@-
   25750:	2929 2929      	movel %a1@(10537),%a4@-
   25754:	2929 2929      	movel %a1@(10537),%a4@-
   25758:	2929 2929      	movel %a1@(10537),%a4@-
   2575c:	2929 2929      	movel %a1@(10537),%a4@-
   25760:	2929 2929      	movel %a1@(10537),%a4@-
   25764:	2929 2929      	movel %a1@(10537),%a4@-
   25768:	2929 2929      	movel %a1@(10537),%a4@-
   2576c:	2929 2929      	movel %a1@(10537),%a4@-
   25770:	2929 2929      	movel %a1@(10537),%a4@-
   25774:	2929 2929      	movel %a1@(10537),%a4@-
   25778:	2929 2929      	movel %a1@(10537),%a4@-
   2577c:	2929 2929      	movel %a1@(10537),%a4@-
   25780:	2929 2929      	movel %a1@(10537),%a4@-
   25784:	2929 2929      	movel %a1@(10537),%a4@-
   25788:	2929 2929      	movel %a1@(10537),%a4@-
   2578c:	2929 2929      	movel %a1@(10537),%a4@-
   25790:	2929 2929      	movel %a1@(10537),%a4@-
   25794:	2929 2929      	movel %a1@(10537),%a4@-
   25798:	2929 2929      	movel %a1@(10537),%a4@-
   2579c:	2929 2929      	movel %a1@(10537),%a4@-
   257a0:	2929 2929      	movel %a1@(10537),%a4@-
   257a4:	2929 2929      	movel %a1@(10537),%a4@-
   257a8:	2929 2929      	movel %a1@(10537),%a4@-
   257ac:	2929 2929      	movel %a1@(10537),%a4@-
   257b0:	2929 2929      	movel %a1@(10537),%a4@-
   257b4:	2929 2929      	movel %a1@(10537),%a4@-
   257b8:	2929 2929      	movel %a1@(10537),%a4@-
   257bc:	2929 2929      	movel %a1@(10537),%a4@-
   257c0:	2929 2929      	movel %a1@(10537),%a4@-
   257c4:	2929 2929      	movel %a1@(10537),%a4@-
   257c8:	2929 2929      	movel %a1@(10537),%a4@-
   257cc:	2929 2929      	movel %a1@(10537),%a4@-
   257d0:	2929 2929      	movel %a1@(10537),%a4@-
   257d4:	2929 2929      	movel %a1@(10537),%a4@-
   257d8:	2929 2929      	movel %a1@(10537),%a4@-
   257dc:	2929 2929      	movel %a1@(10537),%a4@-
   257e0:	2929 2929      	movel %a1@(10537),%a4@-
   257e4:	2929 2929      	movel %a1@(10537),%a4@-
   257e8:	2929 2929      	movel %a1@(10537),%a4@-
   257ec:	2929 2929      	movel %a1@(10537),%a4@-
   257f0:	2929 2929      	movel %a1@(10537),%a4@-
   257f4:	2929 2929      	movel %a1@(10537),%a4@-
   257f8:	2929 2929      	movel %a1@(10537),%a4@-
   257fc:	2929 2929      	movel %a1@(10537),%a4@-
   25800:	2929 2929      	movel %a1@(10537),%a4@-
   25804:	2929 2929      	movel %a1@(10537),%a4@-
   25808:	2929 2929      	movel %a1@(10537),%a4@-
   2580c:	2929 2929      	movel %a1@(10537),%a4@-
   25810:	2929 2929      	movel %a1@(10537),%a4@-
   25814:	2929 2929      	movel %a1@(10537),%a4@-
   25818:	2929 2929      	movel %a1@(10537),%a4@-
   2581c:	2929 2929      	movel %a1@(10537),%a4@-
   25820:	2929 2929      	movel %a1@(10537),%a4@-
   25824:	2929 2929      	movel %a1@(10537),%a4@-
   25828:	2929 2929      	movel %a1@(10537),%a4@-
   2582c:	2929 2929      	movel %a1@(10537),%a4@-
   25830:	2929 2929      	movel %a1@(10537),%a4@-
   25834:	2929 2929      	movel %a1@(10537),%a4@-
   25838:	2929 2929      	movel %a1@(10537),%a4@-
   2583c:	2929 2929      	movel %a1@(10537),%a4@-
   25840:	2929 2929      	movel %a1@(10537),%a4@-
   25844:	2929 2929      	movel %a1@(10537),%a4@-
   25848:	2929 2929      	movel %a1@(10537),%a4@-
   2584c:	2929 2929      	movel %a1@(10537),%a4@-
   25850:	2929 2929      	movel %a1@(10537),%a4@-
   25854:	2929 2929      	movel %a1@(10537),%a4@-
   25858:	2929 2929      	movel %a1@(10537),%a4@-
   2585c:	2929 2929      	movel %a1@(10537),%a4@-
   25860:	2929 2929      	movel %a1@(10537),%a4@-
   25864:	2929 2929      	movel %a1@(10537),%a4@-
   25868:	2929 2929      	movel %a1@(10537),%a4@-
   2586c:	2929 2929      	movel %a1@(10537),%a4@-
   25870:	2929 2929      	movel %a1@(10537),%a4@-
   25874:	2929 2929      	movel %a1@(10537),%a4@-
   25878:	2929 2929      	movel %a1@(10537),%a4@-
   2587c:	2929 2929      	movel %a1@(10537),%a4@-
   25880:	2929 2929      	movel %a1@(10537),%a4@-
   25884:	2929 2929      	movel %a1@(10537),%a4@-
   25888:	2929 2929      	movel %a1@(10537),%a4@-
   2588c:	2929 2929      	movel %a1@(10537),%a4@-
   25890:	2929 2929      	movel %a1@(10537),%a4@-
   25894:	2929 2929      	movel %a1@(10537),%a4@-
   25898:	2929 2929      	movel %a1@(10537),%a4@-
   2589c:	2929 2929      	movel %a1@(10537),%a4@-
   258a0:	2929 2929      	movel %a1@(10537),%a4@-
   258a4:	2929 2929      	movel %a1@(10537),%a4@-
   258a8:	2929 2929      	movel %a1@(10537),%a4@-
   258ac:	2929 2929      	movel %a1@(10537),%a4@-
   258b0:	2929 2929      	movel %a1@(10537),%a4@-
   258b4:	2929 2929      	movel %a1@(10537),%a4@-
   258b8:	2929 2929      	movel %a1@(10537),%a4@-
   258bc:	2929 2929      	movel %a1@(10537),%a4@-
   258c0:	2929 2929      	movel %a1@(10537),%a4@-
   258c4:	2929 2929      	movel %a1@(10537),%a4@-
   258c8:	2929 2929      	movel %a1@(10537),%a4@-
   258cc:	2929 2929      	movel %a1@(10537),%a4@-
   258d0:	2929 2929      	movel %a1@(10537),%a4@-
   258d4:	2929 2929      	movel %a1@(10537),%a4@-
   258d8:	2929 2929      	movel %a1@(10537),%a4@-
   258dc:	2929 2929      	movel %a1@(10537),%a4@-
   258e0:	2929 2929      	movel %a1@(10537),%a4@-
   258e4:	2929 2929      	movel %a1@(10537),%a4@-
   258e8:	2929 2929      	movel %a1@(10537),%a4@-
   258ec:	2929 2929      	movel %a1@(10537),%a4@-
   258f0:	2929 2929      	movel %a1@(10537),%a4@-
   258f4:	2929 2929      	movel %a1@(10537),%a4@-
   258f8:	2929 2929      	movel %a1@(10537),%a4@-
   258fc:	2929 2929      	movel %a1@(10537),%a4@-
   25900:	2929 2929      	movel %a1@(10537),%a4@-
   25904:	2929 2929      	movel %a1@(10537),%a4@-
   25908:	2929 2929      	movel %a1@(10537),%a4@-
   2590c:	2929 2929      	movel %a1@(10537),%a4@-
   25910:	2929 2929      	movel %a1@(10537),%a4@-
   25914:	2929 2929      	movel %a1@(10537),%a4@-
   25918:	2929 2929      	movel %a1@(10537),%a4@-
   2591c:	2929 2929      	movel %a1@(10537),%a4@-
   25920:	2929 2929      	movel %a1@(10537),%a4@-
   25924:	2929 2929      	movel %a1@(10537),%a4@-
   25928:	2929 2929      	movel %a1@(10537),%a4@-
   2592c:	2929 2929      	movel %a1@(10537),%a4@-
   25930:	2929 2929      	movel %a1@(10537),%a4@-
   25934:	2929 2929      	movel %a1@(10537),%a4@-
   25938:	2929 2929      	movel %a1@(10537),%a4@-
   2593c:	2929 2929      	movel %a1@(10537),%a4@-
   25940:	2929 2929      	movel %a1@(10537),%a4@-
   25944:	2929 2929      	movel %a1@(10537),%a4@-
   25948:	2929 2929      	movel %a1@(10537),%a4@-
   2594c:	2929 2929      	movel %a1@(10537),%a4@-
   25950:	2929 2929      	movel %a1@(10537),%a4@-
   25954:	2929 2929      	movel %a1@(10537),%a4@-
   25958:	2929 2929      	movel %a1@(10537),%a4@-
   2595c:	2929 2929      	movel %a1@(10537),%a4@-
   25960:	2929 2929      	movel %a1@(10537),%a4@-
   25964:	2929 2929      	movel %a1@(10537),%a4@-
   25968:	2929 2929      	movel %a1@(10537),%a4@-
   2596c:	2929 2929      	movel %a1@(10537),%a4@-
   25970:	2929 2929      	movel %a1@(10537),%a4@-
   25974:	2929 2929      	movel %a1@(10537),%a4@-
   25978:	2929 2929      	movel %a1@(10537),%a4@-
   2597c:	2929 2929      	movel %a1@(10537),%a4@-
   25980:	2929 2929      	movel %a1@(10537),%a4@-
   25984:	2929 2929      	movel %a1@(10537),%a4@-
   25988:	2929 2929      	movel %a1@(10537),%a4@-
   2598c:	2929 2929      	movel %a1@(10537),%a4@-
   25990:	2929 2929      	movel %a1@(10537),%a4@-
   25994:	2929 2929      	movel %a1@(10537),%a4@-
   25998:	2929 2929      	movel %a1@(10537),%a4@-
   2599c:	2929 2929      	movel %a1@(10537),%a4@-
   259a0:	2929 2929      	movel %a1@(10537),%a4@-
   259a4:	2929 2929      	movel %a1@(10537),%a4@-
   259a8:	2929 2929      	movel %a1@(10537),%a4@-
   259ac:	2929 2929      	movel %a1@(10537),%a4@-
   259b0:	2929 2929      	movel %a1@(10537),%a4@-
   259b4:	2929 2929      	movel %a1@(10537),%a4@-
   259b8:	2929 2929      	movel %a1@(10537),%a4@-
   259bc:	2929 2929      	movel %a1@(10537),%a4@-
   259c0:	2929 2929      	movel %a1@(10537),%a4@-
   259c4:	2929 2929      	movel %a1@(10537),%a4@-
   259c8:	2929 2929      	movel %a1@(10537),%a4@-
   259cc:	2929 2929      	movel %a1@(10537),%a4@-
   259d0:	2929 2929      	movel %a1@(10537),%a4@-
   259d4:	2929 2929      	movel %a1@(10537),%a4@-
   259d8:	2929 2929      	movel %a1@(10537),%a4@-
   259dc:	2929 2929      	movel %a1@(10537),%a4@-
   259e0:	2929 2929      	movel %a1@(10537),%a4@-
   259e4:	2929 2929      	movel %a1@(10537),%a4@-
   259e8:	2929 2929      	movel %a1@(10537),%a4@-
   259ec:	2929 2929      	movel %a1@(10537),%a4@-
   259f0:	2929 2929      	movel %a1@(10537),%a4@-
   259f4:	2929 2929      	movel %a1@(10537),%a4@-
   259f8:	2929 2929      	movel %a1@(10537),%a4@-
   259fc:	2929 2929      	movel %a1@(10537),%a4@-
   25a00:	2929 2929      	movel %a1@(10537),%a4@-
   25a04:	2929 2929      	movel %a1@(10537),%a4@-
   25a08:	2929 2929      	movel %a1@(10537),%a4@-
   25a0c:	2929 2929      	movel %a1@(10537),%a4@-
   25a10:	2929 2929      	movel %a1@(10537),%a4@-
   25a14:	2929 2929      	movel %a1@(10537),%a4@-
   25a18:	2929 2929      	movel %a1@(10537),%a4@-
   25a1c:	2929 2929      	movel %a1@(10537),%a4@-
   25a20:	2929 2929      	movel %a1@(10537),%a4@-
   25a24:	2929 2929      	movel %a1@(10537),%a4@-
   25a28:	2929 2929      	movel %a1@(10537),%a4@-
   25a2c:	2929 2929      	movel %a1@(10537),%a4@-
   25a30:	2929 2929      	movel %a1@(10537),%a4@-
   25a34:	2929 2929      	movel %a1@(10537),%a4@-
   25a38:	2929 2929      	movel %a1@(10537),%a4@-
   25a3c:	2929 2929      	movel %a1@(10537),%a4@-
   25a40:	2929 2929      	movel %a1@(10537),%a4@-
   25a44:	2929 2929      	movel %a1@(10537),%a4@-
   25a48:	2929 2929      	movel %a1@(10537),%a4@-
   25a4c:	2929 2929      	movel %a1@(10537),%a4@-
   25a50:	2929 2929      	movel %a1@(10537),%a4@-
   25a54:	2929 2929      	movel %a1@(10537),%a4@-
   25a58:	2929 2929      	movel %a1@(10537),%a4@-
   25a5c:	2929 2929      	movel %a1@(10537),%a4@-
   25a60:	2929 2929      	movel %a1@(10537),%a4@-
   25a64:	2929 2929      	movel %a1@(10537),%a4@-
   25a68:	2929 2929      	movel %a1@(10537),%a4@-
   25a6c:	2929 2929      	movel %a1@(10537),%a4@-
   25a70:	2929 2929      	movel %a1@(10537),%a4@-
   25a74:	2929 2929      	movel %a1@(10537),%a4@-
   25a78:	2929 2929      	movel %a1@(10537),%a4@-
   25a7c:	2929 2929      	movel %a1@(10537),%a4@-
   25a80:	2929 2929      	movel %a1@(10537),%a4@-
   25a84:	2929 2929      	movel %a1@(10537),%a4@-
   25a88:	2929 2929      	movel %a1@(10537),%a4@-
   25a8c:	2929 2929      	movel %a1@(10537),%a4@-
   25a90:	2929 2929      	movel %a1@(10537),%a4@-
   25a94:	2929 2929      	movel %a1@(10537),%a4@-
   25a98:	2929 2929      	movel %a1@(10537),%a4@-
   25a9c:	2929 2929      	movel %a1@(10537),%a4@-
   25aa0:	2929 2929      	movel %a1@(10537),%a4@-
   25aa4:	2929 2929      	movel %a1@(10537),%a4@-
   25aa8:	2929 2929      	movel %a1@(10537),%a4@-
   25aac:	2929 2929      	movel %a1@(10537),%a4@-
   25ab0:	2929 2929      	movel %a1@(10537),%a4@-
   25ab4:	2929 2929      	movel %a1@(10537),%a4@-
   25ab8:	2929 2929      	movel %a1@(10537),%a4@-
   25abc:	2929 2929      	movel %a1@(10537),%a4@-
   25ac0:	2929 2929      	movel %a1@(10537),%a4@-
   25ac4:	2929 2929      	movel %a1@(10537),%a4@-
   25ac8:	2929 2929      	movel %a1@(10537),%a4@-
   25acc:	2929 2929      	movel %a1@(10537),%a4@-
   25ad0:	2929 2929      	movel %a1@(10537),%a4@-
   25ad4:	2929 2929      	movel %a1@(10537),%a4@-
   25ad8:	2929 2929      	movel %a1@(10537),%a4@-
   25adc:	2929 2929      	movel %a1@(10537),%a4@-
   25ae0:	2929 2929      	movel %a1@(10537),%a4@-
   25ae4:	2929 2929      	movel %a1@(10537),%a4@-
   25ae8:	2929 2929      	movel %a1@(10537),%a4@-
   25aec:	2929 2929      	movel %a1@(10537),%a4@-
   25af0:	2929 2929      	movel %a1@(10537),%a4@-
   25af4:	2929 2929      	movel %a1@(10537),%a4@-
   25af8:	2929 2929      	movel %a1@(10537),%a4@-
   25afc:	2929 2929      	movel %a1@(10537),%a4@-
   25b00:	2929 2929      	movel %a1@(10537),%a4@-
   25b04:	2929 2929      	movel %a1@(10537),%a4@-
   25b08:	2929 2929      	movel %a1@(10537),%a4@-
   25b0c:	2929 2929      	movel %a1@(10537),%a4@-
   25b10:	2929 2929      	movel %a1@(10537),%a4@-
   25b14:	2929 2929      	movel %a1@(10537),%a4@-
   25b18:	2929 2929      	movel %a1@(10537),%a4@-
   25b1c:	2929 2929      	movel %a1@(10537),%a4@-
   25b20:	2929 2929      	movel %a1@(10537),%a4@-
   25b24:	2929 2929      	movel %a1@(10537),%a4@-
   25b28:	2929 2929      	movel %a1@(10537),%a4@-
   25b2c:	2929 2929      	movel %a1@(10537),%a4@-
   25b30:	2929 2929      	movel %a1@(10537),%a4@-
   25b34:	2929 2929      	movel %a1@(10537),%a4@-
   25b38:	2929 2929      	movel %a1@(10537),%a4@-
   25b3c:	2929 2929      	movel %a1@(10537),%a4@-
   25b40:	2929 2929      	movel %a1@(10537),%a4@-
   25b44:	2929 2929      	movel %a1@(10537),%a4@-
   25b48:	2929 2929      	movel %a1@(10537),%a4@-
   25b4c:	2929 2929      	movel %a1@(10537),%a4@-
   25b50:	2929 2929      	movel %a1@(10537),%a4@-
   25b54:	2929 2929      	movel %a1@(10537),%a4@-
   25b58:	2929 2929      	movel %a1@(10537),%a4@-
   25b5c:	2929 2929      	movel %a1@(10537),%a4@-
   25b60:	2929 2929      	movel %a1@(10537),%a4@-
   25b64:	2929 2929      	movel %a1@(10537),%a4@-
   25b68:	2929 2929      	movel %a1@(10537),%a4@-
   25b6c:	2929 2929      	movel %a1@(10537),%a4@-
   25b70:	2929 2929      	movel %a1@(10537),%a4@-
   25b74:	2929 2929      	movel %a1@(10537),%a4@-
   25b78:	2929 2929      	movel %a1@(10537),%a4@-
   25b7c:	2929 2929      	movel %a1@(10537),%a4@-
   25b80:	2929 2929      	movel %a1@(10537),%a4@-
   25b84:	2929 2929      	movel %a1@(10537),%a4@-
   25b88:	2929 2929      	movel %a1@(10537),%a4@-
   25b8c:	2929 2929      	movel %a1@(10537),%a4@-
   25b90:	2929 2929      	movel %a1@(10537),%a4@-
   25b94:	2929 2929      	movel %a1@(10537),%a4@-
   25b98:	2929 2929      	movel %a1@(10537),%a4@-
   25b9c:	2929 2929      	movel %a1@(10537),%a4@-
   25ba0:	2929 2929      	movel %a1@(10537),%a4@-
   25ba4:	2929 2929      	movel %a1@(10537),%a4@-
   25ba8:	2929 2929      	movel %a1@(10537),%a4@-
   25bac:	2929 2929      	movel %a1@(10537),%a4@-
   25bb0:	2929 2929      	movel %a1@(10537),%a4@-
   25bb4:	2929 2929      	movel %a1@(10537),%a4@-
   25bb8:	2929 2929      	movel %a1@(10537),%a4@-
   25bbc:	2929 2929      	movel %a1@(10537),%a4@-
   25bc0:	2929 2929      	movel %a1@(10537),%a4@-
   25bc4:	2929 2929      	movel %a1@(10537),%a4@-
   25bc8:	2929 2929      	movel %a1@(10537),%a4@-
   25bcc:	2929 2929      	movel %a1@(10537),%a4@-
   25bd0:	2929 2929      	movel %a1@(10537),%a4@-
   25bd4:	2929 2929      	movel %a1@(10537),%a4@-
   25bd8:	2929 2929      	movel %a1@(10537),%a4@-
   25bdc:	2929 2929      	movel %a1@(10537),%a4@-
   25be0:	2929 2929      	movel %a1@(10537),%a4@-
   25be4:	2929 2929      	movel %a1@(10537),%a4@-
   25be8:	2929 2929      	movel %a1@(10537),%a4@-
   25bec:	2929 2929      	movel %a1@(10537),%a4@-
   25bf0:	2929 2929      	movel %a1@(10537),%a4@-
   25bf4:	2929 2929      	movel %a1@(10537),%a4@-
   25bf8:	2929 2929      	movel %a1@(10537),%a4@-
   25bfc:	2929 2929      	movel %a1@(10537),%a4@-
   25c00:	2929 2929      	movel %a1@(10537),%a4@-
   25c04:	2929 2929      	movel %a1@(10537),%a4@-
   25c08:	2929 2929      	movel %a1@(10537),%a4@-
   25c0c:	2929 2929      	movel %a1@(10537),%a4@-
   25c10:	2929 2929      	movel %a1@(10537),%a4@-
   25c14:	2929 2929      	movel %a1@(10537),%a4@-
   25c18:	2929 2929      	movel %a1@(10537),%a4@-
   25c1c:	2929 2929      	movel %a1@(10537),%a4@-
   25c20:	2929 2929      	movel %a1@(10537),%a4@-
   25c24:	2929 2929      	movel %a1@(10537),%a4@-
   25c28:	2929 2929      	movel %a1@(10537),%a4@-
   25c2c:	2929 2929      	movel %a1@(10537),%a4@-
   25c30:	2929 2929      	movel %a1@(10537),%a4@-
   25c34:	2929 2929      	movel %a1@(10537),%a4@-
   25c38:	2929 2929      	movel %a1@(10537),%a4@-
   25c3c:	2929 2929      	movel %a1@(10537),%a4@-
   25c40:	2929 2929      	movel %a1@(10537),%a4@-
   25c44:	2929 2929      	movel %a1@(10537),%a4@-
   25c48:	2929 2929      	movel %a1@(10537),%a4@-
   25c4c:	2929 2929      	movel %a1@(10537),%a4@-
   25c50:	2929 2929      	movel %a1@(10537),%a4@-
   25c54:	2929 2929      	movel %a1@(10537),%a4@-
   25c58:	2929 2929      	movel %a1@(10537),%a4@-
   25c5c:	2929 2929      	movel %a1@(10537),%a4@-
   25c60:	2929 2929      	movel %a1@(10537),%a4@-
   25c64:	2929 2929      	movel %a1@(10537),%a4@-
   25c68:	2929 2929      	movel %a1@(10537),%a4@-
   25c6c:	2929 2929      	movel %a1@(10537),%a4@-
   25c70:	2929 2929      	movel %a1@(10537),%a4@-
   25c74:	2929 2929      	movel %a1@(10537),%a4@-
   25c78:	2929 2929      	movel %a1@(10537),%a4@-
   25c7c:	2929 2929      	movel %a1@(10537),%a4@-
   25c80:	2929 2929      	movel %a1@(10537),%a4@-
   25c84:	2929 2929      	movel %a1@(10537),%a4@-
   25c88:	2929 2929      	movel %a1@(10537),%a4@-
   25c8c:	2929 2929      	movel %a1@(10537),%a4@-
   25c90:	2929 2929      	movel %a1@(10537),%a4@-
   25c94:	2929 2929      	movel %a1@(10537),%a4@-
   25c98:	2929 2929      	movel %a1@(10537),%a4@-
   25c9c:	2929 2929      	movel %a1@(10537),%a4@-
   25ca0:	2929 2929      	movel %a1@(10537),%a4@-
   25ca4:	2929 2929      	movel %a1@(10537),%a4@-
   25ca8:	2929 2929      	movel %a1@(10537),%a4@-
   25cac:	2929 2929      	movel %a1@(10537),%a4@-
   25cb0:	2929 2929      	movel %a1@(10537),%a4@-
   25cb4:	2929 2929      	movel %a1@(10537),%a4@-
   25cb8:	2929 2929      	movel %a1@(10537),%a4@-
   25cbc:	2929 2929      	movel %a1@(10537),%a4@-
   25cc0:	2929 2929      	movel %a1@(10537),%a4@-
   25cc4:	2929 2929      	movel %a1@(10537),%a4@-
   25cc8:	2929 2929      	movel %a1@(10537),%a4@-
   25ccc:	2929 2929      	movel %a1@(10537),%a4@-
   25cd0:	2929 2929      	movel %a1@(10537),%a4@-
   25cd4:	2929 2929      	movel %a1@(10537),%a4@-
   25cd8:	2929 2929      	movel %a1@(10537),%a4@-
   25cdc:	2929 2929      	movel %a1@(10537),%a4@-
   25ce0:	2929 2929      	movel %a1@(10537),%a4@-
   25ce4:	2929 2929      	movel %a1@(10537),%a4@-
   25ce8:	2929 2929      	movel %a1@(10537),%a4@-
   25cec:	2929 2929      	movel %a1@(10537),%a4@-
   25cf0:	2929 2929      	movel %a1@(10537),%a4@-
   25cf4:	2929 2929      	movel %a1@(10537),%a4@-
   25cf8:	2929 2929      	movel %a1@(10537),%a4@-
   25cfc:	2929 2929      	movel %a1@(10537),%a4@-
   25d00:	2929 2929      	movel %a1@(10537),%a4@-
   25d04:	2929 2929      	movel %a1@(10537),%a4@-
   25d08:	2929 2929      	movel %a1@(10537),%a4@-
   25d0c:	2929 2929      	movel %a1@(10537),%a4@-
   25d10:	2929 2929      	movel %a1@(10537),%a4@-
   25d14:	2929 2929      	movel %a1@(10537),%a4@-
   25d18:	2929 2929      	movel %a1@(10537),%a4@-
   25d1c:	2929 2929      	movel %a1@(10537),%a4@-
   25d20:	2929 2929      	movel %a1@(10537),%a4@-
   25d24:	2929 2929      	movel %a1@(10537),%a4@-
   25d28:	2929 2929      	movel %a1@(10537),%a4@-
   25d2c:	2929 2929      	movel %a1@(10537),%a4@-
   25d30:	2929 2929      	movel %a1@(10537),%a4@-
   25d34:	2929 2929      	movel %a1@(10537),%a4@-
   25d38:	2929 2929      	movel %a1@(10537),%a4@-
   25d3c:	2929 2929      	movel %a1@(10537),%a4@-
   25d40:	2929 2929      	movel %a1@(10537),%a4@-
   25d44:	2929 2929      	movel %a1@(10537),%a4@-
   25d48:	2929 2929      	movel %a1@(10537),%a4@-
   25d4c:	2929 2929      	movel %a1@(10537),%a4@-
   25d50:	2929 2929      	movel %a1@(10537),%a4@-
   25d54:	2929 2929      	movel %a1@(10537),%a4@-
   25d58:	2929 2929      	movel %a1@(10537),%a4@-
   25d5c:	2929 2929      	movel %a1@(10537),%a4@-
   25d60:	2929 2929      	movel %a1@(10537),%a4@-
   25d64:	2929 2929      	movel %a1@(10537),%a4@-
   25d68:	2929 2929      	movel %a1@(10537),%a4@-
   25d6c:	2929 2929      	movel %a1@(10537),%a4@-
   25d70:	2929 2929      	movel %a1@(10537),%a4@-
   25d74:	2929 2929      	movel %a1@(10537),%a4@-
   25d78:	2929 2929      	movel %a1@(10537),%a4@-
   25d7c:	2929 2929      	movel %a1@(10537),%a4@-
   25d80:	2929 2929      	movel %a1@(10537),%a4@-
   25d84:	2929 2929      	movel %a1@(10537),%a4@-
   25d88:	2929 2929      	movel %a1@(10537),%a4@-
   25d8c:	2929 2929      	movel %a1@(10537),%a4@-
   25d90:	2929 2929      	movel %a1@(10537),%a4@-
   25d94:	2929 2929      	movel %a1@(10537),%a4@-
   25d98:	2929 2929      	movel %a1@(10537),%a4@-
   25d9c:	2929 2929      	movel %a1@(10537),%a4@-
   25da0:	2929 2929      	movel %a1@(10537),%a4@-
   25da4:	2929 2929      	movel %a1@(10537),%a4@-
   25da8:	2929 2929      	movel %a1@(10537),%a4@-
   25dac:	2929 2929      	movel %a1@(10537),%a4@-
   25db0:	2929 2929      	movel %a1@(10537),%a4@-
   25db4:	2929 2929      	movel %a1@(10537),%a4@-
   25db8:	2929 2929      	movel %a1@(10537),%a4@-
   25dbc:	2929 2929      	movel %a1@(10537),%a4@-
   25dc0:	2929 2929      	movel %a1@(10537),%a4@-
   25dc4:	2929 2929      	movel %a1@(10537),%a4@-
   25dc8:	2929 2929      	movel %a1@(10537),%a4@-
   25dcc:	2929 2929      	movel %a1@(10537),%a4@-
   25dd0:	2929 2929      	movel %a1@(10537),%a4@-
   25dd4:	2929 2929      	movel %a1@(10537),%a4@-
   25dd8:	2929 2929      	movel %a1@(10537),%a4@-
   25ddc:	2929 2929      	movel %a1@(10537),%a4@-
   25de0:	2929 2929      	movel %a1@(10537),%a4@-
   25de4:	2929 2929      	movel %a1@(10537),%a4@-
   25de8:	2929 2929      	movel %a1@(10537),%a4@-
   25dec:	2929 2929      	movel %a1@(10537),%a4@-
   25df0:	2929 2929      	movel %a1@(10537),%a4@-
   25df4:	2929 2929      	movel %a1@(10537),%a4@-
   25df8:	2929 2929      	movel %a1@(10537),%a4@-
   25dfc:	2929 2929      	movel %a1@(10537),%a4@-
   25e00:	2929 2929      	movel %a1@(10537),%a4@-
   25e04:	2929 2929      	movel %a1@(10537),%a4@-
   25e08:	2929 2929      	movel %a1@(10537),%a4@-
   25e0c:	2929 2929      	movel %a1@(10537),%a4@-
   25e10:	2929 2929      	movel %a1@(10537),%a4@-
   25e14:	2929 2929      	movel %a1@(10537),%a4@-
   25e18:	2929 2929      	movel %a1@(10537),%a4@-
   25e1c:	2929 2929      	movel %a1@(10537),%a4@-
   25e20:	2929 2929      	movel %a1@(10537),%a4@-
   25e24:	2929 2929      	movel %a1@(10537),%a4@-
   25e28:	2929 2929      	movel %a1@(10537),%a4@-
   25e2c:	2929 2929      	movel %a1@(10537),%a4@-
   25e30:	2929 2929      	movel %a1@(10537),%a4@-
   25e34:	2929 2929      	movel %a1@(10537),%a4@-
   25e38:	2929 2929      	movel %a1@(10537),%a4@-
   25e3c:	2929 2929      	movel %a1@(10537),%a4@-
   25e40:	2929 2929      	movel %a1@(10537),%a4@-
   25e44:	2929 2929      	movel %a1@(10537),%a4@-
   25e48:	2929 2929      	movel %a1@(10537),%a4@-
   25e4c:	2929 2929      	movel %a1@(10537),%a4@-
   25e50:	2929 2929      	movel %a1@(10537),%a4@-
   25e54:	2929 2929      	movel %a1@(10537),%a4@-
   25e58:	2929 2929      	movel %a1@(10537),%a4@-
   25e5c:	2929 2929      	movel %a1@(10537),%a4@-
   25e60:	2929 2929      	movel %a1@(10537),%a4@-
   25e64:	2929 2929      	movel %a1@(10537),%a4@-
   25e68:	2929 2929      	movel %a1@(10537),%a4@-
   25e6c:	2929 2929      	movel %a1@(10537),%a4@-
   25e70:	2929 2929      	movel %a1@(10537),%a4@-
   25e74:	2929 2929      	movel %a1@(10537),%a4@-
   25e78:	2929 2929      	movel %a1@(10537),%a4@-
   25e7c:	2929 2929      	movel %a1@(10537),%a4@-
   25e80:	2929 2929      	movel %a1@(10537),%a4@-
   25e84:	2929 2929      	movel %a1@(10537),%a4@-
   25e88:	2929 2929      	movel %a1@(10537),%a4@-
   25e8c:	2929 2929      	movel %a1@(10537),%a4@-
   25e90:	2929 2929      	movel %a1@(10537),%a4@-
   25e94:	2929 2929      	movel %a1@(10537),%a4@-
   25e98:	2929 2929      	movel %a1@(10537),%a4@-
   25e9c:	2929 2929      	movel %a1@(10537),%a4@-
   25ea0:	2929 2929      	movel %a1@(10537),%a4@-
   25ea4:	2929 2929      	movel %a1@(10537),%a4@-
   25ea8:	2929 2929      	movel %a1@(10537),%a4@-
   25eac:	2929 2929      	movel %a1@(10537),%a4@-
   25eb0:	2929 2929      	movel %a1@(10537),%a4@-
   25eb4:	2929 2929      	movel %a1@(10537),%a4@-
   25eb8:	2929 2929      	movel %a1@(10537),%a4@-
   25ebc:	2929 2929      	movel %a1@(10537),%a4@-
   25ec0:	2929 2929      	movel %a1@(10537),%a4@-
   25ec4:	2929 2929      	movel %a1@(10537),%a4@-
   25ec8:	2929 2929      	movel %a1@(10537),%a4@-
   25ecc:	2929 2929      	movel %a1@(10537),%a4@-
   25ed0:	2929 2929      	movel %a1@(10537),%a4@-
   25ed4:	2929 2929      	movel %a1@(10537),%a4@-
   25ed8:	2929 2929      	movel %a1@(10537),%a4@-
   25edc:	2929 2929      	movel %a1@(10537),%a4@-
   25ee0:	2929 2929      	movel %a1@(10537),%a4@-
   25ee4:	2929 2929      	movel %a1@(10537),%a4@-
   25ee8:	2929 2929      	movel %a1@(10537),%a4@-
   25eec:	2929 2929      	movel %a1@(10537),%a4@-
   25ef0:	2929 2929      	movel %a1@(10537),%a4@-
   25ef4:	2929 2f2f      	movel %a1@(12079),%a4@-
   25ef8:	2f2f 2f2f      	movel %sp@(12079),%sp@-
   25efc:	2f2f 2f2f      	movel %sp@(12079),%sp@-
   25f00:	2f2f 2f2f      	movel %sp@(12079),%sp@-
   25f04:	2f2f 2f2f      	movel %sp@(12079),%sp@-
   25f08:	2f2f 2f2f      	movel %sp@(12079),%sp@-
   25f0c:	2f2f 2f2f      	movel %sp@(12079),%sp@-
   25f10:	2f2f 2f2f      	movel %sp@(12079),%sp@-
   25f14:	2f2f 2f2f      	movel %sp@(12079),%sp@-
   25f18:	2f2f 2f2f      	movel %sp@(12079),%sp@-
   25f1c:	2f2f 2f2f      	movel %sp@(12079),%sp@-
   25f20:	2f2f 2f2f      	movel %sp@(12079),%sp@-
   25f24:	2f2f 2f2f      	movel %sp@(12079),%sp@-
   25f28:	2f2f 2f2f      	movel %sp@(12079),%sp@-
   25f2c:	2f2f 2f2f      	movel %sp@(12079),%sp@-
   25f30:	2f2f 2f2f      	movel %sp@(12079),%sp@-
   25f34:	2f2f 2f2f      	movel %sp@(12079),%sp@-
   25f38:	2f2f 2f2f      	movel %sp@(12079),%sp@-
   25f3c:	2f2f 2f2f      	movel %sp@(12079),%sp@-
   25f40:	2f2f 2f2f      	movel %sp@(12079),%sp@-
   25f44:	2f2f 2f2f      	movel %sp@(12079),%sp@-
   25f48:	2f2f 2f2f      	movel %sp@(12079),%sp@-
   25f4c:	2f2f 2f2f      	movel %sp@(12079),%sp@-
   25f50:	2f2f 2f2f      	movel %sp@(12079),%sp@-
   25f54:	2f2f 2f2f      	movel %sp@(12079),%sp@-
   25f58:	2f2f 2f2f      	movel %sp@(12079),%sp@-
   25f5c:	2f2f 2f2f      	movel %sp@(12079),%sp@-
   25f60:	2f2f 2f2f      	movel %sp@(12079),%sp@-
   25f64:	2f2f 2f2f      	movel %sp@(12079),%sp@-
   25f68:	2f2f 2f2f      	movel %sp@(12079),%sp@-
   25f6c:	2f2f 2f2f      	movel %sp@(12079),%sp@-
   25f70:	2f2f 2f2f      	movel %sp@(12079),%sp@-
   25f74:	2f2f 2f2f      	movel %sp@(12079),%sp@-
   25f78:	2529 2929      	movel %a1@(10537),%a2@-
   25f7c:	2929 2929      	movel %a1@(10537),%a4@-
   25f80:	2929 2929      	movel %a1@(10537),%a4@-
   25f84:	2929 2929      	movel %a1@(10537),%a4@-
   25f88:	2f2f 2f2f      	movel %sp@(12079),%sp@-
   25f8c:	2f2f 2f2f      	movel %sp@(12079),%sp@-
   25f90:	2f2f 2f2f      	movel %sp@(12079),%sp@-
   25f94:	2f2f 2f2f      	movel %sp@(12079),%sp@-
   25f98:	2f2f 2f2f      	movel %sp@(12079),%sp@-
   25f9c:	2f2f 2f2f      	movel %sp@(12079),%sp@-
   25fa0:	2f2f 2f2f      	movel %sp@(12079),%sp@-
   25fa4:	2f2f 2f2f      	movel %sp@(12079),%sp@-
   25fa8:	2f2f 2f2f      	movel %sp@(12079),%sp@-
   25fac:	2f2f 2f2f      	movel %sp@(12079),%sp@-
   25fb0:	2f2f 2f2f      	movel %sp@(12079),%sp@-
   25fb4:	2f2f 2f2f      	movel %sp@(12079),%sp@-
   25fb8:	2f2f 2f2f      	movel %sp@(12079),%sp@-
   25fbc:	2f2f 2f2f      	movel %sp@(12079),%sp@-
   25fc0:	2f2f 2f2f      	movel %sp@(12079),%sp@-
   25fc4:	2f2f 2f2f      	movel %sp@(12079),%sp@-
   25fc8:	2f2f 2f2f      	movel %sp@(12079),%sp@-
   25fcc:	2f2f 2f2f      	movel %sp@(12079),%sp@-
   25fd0:	2f2f 2f2f      	movel %sp@(12079),%sp@-
   25fd4:	2f2f 2f2f      	movel %sp@(12079),%sp@-
   25fd8:	2f2f 2f2f      	movel %sp@(12079),%sp@-
   25fdc:	2f2f 2f2f      	movel %sp@(12079),%sp@-
   25fe0:	2f2f 2e2e      	movel %sp@(11822),%sp@-
   25fe4:	2e2e 2e2e      	movel %fp@(11822),%d7
   25fe8:	2e2e 2e2e      	movel %fp@(11822),%d7
   25fec:	2e2e 2e2e      	movel %fp@(11822),%d7
   25ff0:	2e2e 2e2e      	movel %fp@(11822),%d7
   25ff4:	2e2e 2e2e      	movel %fp@(11822),%d7
   25ff8:	2e2e 2e2e      	movel %fp@(11822),%d7
   25ffc:	2e2e 2e2e      	movel %fp@(11822),%d7
   26000:	2e2e 2e2e      	movel %fp@(11822),%d7
   26004:	2e2e 2e2e      	movel %fp@(11822),%d7
   26008:	2e2e 2d2d      	movel %fp@(11565),%d7
   2600c:	2d2d 2d2d      	movel %a5@(11565),%fp@-
   26010:	2d2d 2d2d      	movel %a5@(11565),%fp@-
   26014:	2d2d 2d2d      	movel %a5@(11565),%fp@-
   26018:	2d2d 2d2c      	movel %a5@(11564),%fp@-
   2601c:	2c2c 2c2c      	movel %a4@(11308),%d6
   26020:	2c26           	movel %fp@-,%d6
   26022:	2929 2929      	movel %a1@(10537),%a4@-
   26026:	2929 2929      	movel %a1@(10537),%a4@-
   2602a:	2929 2929      	movel %a1@(10537),%a4@-
   2602e:	2929 2929      	movel %a1@(10537),%a4@-
   26032:	2929 2929      	movel %a1@(10537),%a4@-
   26036:	2f2f 2f2f      	movel %sp@(12079),%sp@-
   2603a:	2f2f 2f2f      	movel %sp@(12079),%sp@-
   2603e:	2f2f 2f2f      	movel %sp@(12079),%sp@-
   26042:	2f2f 2f2f      	movel %sp@(12079),%sp@-
   26046:	2f2f 2f2f      	movel %sp@(12079),%sp@-
   2604a:	2f2f 2f2f      	movel %sp@(12079),%sp@-
   2604e:	2f2f 2f2f      	movel %sp@(12079),%sp@-
   26052:	2f2f 2f2f      	movel %sp@(12079),%sp@-
   26056:	2f2f 2f2f      	movel %sp@(12079),%sp@-
   2605a:	2f2f 2f2f      	movel %sp@(12079),%sp@-
   2605e:	2f2f 2f2f      	movel %sp@(12079),%sp@-
   26062:	2f2f 2f2f      	movel %sp@(12079),%sp@-
   26066:	2f2f 2f2f      	movel %sp@(12079),%sp@-
   2606a:	2f2f 2f2f      	movel %sp@(12079),%sp@-
   2606e:	2f2f 2f2f      	movel %sp@(12079),%sp@-
   26072:	2f2f 2f2f      	movel %sp@(12079),%sp@-
   26076:	2f2f 2f2f      	movel %sp@(12079),%sp@-
   2607a:	2f2f 2f2f      	movel %sp@(12079),%sp@-
   2607e:	2f2f 2f2f      	movel %sp@(12079),%sp@-
   26082:	2f2f 2f2f      	movel %sp@(12079),%sp@-
   26086:	2f2f 2f2f      	movel %sp@(12079),%sp@-
   2608a:	2f2f 2f2f      	movel %sp@(12079),%sp@-
   2608e:	2f2f 2f2f      	movel %sp@(12079),%sp@-
   26092:	2f2f 2f2f      	movel %sp@(12079),%sp@-
   26096:	2f2f 2f2f      	movel %sp@(12079),%sp@-
   2609a:	2f2f 2f2f      	movel %sp@(12079),%sp@-
   2609e:	2f2f 2f2f      	movel %sp@(12079),%sp@-
   260a2:	2f2f 2f2f      	movel %sp@(12079),%sp@-
   260a6:	2f2f 2f2f      	movel %sp@(12079),%sp@-
   260aa:	2f2f 2f2f      	movel %sp@(12079),%sp@-
   260ae:	2f2f 2f2f      	movel %sp@(12079),%sp@-
   260b2:	2f2f 2f2f      	movel %sp@(12079),%sp@-
   260b6:	2f2f 2529      	movel %sp@(9513),%sp@-
   260ba:	2929 2929      	movel %a1@(10537),%a4@-
   260be:	2929 2929      	movel %a1@(10537),%a4@-
   260c2:	2929 2929      	movel %a1@(10537),%a4@-
   260c6:	2929 2f2f      	movel %a1@(12079),%a4@-
   260ca:	2f2f 2f2f      	movel %sp@(12079),%sp@-
   260ce:	2f2f 2f2f      	movel %sp@(12079),%sp@-
   260d2:	2f2f 2f2f      	movel %sp@(12079),%sp@-
   260d6:	2f2f 2f2f      	movel %sp@(12079),%sp@-
   260da:	2f2f 2f2f      	movel %sp@(12079),%sp@-
   260de:	2f2f 2f2f      	movel %sp@(12079),%sp@-
   260e2:	2f2f 2f2f      	movel %sp@(12079),%sp@-
   260e6:	2f2f 2f2f      	movel %sp@(12079),%sp@-
   260ea:	2f2f 2f2f      	movel %sp@(12079),%sp@-
   260ee:	2f2f 2f2f      	movel %sp@(12079),%sp@-
   260f2:	2f2f 2f2f      	movel %sp@(12079),%sp@-
   260f6:	2f2f 2f2f      	movel %sp@(12079),%sp@-
   260fa:	2f2f 2f2f      	movel %sp@(12079),%sp@-
   260fe:	2f2f 2f2f      	movel %sp@(12079),%sp@-
   26102:	2f2f 2f2f      	movel %sp@(12079),%sp@-
   26106:	2f2f 2f2f      	movel %sp@(12079),%sp@-
   2610a:	2f2f 2f2f      	movel %sp@(12079),%sp@-
   2610e:	2f2f 2f2f      	movel %sp@(12079),%sp@-
   26112:	2f2f 2f2f      	movel %sp@(12079),%sp@-
   26116:	2f2f 2f2f      	movel %sp@(12079),%sp@-
   2611a:	2f2f 2f2f      	movel %sp@(12079),%sp@-
   2611e:	2f2f 2f2f      	movel %sp@(12079),%sp@-
   26122:	2f2f 2f2f      	movel %sp@(12079),%sp@-
   26126:	2f2f 2f2f      	movel %sp@(12079),%sp@-
   2612a:	2f2f 2f2f      	movel %sp@(12079),%sp@-
   2612e:	2f2f 2f2f      	movel %sp@(12079),%sp@-
   26132:	2f2f 2f2f      	movel %sp@(12079),%sp@-
   26136:	2f2f 2f2f      	movel %sp@(12079),%sp@-
   2613a:	2f2f 2f2f      	movel %sp@(12079),%sp@-
   2613e:	2f2f 2f2f      	movel %sp@(12079),%sp@-
   26142:	2f2f 2f2f      	movel %sp@(12079),%sp@-
   26146:	2f2f 2f2f      	movel %sp@(12079),%sp@-
   2614a:	2f2f 2f2f      	movel %sp@(12079),%sp@-
   2614e:	2f2f 2f2f      	movel %sp@(12079),%sp@-
   26152:	2f2f 2f2f      	movel %sp@(12079),%sp@-
   26156:	2f2f 2f2f      	movel %sp@(12079),%sp@-
   2615a:	2f2f 2f2f      	movel %sp@(12079),%sp@-
   2615e:	2f2f 2f23      	movel %sp@(12067),%sp@-
   26162:	2929 2929      	movel %a1@(10537),%a4@-
   26166:	2929 2929      	movel %a1@(10537),%a4@-
   2616a:	2929 2929      	movel %a1@(10537),%a4@-
   2616e:	2929 2929      	movel %a1@(10537),%a4@-
   26172:	2929 2929      	movel %a1@(10537),%a4@-
   26176:	2f2f 2d2d      	movel %sp@(11565),%sp@-
   2617a:	2d2d 2d2d      	movel %a5@(11565),%fp@-
   2617e:	2d2d 2d2d      	movel %a5@(11565),%fp@-
   26182:	2d2d 2d2d      	movel %a5@(11565),%fp@-
   26186:	2d2d 2d2d      	movel %a5@(11565),%fp@-
   2618a:	2d2d 2d2d      	movel %a5@(11565),%fp@-
   2618e:	2d2d 2d2d      	movel %a5@(11565),%fp@-
   26192:	2d2d 2d2d      	movel %a5@(11565),%fp@-
   26196:	2d2d 2d2d      	movel %a5@(11565),%fp@-
   2619a:	2d2d 2d2d      	movel %a5@(11565),%fp@-
   2619e:	2d2d 2d2d      	movel %a5@(11565),%fp@-
   261a2:	2d2d 2d2d      	movel %a5@(11565),%fp@-
   261a6:	2d2d 2d2d      	movel %a5@(11565),%fp@-
   261aa:	2d2d 2d2d      	movel %a5@(11565),%fp@-
   261ae:	2d2d 2d2d      	movel %a5@(11565),%fp@-
   261b2:	2d2d 2d2d      	movel %a5@(11565),%fp@-
   261b6:	2d2d 2d2d      	movel %a5@(11565),%fp@-
   261ba:	2d2d 2d2d      	movel %a5@(11565),%fp@-
   261be:	2d2d 2d2d      	movel %a5@(11565),%fp@-
   261c2:	2d2d 2d2d      	movel %a5@(11565),%fp@-
   261c6:	2d2d 2d2d      	movel %a5@(11565),%fp@-
   261ca:	2d2d 2d2d      	movel %a5@(11565),%fp@-
   261ce:	2d2d 2d2d      	movel %a5@(11565),%fp@-
   261d2:	2d2d 2d2d      	movel %a5@(11565),%fp@-
   261d6:	2d2d 2d2d      	movel %a5@(11565),%fp@-
   261da:	2d2d 2d2d      	movel %a5@(11565),%fp@-
   261de:	2d2d 2d2d      	movel %a5@(11565),%fp@-
   261e2:	2d2d 2d2d      	movel %a5@(11565),%fp@-
   261e6:	2d2d 2d2d      	movel %a5@(11565),%fp@-
   261ea:	2d2d 2d2d      	movel %a5@(11565),%fp@-
   261ee:	2d2d 2d2d      	movel %a5@(11565),%fp@-
   261f2:	2d2d 2d2d      	movel %a5@(11565),%fp@-
   261f6:	2d2d 2229      	movel %a5@(8745),%fp@-
   261fa:	2929 2929      	movel %a1@(10537),%a4@-
   261fe:	2929 2929      	movel %a1@(10537),%a4@-
   26202:	2929 2929      	movel %a1@(10537),%a4@-
   26206:	2929 2f2f      	movel %a1@(12079),%a4@-
   2620a:	2d2d 2d2d      	movel %a5@(11565),%fp@-
   2620e:	2d2d 2d2d      	movel %a5@(11565),%fp@-
   26212:	2d2d 2d2d      	movel %a5@(11565),%fp@-
   26216:	2d2d 2d2d      	movel %a5@(11565),%fp@-
   2621a:	2d2d 2d2d      	movel %a5@(11565),%fp@-
   2621e:	2d2d 2d2d      	movel %a5@(11565),%fp@-
   26222:	2d2d 2d2d      	movel %a5@(11565),%fp@-
   26226:	2d2d 2d2d      	movel %a5@(11565),%fp@-
   2622a:	2d2d 2d2d      	movel %a5@(11565),%fp@-
   2622e:	2d2d 2d2d      	movel %a5@(11565),%fp@-
   26232:	2d2d 2d2d      	movel %a5@(11565),%fp@-
   26236:	2d2d 2d2d      	movel %a5@(11565),%fp@-
   2623a:	2d2d 2d2d      	movel %a5@(11565),%fp@-
   2623e:	2d2d 2d2d      	movel %a5@(11565),%fp@-
   26242:	2d2d 2d2d      	movel %a5@(11565),%fp@-
   26246:	2d2d 2d2d      	movel %a5@(11565),%fp@-
   2624a:	2d2d 2d2d      	movel %a5@(11565),%fp@-
   2624e:	2d2d 2d2d      	movel %a5@(11565),%fp@-
   26252:	2d2d 2d2d      	movel %a5@(11565),%fp@-
   26256:	2d2d 2d2d      	movel %a5@(11565),%fp@-
   2625a:	2d2d 2d2d      	movel %a5@(11565),%fp@-
   2625e:	2d2d 2d2d      	movel %a5@(11565),%fp@-
   26262:	2d2d 2d2d      	movel %a5@(11565),%fp@-
   26266:	2d2d 2d2d      	movel %a5@(11565),%fp@-
   2626a:	2d2d 2d2d      	movel %a5@(11565),%fp@-
   2626e:	2d2d 2d2d      	movel %a5@(11565),%fp@-
   26272:	2d2d 2d2d      	movel %a5@(11565),%fp@-
   26276:	2d2d 2d2d      	movel %a5@(11565),%fp@-
   2627a:	2d2d 2d2d      	movel %a5@(11565),%fp@-
   2627e:	2d2d 2d2d      	movel %a5@(11565),%fp@-
   26282:	2d2d 2d2d      	movel %a5@(11565),%fp@-
   26286:	2d2d 2d2d      	movel %a5@(11565),%fp@-
   2628a:	2d2d 2d2d      	movel %a5@(11565),%fp@-
   2628e:	2d2d 2d2d      	movel %a5@(11565),%fp@-
   26292:	2d2d 2d2d      	movel %a5@(11565),%fp@-
   26296:	2d2d 2d2d      	movel %a5@(11565),%fp@-
   2629a:	2d2d 2d2d      	movel %a5@(11565),%fp@-
   2629e:	2d2d 2d20      	movel %a5@(11552),%fp@-
   262a2:	2929 2929      	movel %a1@(10537),%a4@-
   262a6:	2929 2929      	movel %a1@(10537),%a4@-
   262aa:	2929 2929      	movel %a1@(10537),%a4@-
   262ae:	2929 2929      	movel %a1@(10537),%a4@-
   262b2:	2929 2929      	movel %a1@(10537),%a4@-
   262b6:	2f2f 2d2d      	movel %sp@(11565),%sp@-
   262ba:	7a7a           	moveq #122,%d5
   262bc:	7a7a           	moveq #122,%d5
   262be:	2d2d 2d7a      	movel %a5@(11642),%fp@-
   262c2:	7a2d           	moveq #45,%d5
   262c4:	2d7a 7a2d 2d2d 	movel %pc@(2dcf3 <picData+0xdc9f>),%fp@(11565)
   262ca:	7a7a           	moveq #122,%d5
   262cc:	7a7a           	moveq #122,%d5
   262ce:	2d2d 2d7a      	movel %a5@(11642),%fp@-
   262d2:	7a2d           	moveq #45,%d5
   262d4:	2d7a 7a2d 2d2d 	movel %pc@(2dd03 <picData+0xdcaf>),%fp@(11565)
   262da:	2d2d 2d2d      	movel %a5@(11565),%fp@-
   262de:	7a7a           	moveq #122,%d5
   262e0:	7a7a           	moveq #122,%d5
   262e2:	2d2d 2d7a      	movel %a5@(11642),%fp@-
   262e6:	7a7a           	moveq #122,%d5
   262e8:	7a7a           	moveq #122,%d5
   262ea:	2d2d 2d7a      	movel %a5@(11642),%fp@-
   262ee:	7a2d           	moveq #45,%d5
   262f0:	2d2d 2d2d      	movel %a5@(11565),%fp@-
   262f4:	2d7a 7a7a 7a7a 	movel %pc@(2dd70 <picData+0xdd1c>),%fp@(31354)
   262fa:	7a2d           	moveq #45,%d5
   262fc:	2d2d 2d2d      	movel %a5@(11565),%fp@-
   26300:	2d2d 7a7a      	movel %a5@(31354),%fp@-
   26304:	2d2d 2d2d      	movel %a5@(11565),%fp@-
   26308:	2d7a 7a2d 2d7a 	movel %pc@(2dd37 <picData+0xdce3>),%fp@(11642)
   2630e:	7a7a           	moveq #122,%d5
   26310:	7a7a           	moveq #122,%d5
   26312:	7a2d           	moveq #45,%d5
   26314:	2d7a 7a2d 2d2d 	movel %pc@(2dd43 <picData+0xdcef>),%fp@(11565)
   2631a:	2d2d 7a7a      	movel %a5@(31354),%fp@-
   2631e:	2d2d 2d7a      	movel %a5@(11642),%fp@-
   26322:	7a7a           	moveq #122,%d5
   26324:	7a2d           	moveq #45,%d5
   26326:	2d2d 7a7a      	movel %a5@(31354),%fp@-
   2632a:	7a7a           	moveq #122,%d5
   2632c:	7a2d           	moveq #45,%d5
   2632e:	2d2d 7a7a      	movel %a5@(31354),%fp@-
   26332:	2d2d 7a7a      	movel %a5@(31354),%fp@-
   26336:	2d2d 2229      	movel %a5@(8745),%fp@-
   2633a:	2929 2929      	movel %a1@(10537),%a4@-
   2633e:	2929 2929      	movel %a1@(10537),%a4@-
   26342:	2929 2929      	movel %a1@(10537),%a4@-
   26346:	2929 2f2f      	movel %a1@(12079),%a4@-
   2634a:	2d2d 2d2d      	movel %a5@(11565),%fp@-
   2634e:	2d2d 2d2d      	movel %a5@(11565),%fp@-
   26352:	2d2d 2d2d      	movel %a5@(11565),%fp@-
   26356:	2d2d 2d2d      	movel %a5@(11565),%fp@-
   2635a:	2d2d 2d2d      	movel %a5@(11565),%fp@-
   2635e:	2d2d 2d2d      	movel %a5@(11565),%fp@-
   26362:	2d2d 2d2d      	movel %a5@(11565),%fp@-
   26366:	2d2d 2d2d      	movel %a5@(11565),%fp@-
   2636a:	2d2d 2d2d      	movel %a5@(11565),%fp@-
   2636e:	2d2d 2d2d      	movel %a5@(11565),%fp@-
   26372:	2d2d 2d2d      	movel %a5@(11565),%fp@-
   26376:	2d2d 2d2d      	movel %a5@(11565),%fp@-
   2637a:	2d2d 2d2d      	movel %a5@(11565),%fp@-
   2637e:	2d2d 2d2d      	movel %a5@(11565),%fp@-
   26382:	2d2d 2d2d      	movel %a5@(11565),%fp@-
   26386:	2d2d 2d2d      	movel %a5@(11565),%fp@-
   2638a:	2d2d 2d2d      	movel %a5@(11565),%fp@-
   2638e:	2d2d 2d2d      	movel %a5@(11565),%fp@-
   26392:	2d2d 2d2d      	movel %a5@(11565),%fp@-
   26396:	2d2d 2d2d      	movel %a5@(11565),%fp@-
   2639a:	2d2d 2d2d      	movel %a5@(11565),%fp@-
   2639e:	2d2d 2d2d      	movel %a5@(11565),%fp@-
   263a2:	2d2d 2d2d      	movel %a5@(11565),%fp@-
   263a6:	2d2d 2d2d      	movel %a5@(11565),%fp@-
   263aa:	2d2d 2d2d      	movel %a5@(11565),%fp@-
   263ae:	2d2d 2d2d      	movel %a5@(11565),%fp@-
   263b2:	2d2d 2d2d      	movel %a5@(11565),%fp@-
   263b6:	2d2d 2d2d      	movel %a5@(11565),%fp@-
   263ba:	2d2d 2d2d      	movel %a5@(11565),%fp@-
   263be:	2d2d 2d2d      	movel %a5@(11565),%fp@-
   263c2:	2d2d 2d2d      	movel %a5@(11565),%fp@-
   263c6:	2d2d 2d2d      	movel %a5@(11565),%fp@-
   263ca:	2d2d 2d2d      	movel %a5@(11565),%fp@-
   263ce:	2d2d 2d2d      	movel %a5@(11565),%fp@-
   263d2:	2d2d 2d2d      	movel %a5@(11565),%fp@-
   263d6:	2d2d 2d2d      	movel %a5@(11565),%fp@-
   263da:	2d2d 2d2d      	movel %a5@(11565),%fp@-
   263de:	2d2d 2d36      	movel %a5@(11574),%fp@-
   263e2:	2929 2929      	movel %a1@(10537),%a4@-
   263e6:	2929 2929      	movel %a1@(10537),%a4@-
   263ea:	2929 2929      	movel %a1@(10537),%a4@-
   263ee:	2929 2929      	movel %a1@(10537),%a4@-
   263f2:	2929 2929      	movel %a1@(10537),%a4@-
   263f6:	2f2f 2d7a      	movel %sp@(11642),%sp@-
   263fa:	7a7a           	moveq #122,%d5
   263fc:	7a7a           	moveq #122,%d5
   263fe:	7a2d           	moveq #45,%d5
   26400:	2d7a 7a2d 2d7a 	movel %pc@(2de2f <picData+0xdddb>),%fp@(11642)
   26406:	7a2d           	moveq #45,%d5
   26408:	2d7a 7a7a 7a7a 	movel %pc@(2de84 <picData+0xde30>),%fp@(31354)
   2640e:	7a2d           	moveq #45,%d5
   26410:	2d7a 7a2d 2d7a 	movel %pc@(2de3f <picData+0xddeb>),%fp@(11642)
   26416:	7a2d           	moveq #45,%d5
   26418:	2d2d 2d2d      	movel %a5@(11565),%fp@-
   2641c:	2d7a 7a7a 7a7a 	movel %pc@(2de98 <picData+0xde44>),%fp@(31354)
   26422:	7a2d           	moveq #45,%d5
   26424:	2d7a 7a7a 7a7a 	movel %pc@(2dea0 <picData+0xde4c>),%fp@(31354)
   2642a:	7a2d           	moveq #45,%d5
   2642c:	2d7a 7a2d 2d2d 	movel %pc@(2de5b <picData+0xde07>),%fp@(11565)
   26432:	2d2d 2d7a      	movel %a5@(11642),%fp@-
   26436:	7a7a           	moveq #122,%d5
   26438:	7a7a           	moveq #122,%d5
   2643a:	7a2d           	moveq #45,%d5
   2643c:	2d2d 2d2d      	movel %a5@(11565),%fp@-
   26440:	2d2d 7a7a      	movel %a5@(31354),%fp@-
   26444:	7a2d           	moveq #45,%d5
   26446:	2d2d 7a7a      	movel %a5@(31354),%fp@-
   2644a:	7a2d           	moveq #45,%d5
   2644c:	2d7a 7a7a 7a7a 	movel %pc@(2dec8 <picData+0xde74>),%fp@(31354)
   26452:	7a2d           	moveq #45,%d5
   26454:	2d7a 7a7a 2d2d 	movel %pc@(2ded0 <picData+0xde7c>),%fp@(11565)
   2645a:	2d7a 7a7a 2d2d 	movel %pc@(2ded6 <picData+0xde82>),%fp@(11565)
   26460:	7a7a           	moveq #122,%d5
   26462:	7a7a           	moveq #122,%d5
   26464:	7a7a           	moveq #122,%d5
   26466:	2d2d 7a7a      	movel %a5@(31354),%fp@-
   2646a:	7a7a           	moveq #122,%d5
   2646c:	7a7a           	moveq #122,%d5
   2646e:	2d2d 7a7a      	movel %a5@(31354),%fp@-
   26472:	2d2d 7a7a      	movel %a5@(31354),%fp@-
   26476:	2d2d 2229      	movel %a5@(8745),%fp@-
   2647a:	2929 2929      	movel %a1@(10537),%a4@-
   2647e:	2929 2929      	movel %a1@(10537),%a4@-
   26482:	2929 2929      	movel %a1@(10537),%a4@-
   26486:	2929 2f2f      	movel %a1@(12079),%a4@-
   2648a:	2d2d 2d2d      	movel %a5@(11565),%fp@-
   2648e:	2d2d 2d2d      	movel %a5@(11565),%fp@-
   26492:	2d2d 2d2d      	movel %a5@(11565),%fp@-
   26496:	2d2d 2d2d      	movel %a5@(11565),%fp@-
   2649a:	2d2d 2d2d      	movel %a5@(11565),%fp@-
   2649e:	2d2d 2d2d      	movel %a5@(11565),%fp@-
   264a2:	2d2d 1717      	movel %a5@(5911),%fp@-
   264a6:	172d 2d2d      	moveb %a5@(11565),%a3@-
   264aa:	2d2d 1717      	movel %a5@(5911),%fp@-
   264ae:	172d 2d17      	moveb %a5@(11543),%a3@-
   264b2:	1717           	moveb %sp@,%a3@-
   264b4:	1717           	moveb %sp@,%a3@-
   264b6:	1717           	moveb %sp@,%a3@-
   264b8:	2d2d 1717      	movel %a5@(5911),%fp@-
   264bc:	172d 2d2d      	moveb %a5@(11565),%a3@-
   264c0:	1717           	moveb %sp@,%a3@-
   264c2:	172d 2d17      	moveb %a5@(11543),%a3@-
   264c6:	1717           	moveb %sp@,%a3@-
   264c8:	1717           	moveb %sp@,%a3@-
   264ca:	1717           	moveb %sp@,%a3@-
   264cc:	2d2d 1717      	movel %a5@(5911),%fp@-
   264d0:	1717           	moveb %sp@,%a3@-
   264d2:	1717           	moveb %sp@,%a3@-
   264d4:	1717           	moveb %sp@,%a3@-
   264d6:	2d2d 2d2d      	movel %a5@(11565),%fp@-
   264da:	2d2d 2d2d      	movel %a5@(11565),%fp@-
   264de:	2d2d 2d2d      	movel %a5@(11565),%fp@-
   264e2:	2d2d 2d2d      	movel %a5@(11565),%fp@-
   264e6:	2d2d 2d2d      	movel %a5@(11565),%fp@-
   264ea:	2d2d 2d2d      	movel %a5@(11565),%fp@-
   264ee:	2d2d 2d2d      	movel %a5@(11565),%fp@-
   264f2:	2d2d 2d2d      	movel %a5@(11565),%fp@-
   264f6:	2d2d 2d2d      	movel %a5@(11565),%fp@-
   264fa:	2d2d 2d2d      	movel %a5@(11565),%fp@-
   264fe:	2d2d 2d2d      	movel %a5@(11565),%fp@-
   26502:	2d2d 2d2d      	movel %a5@(11565),%fp@-
   26506:	2d2d 2d2d      	movel %a5@(11565),%fp@-
   2650a:	2d2d 2d2d      	movel %a5@(11565),%fp@-
   2650e:	2d2d 2d2d      	movel %a5@(11565),%fp@-
   26512:	2d2d 2d2d      	movel %a5@(11565),%fp@-
   26516:	2d2d 2d2d      	movel %a5@(11565),%fp@-
   2651a:	2d2d 2d2d      	movel %a5@(11565),%fp@-
   2651e:	2d2d 2d36      	movel %a5@(11574),%fp@-
   26522:	2929 2929      	movel %a1@(10537),%a4@-
   26526:	2929 2929      	movel %a1@(10537),%a4@-
   2652a:	2929 2929      	movel %a1@(10537),%a4@-
   2652e:	2929 2929      	movel %a1@(10537),%a4@-
   26532:	2929 2929      	movel %a1@(10537),%a4@-
   26536:	2f2f 2d7a      	movel %sp@(11642),%sp@-
   2653a:	7a2d           	moveq #45,%d5
   2653c:	2d7a 7a2d 2d7a 	movel %pc@(2df6b <picData+0xdf17>),%fp@(11642)
   26542:	7a2d           	moveq #45,%d5
   26544:	2d7a 7a2d 2d7a 	movel %pc@(2df73 <picData+0xdf1f>),%fp@(11642)
   2654a:	7a2d           	moveq #45,%d5
   2654c:	2d7a 7a2d 2d7a 	movel %pc@(2df7b <picData+0xdf27>),%fp@(11642)
   26552:	7a2d           	moveq #45,%d5
   26554:	2d7a 7a2d 2d2d 	movel %pc@(2df83 <picData+0xdf2f>),%fp@(11565)
   2655a:	2d2d 2d7a      	movel %a5@(11642),%fp@-
   2655e:	7a2d           	moveq #45,%d5
   26560:	2d7a 7a2d 2d7a 	movel %pc@(2df8f <picData+0xdf3b>),%fp@(11642)
   26566:	7a2d           	moveq #45,%d5
   26568:	2d7a 7a2d 2d7a 	movel %pc@(2df97 <picData+0xdf43>),%fp@(11642)
   2656e:	7a2d           	moveq #45,%d5
   26570:	2d2d 2d2d      	movel %a5@(11565),%fp@-
   26574:	2d7a 7a2d 2d2d 	movel %pc@(2dfa3 <picData+0xdf4f>),%fp@(11565)
   2657a:	2d2d 2d2d      	movel %a5@(11565),%fp@-
   2657e:	2d2d 2d2d      	movel %a5@(11565),%fp@-
   26582:	7a7a           	moveq #122,%d5
   26584:	7a7a           	moveq #122,%d5
   26586:	2d7a 7a7a 7a2d 	movel %pc@(2e002 <picData+0xdfae>),%fp@(31277)
   2658c:	2d7a 7a2d 2d2d 	movel %pc@(2dfbb <picData+0xdf67>),%fp@(11565)
   26592:	2d2d 2d7a      	movel %a5@(11642),%fp@-
   26596:	7a7a           	moveq #122,%d5
   26598:	7a2d           	moveq #45,%d5
   2659a:	7a7a           	moveq #122,%d5
   2659c:	7a7a           	moveq #122,%d5
   2659e:	2d2d 7a7a      	movel %a5@(31354),%fp@-
   265a2:	2d2d 7a7a      	movel %a5@(31354),%fp@-
   265a6:	2d2d 7a7a      	movel %a5@(31354),%fp@-
   265aa:	2d2d 7a7a      	movel %a5@(31354),%fp@-
   265ae:	2d2d 7a7a      	movel %a5@(31354),%fp@-
   265b2:	2d2d 7a7a      	movel %a5@(31354),%fp@-
   265b6:	2d2d 2229      	movel %a5@(8745),%fp@-
   265ba:	2929 2929      	movel %a1@(10537),%a4@-
   265be:	2929 2929      	movel %a1@(10537),%a4@-
   265c2:	2929 2929      	movel %a1@(10537),%a4@-
   265c6:	2929 2f2f      	movel %a1@(12079),%a4@-
   265ca:	2d2d 3233      	movel %a5@(12851),%fp@-
   265ce:	3334 0c0c      	movew %a4@(0000000c,%d0:l:4),%a1@-
   265d2:	0c0c           	.short 0x0c0c
   265d4:	0c0c           	.short 0x0c0c
   265d6:	3535 3535 3636 	movew %a5@(36363636)@(00000000,%d3:w:4),%a2@-
   265dc:	3636 
   265de:	2023           	movel %a3@-,%d0
   265e0:	2f2d 2d2d      	movel %a5@(11565),%sp@-
   265e4:	1717           	moveb %sp@,%a3@-
   265e6:	1717           	moveb %sp@,%a3@-
   265e8:	2d2d 2d17      	movel %a5@(11543),%fp@-
   265ec:	1717           	moveb %sp@,%a3@-
   265ee:	172d 1717      	moveb %a5@(5911),%a3@-
   265f2:	1717           	moveb %sp@,%a3@-
   265f4:	1717           	moveb %sp@,%a3@-
   265f6:	1717           	moveb %sp@,%a3@-
   265f8:	172d 1717      	moveb %a5@(5911),%a3@-
   265fc:	172d 2d2d      	moveb %a5@(11565),%a3@-
   26600:	1717           	moveb %sp@,%a3@-
   26602:	172d 1717      	moveb %a5@(5911),%a3@-
   26606:	1717           	moveb %sp@,%a3@-
   26608:	1717           	moveb %sp@,%a3@-
   2660a:	1717           	moveb %sp@,%a3@-
   2660c:	172d 1717      	moveb %a5@(5911),%a3@-
   26610:	1717           	moveb %sp@,%a3@-
   26612:	1717           	moveb %sp@,%a3@-
   26614:	1717           	moveb %sp@,%a3@-
   26616:	2d2d 2d2d      	movel %a5@(11565),%fp@-
   2661a:	2d2d 2d2d      	movel %a5@(11565),%fp@-
   2661e:	2d2d 2d2d      	movel %a5@(11565),%fp@-
   26622:	2d2d 2d2d      	movel %a5@(11565),%fp@-
   26626:	2d2d 2d2d      	movel %a5@(11565),%fp@-
   2662a:	2d2d 2d2d      	movel %a5@(11565),%fp@-
   2662e:	2d2d 2d2d      	movel %a5@(11565),%fp@-
   26632:	2d2d 2d2d      	movel %a5@(11565),%fp@-
   26636:	2d2d 2d2d      	movel %a5@(11565),%fp@-
   2663a:	2d2d 2d2d      	movel %a5@(11565),%fp@-
   2663e:	2d2d 2d2d      	movel %a5@(11565),%fp@-
   26642:	2d2d 2d2d      	movel %a5@(11565),%fp@-
   26646:	2d2d 2d2d      	movel %a5@(11565),%fp@-
   2664a:	2d2d 2d2d      	movel %a5@(11565),%fp@-
   2664e:	2d2d 2d2d      	movel %a5@(11565),%fp@-
   26652:	2d2d 2d2d      	movel %a5@(11565),%fp@-
   26656:	2d2d 2d2d      	movel %a5@(11565),%fp@-
   2665a:	2d2d 2d2d      	movel %a5@(11565),%fp@-
   2665e:	2d2d 2d35      	movel %a5@(11573),%fp@-
   26662:	2929 2929      	movel %a1@(10537),%a4@-
   26666:	2929 2929      	movel %a1@(10537),%a4@-
   2666a:	2929 2929      	movel %a1@(10537),%a4@-
   2666e:	2929 2929      	movel %a1@(10537),%a4@-
   26672:	2929 2929      	movel %a1@(10537),%a4@-
   26676:	2f2f 2d7a      	movel %sp@(11642),%sp@-
   2667a:	7a7a           	moveq #122,%d5
   2667c:	7a7a           	moveq #122,%d5
   2667e:	7a2d           	moveq #45,%d5
   26680:	2d7a 7a2d 2d7a 	movel %pc@(2e0af <picData+0xe05b>),%fp@(11642)
   26686:	7a2d           	moveq #45,%d5
   26688:	2d7a 7a7a 7a7a 	movel %pc@(2e104 <picData+0xe0b0>),%fp@(31354)
   2668e:	7a2d           	moveq #45,%d5
   26690:	2d7a 7a2d 2d7a 	movel %pc@(2e0bf <picData+0xe06b>),%fp@(11642)
   26696:	7a2d           	moveq #45,%d5
   26698:	2d2d 2d2d      	movel %a5@(11565),%fp@-
   2669c:	2d7a 7a7a 7a7a 	movel %pc@(2e118 <picData+0xe0c4>),%fp@(31354)
   266a2:	7a2d           	moveq #45,%d5
   266a4:	2d7a 7a7a 7a7a 	movel %pc@(2e120 <picData+0xe0cc>),%fp@(31354)
   266aa:	2d2d 2d7a      	movel %a5@(11642),%fp@-
   266ae:	7a2d           	moveq #45,%d5
   266b0:	2d2d 2d2d      	movel %a5@(11565),%fp@-
   266b4:	2d7a 7a7a 7a7a 	movel %pc@(2e130 <picData+0xe0dc>),%fp@(31354)
   266ba:	2d2d 2d2d      	movel %a5@(11565),%fp@-
   266be:	2d2d 2d2d      	movel %a5@(11565),%fp@-
   266c2:	7a7a           	moveq #122,%d5
   266c4:	7a7a           	moveq #122,%d5
   266c6:	7a7a           	moveq #122,%d5
   266c8:	7a7a           	moveq #122,%d5
   266ca:	7a2d           	moveq #45,%d5
   266cc:	2d7a 7a7a 7a7a 	movel %pc@(2e148 <picData+0xe0f4>),%fp@(31354)
   266d2:	2d2d 2d7a      	movel %a5@(11642),%fp@-
   266d6:	7a7a           	moveq #122,%d5
   266d8:	7a7a           	moveq #122,%d5
   266da:	7a7a           	moveq #122,%d5
   266dc:	7a7a           	moveq #122,%d5
   266de:	2d2d 7a7a      	movel %a5@(31354),%fp@-
   266e2:	2d2d 7a7a      	movel %a5@(31354),%fp@-
   266e6:	2d2d 7a7a      	movel %a5@(31354),%fp@-
   266ea:	7a7a           	moveq #122,%d5
   266ec:	7a7a           	moveq #122,%d5
   266ee:	2d2d 7a7a      	movel %a5@(31354),%fp@-
   266f2:	7a7a           	moveq #122,%d5
   266f4:	7a7a           	moveq #122,%d5
   266f6:	2d2d 2229      	movel %a5@(8745),%fp@-
   266fa:	2929 2929      	movel %a1@(10537),%a4@-
   266fe:	2929 2929      	movel %a1@(10537),%a4@-
   26702:	2929 2929      	movel %a1@(10537),%a4@-
   26706:	2929 2e2f      	movel %a1@(11823),%a4@-
   2670a:	2d2d 3336      	movel %a5@(13110),%fp@-
   2670e:	2225           	movel %a5@-,%d1
   26710:	2727           	movel %sp@-,%a3@-
   26712:	2828 2828      	movel %a0@(10280),%d4
   26716:	2828 2828      	movel %a0@(10280),%d4
   2671a:	2828 2828      	movel %a0@(10280),%d4
   2671e:	282c 2f2d      	movel %a4@(12077),%d4
   26722:	2d2d 1717      	movel %a5@(5911),%fp@-
   26726:	1717           	moveb %sp@,%a3@-
   26728:	172d 1717      	moveb %a5@(5911),%a3@-
   2672c:	1717           	moveb %sp@,%a3@-
   2672e:	172d 1717      	moveb %a5@(5911),%a3@-
   26732:	172d 2d2d      	moveb %a5@(11565),%a3@-
   26736:	1717           	moveb %sp@,%a3@-
   26738:	172d 1717      	moveb %a5@(5911),%a3@-
   2673c:	172d 2d2d      	moveb %a5@(11565),%a3@-
   26740:	1717           	moveb %sp@,%a3@-
   26742:	172d 1717      	moveb %a5@(5911),%a3@-
   26746:	172d 2d2d      	moveb %a5@(11565),%a3@-
   2674a:	1717           	moveb %sp@,%a3@-
   2674c:	172d 1717      	moveb %a5@(5911),%a3@-
   26750:	172d 2d2d      	moveb %a5@(11565),%a3@-
   26754:	2d2d 2d2d      	movel %a5@(11565),%fp@-
   26758:	2d2d 2d2d      	movel %a5@(11565),%fp@-
   2675c:	2d2d 2d2d      	movel %a5@(11565),%fp@-
   26760:	2d2d 2d2d      	movel %a5@(11565),%fp@-
   26764:	2d2d 2d2d      	movel %a5@(11565),%fp@-
   26768:	2d2d 2d2d      	movel %a5@(11565),%fp@-
   2676c:	2d2d 2d2d      	movel %a5@(11565),%fp@-
   26770:	2d2d 2d2d      	movel %a5@(11565),%fp@-
   26774:	2d2d 2d2d      	movel %a5@(11565),%fp@-
   26778:	2d2d 2d2d      	movel %a5@(11565),%fp@-
   2677c:	2d2d 2d2d      	movel %a5@(11565),%fp@-
   26780:	2d2d 2d2d      	movel %a5@(11565),%fp@-
   26784:	2d2d 2d2d      	movel %a5@(11565),%fp@-
   26788:	2d2d 2d2d      	movel %a5@(11565),%fp@-
   2678c:	2d2d 2d2d      	movel %a5@(11565),%fp@-
   26790:	2d2d 2d2d      	movel %a5@(11565),%fp@-
   26794:	2d2d 2d2d      	movel %a5@(11565),%fp@-
   26798:	2d2d 2d2d      	movel %a5@(11565),%fp@-
   2679c:	2d2d 2d2d      	movel %a5@(11565),%fp@-
   267a0:	2d35 2929 2929 	movel %a5@(00002929,%d2:l)@(00000000),%fp@-
   267a6:	2929 2929      	movel %a1@(10537),%a4@-
   267aa:	2929 2929      	movel %a1@(10537),%a4@-
   267ae:	2929 2929      	movel %a1@(10537),%a4@-
   267b2:	2929 2929      	movel %a1@(10537),%a4@-
   267b6:	2f2f 2d7a      	movel %sp@(11642),%sp@-
   267ba:	7a7a           	moveq #122,%d5
   267bc:	7a7a           	moveq #122,%d5
   267be:	7a2d           	moveq #45,%d5
   267c0:	2d7a 7a2d 2d7a 	movel %pc@(2e1ef <picData+0xe19b>),%fp@(11642)
   267c6:	7a2d           	moveq #45,%d5
   267c8:	2d7a 7a7a 7a7a 	movel %pc@(2e244 <picData+0xe1f0>),%fp@(31354)
   267ce:	7a2d           	moveq #45,%d5
   267d0:	2d7a 7a2d 2d7a 	movel %pc@(2e1ff <picData+0xe1ab>),%fp@(11642)
   267d6:	7a2d           	moveq #45,%d5
   267d8:	2d2d 2d2d      	movel %a5@(11565),%fp@-
   267dc:	2d7a 7a7a 7a7a 	movel %pc@(2e258 <picData+0xe204>),%fp@(31354)
   267e2:	7a2d           	moveq #45,%d5
   267e4:	2d7a 7a7a 7a7a 	movel %pc@(2e260 <picData+0xe20c>),%fp@(31354)
   267ea:	7a2d           	moveq #45,%d5
   267ec:	2d7a 7a2d 2d2d 	movel %pc@(2e21b <picData+0xe1c7>),%fp@(11565)
   267f2:	2d2d 2d7a      	movel %a5@(11642),%fp@-
   267f6:	7a7a           	moveq #122,%d5
   267f8:	7a7a           	moveq #122,%d5
   267fa:	2d2d 2d2d      	movel %a5@(11565),%fp@-
   267fe:	2d2d 2d2d      	movel %a5@(11565),%fp@-
   26802:	7a7a           	moveq #122,%d5
   26804:	2d7a 7a7a 2d7a 	movel %pc@(2e280 <picData+0xe22c>),%fp@(11642)
   2680a:	7a2d           	moveq #45,%d5
   2680c:	2d7a 7a7a 7a7a 	movel %pc@(2e288 <picData+0xe234>),%fp@(31354)
   26812:	2d2d 2d7a      	movel %a5@(11642),%fp@-
   26816:	7a2d           	moveq #45,%d5
   26818:	7a7a           	moveq #122,%d5
   2681a:	7a2d           	moveq #45,%d5
   2681c:	7a7a           	moveq #122,%d5
   2681e:	2d2d 7a7a      	movel %a5@(31354),%fp@-
   26822:	2d2d 7a7a      	movel %a5@(31354),%fp@-
   26826:	2d2d 7a7a      	movel %a5@(31354),%fp@-
   2682a:	7a7a           	moveq #122,%d5
   2682c:	7a2d           	moveq #45,%d5
   2682e:	2d2d 2d7a      	movel %a5@(11642),%fp@-
   26832:	7a7a           	moveq #122,%d5
   26834:	7a2d           	moveq #45,%d5
   26836:	2d2d 2229      	movel %a5@(8745),%fp@-
   2683a:	2929 2929      	movel %a1@(10537),%a4@-
   2683e:	2929 2929      	movel %a1@(10537),%a4@-
   26842:	2929 2929      	movel %a1@(10537),%a4@-
   26846:	2929 2e2f      	movel %a1@(11823),%a4@-
   2684a:	2d2d 3422      	movel %a5@(13346),%fp@-
   2684e:	2500           	movel %d0,%a2@-
	...
   2685c:	0028 282c 2f2d 	orib #44,%a0@(12077)
   26862:	2d2d 1717      	movel %a5@(5911),%fp@-
   26866:	1717           	moveb %sp@,%a3@-
   26868:	1717           	moveb %sp@,%a3@-
   2686a:	1717           	moveb %sp@,%a3@-
   2686c:	1717           	moveb %sp@,%a3@-
   2686e:	172d 1717      	moveb %a5@(5911),%a3@-
   26872:	172d 2d2d      	moveb %a5@(11565),%a3@-
   26876:	1717           	moveb %sp@,%a3@-
   26878:	172d 1717      	moveb %a5@(5911),%a3@-
   2687c:	172d 2d2d      	moveb %a5@(11565),%a3@-
   26880:	1717           	moveb %sp@,%a3@-
   26882:	172d 1717      	moveb %a5@(5911),%a3@-
   26886:	172d 2d2d      	moveb %a5@(11565),%a3@-
   2688a:	2d2d 2d2d      	movel %a5@(11565),%fp@-
   2688e:	1717           	moveb %sp@,%a3@-
   26890:	172d 2d2d      	moveb %a5@(11565),%a3@-
   26894:	2d2d 2d2d      	movel %a5@(11565),%fp@-
   26898:	2d2d 2d2d      	movel %a5@(11565),%fp@-
   2689c:	2d2d 2d2d      	movel %a5@(11565),%fp@-
   268a0:	2d2d 2d2d      	movel %a5@(11565),%fp@-
   268a4:	2d2d 2d2d      	movel %a5@(11565),%fp@-
   268a8:	2d2d 2d2d      	movel %a5@(11565),%fp@-
   268ac:	2d2d 2d2d      	movel %a5@(11565),%fp@-
   268b0:	2d2d 2d2d      	movel %a5@(11565),%fp@-
   268b4:	2d2d 2d2d      	movel %a5@(11565),%fp@-
   268b8:	2d2d 2d2d      	movel %a5@(11565),%fp@-
   268bc:	2d2d 2d2d      	movel %a5@(11565),%fp@-
   268c0:	2d2d 2d2d      	movel %a5@(11565),%fp@-
   268c4:	2d2d 2d2d      	movel %a5@(11565),%fp@-
   268c8:	2d2d 2d2d      	movel %a5@(11565),%fp@-
   268cc:	2d2d 2d2d      	movel %a5@(11565),%fp@-
   268d0:	2d2d 2d2d      	movel %a5@(11565),%fp@-
   268d4:	2d2d 2d2d      	movel %a5@(11565),%fp@-
   268d8:	2d2d 2d2d      	movel %a5@(11565),%fp@-
   268dc:	2d2d 2d2d      	movel %a5@(11565),%fp@-
   268e0:	2d35 2929 2929 	movel %a5@(00002929,%d2:l)@(00000000),%fp@-
   268e6:	2929 2929      	movel %a1@(10537),%a4@-
   268ea:	2929 2929      	movel %a1@(10537),%a4@-
   268ee:	2929 2929      	movel %a1@(10537),%a4@-
   268f2:	2929 2929      	movel %a1@(10537),%a4@-
   268f6:	2f2f 2d7a      	movel %sp@(11642),%sp@-
   268fa:	7a2d           	moveq #45,%d5
   268fc:	2d7a 7a2d 2d7a 	movel %pc@(2e32b <picData+0xe2d7>),%fp@(11642)
   26902:	7a7a           	moveq #122,%d5
   26904:	7a7a           	moveq #122,%d5
   26906:	7a2d           	moveq #45,%d5
   26908:	2d7a 7a2d 2d7a 	movel %pc@(2e337 <picData+0xe2e3>),%fp@(11642)
   2690e:	7a2d           	moveq #45,%d5
   26910:	2d7a 7a2d 2d7a 	movel %pc@(2e33f <picData+0xe2eb>),%fp@(11642)
   26916:	7a2d           	moveq #45,%d5
   26918:	2d2d 2d2d      	movel %a5@(11565),%fp@-
   2691c:	2d7a 7a2d 2d7a 	movel %pc@(2e34b <picData+0xe2f7>),%fp@(11642)
   26922:	7a2d           	moveq #45,%d5
   26924:	2d7a 7a2d 2d7a 	movel %pc@(2e353 <picData+0xe2ff>),%fp@(11642)
   2692a:	7a2d           	moveq #45,%d5
   2692c:	2d7a 7a2d 2d2d 	movel %pc@(2e35b <picData+0xe307>),%fp@(11565)
   26932:	2d2d 2d7a      	movel %a5@(11642),%fp@-
   26936:	7a2d           	moveq #45,%d5
   26938:	2d2d 2d2d      	movel %a5@(11565),%fp@-
   2693c:	2d2d 2d2d      	movel %a5@(11565),%fp@-
   26940:	2d2d 7a7a      	movel %a5@(31354),%fp@-
   26944:	2d2d 7a2d      	movel %a5@(31277),%fp@-
   26948:	2d7a 7a2d 2d7a 	movel %pc@(2e377 <picData+0xe323>),%fp@(11642)
   2694e:	7a2d           	moveq #45,%d5
   26950:	2d2d 2d2d      	movel %a5@(11565),%fp@-
   26954:	2d7a 7a2d 2d7a 	movel %pc@(2e383 <picData+0xe32f>),%fp@(11642)
   2695a:	2d2d 7a7a      	movel %a5@(31354),%fp@-
   2695e:	2d2d 7a7a      	movel %a5@(31354),%fp@-
   26962:	2d2d 7a7a      	movel %a5@(31354),%fp@-
   26966:	2d2d 7a7a      	movel %a5@(31354),%fp@-
   2696a:	2d2d 7a7a      	movel %a5@(31354),%fp@-
   2696e:	2d2d 2d2d      	movel %a5@(11565),%fp@-
   26972:	7a7a           	moveq #122,%d5
   26974:	2d2d 2d2d      	movel %a5@(11565),%fp@-
   26978:	2229 2929      	movel %a1@(10537),%d1
   2697c:	2929 2929      	movel %a1@(10537),%a4@-
   26980:	2929 2929      	movel %a1@(10537),%a4@-
   26984:	2929 2929      	movel %a1@(10537),%a4@-
   26988:	2e2f 2d2d      	movel %sp@(11565),%d7
   2698c:	3425           	movew %a5@-,%d2
   2698e:	2700           	movel %d0,%a3@-
   26990:	0e0e           	.short 0x0e0e
   26992:	0e0e           	.short 0x0e0e
   26994:	0e0e           	.short 0x0e0e
   26996:	0e0e           	.short 0x0e0e
   26998:	0e0e           	.short 0x0e0e
   2699a:	0e0e           	.short 0x0e0e
   2699c:	1f28 282d      	moveb %a0@(10285),%sp@-
   269a0:	2f2d 2d2d      	movel %a5@(11565),%sp@-
   269a4:	1717           	moveb %sp@,%a3@-
   269a6:	172d 1717      	moveb %a5@(5911),%a3@-
   269aa:	172d 1717      	moveb %a5@(5911),%a3@-
   269ae:	172d 1717      	moveb %a5@(5911),%a3@-
   269b2:	172d 2d2d      	moveb %a5@(11565),%a3@-
   269b6:	1717           	moveb %sp@,%a3@-
   269b8:	172d 1717      	moveb %a5@(5911),%a3@-
   269bc:	172d 2d2d      	moveb %a5@(11565),%a3@-
   269c0:	1717           	moveb %sp@,%a3@-
   269c2:	172d 1717      	moveb %a5@(5911),%a3@-
   269c6:	1717           	moveb %sp@,%a3@-
   269c8:	1717           	moveb %sp@,%a3@-
   269ca:	1717           	moveb %sp@,%a3@-
   269cc:	2d2d 1717      	movel %a5@(5911),%fp@-
   269d0:	1717           	moveb %sp@,%a3@-
   269d2:	1717           	moveb %sp@,%a3@-
   269d4:	2d2d 2d2d      	movel %a5@(11565),%fp@-
   269d8:	2d2d 2d2d      	movel %a5@(11565),%fp@-
   269dc:	2d2d 2d2d      	movel %a5@(11565),%fp@-
   269e0:	2d2d 2d2d      	movel %a5@(11565),%fp@-
   269e4:	2d2d 2d2d      	movel %a5@(11565),%fp@-
   269e8:	2d2d 2d2d      	movel %a5@(11565),%fp@-
   269ec:	2d2d 2d2d      	movel %a5@(11565),%fp@-
   269f0:	2d2d 2d2d      	movel %a5@(11565),%fp@-
   269f4:	2d2d 2d2d      	movel %a5@(11565),%fp@-
   269f8:	2d2d 2d2d      	movel %a5@(11565),%fp@-
   269fc:	2d2d 2d2d      	movel %a5@(11565),%fp@-
   26a00:	2d2d 2d2d      	movel %a5@(11565),%fp@-
   26a04:	2d2d 2d2d      	movel %a5@(11565),%fp@-
   26a08:	2d2d 2d2d      	movel %a5@(11565),%fp@-
   26a0c:	2d2d 2d2d      	movel %a5@(11565),%fp@-
   26a10:	2d2d 2d2d      	movel %a5@(11565),%fp@-
   26a14:	2d2d 2d2d      	movel %a5@(11565),%fp@-
   26a18:	2d2d 2d2d      	movel %a5@(11565),%fp@-
   26a1c:	2d2d 2d2d      	movel %a5@(11565),%fp@-
   26a20:	2d35 2929 2929 	movel %a5@(00002929,%d2:l)@(00000000),%fp@-
   26a26:	2929 2929      	movel %a1@(10537),%a4@-
   26a2a:	2929 2929      	movel %a1@(10537),%a4@-
   26a2e:	2929 2929      	movel %a1@(10537),%a4@-
   26a32:	2929 2929      	movel %a1@(10537),%a4@-
   26a36:	2f2f 2d7a      	movel %sp@(11642),%sp@-
   26a3a:	7a2d           	moveq #45,%d5
   26a3c:	2d7a 7a2d 2d2d 	movel %pc@(2e46b <picData+0xe417>),%fp@(11565)
   26a42:	7a7a           	moveq #122,%d5
   26a44:	7a7a           	moveq #122,%d5
   26a46:	2d2d 2d7a      	movel %a5@(11642),%fp@-
   26a4a:	7a2d           	moveq #45,%d5
   26a4c:	2d7a 7a2d 2d7a 	movel %pc@(2e47b <picData+0xe427>),%fp@(11642)
   26a52:	7a2d           	moveq #45,%d5
   26a54:	2d7a 7a7a 7a7a 	movel %pc@(2e4d0 <picData+0xe47c>),%fp@(31354)
   26a5a:	7a2d           	moveq #45,%d5
   26a5c:	2d7a 7a2d 2d7a 	movel %pc@(2e48b <picData+0xe437>),%fp@(11642)
   26a62:	7a2d           	moveq #45,%d5
   26a64:	2d7a 7a7a 7a7a 	movel %pc@(2e4e0 <picData+0xe48c>),%fp@(31354)
   26a6a:	7a2d           	moveq #45,%d5
   26a6c:	2d7a 7a7a 7a7a 	movel %pc@(2e4e8 <picData+0xe494>),%fp@(31354)
   26a72:	7a2d           	moveq #45,%d5
   26a74:	2d7a 7a7a 7a7a 	movel %pc@(2e4f0 <picData+0xe49c>),%fp@(31354)
   26a7a:	7a2d           	moveq #45,%d5
   26a7c:	2d2d 2d2d      	movel %a5@(11565),%fp@-
   26a80:	2d2d 7a7a      	movel %a5@(31354),%fp@-
   26a84:	2d2d 2d2d      	movel %a5@(11565),%fp@-
   26a88:	2d7a 7a2d 2d7a 	movel %pc@(2e4b7 <picData+0xe463>),%fp@(11642)
   26a8e:	7a7a           	moveq #122,%d5
   26a90:	7a7a           	moveq #122,%d5
   26a92:	7a2d           	moveq #45,%d5
   26a94:	2d7a 7a2d 2d2d 	movel %pc@(2e4c3 <picData+0xe46f>),%fp@(11565)
   26a9a:	2d2d 7a7a      	movel %a5@(31354),%fp@-
   26a9e:	2d2d 7a7a      	movel %a5@(31354),%fp@-
   26aa2:	7a7a           	moveq #122,%d5
   26aa4:	7a7a           	moveq #122,%d5
   26aa6:	2d2d 7a7a      	movel %a5@(31354),%fp@-
   26aaa:	2d2d 7a7a      	movel %a5@(31354),%fp@-
   26aae:	2d2d 2d2d      	movel %a5@(11565),%fp@-
   26ab2:	7a7a           	moveq #122,%d5
   26ab4:	2d2d 2d2d      	movel %a5@(11565),%fp@-
   26ab8:	2229 2929      	movel %a1@(10537),%d1
   26abc:	2929 2929      	movel %a1@(10537),%a4@-
   26ac0:	2929 2929      	movel %a1@(10537),%a4@-
   26ac4:	2929 2929      	movel %a1@(10537),%a4@-
   26ac8:	2e2f 2d2d      	movel %sp@(11565),%d7
   26acc:	3527           	movew %sp@-,%a2@-
   26ace:	2700           	movel %d0,%a3@-
   26ad0:	0e0e           	.short 0x0e0e
   26ad2:	0e0e           	.short 0x0e0e
   26ad4:	0e0e           	.short 0x0e0e
   26ad6:	0e0e           	.short 0x0e0e
   26ad8:	0e0e           	.short 0x0e0e
   26ada:	0e0e           	.short 0x0e0e
   26adc:	1f28 282d      	moveb %a0@(10285),%sp@-
   26ae0:	2f2d 2d2d      	movel %a5@(11565),%sp@-
   26ae4:	1717           	moveb %sp@,%a3@-
   26ae6:	172d 2d17      	moveb %a5@(11543),%a3@-
   26aea:	2d2d 1717      	movel %a5@(5911),%fp@-
   26aee:	172d 1717      	moveb %a5@(5911),%a3@-
   26af2:	172d 2d2d      	moveb %a5@(11565),%a3@-
   26af6:	1717           	moveb %sp@,%a3@-
   26af8:	172d 1717      	moveb %a5@(5911),%a3@-
   26afc:	172d 2d2d      	moveb %a5@(11565),%a3@-
   26b00:	1717           	moveb %sp@,%a3@-
   26b02:	172d 2d17      	moveb %a5@(11543),%a3@-
   26b06:	1717           	moveb %sp@,%a3@-
   26b08:	1717           	moveb %sp@,%a3@-
   26b0a:	1717           	moveb %sp@,%a3@-
   26b0c:	172d 1717      	moveb %a5@(5911),%a3@-
   26b10:	1717           	moveb %sp@,%a3@-
   26b12:	1717           	moveb %sp@,%a3@-
   26b14:	2d2d 2d2d      	movel %a5@(11565),%fp@-
   26b18:	2d2d 2d2d      	movel %a5@(11565),%fp@-
   26b1c:	2d2d 2d2d      	movel %a5@(11565),%fp@-
   26b20:	2d2d 2d2d      	movel %a5@(11565),%fp@-
   26b24:	2d2d 2d2d      	movel %a5@(11565),%fp@-
   26b28:	2d2d 2d2d      	movel %a5@(11565),%fp@-
   26b2c:	2d2d 2d2d      	movel %a5@(11565),%fp@-
   26b30:	2d2d 2d2d      	movel %a5@(11565),%fp@-
   26b34:	2d2d 2d2d      	movel %a5@(11565),%fp@-
   26b38:	2d2d 2d2d      	movel %a5@(11565),%fp@-
   26b3c:	2d2d 2d2d      	movel %a5@(11565),%fp@-
   26b40:	2d2d 2d2d      	movel %a5@(11565),%fp@-
   26b44:	2d2d 2d2d      	movel %a5@(11565),%fp@-
   26b48:	2d2d 2d2d      	movel %a5@(11565),%fp@-
   26b4c:	2d2d 2d2d      	movel %a5@(11565),%fp@-
   26b50:	2d2d 2d2d      	movel %a5@(11565),%fp@-
   26b54:	2d2d 2d2d      	movel %a5@(11565),%fp@-
   26b58:	2d2d 2d2d      	movel %a5@(11565),%fp@-
   26b5c:	2d2d 2d2d      	movel %a5@(11565),%fp@-
   26b60:	2d0c           	movel %a4,%fp@-
   26b62:	2929 2929      	movel %a1@(10537),%a4@-
   26b66:	2929 2929      	movel %a1@(10537),%a4@-
   26b6a:	2929 2929      	movel %a1@(10537),%a4@-
   26b6e:	2929 2929      	movel %a1@(10537),%a4@-
   26b72:	2929 2929      	movel %a1@(10537),%a4@-
   26b76:	2f2f 2d7a      	movel %sp@(11642),%sp@-
   26b7a:	7a2d           	moveq #45,%d5
   26b7c:	2d7a 7a2d 2d2d 	movel %pc@(2e5ab <picData+0xe557>),%fp@(11565)
   26b82:	2d7a 7a2d 2d2d 	movel %pc@(2e5b1 <picData+0xe55d>),%fp@(11565)
   26b88:	2d7a 7a2d 2d7a 	movel %pc@(2e5b7 <picData+0xe563>),%fp@(11642)
   26b8e:	7a2d           	moveq #45,%d5
   26b90:	2d7a 7a2d 2d7a 	movel %pc@(2e5bf <picData+0xe56b>),%fp@(11642)
   26b96:	7a7a           	moveq #122,%d5
   26b98:	7a7a           	moveq #122,%d5
   26b9a:	7a2d           	moveq #45,%d5
   26b9c:	2d7a 7a2d 2d7a 	movel %pc@(2e5cb <picData+0xe577>),%fp@(11642)
   26ba2:	7a2d           	moveq #45,%d5
   26ba4:	2d7a 7a7a 7a7a 	movel %pc@(2e620 <picData+0xe5cc>),%fp@(31354)
   26baa:	2d2d 2d7a      	movel %a5@(11642),%fp@-
   26bae:	7a7a           	moveq #122,%d5
   26bb0:	7a7a           	moveq #122,%d5
   26bb2:	7a2d           	moveq #45,%d5
   26bb4:	2d7a 7a7a 7a7a 	movel %pc@(2e630 <picData+0xe5dc>),%fp@(31354)
   26bba:	7a2d           	moveq #45,%d5
   26bbc:	2d2d 2d2d      	movel %a5@(11565),%fp@-
   26bc0:	2d2d 7a7a      	movel %a5@(31354),%fp@-
   26bc4:	2d2d 2d2d      	movel %a5@(11565),%fp@-
   26bc8:	2d7a 7a2d 2d7a 	movel %pc@(2e5f7 <picData+0xe5a3>),%fp@(11642)
   26bce:	7a7a           	moveq #122,%d5
   26bd0:	7a7a           	moveq #122,%d5
   26bd2:	7a2d           	moveq #45,%d5
   26bd4:	2d7a 7a2d 2d2d 	movel %pc@(2e603 <picData+0xe5af>),%fp@(11565)
   26bda:	2d2d 7a7a      	movel %a5@(31354),%fp@-
   26bde:	2d2d 2d7a      	movel %a5@(11642),%fp@-
   26be2:	7a7a           	moveq #122,%d5
   26be4:	7a2d           	moveq #45,%d5
   26be6:	2d2d 7a7a      	movel %a5@(31354),%fp@-
   26bea:	2d2d 7a7a      	movel %a5@(31354),%fp@-
   26bee:	2d2d 2d2d      	movel %a5@(11565),%fp@-
   26bf2:	7a7a           	moveq #122,%d5
   26bf4:	2d2d 2d2d      	movel %a5@(11565),%fp@-
   26bf8:	2229 2929      	movel %a1@(10537),%d1
   26bfc:	2929 2929      	movel %a1@(10537),%a4@-
   26c00:	2929 2929      	movel %a1@(10537),%a4@-
   26c04:	2929 2929      	movel %a1@(10537),%a4@-
   26c08:	2e2f 2d2d      	movel %sp@(11565),%d7
   26c0c:	3627           	movew %sp@-,%d3
   26c0e:	2800           	movel %d0,%d4
   26c10:	1f1f           	moveb %sp@+,%sp@-
   26c12:	1f1f           	moveb %sp@+,%sp@-
   26c14:	1f1f           	moveb %sp@+,%sp@-
   26c16:	1f1f           	moveb %sp@+,%sp@-
   26c18:	1f1f           	moveb %sp@+,%sp@-
   26c1a:	1f1f           	moveb %sp@+,%sp@-
   26c1c:	1f28 282e      	moveb %a0@(10286),%sp@-
   26c20:	2f2d 2d2d      	movel %a5@(11565),%sp@-
   26c24:	1717           	moveb %sp@,%a3@-
   26c26:	172d 2d2d      	moveb %a5@(11565),%a3@-
   26c2a:	2d2d 1717      	movel %a5@(5911),%fp@-
   26c2e:	172d 1717      	moveb %a5@(5911),%a3@-
   26c32:	172d 2d2d      	moveb %a5@(11565),%a3@-
   26c36:	1717           	moveb %sp@,%a3@-
   26c38:	172d 1717      	moveb %a5@(5911),%a3@-
   26c3c:	172d 2d2d      	moveb %a5@(11565),%a3@-
   26c40:	1717           	moveb %sp@,%a3@-
   26c42:	172d 2d2d      	moveb %a5@(11565),%a3@-
   26c46:	2d2d 2d2d      	movel %a5@(11565),%fp@-
   26c4a:	1717           	moveb %sp@,%a3@-
   26c4c:	172d 1717      	moveb %a5@(5911),%a3@-
   26c50:	172d 2d2d      	moveb %a5@(11565),%a3@-
   26c54:	2d2d 2d2d      	movel %a5@(11565),%fp@-
   26c58:	2d2d 2d2d      	movel %a5@(11565),%fp@-
   26c5c:	2d2d 2d2d      	movel %a5@(11565),%fp@-
   26c60:	2d2d 2d2d      	movel %a5@(11565),%fp@-
   26c64:	2d2d 2d2d      	movel %a5@(11565),%fp@-
   26c68:	2d2d 2d2d      	movel %a5@(11565),%fp@-
   26c6c:	2d2d 2d2d      	movel %a5@(11565),%fp@-
   26c70:	2d2d 2d2d      	movel %a5@(11565),%fp@-
   26c74:	2d2d 2d2d      	movel %a5@(11565),%fp@-
   26c78:	2d2d 2d2d      	movel %a5@(11565),%fp@-
   26c7c:	2d2d 2d2d      	movel %a5@(11565),%fp@-
   26c80:	2d2d 2d2d      	movel %a5@(11565),%fp@-
   26c84:	2d2d 2d2d      	movel %a5@(11565),%fp@-
   26c88:	2d2d 2d2d      	movel %a5@(11565),%fp@-
   26c8c:	2d2d 2d2d      	movel %a5@(11565),%fp@-
   26c90:	2d2d 2d2d      	movel %a5@(11565),%fp@-
   26c94:	2d2d 2d2d      	movel %a5@(11565),%fp@-
   26c98:	2d2d 2d2d      	movel %a5@(11565),%fp@-
   26c9c:	2d2d 2d2d      	movel %a5@(11565),%fp@-
   26ca0:	2d0c           	movel %a4,%fp@-
   26ca2:	2929 2929      	movel %a1@(10537),%a4@-
   26ca6:	2929 2929      	movel %a1@(10537),%a4@-
   26caa:	2929 2929      	movel %a1@(10537),%a4@-
   26cae:	2929 2929      	movel %a1@(10537),%a4@-
   26cb2:	2929 2929      	movel %a1@(10537),%a4@-
   26cb6:	2f2f 2d2d      	movel %sp@(11565),%sp@-
   26cba:	2d2d 2d2d      	movel %a5@(11565),%fp@-
   26cbe:	2d2d 2d2d      	movel %a5@(11565),%fp@-
   26cc2:	2d2d 2d2d      	movel %a5@(11565),%fp@-
   26cc6:	2d2d 2d2d      	movel %a5@(11565),%fp@-
   26cca:	2d2d 2d2d      	movel %a5@(11565),%fp@-
   26cce:	2d2d 2d2d      	movel %a5@(11565),%fp@-
   26cd2:	2d2d 2d2d      	movel %a5@(11565),%fp@-
   26cd6:	2d2d 2d2d      	movel %a5@(11565),%fp@-
   26cda:	2d2d 2d2d      	movel %a5@(11565),%fp@-
   26cde:	2d2d 2d2d      	movel %a5@(11565),%fp@-
   26ce2:	2d2d 2d2d      	movel %a5@(11565),%fp@-
   26ce6:	2d2d 2d2d      	movel %a5@(11565),%fp@-
   26cea:	2d2d 2d2d      	movel %a5@(11565),%fp@-
   26cee:	2d2d 2d2d      	movel %a5@(11565),%fp@-
   26cf2:	2d2d 2d2d      	movel %a5@(11565),%fp@-
   26cf6:	2d2d 2d2d      	movel %a5@(11565),%fp@-
   26cfa:	2d2d 2d2d      	movel %a5@(11565),%fp@-
   26cfe:	2d2d 2d2d      	movel %a5@(11565),%fp@-
   26d02:	2d2d 2d2d      	movel %a5@(11565),%fp@-
   26d06:	2d2d 2d2d      	movel %a5@(11565),%fp@-
   26d0a:	2d2d 2d2d      	movel %a5@(11565),%fp@-
   26d0e:	2d2d 2d2d      	movel %a5@(11565),%fp@-
   26d12:	2d2d 2d2d      	movel %a5@(11565),%fp@-
   26d16:	2d2d 2d2d      	movel %a5@(11565),%fp@-
   26d1a:	2d2d 2d2d      	movel %a5@(11565),%fp@-
   26d1e:	2d2d 2d2d      	movel %a5@(11565),%fp@-
   26d22:	2d2d 2d2d      	movel %a5@(11565),%fp@-
   26d26:	2d2d 2d2d      	movel %a5@(11565),%fp@-
   26d2a:	2d2d 2d2d      	movel %a5@(11565),%fp@-
   26d2e:	2d2d 2d2d      	movel %a5@(11565),%fp@-
   26d32:	2d2d 2d2d      	movel %a5@(11565),%fp@-
   26d36:	2d2d 2229      	movel %a5@(8745),%fp@-
   26d3a:	2929 2929      	movel %a1@(10537),%a4@-
   26d3e:	2929 2929      	movel %a1@(10537),%a4@-
   26d42:	2929 2929      	movel %a1@(10537),%a4@-
   26d46:	2929 2d2f      	movel %a1@(11567),%a4@-
   26d4a:	2d2d 2028      	movel %a5@(8232),%fp@-
   26d4e:	2828 2828      	movel %a0@(10280),%d4
   26d52:	2828 2828      	movel %a0@(10280),%d4
   26d56:	2828 2828      	movel %a0@(10280),%d4
   26d5a:	2828 2828      	movel %a0@(10280),%d4
   26d5e:	282e 2f2d      	movel %fp@(12077),%d4
   26d62:	2d2d 1717      	movel %a5@(5911),%fp@-
   26d66:	172d 2d2d      	moveb %a5@(11565),%a3@-
   26d6a:	2d2d 1717      	movel %a5@(5911),%fp@-
   26d6e:	172d 1717      	moveb %a5@(5911),%a3@-
   26d72:	172d 2d2d      	moveb %a5@(11565),%a3@-
   26d76:	1717           	moveb %sp@,%a3@-
   26d78:	172d 1717      	moveb %a5@(5911),%a3@-
   26d7c:	172d 2d2d      	moveb %a5@(11565),%a3@-
   26d80:	1717           	moveb %sp@,%a3@-
   26d82:	172d 1717      	moveb %a5@(5911),%a3@-
   26d86:	172d 2d2d      	moveb %a5@(11565),%a3@-
   26d8a:	1717           	moveb %sp@,%a3@-
   26d8c:	172d 1717      	moveb %a5@(5911),%a3@-
   26d90:	172d 2d2d      	moveb %a5@(11565),%a3@-
   26d94:	2d2d 2d2d      	movel %a5@(11565),%fp@-
   26d98:	2d2d 2d2d      	movel %a5@(11565),%fp@-
   26d9c:	2d2d 2d2d      	movel %a5@(11565),%fp@-
   26da0:	2d2d 2d2d      	movel %a5@(11565),%fp@-
   26da4:	2d2d 2d2d      	movel %a5@(11565),%fp@-
   26da8:	2d2d 2d2d      	movel %a5@(11565),%fp@-
   26dac:	2d2d 2d2d      	movel %a5@(11565),%fp@-
   26db0:	2d2d 2d2d      	movel %a5@(11565),%fp@-
   26db4:	2d2d 2d2d      	movel %a5@(11565),%fp@-
   26db8:	2d2d 2d2d      	movel %a5@(11565),%fp@-
   26dbc:	2d2d 2d2d      	movel %a5@(11565),%fp@-
   26dc0:	2d2d 2d2d      	movel %a5@(11565),%fp@-
   26dc4:	2d2d 2d2d      	movel %a5@(11565),%fp@-
   26dc8:	2d2d 2d2d      	movel %a5@(11565),%fp@-
   26dcc:	2d2d 2d2d      	movel %a5@(11565),%fp@-
   26dd0:	2d2d 2d2d      	movel %a5@(11565),%fp@-
   26dd4:	2d2d 2d2d      	movel %a5@(11565),%fp@-
   26dd8:	2d2d 2d2d      	movel %a5@(11565),%fp@-
   26ddc:	2d2d 2d2d      	movel %a5@(11565),%fp@-
   26de0:	2d0c           	movel %a4,%fp@-
   26de2:	2929 2929      	movel %a1@(10537),%a4@-
   26de6:	2929 2929      	movel %a1@(10537),%a4@-
   26dea:	2929 2929      	movel %a1@(10537),%a4@-
   26dee:	2929 2929      	movel %a1@(10537),%a4@-
   26df2:	2929 2929      	movel %a1@(10537),%a4@-
   26df6:	2f2f 2d2d      	movel %sp@(11565),%sp@-
   26dfa:	2d2d 2d2d      	movel %a5@(11565),%fp@-
   26dfe:	2d2d 2d2d      	movel %a5@(11565),%fp@-
   26e02:	2d2d 2d2d      	movel %a5@(11565),%fp@-
   26e06:	2d2d 2d2d      	movel %a5@(11565),%fp@-
   26e0a:	2d2d 2d2d      	movel %a5@(11565),%fp@-
   26e0e:	2d2d 2d2d      	movel %a5@(11565),%fp@-
   26e12:	2d2d 2d2d      	movel %a5@(11565),%fp@-
   26e16:	2d2d 2d2d      	movel %a5@(11565),%fp@-
   26e1a:	2d2d 2d2d      	movel %a5@(11565),%fp@-
   26e1e:	2d2d 2d2d      	movel %a5@(11565),%fp@-
   26e22:	2d2d 2d2d      	movel %a5@(11565),%fp@-
   26e26:	2d2d 2d2d      	movel %a5@(11565),%fp@-
   26e2a:	2d2d 2d2d      	movel %a5@(11565),%fp@-
   26e2e:	2d2d 2d2d      	movel %a5@(11565),%fp@-
   26e32:	2d2d 2d2d      	movel %a5@(11565),%fp@-
   26e36:	2d2d 2d2d      	movel %a5@(11565),%fp@-
   26e3a:	2d2d 2d2d      	movel %a5@(11565),%fp@-
   26e3e:	2d2d 2d2d      	movel %a5@(11565),%fp@-
   26e42:	2d2d 2d2d      	movel %a5@(11565),%fp@-
   26e46:	2d2d 2d2d      	movel %a5@(11565),%fp@-
   26e4a:	2d2d 2d2d      	movel %a5@(11565),%fp@-
   26e4e:	2d2d 2d2d      	movel %a5@(11565),%fp@-
   26e52:	2d2d 2d2d      	movel %a5@(11565),%fp@-
   26e56:	2d2d 2d2d      	movel %a5@(11565),%fp@-
   26e5a:	2d2d 2d2d      	movel %a5@(11565),%fp@-
   26e5e:	2d2d 2d2d      	movel %a5@(11565),%fp@-
   26e62:	2d2d 2d2d      	movel %a5@(11565),%fp@-
   26e66:	2d2d 2d2d      	movel %a5@(11565),%fp@-
   26e6a:	2d2d 2d2d      	movel %a5@(11565),%fp@-
   26e6e:	2d2d 2d2d      	movel %a5@(11565),%fp@-
   26e72:	2d2d 2d2d      	movel %a5@(11565),%fp@-
   26e76:	2d2d 2229      	movel %a5@(8745),%fp@-
   26e7a:	2929 2929      	movel %a1@(10537),%a4@-
   26e7e:	2929 2929      	movel %a1@(10537),%a4@-
   26e82:	2929 2929      	movel %a1@(10537),%a4@-
   26e86:	2929 2d2f      	movel %a1@(11567),%a4@-
   26e8a:	2d2d 232a      	movel %a5@(9002),%fp@-
   26e8e:	2c2c 2d2d      	movel %a4@(11565),%d6
   26e92:	2d2e 2e2e      	movel %fp@(11822),%fp@-
   26e96:	2e2e 2e2f      	movel %fp@(11823),%d7
   26e9a:	2f2f 2f2f      	movel %sp@(12079),%sp@-
   26e9e:	2f2f 2f2d      	movel %sp@(12077),%sp@-
   26ea2:	2d2d 1717      	movel %a5@(5911),%fp@-
   26ea6:	172d 2d2d      	moveb %a5@(11565),%a3@-
   26eaa:	2d2d 1717      	movel %a5@(5911),%fp@-
   26eae:	172d 1717      	moveb %a5@(5911),%a3@-
   26eb2:	1717           	moveb %sp@,%a3@-
   26eb4:	1717           	moveb %sp@,%a3@-
   26eb6:	1717           	moveb %sp@,%a3@-
   26eb8:	172d 1717      	moveb %a5@(5911),%a3@-
   26ebc:	1717           	moveb %sp@,%a3@-
   26ebe:	1717           	moveb %sp@,%a3@-
   26ec0:	1717           	moveb %sp@,%a3@-
   26ec2:	172d 1717      	moveb %a5@(5911),%a3@-
   26ec6:	1717           	moveb %sp@,%a3@-
   26ec8:	1717           	moveb %sp@,%a3@-
   26eca:	1717           	moveb %sp@,%a3@-
   26ecc:	172d 1717      	moveb %a5@(5911),%a3@-
   26ed0:	1717           	moveb %sp@,%a3@-
   26ed2:	1717           	moveb %sp@,%a3@-
   26ed4:	1717           	moveb %sp@,%a3@-
   26ed6:	2d2d 2d2d      	movel %a5@(11565),%fp@-
   26eda:	2d2d 2d2d      	movel %a5@(11565),%fp@-
   26ede:	2d2d 2d2d      	movel %a5@(11565),%fp@-
   26ee2:	2d2d 2d2d      	movel %a5@(11565),%fp@-
   26ee6:	2d2d 2d2d      	movel %a5@(11565),%fp@-
   26eea:	2d2d 2d2d      	movel %a5@(11565),%fp@-
   26eee:	2d2d 2d2d      	movel %a5@(11565),%fp@-
   26ef2:	2d2d 2d2d      	movel %a5@(11565),%fp@-
   26ef6:	2d2d 2d2d      	movel %a5@(11565),%fp@-
   26efa:	2d2d 2d2d      	movel %a5@(11565),%fp@-
   26efe:	2d2d 2d2d      	movel %a5@(11565),%fp@-
   26f02:	2d2d 2d2d      	movel %a5@(11565),%fp@-
   26f06:	2d2d 2d2d      	movel %a5@(11565),%fp@-
   26f0a:	2d2d 2d2d      	movel %a5@(11565),%fp@-
   26f0e:	2d2d 2d2d      	movel %a5@(11565),%fp@-
   26f12:	2d2d 2d2d      	movel %a5@(11565),%fp@-
   26f16:	2d2d 2d2d      	movel %a5@(11565),%fp@-
   26f1a:	2d2d 2d2d      	movel %a5@(11565),%fp@-
   26f1e:	2d2d 2d34      	movel %a5@(11572),%fp@-
   26f22:	2929 2929      	movel %a1@(10537),%a4@-
   26f26:	2929 2929      	movel %a1@(10537),%a4@-
   26f2a:	2929 2929      	movel %a1@(10537),%a4@-
   26f2e:	2929 2929      	movel %a1@(10537),%a4@-
   26f32:	2929 2929      	movel %a1@(10537),%a4@-
   26f36:	2f2f 2d2d      	movel %sp@(11565),%sp@-
   26f3a:	2d2d 2d2d      	movel %a5@(11565),%fp@-
   26f3e:	2d2d 2d2d      	movel %a5@(11565),%fp@-
   26f42:	2d2d 2d2d      	movel %a5@(11565),%fp@-
   26f46:	2d2d 2d2d      	movel %a5@(11565),%fp@-
   26f4a:	2d2d 2d2d      	movel %a5@(11565),%fp@-
   26f4e:	2d2d 2d2d      	movel %a5@(11565),%fp@-
   26f52:	2d2d 2d2d      	movel %a5@(11565),%fp@-
   26f56:	2d2d 2d2d      	movel %a5@(11565),%fp@-
   26f5a:	2d2d 2d2d      	movel %a5@(11565),%fp@-
   26f5e:	2d2d 2d2d      	movel %a5@(11565),%fp@-
   26f62:	2d2d 2d2d      	movel %a5@(11565),%fp@-
   26f66:	2d2d 2d2d      	movel %a5@(11565),%fp@-
   26f6a:	2d2d 2d2d      	movel %a5@(11565),%fp@-
   26f6e:	2d2d 2d2d      	movel %a5@(11565),%fp@-
   26f72:	2d2d 2d2d      	movel %a5@(11565),%fp@-
   26f76:	2d2d 2d2d      	movel %a5@(11565),%fp@-
   26f7a:	2d2d 2d2d      	movel %a5@(11565),%fp@-
   26f7e:	2d2d 2d2d      	movel %a5@(11565),%fp@-
   26f82:	2d2d 2d2d      	movel %a5@(11565),%fp@-
   26f86:	2d2d 2d2d      	movel %a5@(11565),%fp@-
   26f8a:	2d2d 2d2d      	movel %a5@(11565),%fp@-
   26f8e:	2d2d 2d2d      	movel %a5@(11565),%fp@-
   26f92:	2d2d 2d2d      	movel %a5@(11565),%fp@-
   26f96:	2d2d 2d2d      	movel %a5@(11565),%fp@-
   26f9a:	2d2d 2d2d      	movel %a5@(11565),%fp@-
   26f9e:	2d2d 2d2d      	movel %a5@(11565),%fp@-
   26fa2:	2d2d 2d2d      	movel %a5@(11565),%fp@-
   26fa6:	2d2d 2d2d      	movel %a5@(11565),%fp@-
   26faa:	2d2d 2d2d      	movel %a5@(11565),%fp@-
   26fae:	2d2d 2d2d      	movel %a5@(11565),%fp@-
   26fb2:	2d2d 2d2d      	movel %a5@(11565),%fp@-
   26fb6:	2d2d 2229      	movel %a5@(8745),%fp@-
   26fba:	2929 2929      	movel %a1@(10537),%a4@-
   26fbe:	2929 2929      	movel %a1@(10537),%a4@-
   26fc2:	2929 2929      	movel %a1@(10537),%a4@-
   26fc6:	2929 2c2f      	movel %a1@(11311),%a4@-
   26fca:	2d2d 2f2f      	movel %a5@(12079),%fp@-
   26fce:	2f2f 2f2f      	movel %sp@(12079),%sp@-
   26fd2:	2f2f 2f2f      	movel %sp@(12079),%sp@-
   26fd6:	2f2f 2f2f      	movel %sp@(12079),%sp@-
   26fda:	2f2f 2f2f      	movel %sp@(12079),%sp@-
   26fde:	2f2f 2f2d      	movel %sp@(12077),%sp@-
   26fe2:	2d2d 1717      	movel %a5@(5911),%fp@-
   26fe6:	172d 2d2d      	moveb %a5@(11565),%a3@-
   26fea:	2d2d 1717      	movel %a5@(5911),%fp@-
   26fee:	172d 2d17      	moveb %a5@(11543),%a3@-
   26ff2:	1717           	moveb %sp@,%a3@-
   26ff4:	1717           	moveb %sp@,%a3@-
   26ff6:	1717           	moveb %sp@,%a3@-
   26ff8:	2d2d 2d17      	movel %a5@(11543),%fp@-
   26ffc:	1717           	moveb %sp@,%a3@-
   26ffe:	1717           	moveb %sp@,%a3@-
   27000:	1717           	moveb %sp@,%a3@-
   27002:	2d2d 2d17      	movel %a5@(11543),%fp@-
   27006:	1717           	moveb %sp@,%a3@-
   27008:	1717           	moveb %sp@,%a3@-
   2700a:	1717           	moveb %sp@,%a3@-
   2700c:	2d2d 1717      	movel %a5@(5911),%fp@-
   27010:	1717           	moveb %sp@,%a3@-
   27012:	1717           	moveb %sp@,%a3@-
   27014:	1717           	moveb %sp@,%a3@-
   27016:	2d2d 2d2d      	movel %a5@(11565),%fp@-
   2701a:	2d2d 2d2d      	movel %a5@(11565),%fp@-
   2701e:	2d2d 2d2d      	movel %a5@(11565),%fp@-
   27022:	2d2d 2d2d      	movel %a5@(11565),%fp@-
   27026:	2d2d 2d2d      	movel %a5@(11565),%fp@-
   2702a:	2d2d 2d2d      	movel %a5@(11565),%fp@-
   2702e:	2d2d 2d2d      	movel %a5@(11565),%fp@-
   27032:	2d2d 2d2d      	movel %a5@(11565),%fp@-
   27036:	2d2d 2d2d      	movel %a5@(11565),%fp@-
   2703a:	2d2d 2d2d      	movel %a5@(11565),%fp@-
   2703e:	2d2d 2d2d      	movel %a5@(11565),%fp@-
   27042:	2d2d 2d2d      	movel %a5@(11565),%fp@-
   27046:	2d2d 2d2d      	movel %a5@(11565),%fp@-
   2704a:	2d2d 2d2d      	movel %a5@(11565),%fp@-
   2704e:	2d2d 2d2d      	movel %a5@(11565),%fp@-
   27052:	2d2d 2d2d      	movel %a5@(11565),%fp@-
   27056:	2d2d 2d2d      	movel %a5@(11565),%fp@-
   2705a:	2d2d 2d2d      	movel %a5@(11565),%fp@-
   2705e:	2d2d 2d34      	movel %a5@(11572),%fp@-
   27062:	2929 2929      	movel %a1@(10537),%a4@-
   27066:	2929 2929      	movel %a1@(10537),%a4@-
   2706a:	2929 2929      	movel %a1@(10537),%a4@-
   2706e:	2929 2929      	movel %a1@(10537),%a4@-
   27072:	2929 2929      	movel %a1@(10537),%a4@-
   27076:	2f2f 2d2d      	movel %sp@(11565),%sp@-
   2707a:	2d2d 2d2d      	movel %a5@(11565),%fp@-
   2707e:	2d2d 2d2d      	movel %a5@(11565),%fp@-
   27082:	2d2d 2d2d      	movel %a5@(11565),%fp@-
   27086:	2d2d 2d2d      	movel %a5@(11565),%fp@-
   2708a:	2d2d 2d2d      	movel %a5@(11565),%fp@-
   2708e:	2d2d 2d2d      	movel %a5@(11565),%fp@-
   27092:	2d2d 2d2d      	movel %a5@(11565),%fp@-
   27096:	2d2d 2d2d      	movel %a5@(11565),%fp@-
   2709a:	2d2d 2d2d      	movel %a5@(11565),%fp@-
   2709e:	2d2d 2d2d      	movel %a5@(11565),%fp@-
   270a2:	2d2d 2d2d      	movel %a5@(11565),%fp@-
   270a6:	2d2d 2d2d      	movel %a5@(11565),%fp@-
   270aa:	2d2d 2d2d      	movel %a5@(11565),%fp@-
   270ae:	2d2d 2d2d      	movel %a5@(11565),%fp@-
   270b2:	2d2d 2d2d      	movel %a5@(11565),%fp@-
   270b6:	2d2d 2d2d      	movel %a5@(11565),%fp@-
   270ba:	2d2d 2d2d      	movel %a5@(11565),%fp@-
   270be:	2d2d 2d2d      	movel %a5@(11565),%fp@-
   270c2:	2d2d 2d2d      	movel %a5@(11565),%fp@-
   270c6:	2d2d 2d2d      	movel %a5@(11565),%fp@-
   270ca:	2d2d 2d2d      	movel %a5@(11565),%fp@-
   270ce:	2d2d 2d2d      	movel %a5@(11565),%fp@-
   270d2:	2d2d 2d2d      	movel %a5@(11565),%fp@-
   270d6:	2d2d 2d2d      	movel %a5@(11565),%fp@-
   270da:	2d2d 2d2d      	movel %a5@(11565),%fp@-
   270de:	2d2d 2d2d      	movel %a5@(11565),%fp@-
   270e2:	2d2d 2d2d      	movel %a5@(11565),%fp@-
   270e6:	2d2d 2d2d      	movel %a5@(11565),%fp@-
   270ea:	2d2d 2d2d      	movel %a5@(11565),%fp@-
   270ee:	2d2d 2d2d      	movel %a5@(11565),%fp@-
   270f2:	2d2d 2d2d      	movel %a5@(11565),%fp@-
   270f6:	2d2d 2229      	movel %a5@(8745),%fp@-
   270fa:	2929 2929      	movel %a1@(10537),%a4@-
   270fe:	2929 2929      	movel %a1@(10537),%a4@-
   27102:	2929 2929      	movel %a1@(10537),%a4@-
   27106:	2929 2c2f      	movel %a1@(11311),%a4@-
   2710a:	2d2d 2d2d      	movel %a5@(11565),%fp@-
   2710e:	2d2d 2d2d      	movel %a5@(11565),%fp@-
   27112:	2d2d 2d2d      	movel %a5@(11565),%fp@-
   27116:	2d2d 2d2d      	movel %a5@(11565),%fp@-
   2711a:	2d2d 2d2d      	movel %a5@(11565),%fp@-
   2711e:	2d2d 2d2d      	movel %a5@(11565),%fp@-
   27122:	2d2d 2d2d      	movel %a5@(11565),%fp@-
   27126:	2d2d 2d2d      	movel %a5@(11565),%fp@-
   2712a:	2d2d 2d2d      	movel %a5@(11565),%fp@-
   2712e:	2d2d 2d2d      	movel %a5@(11565),%fp@-
   27132:	2d2d 2d2d      	movel %a5@(11565),%fp@-
   27136:	2d2d 2d2d      	movel %a5@(11565),%fp@-
   2713a:	2d2d 2d2d      	movel %a5@(11565),%fp@-
   2713e:	2d2d 2d2d      	movel %a5@(11565),%fp@-
   27142:	2d2d 2d2d      	movel %a5@(11565),%fp@-
   27146:	2d2d 2d2d      	movel %a5@(11565),%fp@-
   2714a:	2d2d 2d2d      	movel %a5@(11565),%fp@-
   2714e:	2d2d 2d2d      	movel %a5@(11565),%fp@-
   27152:	2d2d 2d2d      	movel %a5@(11565),%fp@-
   27156:	2d2d 2d2d      	movel %a5@(11565),%fp@-
   2715a:	2d2d 2d2d      	movel %a5@(11565),%fp@-
   2715e:	2d2d 2d2d      	movel %a5@(11565),%fp@-
   27162:	2d2d 2d2d      	movel %a5@(11565),%fp@-
   27166:	2d2d 2d2d      	movel %a5@(11565),%fp@-
   2716a:	2d2d 2d2d      	movel %a5@(11565),%fp@-
   2716e:	2d2d 2d2d      	movel %a5@(11565),%fp@-
   27172:	2d2d 2d2d      	movel %a5@(11565),%fp@-
   27176:	2d2d 2d2d      	movel %a5@(11565),%fp@-
   2717a:	2d2d 2d2d      	movel %a5@(11565),%fp@-
   2717e:	2d2d 2d2d      	movel %a5@(11565),%fp@-
   27182:	2d2d 2d2d      	movel %a5@(11565),%fp@-
   27186:	2d2d 2d2d      	movel %a5@(11565),%fp@-
   2718a:	2d2d 2d2d      	movel %a5@(11565),%fp@-
   2718e:	2d2d 2d2d      	movel %a5@(11565),%fp@-
   27192:	2d2d 2d2d      	movel %a5@(11565),%fp@-
   27196:	2d2d 2d2d      	movel %a5@(11565),%fp@-
   2719a:	2d2d 2d2d      	movel %a5@(11565),%fp@-
   2719e:	2d2d 2d34      	movel %a5@(11572),%fp@-
   271a2:	2929 2929      	movel %a1@(10537),%a4@-
   271a6:	2929 2929      	movel %a1@(10537),%a4@-
   271aa:	2929 2929      	movel %a1@(10537),%a4@-
   271ae:	2929 2929      	movel %a1@(10537),%a4@-
   271b2:	2929 2929      	movel %a1@(10537),%a4@-
   271b6:	2f2f 2d2d      	movel %sp@(11565),%sp@-
   271ba:	2d2d 2d2d      	movel %a5@(11565),%fp@-
   271be:	2d2d 2d2d      	movel %a5@(11565),%fp@-
   271c2:	2d2d 2d2d      	movel %a5@(11565),%fp@-
   271c6:	2d2d 2d2d      	movel %a5@(11565),%fp@-
   271ca:	2d2d 2d2d      	movel %a5@(11565),%fp@-
   271ce:	2d2d 2d2d      	movel %a5@(11565),%fp@-
   271d2:	2d2d 2d2d      	movel %a5@(11565),%fp@-
   271d6:	2d2d 2d2d      	movel %a5@(11565),%fp@-
   271da:	2d2d 2d2d      	movel %a5@(11565),%fp@-
   271de:	2d2d 2d2d      	movel %a5@(11565),%fp@-
   271e2:	2d2d 2d2d      	movel %a5@(11565),%fp@-
   271e6:	2d2d 2d2d      	movel %a5@(11565),%fp@-
   271ea:	2d2d 2d2d      	movel %a5@(11565),%fp@-
   271ee:	2d2d 2d2d      	movel %a5@(11565),%fp@-
   271f2:	2d2d 2d2d      	movel %a5@(11565),%fp@-
   271f6:	2d2d 2d2d      	movel %a5@(11565),%fp@-
   271fa:	2d2d 2d2d      	movel %a5@(11565),%fp@-
   271fe:	2d2d 2d2d      	movel %a5@(11565),%fp@-
   27202:	2d2d 2d2d      	movel %a5@(11565),%fp@-
   27206:	2d2d 2d2d      	movel %a5@(11565),%fp@-
   2720a:	2d2d 2d2d      	movel %a5@(11565),%fp@-
   2720e:	2d2d 2d2d      	movel %a5@(11565),%fp@-
   27212:	2d2d 2d2d      	movel %a5@(11565),%fp@-
   27216:	2d2d 2d2d      	movel %a5@(11565),%fp@-
   2721a:	2d2d 2d2d      	movel %a5@(11565),%fp@-
   2721e:	2d2d 2d2d      	movel %a5@(11565),%fp@-
   27222:	2d2d 2d2d      	movel %a5@(11565),%fp@-
   27226:	2d2d 2d2d      	movel %a5@(11565),%fp@-
   2722a:	2d2d 2d2d      	movel %a5@(11565),%fp@-
   2722e:	2d2d 2d2d      	movel %a5@(11565),%fp@-
   27232:	2d2d 2d2d      	movel %a5@(11565),%fp@-
   27236:	2d2d 2229      	movel %a5@(8745),%fp@-
   2723a:	2929 2929      	movel %a1@(10537),%a4@-
   2723e:	2929 2929      	movel %a1@(10537),%a4@-
   27242:	2929 2929      	movel %a1@(10537),%a4@-
   27246:	2929 2c2f      	movel %a1@(11311),%a4@-
   2724a:	2d2d 2d2d      	movel %a5@(11565),%fp@-
   2724e:	2d2d 2d2d      	movel %a5@(11565),%fp@-
   27252:	2d2d 2d2d      	movel %a5@(11565),%fp@-
   27256:	2d2d 2d2d      	movel %a5@(11565),%fp@-
   2725a:	2d2d 2d2d      	movel %a5@(11565),%fp@-
   2725e:	2d2d 2d2d      	movel %a5@(11565),%fp@-
   27262:	2d2d 2d2d      	movel %a5@(11565),%fp@-
   27266:	2d2d 2d2d      	movel %a5@(11565),%fp@-
   2726a:	2d2d 2d2d      	movel %a5@(11565),%fp@-
   2726e:	2d2d 2d2d      	movel %a5@(11565),%fp@-
   27272:	2d2d 2d2d      	movel %a5@(11565),%fp@-
   27276:	2d2d 2d2d      	movel %a5@(11565),%fp@-
   2727a:	2d2d 2d2d      	movel %a5@(11565),%fp@-
   2727e:	2d2d 2d2d      	movel %a5@(11565),%fp@-
   27282:	2d2d 2d2d      	movel %a5@(11565),%fp@-
   27286:	2d2d 2d2d      	movel %a5@(11565),%fp@-
   2728a:	2d2d 2d2d      	movel %a5@(11565),%fp@-
   2728e:	2d2d 2d2d      	movel %a5@(11565),%fp@-
   27292:	2d2d 2d2d      	movel %a5@(11565),%fp@-
   27296:	2d2d 2d2d      	movel %a5@(11565),%fp@-
   2729a:	2d2d 2d2d      	movel %a5@(11565),%fp@-
   2729e:	2d2d 2d2d      	movel %a5@(11565),%fp@-
   272a2:	2d2d 2d2d      	movel %a5@(11565),%fp@-
   272a6:	2d2d 2d2d      	movel %a5@(11565),%fp@-
   272aa:	2d2d 2d2d      	movel %a5@(11565),%fp@-
   272ae:	2d2d 2d2d      	movel %a5@(11565),%fp@-
   272b2:	2d2d 2d2d      	movel %a5@(11565),%fp@-
   272b6:	2d2d 2d2d      	movel %a5@(11565),%fp@-
   272ba:	2d2d 2d2d      	movel %a5@(11565),%fp@-
   272be:	2d2d 2d2d      	movel %a5@(11565),%fp@-
   272c2:	2d2d 2d2d      	movel %a5@(11565),%fp@-
   272c6:	2d2d 2d2d      	movel %a5@(11565),%fp@-
   272ca:	2d2d 2d2d      	movel %a5@(11565),%fp@-
   272ce:	2d2d 2d2d      	movel %a5@(11565),%fp@-
   272d2:	2d2d 2d2d      	movel %a5@(11565),%fp@-
   272d6:	2d2d 2d2d      	movel %a5@(11565),%fp@-
   272da:	2d2d 2d2d      	movel %a5@(11565),%fp@-
   272de:	2d2d 2d33      	movel %a5@(11571),%fp@-
   272e2:	2929 2929      	movel %a1@(10537),%a4@-
   272e6:	2929 2929      	movel %a1@(10537),%a4@-
   272ea:	2929 2929      	movel %a1@(10537),%a4@-
   272ee:	2929 2929      	movel %a1@(10537),%a4@-
   272f2:	2929 2929      	movel %a1@(10537),%a4@-
   272f6:	2f2f 2d2d      	movel %sp@(11565),%sp@-
   272fa:	2d2d 2d2d      	movel %a5@(11565),%fp@-
   272fe:	2d2d 2d2d      	movel %a5@(11565),%fp@-
   27302:	2d2d 2d17      	movel %a5@(11543),%fp@-
   27306:	1717           	moveb %sp@,%a3@-
   27308:	1717           	moveb %sp@,%a3@-
   2730a:	2d2d 2d17      	movel %a5@(11543),%fp@-
   2730e:	1717           	moveb %sp@,%a3@-
   27310:	172d 2d2d      	moveb %a5@(11565),%a3@-
   27314:	1717           	moveb %sp@,%a3@-
   27316:	1717           	moveb %sp@,%a3@-
   27318:	2d2d 2d2d      	movel %a5@(11565),%fp@-
   2731c:	0000 0000      	orib #0,%d0
   27320:	002f 2f2b 2d2d 	orib #43,%sp@(11565)
   27326:	2d2d 2d17      	movel %a5@(11543),%fp@-
   2732a:	172d 2d2d      	moveb %a5@(11565),%a3@-
   2732e:	2d17           	movel %sp@,%fp@-
   27330:	1717           	moveb %sp@,%a3@-
   27332:	172d 2d2d      	moveb %a5@(11565),%a3@-
   27336:	1717           	moveb %sp@,%a3@-
   27338:	1717           	moveb %sp@,%a3@-
   2733a:	2d2d 2d17      	movel %a5@(11543),%fp@-
   2733e:	1717           	moveb %sp@,%a3@-
   27340:	172d 2d2d      	moveb %a5@(11565),%a3@-
   27344:	0000 0000      	orib #0,%d0
   27348:	002f 2f2b 2d2d 	orib #43,%sp@(11565)
   2734e:	2d2d 2d17      	movel %a5@(11543),%fp@-
   27352:	172d 2d2d      	moveb %a5@(11565),%a3@-
   27356:	2d17           	movel %sp@,%fp@-
   27358:	1717           	moveb %sp@,%a3@-
   2735a:	172d 2d2d      	moveb %a5@(11565),%a3@-
   2735e:	1717           	moveb %sp@,%a3@-
   27360:	1717           	moveb %sp@,%a3@-
   27362:	2d2d 2d17      	movel %a5@(11543),%fp@-
   27366:	1717           	moveb %sp@,%a3@-
   27368:	172d 2d2d      	moveb %a5@(11565),%a3@-
   2736c:	0000 0000      	orib #0,%d0
   27370:	002f 2f2b 2d2d 	orib #43,%sp@(11565)
   27376:	2d2d 2229      	movel %a5@(8745),%fp@-
   2737a:	2929 2929      	movel %a1@(10537),%a4@-
   2737e:	2929 2929      	movel %a1@(10537),%a4@-
   27382:	2929 2929      	movel %a1@(10537),%a4@-
   27386:	2929 2c2f      	movel %a1@(11311),%a4@-
   2738a:	2d2d 2d2d      	movel %a5@(11565),%fp@-
   2738e:	2d2d 2d2d      	movel %a5@(11565),%fp@-
   27392:	2d2d 2d2d      	movel %a5@(11565),%fp@-
   27396:	2d2d 2d2d      	movel %a5@(11565),%fp@-
   2739a:	2d2d 2d2d      	movel %a5@(11565),%fp@-
   2739e:	2d2d 2d2d      	movel %a5@(11565),%fp@-
   273a2:	2d2d 2d2d      	movel %a5@(11565),%fp@-
   273a6:	2d2d 2d2d      	movel %a5@(11565),%fp@-
   273aa:	2d2d 2d2d      	movel %a5@(11565),%fp@-
   273ae:	2d2d 2d2d      	movel %a5@(11565),%fp@-
   273b2:	2d2d 2d2d      	movel %a5@(11565),%fp@-
   273b6:	2d2d 2d2d      	movel %a5@(11565),%fp@-
   273ba:	2d2d 2d2d      	movel %a5@(11565),%fp@-
   273be:	2d2d 2d2d      	movel %a5@(11565),%fp@-
   273c2:	2d2d 2d2d      	movel %a5@(11565),%fp@-
   273c6:	2d2d 2d2d      	movel %a5@(11565),%fp@-
   273ca:	2d2d 2d2d      	movel %a5@(11565),%fp@-
   273ce:	2d2d 2d2d      	movel %a5@(11565),%fp@-
   273d2:	2d2d 2d2d      	movel %a5@(11565),%fp@-
   273d6:	2d2d 2d2d      	movel %a5@(11565),%fp@-
   273da:	2d2d 2d2d      	movel %a5@(11565),%fp@-
   273de:	2d2d 2d2d      	movel %a5@(11565),%fp@-
   273e2:	2d2d 2d2d      	movel %a5@(11565),%fp@-
   273e6:	2d2d 2d2d      	movel %a5@(11565),%fp@-
   273ea:	2d2d 2d2d      	movel %a5@(11565),%fp@-
   273ee:	2d2d 2d2d      	movel %a5@(11565),%fp@-
   273f2:	2d2d 2d2d      	movel %a5@(11565),%fp@-
   273f6:	2d2d 2d2d      	movel %a5@(11565),%fp@-
   273fa:	2d2d 2d2d      	movel %a5@(11565),%fp@-
   273fe:	2d2d 2d2d      	movel %a5@(11565),%fp@-
   27402:	2d2d 2d2d      	movel %a5@(11565),%fp@-
   27406:	2d2d 2d2d      	movel %a5@(11565),%fp@-
   2740a:	2d2d 2d2d      	movel %a5@(11565),%fp@-
   2740e:	2d2d 2d2d      	movel %a5@(11565),%fp@-
   27412:	2d2d 2d2d      	movel %a5@(11565),%fp@-
   27416:	2d2d 2d2d      	movel %a5@(11565),%fp@-
   2741a:	2d2d 2d2d      	movel %a5@(11565),%fp@-
   2741e:	2d2d 2d33      	movel %a5@(11571),%fp@-
   27422:	2929 2929      	movel %a1@(10537),%a4@-
   27426:	2929 2929      	movel %a1@(10537),%a4@-
   2742a:	2929 2929      	movel %a1@(10537),%a4@-
   2742e:	2929 2929      	movel %a1@(10537),%a4@-
   27432:	2929 2929      	movel %a1@(10537),%a4@-
   27436:	2f2f 2d2d      	movel %sp@(11565),%sp@-
   2743a:	2d2d 2d2d      	movel %a5@(11565),%fp@-
   2743e:	2d2d 2d2d      	movel %a5@(11565),%fp@-
   27442:	2d2d 2d2d      	movel %a5@(11565),%fp@-
   27446:	2d2d 2d17      	movel %a5@(11543),%fp@-
   2744a:	172d 1717      	moveb %a5@(5911),%a3@-
   2744e:	2d2d 1717      	movel %a5@(5911),%fp@-
   27452:	2d17           	movel %sp@,%fp@-
   27454:	172d 2d17      	moveb %a5@(11543),%a3@-
   27458:	172d 2d2d      	moveb %a5@(11565),%a3@-
   2745c:	005a 5a5a      	oriw #23130,%a2@+
   27460:	5a5a           	addqw #5,%a2@+
   27462:	5a29 2d2d      	addqb #5,%a1@(11565)
   27466:	2d2d 1717      	movel %a5@(5911),%fp@-
   2746a:	172d 2d2d      	moveb %a5@(11565),%a3@-
   2746e:	1717           	moveb %sp@,%a3@-
   27470:	2d2d 1717      	movel %a5@(5911),%fp@-
   27474:	2d17           	movel %sp@,%fp@-
   27476:	172d 2d17      	moveb %a5@(11543),%a3@-
   2747a:	172d 1717      	moveb %a5@(5911),%a3@-
   2747e:	2d2d 1717      	movel %a5@(5911),%fp@-
   27482:	2d2d 005a      	movel %a5@(90),%fp@-
   27486:	5a5a           	addqw #5,%a2@+
   27488:	5a5a           	addqw #5,%a2@+
   2748a:	5a29 2d2d      	addqb #5,%a1@(11565)
   2748e:	2d2d 1717      	movel %a5@(5911),%fp@-
   27492:	172d 2d2d      	moveb %a5@(11565),%a3@-
   27496:	1717           	moveb %sp@,%a3@-
   27498:	2d2d 1717      	movel %a5@(5911),%fp@-
   2749c:	2d17           	movel %sp@,%fp@-
   2749e:	172d 2d17      	moveb %a5@(11543),%a3@-
   274a2:	172d 1717      	moveb %a5@(5911),%a3@-
   274a6:	2d2d 1717      	movel %a5@(5911),%fp@-
   274aa:	2d2d 005a      	movel %a5@(90),%fp@-
   274ae:	5a5a           	addqw #5,%a2@+
   274b0:	5a5a           	addqw #5,%a2@+
   274b2:	5a29 2d2d      	addqb #5,%a1@(11565)
   274b6:	2d2d 2229      	movel %a5@(8745),%fp@-
   274ba:	2929 2929      	movel %a1@(10537),%a4@-
   274be:	2929 2929      	movel %a1@(10537),%a4@-
   274c2:	2929 2929      	movel %a1@(10537),%a4@-
   274c6:	2929 2824      	movel %a1@(10276),%a4@-
   274ca:	2424           	movel %a4@-,%d2
   274cc:	2424           	movel %a4@-,%d2
   274ce:	2424           	movel %a4@-,%d2
   274d0:	2424           	movel %a4@-,%d2
   274d2:	2424           	movel %a4@-,%d2
   274d4:	2424           	movel %a4@-,%d2
   274d6:	2423           	movel %a3@-,%d2
   274d8:	2323           	movel %a3@-,%a1@-
   274da:	2323           	movel %a3@-,%a1@-
   274dc:	2323           	movel %a3@-,%a1@-
   274de:	2323           	movel %a3@-,%a1@-
   274e0:	2323           	movel %a3@-,%a1@-
   274e2:	2222           	movel %a2@-,%d1
   274e4:	2222           	movel %a2@-,%d1
   274e6:	2222           	movel %a2@-,%d1
   274e8:	2222           	movel %a2@-,%d1
   274ea:	2222           	movel %a2@-,%d1
   274ec:	2222           	movel %a2@-,%d1
   274ee:	2222           	movel %a2@-,%d1
   274f0:	2222           	movel %a2@-,%d1
   274f2:	2222           	movel %a2@-,%d1
   274f4:	2222           	movel %a2@-,%d1
   274f6:	2222           	movel %a2@-,%d1
   274f8:	2121           	movel %a1@-,%a0@-
   274fa:	2121           	movel %a1@-,%a0@-
   274fc:	2121           	movel %a1@-,%a0@-
   274fe:	2121           	movel %a1@-,%a0@-
   27500:	2121           	movel %a1@-,%a0@-
   27502:	2121           	movel %a1@-,%a0@-
   27504:	2121           	movel %a1@-,%a0@-
   27506:	2121           	movel %a1@-,%a0@-
   27508:	2121           	movel %a1@-,%a0@-
   2750a:	2121           	movel %a1@-,%a0@-
   2750c:	2121           	movel %a1@-,%a0@-
   2750e:	2121           	movel %a1@-,%a0@-
   27510:	2121           	movel %a1@-,%a0@-
   27512:	2121           	movel %a1@-,%a0@-
   27514:	2121           	movel %a1@-,%a0@-
   27516:	2121           	movel %a1@-,%a0@-
   27518:	2121           	movel %a1@-,%a0@-
   2751a:	2121           	movel %a1@-,%a0@-
   2751c:	2121           	movel %a1@-,%a0@-
   2751e:	2121           	movel %a1@-,%a0@-
   27520:	2121           	movel %a1@-,%a0@-
   27522:	2121           	movel %a1@-,%a0@-
   27524:	2121           	movel %a1@-,%a0@-
   27526:	2121           	movel %a1@-,%a0@-
   27528:	2121           	movel %a1@-,%a0@-
   2752a:	2121           	movel %a1@-,%a0@-
   2752c:	3737 3737 3737 	movew %sp@(37373737)@(37373737,%d3:w:8),%a3@-
   27532:	3737 3737 3737 
   27538:	3736 3636      	movew %fp@(00000036,%d3:w:8),%a3@-
   2753c:	3636 3636      	movew %fp@(00000036,%d3:w:8),%d3
   27540:	3636 3635      	movew %fp@(00000035,%d3:w:8),%d3
   27544:	3535 3535 3535 	movew %a5@(35353535)@(00000000,%d3:w:4),%a2@-
   2754a:	3535 
   2754c:	3535 3535 350c 	movew %a5@(350c0c34)@(00000000,%d3:w:4),%a2@-
   27552:	0c34 
   27554:	3434 3434      	movew %a4@(00000034,%d3:w:4),%d2
   27558:	3434 3434      	movew %a4@(00000034,%d3:w:4),%d2
   2755c:	3434 3433      	movew %a4@(00000033,%d3:w:4),%d2
   27560:	3332 2929 2929 	movew %a2@(00002929,%d2:l)@(00000000),%a1@-
   27566:	2929 2929      	movel %a1@(10537),%a4@-
   2756a:	2929 2929      	movel %a1@(10537),%a4@-
   2756e:	2929 2929      	movel %a1@(10537),%a4@-
   27572:	2929 2929      	movel %a1@(10537),%a4@-
   27576:	2f2f 2d2d      	movel %sp@(11565),%sp@-
   2757a:	2d2d 2d2d      	movel %a5@(11565),%fp@-
   2757e:	2d2d 2d2d      	movel %a5@(11565),%fp@-
   27582:	2d2d 2d2d      	movel %a5@(11565),%fp@-
   27586:	2d17           	movel %sp@,%fp@-
   27588:	1717           	moveb %sp@,%a3@-
   2758a:	2d2d 2d2d      	movel %a5@(11565),%fp@-
   2758e:	2d2d 1717      	movel %a5@(5911),%fp@-
   27592:	2d17           	movel %sp@,%fp@-
   27594:	172d 2d17      	moveb %a5@(11543),%a3@-
   27598:	172d 2d2d      	moveb %a5@(11565),%a3@-
   2759c:	005a 5a5a      	oriw #23130,%a2@+
   275a0:	5a5a           	addqw #5,%a2@+
   275a2:	5a27           	addqb #5,%sp@-
   275a4:	2d2d 2d2d      	movel %a5@(11565),%fp@-
   275a8:	2d17           	movel %sp@,%fp@-
   275aa:	172d 2d2d      	moveb %a5@(11565),%a3@-
   275ae:	1717           	moveb %sp@,%a3@-
   275b0:	2d2d 1717      	movel %a5@(5911),%fp@-
   275b4:	2d17           	movel %sp@,%fp@-
   275b6:	172d 2d17      	moveb %a5@(11543),%a3@-
   275ba:	172d 1717      	moveb %a5@(5911),%a3@-
   275be:	2d2d 1717      	movel %a5@(5911),%fp@-
   275c2:	2d2d 005a      	movel %a5@(90),%fp@-
   275c6:	5a5a           	addqw #5,%a2@+
   275c8:	5a5a           	addqw #5,%a2@+
   275ca:	5a27           	addqb #5,%sp@-
   275cc:	2d2d 2d2d      	movel %a5@(11565),%fp@-
   275d0:	2d17           	movel %sp@,%fp@-
   275d2:	172d 2d2d      	moveb %a5@(11565),%a3@-
   275d6:	1717           	moveb %sp@,%a3@-
   275d8:	2d2d 1717      	movel %a5@(5911),%fp@-
   275dc:	2d17           	movel %sp@,%fp@-
   275de:	172d 2d17      	moveb %a5@(11543),%a3@-
   275e2:	172d 1717      	moveb %a5@(5911),%a3@-
   275e6:	2d2d 1717      	movel %a5@(5911),%fp@-
   275ea:	2d2d 005a      	movel %a5@(90),%fp@-
   275ee:	5a5a           	addqw #5,%a2@+
   275f0:	5a5a           	addqw #5,%a2@+
   275f2:	5a27           	addqb #5,%sp@-
   275f4:	2d2d 2d2d      	movel %a5@(11565),%fp@-
   275f8:	2029 2929      	movel %a1@(10537),%d0
   275fc:	2929 2929      	movel %a1@(10537),%a4@-
   27600:	2929 2929      	movel %a1@(10537),%a4@-
   27604:	2929 2929      	movel %a1@(10537),%a4@-
   27608:	2929 2929      	movel %a1@(10537),%a4@-
   2760c:	2929 2929      	movel %a1@(10537),%a4@-
   27610:	2929 2929      	movel %a1@(10537),%a4@-
   27614:	2929 2929      	movel %a1@(10537),%a4@-
   27618:	2929 2929      	movel %a1@(10537),%a4@-
   2761c:	2929 2929      	movel %a1@(10537),%a4@-
   27620:	2929 2929      	movel %a1@(10537),%a4@-
   27624:	2929 2929      	movel %a1@(10537),%a4@-
   27628:	2929 2929      	movel %a1@(10537),%a4@-
   2762c:	2929 2929      	movel %a1@(10537),%a4@-
   27630:	2929 2929      	movel %a1@(10537),%a4@-
   27634:	2929 2929      	movel %a1@(10537),%a4@-
   27638:	2929 2929      	movel %a1@(10537),%a4@-
   2763c:	2929 2929      	movel %a1@(10537),%a4@-
   27640:	2929 2929      	movel %a1@(10537),%a4@-
   27644:	2929 2929      	movel %a1@(10537),%a4@-
   27648:	2929 2929      	movel %a1@(10537),%a4@-
   2764c:	2929 2929      	movel %a1@(10537),%a4@-
   27650:	2929 2929      	movel %a1@(10537),%a4@-
   27654:	2929 2929      	movel %a1@(10537),%a4@-
   27658:	2929 2929      	movel %a1@(10537),%a4@-
   2765c:	2929 2929      	movel %a1@(10537),%a4@-
   27660:	2929 2929      	movel %a1@(10537),%a4@-
   27664:	2929 2929      	movel %a1@(10537),%a4@-
   27668:	2929 2929      	movel %a1@(10537),%a4@-
   2766c:	2929 2929      	movel %a1@(10537),%a4@-
   27670:	2929 2929      	movel %a1@(10537),%a4@-
   27674:	2929 2929      	movel %a1@(10537),%a4@-
   27678:	2929 2929      	movel %a1@(10537),%a4@-
   2767c:	2929 2929      	movel %a1@(10537),%a4@-
   27680:	2929 2929      	movel %a1@(10537),%a4@-
   27684:	2929 2929      	movel %a1@(10537),%a4@-
   27688:	2929 2929      	movel %a1@(10537),%a4@-
   2768c:	2929 2929      	movel %a1@(10537),%a4@-
   27690:	2929 2929      	movel %a1@(10537),%a4@-
   27694:	2929 2929      	movel %a1@(10537),%a4@-
   27698:	2929 2929      	movel %a1@(10537),%a4@-
   2769c:	2929 2929      	movel %a1@(10537),%a4@-
   276a0:	2929 2929      	movel %a1@(10537),%a4@-
   276a4:	2929 2929      	movel %a1@(10537),%a4@-
   276a8:	2929 2929      	movel %a1@(10537),%a4@-
   276ac:	2929 2929      	movel %a1@(10537),%a4@-
   276b0:	2929 2929      	movel %a1@(10537),%a4@-
   276b4:	2929 2f2f      	movel %a1@(12079),%a4@-
   276b8:	2d2d 2d2d      	movel %a5@(11565),%fp@-
   276bc:	2d2d 2d2d      	movel %a5@(11565),%fp@-
   276c0:	2d2d 2d2d      	movel %a5@(11565),%fp@-
   276c4:	2d2d 2d2d      	movel %a5@(11565),%fp@-
   276c8:	2d17           	movel %sp@,%fp@-
   276ca:	172d 2d17      	moveb %a5@(11543),%a3@-
   276ce:	1717           	moveb %sp@,%a3@-
   276d0:	172d 2d17      	moveb %a5@(11543),%a3@-
   276d4:	172d 2d17      	moveb %a5@(11543),%a3@-
   276d8:	172d 2d2d      	moveb %a5@(11565),%a3@-
   276dc:	005a 5a5a      	oriw #23130,%a2@+
   276e0:	5a5a           	addqw #5,%a2@+
   276e2:	5a27           	addqb #5,%sp@-
   276e4:	2d2d 2d2d      	movel %a5@(11565),%fp@-
   276e8:	2d17           	movel %sp@,%fp@-
   276ea:	172d 2d2d      	moveb %a5@(11565),%a3@-
   276ee:	1717           	moveb %sp@,%a3@-
   276f0:	2d2d 1717      	movel %a5@(5911),%fp@-
   276f4:	2d17           	movel %sp@,%fp@-
   276f6:	172d 2d17      	moveb %a5@(11543),%a3@-
   276fa:	172d 1717      	moveb %a5@(5911),%a3@-
   276fe:	2d2d 1717      	movel %a5@(5911),%fp@-
   27702:	2d2d 005a      	movel %a5@(90),%fp@-
   27706:	5a5a           	addqw #5,%a2@+
   27708:	5a5a           	addqw #5,%a2@+
   2770a:	5a27           	addqb #5,%sp@-
   2770c:	2d2d 2d2d      	movel %a5@(11565),%fp@-
   27710:	2d17           	movel %sp@,%fp@-
   27712:	172d 2d2d      	moveb %a5@(11565),%a3@-
   27716:	1717           	moveb %sp@,%a3@-
   27718:	2d2d 1717      	movel %a5@(5911),%fp@-
   2771c:	2d17           	movel %sp@,%fp@-
   2771e:	172d 2d17      	moveb %a5@(11543),%a3@-
   27722:	172d 1717      	moveb %a5@(5911),%a3@-
   27726:	2d2d 1717      	movel %a5@(5911),%fp@-
   2772a:	2d2d 005a      	movel %a5@(90),%fp@-
   2772e:	5a5a           	addqw #5,%a2@+
   27730:	5a5a           	addqw #5,%a2@+
   27732:	5a27           	addqb #5,%sp@-
   27734:	2d2d 2d2d      	movel %a5@(11565),%fp@-
   27738:	2029 2929      	movel %a1@(10537),%d0
   2773c:	2929 2929      	movel %a1@(10537),%a4@-
   27740:	2929 2929      	movel %a1@(10537),%a4@-
   27744:	2929 2929      	movel %a1@(10537),%a4@-
   27748:	2929 2929      	movel %a1@(10537),%a4@-
   2774c:	2929 2929      	movel %a1@(10537),%a4@-
   27750:	2929 2929      	movel %a1@(10537),%a4@-
   27754:	2929 2929      	movel %a1@(10537),%a4@-
   27758:	2929 2929      	movel %a1@(10537),%a4@-
   2775c:	2929 2929      	movel %a1@(10537),%a4@-
   27760:	2929 2929      	movel %a1@(10537),%a4@-
   27764:	2929 2929      	movel %a1@(10537),%a4@-
   27768:	2929 2929      	movel %a1@(10537),%a4@-
   2776c:	2929 2929      	movel %a1@(10537),%a4@-
   27770:	2929 2929      	movel %a1@(10537),%a4@-
   27774:	2929 2929      	movel %a1@(10537),%a4@-
   27778:	2929 2929      	movel %a1@(10537),%a4@-
   2777c:	2929 2929      	movel %a1@(10537),%a4@-
   27780:	2929 2929      	movel %a1@(10537),%a4@-
   27784:	2929 2929      	movel %a1@(10537),%a4@-
   27788:	2929 2929      	movel %a1@(10537),%a4@-
   2778c:	2929 2929      	movel %a1@(10537),%a4@-
   27790:	2929 2929      	movel %a1@(10537),%a4@-
   27794:	2929 2929      	movel %a1@(10537),%a4@-
   27798:	2929 2929      	movel %a1@(10537),%a4@-
   2779c:	2929 2929      	movel %a1@(10537),%a4@-
   277a0:	2929 2929      	movel %a1@(10537),%a4@-
   277a4:	2929 2929      	movel %a1@(10537),%a4@-
   277a8:	2929 2929      	movel %a1@(10537),%a4@-
   277ac:	2929 2929      	movel %a1@(10537),%a4@-
   277b0:	2929 2929      	movel %a1@(10537),%a4@-
   277b4:	2929 2929      	movel %a1@(10537),%a4@-
   277b8:	2929 2929      	movel %a1@(10537),%a4@-
   277bc:	2929 2929      	movel %a1@(10537),%a4@-
   277c0:	2929 2929      	movel %a1@(10537),%a4@-
   277c4:	2929 2929      	movel %a1@(10537),%a4@-
   277c8:	2929 2929      	movel %a1@(10537),%a4@-
   277cc:	2929 2929      	movel %a1@(10537),%a4@-
   277d0:	2929 2929      	movel %a1@(10537),%a4@-
   277d4:	2929 2929      	movel %a1@(10537),%a4@-
   277d8:	2929 2929      	movel %a1@(10537),%a4@-
   277dc:	2929 2929      	movel %a1@(10537),%a4@-
   277e0:	2929 2929      	movel %a1@(10537),%a4@-
   277e4:	2929 2929      	movel %a1@(10537),%a4@-
   277e8:	2929 2929      	movel %a1@(10537),%a4@-
   277ec:	2929 2929      	movel %a1@(10537),%a4@-
   277f0:	2929 2929      	movel %a1@(10537),%a4@-
   277f4:	2929 2f2f      	movel %a1@(12079),%a4@-
   277f8:	2d2d 2d2d      	movel %a5@(11565),%fp@-
   277fc:	2d2d 2d2d      	movel %a5@(11565),%fp@-
   27800:	2d2d 2d2d      	movel %a5@(11565),%fp@-
   27804:	2d2d 2d2d      	movel %a5@(11565),%fp@-
   27808:	2d17           	movel %sp@,%fp@-
   2780a:	172d 1717      	moveb %a5@(5911),%a3@-
   2780e:	2d2d 2d2d      	movel %a5@(11565),%fp@-
   27812:	2d17           	movel %sp@,%fp@-
   27814:	172d 2d17      	moveb %a5@(11543),%a3@-
   27818:	172d 2d2d      	moveb %a5@(11565),%a3@-
   2781c:	2f5a 5a5a      	movel %a2@+,%sp@(23130)
   27820:	5a5a           	addqw #5,%a2@+
   27822:	5a27           	addqb #5,%sp@-
   27824:	2d2d 2d2d      	movel %a5@(11565),%fp@-
   27828:	2d17           	movel %sp@,%fp@-
   2782a:	172d 2d2d      	moveb %a5@(11565),%a3@-
   2782e:	1717           	moveb %sp@,%a3@-
   27830:	2d2d 1717      	movel %a5@(5911),%fp@-
   27834:	2d17           	movel %sp@,%fp@-
   27836:	172d 2d17      	moveb %a5@(11543),%a3@-
   2783a:	172d 1717      	moveb %a5@(5911),%a3@-
   2783e:	2d2d 1717      	movel %a5@(5911),%fp@-
   27842:	2d2d 2f5a      	movel %a5@(12122),%fp@-
   27846:	5a5a           	addqw #5,%a2@+
   27848:	5a5a           	addqw #5,%a2@+
   2784a:	5a27           	addqb #5,%sp@-
   2784c:	2d2d 2d2d      	movel %a5@(11565),%fp@-
   27850:	2d17           	movel %sp@,%fp@-
   27852:	172d 2d2d      	moveb %a5@(11565),%a3@-
   27856:	1717           	moveb %sp@,%a3@-
   27858:	2d2d 1717      	movel %a5@(5911),%fp@-
   2785c:	2d17           	movel %sp@,%fp@-
   2785e:	172d 2d17      	moveb %a5@(11543),%a3@-
   27862:	172d 1717      	moveb %a5@(5911),%a3@-
   27866:	2d2d 1717      	movel %a5@(5911),%fp@-
   2786a:	2d2d 2f5a      	movel %a5@(12122),%fp@-
   2786e:	5a5a           	addqw #5,%a2@+
   27870:	5a5a           	addqw #5,%a2@+
   27872:	5a27           	addqb #5,%sp@-
   27874:	2d2d 2d2d      	movel %a5@(11565),%fp@-
   27878:	2029 2929      	movel %a1@(10537),%d0
   2787c:	2929 2929      	movel %a1@(10537),%a4@-
   27880:	2929 2929      	movel %a1@(10537),%a4@-
   27884:	2929 2929      	movel %a1@(10537),%a4@-
   27888:	2929 2929      	movel %a1@(10537),%a4@-
   2788c:	2929 2929      	movel %a1@(10537),%a4@-
   27890:	2929 2929      	movel %a1@(10537),%a4@-
   27894:	2929 2929      	movel %a1@(10537),%a4@-
   27898:	2929 2929      	movel %a1@(10537),%a4@-
   2789c:	2929 2929      	movel %a1@(10537),%a4@-
   278a0:	2929 2929      	movel %a1@(10537),%a4@-
   278a4:	2929 2929      	movel %a1@(10537),%a4@-
   278a8:	2929 2929      	movel %a1@(10537),%a4@-
   278ac:	2929 2929      	movel %a1@(10537),%a4@-
   278b0:	2929 2929      	movel %a1@(10537),%a4@-
   278b4:	2929 2929      	movel %a1@(10537),%a4@-
   278b8:	2929 2929      	movel %a1@(10537),%a4@-
   278bc:	2929 2929      	movel %a1@(10537),%a4@-
   278c0:	2929 2929      	movel %a1@(10537),%a4@-
   278c4:	2929 2929      	movel %a1@(10537),%a4@-
   278c8:	2929 2929      	movel %a1@(10537),%a4@-
   278cc:	2929 2929      	movel %a1@(10537),%a4@-
   278d0:	2929 2929      	movel %a1@(10537),%a4@-
   278d4:	2929 2929      	movel %a1@(10537),%a4@-
   278d8:	2929 2929      	movel %a1@(10537),%a4@-
   278dc:	2929 2929      	movel %a1@(10537),%a4@-
   278e0:	2929 2929      	movel %a1@(10537),%a4@-
   278e4:	2929 2929      	movel %a1@(10537),%a4@-
   278e8:	2929 2929      	movel %a1@(10537),%a4@-
   278ec:	2929 2929      	movel %a1@(10537),%a4@-
   278f0:	2929 2929      	movel %a1@(10537),%a4@-
   278f4:	2929 2929      	movel %a1@(10537),%a4@-
   278f8:	2929 2929      	movel %a1@(10537),%a4@-
   278fc:	2929 2929      	movel %a1@(10537),%a4@-
   27900:	2929 2929      	movel %a1@(10537),%a4@-
   27904:	2929 2929      	movel %a1@(10537),%a4@-
   27908:	2929 2929      	movel %a1@(10537),%a4@-
   2790c:	2929 2929      	movel %a1@(10537),%a4@-
   27910:	2929 2929      	movel %a1@(10537),%a4@-
   27914:	2929 2929      	movel %a1@(10537),%a4@-
   27918:	2929 2929      	movel %a1@(10537),%a4@-
   2791c:	2929 2929      	movel %a1@(10537),%a4@-
   27920:	2929 2929      	movel %a1@(10537),%a4@-
   27924:	2929 2929      	movel %a1@(10537),%a4@-
   27928:	2929 2929      	movel %a1@(10537),%a4@-
   2792c:	2929 2929      	movel %a1@(10537),%a4@-
   27930:	2929 2929      	movel %a1@(10537),%a4@-
   27934:	2929 2f2f      	movel %a1@(12079),%a4@-
   27938:	2d2d 2d2d      	movel %a5@(11565),%fp@-
   2793c:	2d2d 2d2d      	movel %a5@(11565),%fp@-
   27940:	2d2d 2d2d      	movel %a5@(11565),%fp@-
   27944:	2d17           	movel %sp@,%fp@-
   27946:	1717           	moveb %sp@,%a3@-
   27948:	1717           	moveb %sp@,%a3@-
   2794a:	2d2d 1717      	movel %a5@(5911),%fp@-
   2794e:	1717           	moveb %sp@,%a3@-
   27950:	1717           	moveb %sp@,%a3@-
   27952:	2d2d 1717      	movel %a5@(5911),%fp@-
   27956:	1717           	moveb %sp@,%a3@-
   27958:	2d2d 2d2d      	movel %a5@(11565),%fp@-
   2795c:	2f5a 5a5a      	movel %a2@+,%sp@(23130)
   27960:	5a5a           	addqw #5,%a2@+
   27962:	5a25           	addqb #5,%a5@-
   27964:	2d2d 2d2d      	movel %a5@(11565),%fp@-
   27968:	1717           	moveb %sp@,%a3@-
   2796a:	1717           	moveb %sp@,%a3@-
   2796c:	2d2d 2d17      	movel %a5@(11543),%fp@-
   27970:	1717           	moveb %sp@,%a3@-
   27972:	172d 2d2d      	moveb %a5@(11565),%a3@-
   27976:	1717           	moveb %sp@,%a3@-
   27978:	1717           	moveb %sp@,%a3@-
   2797a:	2d2d 2d17      	movel %a5@(11543),%fp@-
   2797e:	1717           	moveb %sp@,%a3@-
   27980:	172d 2d2d      	moveb %a5@(11565),%a3@-
   27984:	2f5a 5a5a      	movel %a2@+,%sp@(23130)
   27988:	5a5a           	addqw #5,%a2@+
   2798a:	5a25           	addqb #5,%a5@-
   2798c:	2d2d 2d2d      	movel %a5@(11565),%fp@-
   27990:	1717           	moveb %sp@,%a3@-
   27992:	1717           	moveb %sp@,%a3@-
   27994:	2d2d 2d17      	movel %a5@(11543),%fp@-
   27998:	1717           	moveb %sp@,%a3@-
   2799a:	172d 2d2d      	moveb %a5@(11565),%a3@-
   2799e:	1717           	moveb %sp@,%a3@-
   279a0:	1717           	moveb %sp@,%a3@-
   279a2:	2d2d 2d17      	movel %a5@(11543),%fp@-
   279a6:	1717           	moveb %sp@,%a3@-
   279a8:	172d 2d2d      	moveb %a5@(11565),%a3@-
   279ac:	2f5a 5a5a      	movel %a2@+,%sp@(23130)
   279b0:	5a5a           	addqw #5,%a2@+
   279b2:	5a25           	addqb #5,%a5@-
   279b4:	2d2d 2d2d      	movel %a5@(11565),%fp@-
   279b8:	2029 2929      	movel %a1@(10537),%d0
   279bc:	2929 2929      	movel %a1@(10537),%a4@-
   279c0:	2929 2929      	movel %a1@(10537),%a4@-
   279c4:	2929 2929      	movel %a1@(10537),%a4@-
   279c8:	2929 2929      	movel %a1@(10537),%a4@-
   279cc:	2929 2929      	movel %a1@(10537),%a4@-
   279d0:	2929 2929      	movel %a1@(10537),%a4@-
   279d4:	2929 2929      	movel %a1@(10537),%a4@-
   279d8:	2929 2929      	movel %a1@(10537),%a4@-
   279dc:	2929 2929      	movel %a1@(10537),%a4@-
   279e0:	2929 2929      	movel %a1@(10537),%a4@-
   279e4:	2929 2929      	movel %a1@(10537),%a4@-
   279e8:	2929 2929      	movel %a1@(10537),%a4@-
   279ec:	2929 2929      	movel %a1@(10537),%a4@-
   279f0:	2929 2929      	movel %a1@(10537),%a4@-
   279f4:	2929 2929      	movel %a1@(10537),%a4@-
   279f8:	2929 2929      	movel %a1@(10537),%a4@-
   279fc:	2929 2929      	movel %a1@(10537),%a4@-
   27a00:	2929 2929      	movel %a1@(10537),%a4@-
   27a04:	2929 2929      	movel %a1@(10537),%a4@-
   27a08:	2929 2929      	movel %a1@(10537),%a4@-
   27a0c:	2929 2929      	movel %a1@(10537),%a4@-
   27a10:	2929 2929      	movel %a1@(10537),%a4@-
   27a14:	2929 2929      	movel %a1@(10537),%a4@-
   27a18:	2929 2929      	movel %a1@(10537),%a4@-
   27a1c:	2929 2929      	movel %a1@(10537),%a4@-
   27a20:	2929 2929      	movel %a1@(10537),%a4@-
   27a24:	2929 2929      	movel %a1@(10537),%a4@-
   27a28:	2929 2929      	movel %a1@(10537),%a4@-
   27a2c:	2929 2929      	movel %a1@(10537),%a4@-
   27a30:	2929 2929      	movel %a1@(10537),%a4@-
   27a34:	2929 2929      	movel %a1@(10537),%a4@-
   27a38:	2929 2929      	movel %a1@(10537),%a4@-
   27a3c:	2929 2929      	movel %a1@(10537),%a4@-
   27a40:	2929 2929      	movel %a1@(10537),%a4@-
   27a44:	2929 2929      	movel %a1@(10537),%a4@-
   27a48:	2929 2929      	movel %a1@(10537),%a4@-
   27a4c:	2929 2929      	movel %a1@(10537),%a4@-
   27a50:	2929 2929      	movel %a1@(10537),%a4@-
   27a54:	2929 2929      	movel %a1@(10537),%a4@-
   27a58:	2929 2929      	movel %a1@(10537),%a4@-
   27a5c:	2929 2929      	movel %a1@(10537),%a4@-
   27a60:	2929 2929      	movel %a1@(10537),%a4@-
   27a64:	2929 2929      	movel %a1@(10537),%a4@-
   27a68:	2929 2929      	movel %a1@(10537),%a4@-
   27a6c:	2929 2929      	movel %a1@(10537),%a4@-
   27a70:	2929 2929      	movel %a1@(10537),%a4@-
   27a74:	2929 2f2f      	movel %a1@(12079),%a4@-
   27a78:	2d2d 2d2d      	movel %a5@(11565),%fp@-
   27a7c:	2d2d 2d2d      	movel %a5@(11565),%fp@-
   27a80:	2d2d 2d2d      	movel %a5@(11565),%fp@-
   27a84:	2d2d 2d2d      	movel %a5@(11565),%fp@-
   27a88:	2d2d 2d2d      	movel %a5@(11565),%fp@-
   27a8c:	2d2d 2d2d      	movel %a5@(11565),%fp@-
   27a90:	2d2d 2d2d      	movel %a5@(11565),%fp@-
   27a94:	2d2d 2d2d      	movel %a5@(11565),%fp@-
   27a98:	2d2d 2d2d      	movel %a5@(11565),%fp@-
   27a9c:	2b29 2727      	movel %a1@(10023),%a5@-
   27aa0:	2727           	movel %sp@-,%a3@-
   27aa2:	2522           	movel %a2@-,%a2@-
   27aa4:	2d2d 2d2d      	movel %a5@(11565),%fp@-
   27aa8:	2d2d 2d2d      	movel %a5@(11565),%fp@-
   27aac:	2d2d 2d2d      	movel %a5@(11565),%fp@-
   27ab0:	2d2d 2d2d      	movel %a5@(11565),%fp@-
   27ab4:	2d2d 2d2d      	movel %a5@(11565),%fp@-
   27ab8:	2d2d 2d2d      	movel %a5@(11565),%fp@-
   27abc:	2d2d 2d2d      	movel %a5@(11565),%fp@-
   27ac0:	2d2d 2d2d      	movel %a5@(11565),%fp@-
   27ac4:	2b29 2727      	movel %a1@(10023),%a5@-
   27ac8:	2727           	movel %sp@-,%a3@-
   27aca:	2522           	movel %a2@-,%a2@-
   27acc:	2d2d 2d2d      	movel %a5@(11565),%fp@-
   27ad0:	2d2d 2d2d      	movel %a5@(11565),%fp@-
   27ad4:	2d2d 2d2d      	movel %a5@(11565),%fp@-
   27ad8:	2d2d 2d2d      	movel %a5@(11565),%fp@-
   27adc:	2d2d 2d2d      	movel %a5@(11565),%fp@-
   27ae0:	2d2d 2d2d      	movel %a5@(11565),%fp@-
   27ae4:	2d2d 2d2d      	movel %a5@(11565),%fp@-
   27ae8:	2d2d 2d2d      	movel %a5@(11565),%fp@-
   27aec:	2b29 2727      	movel %a1@(10023),%a5@-
   27af0:	2727           	movel %sp@-,%a3@-
   27af2:	2522           	movel %a2@-,%a2@-
   27af4:	2d2d 2d2d      	movel %a5@(11565),%fp@-
   27af8:	2029 2929      	movel %a1@(10537),%d0
   27afc:	2929 2929      	movel %a1@(10537),%a4@-
   27b00:	2929 2929      	movel %a1@(10537),%a4@-
   27b04:	2929 2929      	movel %a1@(10537),%a4@-
   27b08:	2929 2929      	movel %a1@(10537),%a4@-
   27b0c:	2929 2929      	movel %a1@(10537),%a4@-
   27b10:	2929 2929      	movel %a1@(10537),%a4@-
   27b14:	2929 2929      	movel %a1@(10537),%a4@-
   27b18:	2929 2929      	movel %a1@(10537),%a4@-
   27b1c:	2929 2929      	movel %a1@(10537),%a4@-
   27b20:	2929 2929      	movel %a1@(10537),%a4@-
   27b24:	2929 2929      	movel %a1@(10537),%a4@-
   27b28:	2929 2929      	movel %a1@(10537),%a4@-
   27b2c:	2929 2929      	movel %a1@(10537),%a4@-
   27b30:	2929 2929      	movel %a1@(10537),%a4@-
   27b34:	2929 2929      	movel %a1@(10537),%a4@-
   27b38:	2929 2929      	movel %a1@(10537),%a4@-
   27b3c:	2929 2929      	movel %a1@(10537),%a4@-
   27b40:	2929 2929      	movel %a1@(10537),%a4@-
   27b44:	2929 2929      	movel %a1@(10537),%a4@-
   27b48:	2929 2929      	movel %a1@(10537),%a4@-
   27b4c:	2929 2929      	movel %a1@(10537),%a4@-
   27b50:	2929 2929      	movel %a1@(10537),%a4@-
   27b54:	2929 2929      	movel %a1@(10537),%a4@-
   27b58:	2929 2929      	movel %a1@(10537),%a4@-
   27b5c:	2929 2929      	movel %a1@(10537),%a4@-
   27b60:	2929 2929      	movel %a1@(10537),%a4@-
   27b64:	2929 2929      	movel %a1@(10537),%a4@-
   27b68:	2929 2929      	movel %a1@(10537),%a4@-
   27b6c:	2929 2929      	movel %a1@(10537),%a4@-
   27b70:	2929 2929      	movel %a1@(10537),%a4@-
   27b74:	2929 2929      	movel %a1@(10537),%a4@-
   27b78:	2929 2929      	movel %a1@(10537),%a4@-
   27b7c:	2929 2929      	movel %a1@(10537),%a4@-
   27b80:	2929 2929      	movel %a1@(10537),%a4@-
   27b84:	2929 2929      	movel %a1@(10537),%a4@-
   27b88:	2929 2929      	movel %a1@(10537),%a4@-
   27b8c:	2929 2929      	movel %a1@(10537),%a4@-
   27b90:	2929 2929      	movel %a1@(10537),%a4@-
   27b94:	2929 2929      	movel %a1@(10537),%a4@-
   27b98:	2929 2929      	movel %a1@(10537),%a4@-
   27b9c:	2929 2929      	movel %a1@(10537),%a4@-
   27ba0:	2929 2929      	movel %a1@(10537),%a4@-
   27ba4:	2929 2929      	movel %a1@(10537),%a4@-
   27ba8:	2929 2929      	movel %a1@(10537),%a4@-
   27bac:	2929 2929      	movel %a1@(10537),%a4@-
   27bb0:	2929 2929      	movel %a1@(10537),%a4@-
   27bb4:	2929 2f2f      	movel %a1@(12079),%a4@-
   27bb8:	2d2d 2d2d      	movel %a5@(11565),%fp@-
   27bbc:	2d2d 2d2d      	movel %a5@(11565),%fp@-
   27bc0:	2d2d 2d2d      	movel %a5@(11565),%fp@-
   27bc4:	2d2d 2d2d      	movel %a5@(11565),%fp@-
   27bc8:	2d2d 2d2d      	movel %a5@(11565),%fp@-
   27bcc:	2d2d 2d2d      	movel %a5@(11565),%fp@-
   27bd0:	2d2d 2d2d      	movel %a5@(11565),%fp@-
   27bd4:	2d2d 2d2d      	movel %a5@(11565),%fp@-
   27bd8:	2d2d 2d2d      	movel %a5@(11565),%fp@-
   27bdc:	2d2d 2d2d      	movel %a5@(11565),%fp@-
   27be0:	2d2d 2d2d      	movel %a5@(11565),%fp@-
   27be4:	2d2d 2d2d      	movel %a5@(11565),%fp@-
   27be8:	2d2d 2d2d      	movel %a5@(11565),%fp@-
   27bec:	2d2d 2d2d      	movel %a5@(11565),%fp@-
   27bf0:	2d2d 2d2d      	movel %a5@(11565),%fp@-
   27bf4:	2d2d 2d2d      	movel %a5@(11565),%fp@-
   27bf8:	2d2d 2d2d      	movel %a5@(11565),%fp@-
   27bfc:	2d2d 2d2d      	movel %a5@(11565),%fp@-
   27c00:	2d2d 2d2d      	movel %a5@(11565),%fp@-
   27c04:	2d2d 2d2d      	movel %a5@(11565),%fp@-
   27c08:	2d2d 2d2d      	movel %a5@(11565),%fp@-
   27c0c:	2d2d 2d2d      	movel %a5@(11565),%fp@-
   27c10:	2d2d 2d2d      	movel %a5@(11565),%fp@-
   27c14:	2d2d 2d2d      	movel %a5@(11565),%fp@-
   27c18:	2d2d 2d2d      	movel %a5@(11565),%fp@-
   27c1c:	2d2d 2d2d      	movel %a5@(11565),%fp@-
   27c20:	2d2d 2d2d      	movel %a5@(11565),%fp@-
   27c24:	2d2d 2d2d      	movel %a5@(11565),%fp@-
   27c28:	2d2d 2d2d      	movel %a5@(11565),%fp@-
   27c2c:	2d2d 2d2d      	movel %a5@(11565),%fp@-
   27c30:	2d2d 2d2d      	movel %a5@(11565),%fp@-
   27c34:	2d2d 2d2d      	movel %a5@(11565),%fp@-
   27c38:	2029 2929      	movel %a1@(10537),%d0
   27c3c:	2929 2929      	movel %a1@(10537),%a4@-
   27c40:	2929 2929      	movel %a1@(10537),%a4@-
   27c44:	2929 2929      	movel %a1@(10537),%a4@-
   27c48:	2f2f 2f2f      	movel %sp@(12079),%sp@-
   27c4c:	2f2f 2f2f      	movel %sp@(12079),%sp@-
   27c50:	2f2f 2f2f      	movel %sp@(12079),%sp@-
   27c54:	2f2f 2f2f      	movel %sp@(12079),%sp@-
   27c58:	2f2f 2f2f      	movel %sp@(12079),%sp@-
   27c5c:	2f2f 2f2f      	movel %sp@(12079),%sp@-
   27c60:	2f2f 2f2f      	movel %sp@(12079),%sp@-
   27c64:	2f2f 2f2f      	movel %sp@(12079),%sp@-
   27c68:	2f2f 2f2f      	movel %sp@(12079),%sp@-
   27c6c:	2f2f 2f2f      	movel %sp@(12079),%sp@-
   27c70:	2f2f 2f2f      	movel %sp@(12079),%sp@-
   27c74:	2f2f 2f2f      	movel %sp@(12079),%sp@-
   27c78:	2f2f 2f2f      	movel %sp@(12079),%sp@-
   27c7c:	2f2f 2f2f      	movel %sp@(12079),%sp@-
   27c80:	2f2f 2f2f      	movel %sp@(12079),%sp@-
   27c84:	2f2f 2f2f      	movel %sp@(12079),%sp@-
   27c88:	2f2f 2f2f      	movel %sp@(12079),%sp@-
   27c8c:	2f2f 2f2f      	movel %sp@(12079),%sp@-
   27c90:	2f2f 2f2f      	movel %sp@(12079),%sp@-
   27c94:	2f2f 2f2f      	movel %sp@(12079),%sp@-
   27c98:	2f2f 2f2f      	movel %sp@(12079),%sp@-
   27c9c:	2f2f 2f2f      	movel %sp@(12079),%sp@-
   27ca0:	2f2f 2e2e      	movel %sp@(11822),%sp@-
   27ca4:	2e2e 2e2e      	movel %fp@(11822),%d7
   27ca8:	2e2e 2e2e      	movel %fp@(11822),%d7
   27cac:	2e2e 2e2e      	movel %fp@(11822),%d7
   27cb0:	2e2e 2e2e      	movel %fp@(11822),%d7
   27cb4:	2e2e 2e2e      	movel %fp@(11822),%d7
   27cb8:	2e2e 2e2e      	movel %fp@(11822),%d7
   27cbc:	2e2e 2e2e      	movel %fp@(11822),%d7
   27cc0:	2e2e 2e2e      	movel %fp@(11822),%d7
   27cc4:	2e2e 2e2e      	movel %fp@(11822),%d7
   27cc8:	2e2e 2d2d      	movel %fp@(11565),%d7
   27ccc:	2d2d 2d2d      	movel %a5@(11565),%fp@-
   27cd0:	2d2d 2d2d      	movel %a5@(11565),%fp@-
   27cd4:	2d2d 2d2d      	movel %a5@(11565),%fp@-
   27cd8:	2d2d 2d2c      	movel %a5@(11564),%fp@-
   27cdc:	2c2c 2c2c      	movel %a4@(11308),%d6
   27ce0:	2c26           	movel %fp@-,%d6
   27ce2:	2929 2929      	movel %a1@(10537),%a4@-
   27ce6:	2929 2929      	movel %a1@(10537),%a4@-
   27cea:	2929 2929      	movel %a1@(10537),%a4@-
   27cee:	2929 2929      	movel %a1@(10537),%a4@-
   27cf2:	2929 2929      	movel %a1@(10537),%a4@-
   27cf6:	2f2f 2d2d      	movel %sp@(11565),%sp@-
   27cfa:	2d2d 2d2d      	movel %a5@(11565),%fp@-
   27cfe:	2d2d 2d2d      	movel %a5@(11565),%fp@-
   27d02:	2d2d 2d2d      	movel %a5@(11565),%fp@-
   27d06:	1717           	moveb %sp@,%a3@-
   27d08:	1717           	moveb %sp@,%a3@-
   27d0a:	2d2d 2d17      	movel %a5@(11543),%fp@-
   27d0e:	1717           	moveb %sp@,%a3@-
   27d10:	172d 2d2d      	moveb %a5@(11565),%a3@-
   27d14:	1717           	moveb %sp@,%a3@-
   27d16:	1717           	moveb %sp@,%a3@-
   27d18:	2d2d 2d2d      	movel %a5@(11565),%fp@-
   27d1c:	0000 0000      	orib #0,%d0
   27d20:	002f 2f2b 2d2d 	orib #43,%sp@(11565)
   27d26:	2d2d 2d2d      	movel %a5@(11565),%fp@-
   27d2a:	2d2d 2d2d      	movel %a5@(11565),%fp@-
   27d2e:	2d17           	movel %sp@,%fp@-
   27d30:	1717           	moveb %sp@,%a3@-
   27d32:	172d 2d2d      	moveb %a5@(11565),%a3@-
   27d36:	1717           	moveb %sp@,%a3@-
   27d38:	1717           	moveb %sp@,%a3@-
   27d3a:	2d2d 2d17      	movel %a5@(11543),%fp@-
   27d3e:	1717           	moveb %sp@,%a3@-
   27d40:	172d 2d2d      	moveb %a5@(11565),%a3@-
   27d44:	0000 0000      	orib #0,%d0
   27d48:	002f 2f2b 2d2d 	orib #43,%sp@(11565)
   27d4e:	2d2d 2d2d      	movel %a5@(11565),%fp@-
   27d52:	2d2d 2d2d      	movel %a5@(11565),%fp@-
   27d56:	2d17           	movel %sp@,%fp@-
   27d58:	1717           	moveb %sp@,%a3@-
   27d5a:	172d 2d2d      	moveb %a5@(11565),%a3@-
   27d5e:	1717           	moveb %sp@,%a3@-
   27d60:	1717           	moveb %sp@,%a3@-
   27d62:	2d2d 2d17      	movel %a5@(11543),%fp@-
   27d66:	1717           	moveb %sp@,%a3@-
   27d68:	172d 2d2d      	moveb %a5@(11565),%a3@-
   27d6c:	0000 0000      	orib #0,%d0
   27d70:	002f 2f2b 2d2d 	orib #43,%sp@(11565)
   27d76:	2d2d 2029      	movel %a5@(8233),%fp@-
   27d7a:	2929 2929      	movel %a1@(10537),%a4@-
   27d7e:	2929 2929      	movel %a1@(10537),%a4@-
   27d82:	2929 2929      	movel %a1@(10537),%a4@-
   27d86:	2929 2f2f      	movel %a1@(12079),%a4@-
   27d8a:	2f2f 2f2f      	movel %sp@(12079),%sp@-
   27d8e:	2f2f 2f2f      	movel %sp@(12079),%sp@-
   27d92:	2f2f 2f2f      	movel %sp@(12079),%sp@-
   27d96:	2f2f 2f2f      	movel %sp@(12079),%sp@-
   27d9a:	2f2f 2f2f      	movel %sp@(12079),%sp@-
   27d9e:	2f2f 2f2f      	movel %sp@(12079),%sp@-
   27da2:	2f2f 2f2f      	movel %sp@(12079),%sp@-
   27da6:	2f2f 2f2f      	movel %sp@(12079),%sp@-
   27daa:	2f2f 2f2f      	movel %sp@(12079),%sp@-
   27dae:	2f2f 2f2f      	movel %sp@(12079),%sp@-
   27db2:	2f2f 2f2f      	movel %sp@(12079),%sp@-
   27db6:	2f2f 2f2f      	movel %sp@(12079),%sp@-
   27dba:	2f2f 2f2f      	movel %sp@(12079),%sp@-
   27dbe:	2f2f 2f2f      	movel %sp@(12079),%sp@-
   27dc2:	2f2f 2f2f      	movel %sp@(12079),%sp@-
   27dc6:	2f2f 2f2f      	movel %sp@(12079),%sp@-
   27dca:	2f2f 2f2f      	movel %sp@(12079),%sp@-
   27dce:	2f2f 2f2f      	movel %sp@(12079),%sp@-
   27dd2:	2f2f 2f2f      	movel %sp@(12079),%sp@-
   27dd6:	2f2f 2f2f      	movel %sp@(12079),%sp@-
   27dda:	2f2f 2f2f      	movel %sp@(12079),%sp@-
   27dde:	2f2f 2f2f      	movel %sp@(12079),%sp@-
   27de2:	2f2f 2f2f      	movel %sp@(12079),%sp@-
   27de6:	2f2f 2f2f      	movel %sp@(12079),%sp@-
   27dea:	2f2f 2f2f      	movel %sp@(12079),%sp@-
   27dee:	2f2f 2f2f      	movel %sp@(12079),%sp@-
   27df2:	2f2f 2f2f      	movel %sp@(12079),%sp@-
   27df6:	2f2f 2f2f      	movel %sp@(12079),%sp@-
   27dfa:	2f2f 2f2f      	movel %sp@(12079),%sp@-
   27dfe:	2f2f 2f2f      	movel %sp@(12079),%sp@-
   27e02:	2f2f 2f2f      	movel %sp@(12079),%sp@-
   27e06:	2f2f 2f2f      	movel %sp@(12079),%sp@-
   27e0a:	2f2f 2f2f      	movel %sp@(12079),%sp@-
   27e0e:	2f2f 2f2f      	movel %sp@(12079),%sp@-
   27e12:	2f2f 2f2f      	movel %sp@(12079),%sp@-
   27e16:	2f2f 2f2f      	movel %sp@(12079),%sp@-
   27e1a:	2f2f 2f2f      	movel %sp@(12079),%sp@-
   27e1e:	2f2f 2f23      	movel %sp@(12067),%sp@-
   27e22:	2929 2929      	movel %a1@(10537),%a4@-
   27e26:	2929 2929      	movel %a1@(10537),%a4@-
   27e2a:	2929 2929      	movel %a1@(10537),%a4@-
   27e2e:	2929 2929      	movel %a1@(10537),%a4@-
   27e32:	2929 2929      	movel %a1@(10537),%a4@-
   27e36:	2f2f 2d2d      	movel %sp@(11565),%sp@-
   27e3a:	2d2d 2d2d      	movel %a5@(11565),%fp@-
   27e3e:	2d2d 2d2d      	movel %a5@(11565),%fp@-
   27e42:	2d2d 2d17      	movel %a5@(11543),%fp@-
   27e46:	172d 2d17      	moveb %a5@(11543),%a3@-
   27e4a:	172d 1717      	moveb %a5@(5911),%a3@-
   27e4e:	2d2d 1717      	movel %a5@(5911),%fp@-
   27e52:	2d17           	movel %sp@,%fp@-
   27e54:	172d 2d17      	moveb %a5@(11543),%a3@-
   27e58:	172d 2d2d      	moveb %a5@(11565),%a3@-
   27e5c:	005c 5c5c      	oriw #23644,%a4@+
   27e60:	5c5c           	addqw #6,%a4@+
   27e62:	5c29 2d2d      	addqb #6,%a1@(11565)
   27e66:	2d2d 2d2d      	movel %a5@(11565),%fp@-
   27e6a:	2d2d 2d2d      	movel %a5@(11565),%fp@-
   27e6e:	1717           	moveb %sp@,%a3@-
   27e70:	2d2d 1717      	movel %a5@(5911),%fp@-
   27e74:	2d17           	movel %sp@,%fp@-
   27e76:	172d 2d17      	moveb %a5@(11543),%a3@-
   27e7a:	172d 1717      	moveb %a5@(5911),%a3@-
   27e7e:	2d2d 1717      	movel %a5@(5911),%fp@-
   27e82:	2d2d 005c      	movel %a5@(92),%fp@-
   27e86:	5c5c           	addqw #6,%a4@+
   27e88:	5c5c           	addqw #6,%a4@+
   27e8a:	5c29 2d2d      	addqb #6,%a1@(11565)
   27e8e:	2d2d 2d2d      	movel %a5@(11565),%fp@-
   27e92:	2d2d 2d2d      	movel %a5@(11565),%fp@-
   27e96:	1717           	moveb %sp@,%a3@-
   27e98:	2d2d 1717      	movel %a5@(5911),%fp@-
   27e9c:	2d17           	movel %sp@,%fp@-
   27e9e:	172d 2d17      	moveb %a5@(11543),%a3@-
   27ea2:	172d 1717      	moveb %a5@(5911),%a3@-
   27ea6:	2d2d 1717      	movel %a5@(5911),%fp@-
   27eaa:	2d2d 005c      	movel %a5@(92),%fp@-
   27eae:	5c5c           	addqw #6,%a4@+
   27eb0:	5c5c           	addqw #6,%a4@+
   27eb2:	5c29 2d2d      	addqb #6,%a1@(11565)
   27eb6:	2d2d 2029      	movel %a5@(8233),%fp@-
   27eba:	2929 2929      	movel %a1@(10537),%a4@-
   27ebe:	2929 2929      	movel %a1@(10537),%a4@-
   27ec2:	2929 2929      	movel %a1@(10537),%a4@-
   27ec6:	2929 2f2f      	movel %a1@(12079),%a4@-
   27eca:	2d2d 2d2d      	movel %a5@(11565),%fp@-
   27ece:	2d2d 2d2d      	movel %a5@(11565),%fp@-
   27ed2:	2d2d 2d2d      	movel %a5@(11565),%fp@-
   27ed6:	2d2d 2d2d      	movel %a5@(11565),%fp@-
   27eda:	2d2d 2d2d      	movel %a5@(11565),%fp@-
   27ede:	2d2d 2d2d      	movel %a5@(11565),%fp@-
   27ee2:	2d2d 2d2d      	movel %a5@(11565),%fp@-
   27ee6:	2d2d 2d2d      	movel %a5@(11565),%fp@-
   27eea:	2d2d 2d2d      	movel %a5@(11565),%fp@-
   27eee:	2d2d 2d2d      	movel %a5@(11565),%fp@-
   27ef2:	2d2d 2d2d      	movel %a5@(11565),%fp@-
   27ef6:	2d2d 2d2d      	movel %a5@(11565),%fp@-
   27efa:	2d2d 2d2d      	movel %a5@(11565),%fp@-
   27efe:	2d2d 2d2d      	movel %a5@(11565),%fp@-
   27f02:	2d2d 2d2d      	movel %a5@(11565),%fp@-
   27f06:	2d2d 2d2d      	movel %a5@(11565),%fp@-
   27f0a:	2d2d 2d2d      	movel %a5@(11565),%fp@-
   27f0e:	2d2d 2d2d      	movel %a5@(11565),%fp@-
   27f12:	2d2d 2d2d      	movel %a5@(11565),%fp@-
   27f16:	2d2d 2d2d      	movel %a5@(11565),%fp@-
   27f1a:	2d2d 2d2d      	movel %a5@(11565),%fp@-
   27f1e:	2d2d 2d2d      	movel %a5@(11565),%fp@-
   27f22:	2d2d 2d2d      	movel %a5@(11565),%fp@-
   27f26:	2d2d 2d2d      	movel %a5@(11565),%fp@-
   27f2a:	2d2d 2d2d      	movel %a5@(11565),%fp@-
   27f2e:	2d2d 2d2d      	movel %a5@(11565),%fp@-
   27f32:	2d2d 2d2d      	movel %a5@(11565),%fp@-
   27f36:	2d2d 2d2d      	movel %a5@(11565),%fp@-
   27f3a:	2d2d 2d2d      	movel %a5@(11565),%fp@-
   27f3e:	2d2d 2d2d      	movel %a5@(11565),%fp@-
   27f42:	2d2d 2d2d      	movel %a5@(11565),%fp@-
   27f46:	2d2d 2d2d      	movel %a5@(11565),%fp@-
   27f4a:	2d2d 2d2d      	movel %a5@(11565),%fp@-
   27f4e:	2d2d 2d2d      	movel %a5@(11565),%fp@-
   27f52:	2d2d 2d2d      	movel %a5@(11565),%fp@-
   27f56:	2d2d 2d2d      	movel %a5@(11565),%fp@-
   27f5a:	2d2d 2d2d      	movel %a5@(11565),%fp@-
   27f5e:	2d2d 2d20      	movel %a5@(11552),%fp@-
   27f62:	2929 2929      	movel %a1@(10537),%a4@-
   27f66:	2929 2929      	movel %a1@(10537),%a4@-
   27f6a:	2929 2929      	movel %a1@(10537),%a4@-
   27f6e:	2929 2929      	movel %a1@(10537),%a4@-
   27f72:	2929 2929      	movel %a1@(10537),%a4@-
   27f76:	2f2f 2d2d      	movel %sp@(11565),%sp@-
   27f7a:	2d2d 2d2d      	movel %a5@(11565),%fp@-
   27f7e:	2d2d 2d2d      	movel %a5@(11565),%fp@-
   27f82:	2d2d 2d2d      	movel %a5@(11565),%fp@-
   27f86:	2d2d 2d17      	movel %a5@(11543),%fp@-
   27f8a:	172d 2d17      	moveb %a5@(11543),%a3@-
   27f8e:	1717           	moveb %sp@,%a3@-
   27f90:	172d 2d2d      	moveb %a5@(11565),%a3@-
   27f94:	1717           	moveb %sp@,%a3@-
   27f96:	1717           	moveb %sp@,%a3@-
   27f98:	2d2d 2d2d      	movel %a5@(11565),%fp@-
   27f9c:	005c 5c5c      	oriw #23644,%a4@+
   27fa0:	5c5c           	addqw #6,%a4@+
   27fa2:	5c27           	addqb #6,%sp@-
   27fa4:	2d2d 2d2d      	movel %a5@(11565),%fp@-
   27fa8:	2d2d 2d2d      	movel %a5@(11565),%fp@-
   27fac:	2d2d 1717      	movel %a5@(5911),%fp@-
   27fb0:	2d2d 1717      	movel %a5@(5911),%fp@-
   27fb4:	2d17           	movel %sp@,%fp@-
   27fb6:	172d 2d17      	moveb %a5@(11543),%a3@-
   27fba:	172d 1717      	moveb %a5@(5911),%a3@-
   27fbe:	2d2d 1717      	movel %a5@(5911),%fp@-
   27fc2:	2d2d 005c      	movel %a5@(92),%fp@-
   27fc6:	5c5c           	addqw #6,%a4@+
   27fc8:	5c5c           	addqw #6,%a4@+
   27fca:	5c27           	addqb #6,%sp@-
   27fcc:	2d2d 2d2d      	movel %a5@(11565),%fp@-
   27fd0:	2d2d 2d2d      	movel %a5@(11565),%fp@-
   27fd4:	2d2d 1717      	movel %a5@(5911),%fp@-
   27fd8:	2d2d 1717      	movel %a5@(5911),%fp@-
   27fdc:	2d17           	movel %sp@,%fp@-
   27fde:	172d 2d17      	moveb %a5@(11543),%a3@-
   27fe2:	172d 1717      	moveb %a5@(5911),%a3@-
   27fe6:	2d2d 1717      	movel %a5@(5911),%fp@-
   27fea:	2d2d 005c      	movel %a5@(92),%fp@-
   27fee:	5c5c           	addqw #6,%a4@+
   27ff0:	5c5c           	addqw #6,%a4@+
   27ff2:	5c27           	addqb #6,%sp@-
   27ff4:	2d2d 2d2d      	movel %a5@(11565),%fp@-
   27ff8:	2029 2929      	movel %a1@(10537),%d0
   27ffc:	2929 2929      	movel %a1@(10537),%a4@-
   28000:	2929 2929      	movel %a1@(10537),%a4@-
   28004:	2929 2929      	movel %a1@(10537),%a4@-
   28008:	2f2f 2d2d      	movel %sp@(11565),%sp@-
   2800c:	2d2d 2d2d      	movel %a5@(11565),%fp@-
   28010:	2d2d 2d2d      	movel %a5@(11565),%fp@-
   28014:	2d2d 2d2d      	movel %a5@(11565),%fp@-
   28018:	2d2d 2d2d      	movel %a5@(11565),%fp@-
   2801c:	2d2d 2d2d      	movel %a5@(11565),%fp@-
   28020:	2d2d 2d2d      	movel %a5@(11565),%fp@-
   28024:	2d2d 2d2d      	movel %a5@(11565),%fp@-
   28028:	2d2d 2d2d      	movel %a5@(11565),%fp@-
   2802c:	2d2d 2d2d      	movel %a5@(11565),%fp@-
   28030:	2d2d 2d2d      	movel %a5@(11565),%fp@-
   28034:	2d2d 2d2d      	movel %a5@(11565),%fp@-
   28038:	2d2d 2d2d      	movel %a5@(11565),%fp@-
   2803c:	2d2d 2d2d      	movel %a5@(11565),%fp@-
   28040:	2d2d 2d2d      	movel %a5@(11565),%fp@-
   28044:	2d2d 2d2d      	movel %a5@(11565),%fp@-
   28048:	2d2d 2d2d      	movel %a5@(11565),%fp@-
   2804c:	2d2d 2d2d      	movel %a5@(11565),%fp@-
   28050:	2d2d 2d2d      	movel %a5@(11565),%fp@-
   28054:	2d2d 2d2d      	movel %a5@(11565),%fp@-
   28058:	2d2d 2d2d      	movel %a5@(11565),%fp@-
   2805c:	2d2d 2d2d      	movel %a5@(11565),%fp@-
   28060:	2d2d 2d2d      	movel %a5@(11565),%fp@-
   28064:	2d2d 2d2d      	movel %a5@(11565),%fp@-
   28068:	2d2d 2d2d      	movel %a5@(11565),%fp@-
   2806c:	2d2d 2d2d      	movel %a5@(11565),%fp@-
   28070:	2d2d 2d2d      	movel %a5@(11565),%fp@-
   28074:	2d2d 2d2d      	movel %a5@(11565),%fp@-
   28078:	2d2d 2d2d      	movel %a5@(11565),%fp@-
   2807c:	2d2d 2d2d      	movel %a5@(11565),%fp@-
   28080:	2d2d 2d2d      	movel %a5@(11565),%fp@-
   28084:	2d2d 2d2d      	movel %a5@(11565),%fp@-
   28088:	2d2d 2d2d      	movel %a5@(11565),%fp@-
   2808c:	2d2d 2d2d      	movel %a5@(11565),%fp@-
   28090:	2d2d 2d2d      	movel %a5@(11565),%fp@-
   28094:	2d2d 2d2d      	movel %a5@(11565),%fp@-
   28098:	2d2d 2d2d      	movel %a5@(11565),%fp@-
   2809c:	2d2d 2d2d      	movel %a5@(11565),%fp@-
   280a0:	2d36 2929 2929 	movel %fp@(00002929,%d2:l)@(00000000),%fp@-
   280a6:	2929 2929      	movel %a1@(10537),%a4@-
   280aa:	2929 2929      	movel %a1@(10537),%a4@-
   280ae:	2929 2929      	movel %a1@(10537),%a4@-
   280b2:	2929 2929      	movel %a1@(10537),%a4@-
   280b6:	2f2f 2d2d      	movel %sp@(11565),%sp@-
   280ba:	2d2d 2d2d      	movel %a5@(11565),%fp@-
   280be:	2d2d 2d2d      	movel %a5@(11565),%fp@-
   280c2:	2d2d 2d2d      	movel %a5@(11565),%fp@-
   280c6:	1717           	moveb %sp@,%a3@-
   280c8:	1717           	moveb %sp@,%a3@-
   280ca:	2d2d 1717      	movel %a5@(5911),%fp@-
   280ce:	2d2d 1717      	movel %a5@(5911),%fp@-
   280d2:	2d17           	movel %sp@,%fp@-
   280d4:	172d 2d17      	moveb %a5@(11543),%a3@-
   280d8:	172d 2d2d      	moveb %a5@(11565),%a3@-
   280dc:	005c 5c5c      	oriw #23644,%a4@+
   280e0:	5c5c           	addqw #6,%a4@+
   280e2:	5c27           	addqb #6,%sp@-
   280e4:	2d2d 2d2d      	movel %a5@(11565),%fp@-
   280e8:	2d2d 2d2d      	movel %a5@(11565),%fp@-
   280ec:	2d2d 2d17      	movel %a5@(11543),%fp@-
   280f0:	1717           	moveb %sp@,%a3@-
   280f2:	1717           	moveb %sp@,%a3@-
   280f4:	2d17           	movel %sp@,%fp@-
   280f6:	172d 2d17      	moveb %a5@(11543),%a3@-
   280fa:	172d 1717      	moveb %a5@(5911),%a3@-
   280fe:	2d2d 1717      	movel %a5@(5911),%fp@-
   28102:	2d2d 005c      	movel %a5@(92),%fp@-
   28106:	5c5c           	addqw #6,%a4@+
   28108:	5c5c           	addqw #6,%a4@+
   2810a:	5c27           	addqb #6,%sp@-
   2810c:	2d2d 2d2d      	movel %a5@(11565),%fp@-
   28110:	2d2d 2d2d      	movel %a5@(11565),%fp@-
   28114:	2d2d 2d17      	movel %a5@(11543),%fp@-
   28118:	1717           	moveb %sp@,%a3@-
   2811a:	1717           	moveb %sp@,%a3@-
   2811c:	2d17           	movel %sp@,%fp@-
   2811e:	172d 2d17      	moveb %a5@(11543),%a3@-
   28122:	172d 1717      	moveb %a5@(5911),%a3@-
   28126:	2d2d 1717      	movel %a5@(5911),%fp@-
   2812a:	2d2d 005c      	movel %a5@(92),%fp@-
   2812e:	5c5c           	addqw #6,%a4@+
   28130:	5c5c           	addqw #6,%a4@+
   28132:	5c27           	addqb #6,%sp@-
   28134:	2d2d 2d2d      	movel %a5@(11565),%fp@-
   28138:	2029 2929      	movel %a1@(10537),%d0
   2813c:	2929 2929      	movel %a1@(10537),%a4@-
   28140:	2929 2929      	movel %a1@(10537),%a4@-
   28144:	2929 2929      	movel %a1@(10537),%a4@-
   28148:	2f2f 2d2d      	movel %sp@(11565),%sp@-
   2814c:	2d2d 2d2d      	movel %a5@(11565),%fp@-
   28150:	2d2d 2d2d      	movel %a5@(11565),%fp@-
   28154:	2d2d 2d2d      	movel %a5@(11565),%fp@-
   28158:	2d2d 2d2d      	movel %a5@(11565),%fp@-
   2815c:	2d2d 2d2d      	movel %a5@(11565),%fp@-
   28160:	2d2d 2d2d      	movel %a5@(11565),%fp@-
   28164:	2d2d 2d2d      	movel %a5@(11565),%fp@-
   28168:	2d2d 1717      	movel %a5@(5911),%fp@-
   2816c:	172d 2d17      	moveb %a5@(11543),%a3@-
   28170:	1717           	moveb %sp@,%a3@-
   28172:	1717           	moveb %sp@,%a3@-
   28174:	1717           	moveb %sp@,%a3@-
   28176:	2d2d 1717      	movel %a5@(5911),%fp@-
   2817a:	172d 2d2d      	moveb %a5@(11565),%a3@-
   2817e:	1717           	moveb %sp@,%a3@-
   28180:	172d 2d17      	moveb %a5@(11543),%a3@-
   28184:	1717           	moveb %sp@,%a3@-
   28186:	1717           	moveb %sp@,%a3@-
   28188:	1717           	moveb %sp@,%a3@-
   2818a:	2d2d 1717      	movel %a5@(5911),%fp@-
   2818e:	1717           	moveb %sp@,%a3@-
   28190:	1717           	moveb %sp@,%a3@-
   28192:	1717           	moveb %sp@,%a3@-
   28194:	172d 1717      	moveb %a5@(5911),%a3@-
   28198:	172d 2d17      	moveb %a5@(11543),%a3@-
   2819c:	1717           	moveb %sp@,%a3@-
   2819e:	1717           	moveb %sp@,%a3@-
   281a0:	1717           	moveb %sp@,%a3@-
   281a2:	2d2d 1717      	movel %a5@(5911),%fp@-
   281a6:	172d 2d2d      	moveb %a5@(11565),%a3@-
   281aa:	1717           	moveb %sp@,%a3@-
   281ac:	1717           	moveb %sp@,%a3@-
   281ae:	2d2d 2d2d      	movel %a5@(11565),%fp@-
   281b2:	2d2d 2d2d      	movel %a5@(11565),%fp@-
   281b6:	2d2d 2d2d      	movel %a5@(11565),%fp@-
   281ba:	2d2d 2d2d      	movel %a5@(11565),%fp@-
   281be:	2d2d 2d2d      	movel %a5@(11565),%fp@-
   281c2:	2d2d 2d2d      	movel %a5@(11565),%fp@-
   281c6:	2d2d 2d2d      	movel %a5@(11565),%fp@-
   281ca:	2d2d 2d2d      	movel %a5@(11565),%fp@-
   281ce:	2d2d 2d2d      	movel %a5@(11565),%fp@-
   281d2:	2d2d 2d2d      	movel %a5@(11565),%fp@-
   281d6:	2d2d 2d2d      	movel %a5@(11565),%fp@-
   281da:	2d2d 2d2d      	movel %a5@(11565),%fp@-
   281de:	2d2d 2d36      	movel %a5@(11574),%fp@-
   281e2:	2929 2929      	movel %a1@(10537),%a4@-
   281e6:	2929 2929      	movel %a1@(10537),%a4@-
   281ea:	2929 2929      	movel %a1@(10537),%a4@-
   281ee:	2929 2929      	movel %a1@(10537),%a4@-
   281f2:	2929 2929      	movel %a1@(10537),%a4@-
   281f6:	2f2f 2d2d      	movel %sp@(11565),%sp@-
   281fa:	2d2d 2d2d      	movel %a5@(11565),%fp@-
   281fe:	2d2d 2d2d      	movel %a5@(11565),%fp@-
   28202:	2d2d 2d17      	movel %a5@(11543),%fp@-
   28206:	172d 2d2d      	moveb %a5@(11565),%a3@-
   2820a:	2d2d 1717      	movel %a5@(5911),%fp@-
   2820e:	2d2d 1717      	movel %a5@(5911),%fp@-
   28212:	2d17           	movel %sp@,%fp@-
   28214:	172d 2d17      	moveb %a5@(11543),%a3@-
   28218:	172d 2d2d      	moveb %a5@(11565),%a3@-
   2821c:	2f5c 5c5c      	movel %a4@+,%sp@(23644)
   28220:	5c5c           	addqw #6,%a4@+
   28222:	5c27           	addqb #6,%sp@-
   28224:	2d2d 2d2d      	movel %a5@(11565),%fp@-
   28228:	2d2d 2d2d      	movel %a5@(11565),%fp@-
   2822c:	2d2d 2d2d      	movel %a5@(11565),%fp@-
   28230:	2d2d 1717      	movel %a5@(5911),%fp@-
   28234:	2d17           	movel %sp@,%fp@-
   28236:	172d 2d17      	moveb %a5@(11543),%a3@-
   2823a:	172d 1717      	moveb %a5@(5911),%a3@-
   2823e:	2d2d 1717      	movel %a5@(5911),%fp@-
   28242:	2d2d 2f5c      	movel %a5@(12124),%fp@-
   28246:	5c5c           	addqw #6,%a4@+
   28248:	5c5c           	addqw #6,%a4@+
   2824a:	5c27           	addqb #6,%sp@-
   2824c:	2d2d 2d2d      	movel %a5@(11565),%fp@-
   28250:	2d2d 2d2d      	movel %a5@(11565),%fp@-
   28254:	2d2d 2d2d      	movel %a5@(11565),%fp@-
   28258:	2d2d 1717      	movel %a5@(5911),%fp@-
   2825c:	2d17           	movel %sp@,%fp@-
   2825e:	172d 2d17      	moveb %a5@(11543),%a3@-
   28262:	172d 1717      	moveb %a5@(5911),%a3@-
   28266:	2d2d 1717      	movel %a5@(5911),%fp@-
   2826a:	2d2d 2f5c      	movel %a5@(12124),%fp@-
   2826e:	5c5c           	addqw #6,%a4@+
   28270:	5c5c           	addqw #6,%a4@+
   28272:	5c27           	addqb #6,%sp@-
   28274:	2d2d 2d2d      	movel %a5@(11565),%fp@-
   28278:	2029 2929      	movel %a1@(10537),%d0
   2827c:	2929 2929      	movel %a1@(10537),%a4@-
   28280:	2929 2929      	movel %a1@(10537),%a4@-
   28284:	2929 2929      	movel %a1@(10537),%a4@-
   28288:	2f2f 2d2d      	movel %sp@(11565),%sp@-
   2828c:	3233 3334 0c0c 	movew %a3@(0c0c0c0c)@(00000000,%d3:w:2),%d1
   28292:	0c0c 
   28294:	0c0c           	.short 0x0c0c
   28296:	3535 3535 3636 	movew %a5@(36363636)@(00000000,%d3:w:4),%a2@-
   2829c:	3636 
   2829e:	2023           	movel %a3@-,%d0
   282a0:	2f2d 2d2d      	movel %a5@(11565),%sp@-
   282a4:	2d2d 2d2d      	movel %a5@(11565),%fp@-
   282a8:	2d2d 1717      	movel %a5@(5911),%fp@-
   282ac:	172d 1717      	moveb %a5@(5911),%a3@-
   282b0:	1717           	moveb %sp@,%a3@-
   282b2:	1717           	moveb %sp@,%a3@-
   282b4:	1717           	moveb %sp@,%a3@-
   282b6:	172d 1717      	moveb %a5@(5911),%a3@-
   282ba:	172d 2d2d      	moveb %a5@(11565),%a3@-
   282be:	1717           	moveb %sp@,%a3@-
   282c0:	172d 1717      	moveb %a5@(5911),%a3@-
   282c4:	1717           	moveb %sp@,%a3@-
   282c6:	1717           	moveb %sp@,%a3@-
   282c8:	1717           	moveb %sp@,%a3@-
   282ca:	172d 1717      	moveb %a5@(5911),%a3@-
   282ce:	1717           	moveb %sp@,%a3@-
   282d0:	1717           	moveb %sp@,%a3@-
   282d2:	1717           	moveb %sp@,%a3@-
   282d4:	172d 1717      	moveb %a5@(5911),%a3@-
   282d8:	172d 1717      	moveb %a5@(5911),%a3@-
   282dc:	1717           	moveb %sp@,%a3@-
   282de:	1717           	moveb %sp@,%a3@-
   282e0:	1717           	moveb %sp@,%a3@-
   282e2:	172d 1717      	moveb %a5@(5911),%a3@-
   282e6:	172d 2d17      	moveb %a5@(11543),%a3@-
   282ea:	1717           	moveb %sp@,%a3@-
   282ec:	172d 2d2d      	moveb %a5@(11565),%a3@-
   282f0:	2d2d 2d2d      	movel %a5@(11565),%fp@-
   282f4:	2d2d 2d2d      	movel %a5@(11565),%fp@-
   282f8:	2d2d 2d2d      	movel %a5@(11565),%fp@-
   282fc:	2d2d 2d2d      	movel %a5@(11565),%fp@-
   28300:	2d2d 2d2d      	movel %a5@(11565),%fp@-
   28304:	2d2d 2d2d      	movel %a5@(11565),%fp@-
   28308:	2d2d 2d2d      	movel %a5@(11565),%fp@-
   2830c:	2d2d 2d2d      	movel %a5@(11565),%fp@-
   28310:	2d2d 2d2d      	movel %a5@(11565),%fp@-
   28314:	2d2d 2d2d      	movel %a5@(11565),%fp@-
   28318:	2d2d 2d2d      	movel %a5@(11565),%fp@-
   2831c:	2d2d 2d2d      	movel %a5@(11565),%fp@-
   28320:	2d35 2929 2929 	movel %a5@(00002929,%d2:l)@(00000000),%fp@-
   28326:	2929 2929      	movel %a1@(10537),%a4@-
   2832a:	2929 2929      	movel %a1@(10537),%a4@-
   2832e:	2929 2929      	movel %a1@(10537),%a4@-
   28332:	2929 2929      	movel %a1@(10537),%a4@-
   28336:	2f2f 2d2d      	movel %sp@(11565),%sp@-
   2833a:	2d2d 2d2d      	movel %a5@(11565),%fp@-
   2833e:	2d2d 2d2d      	movel %a5@(11565),%fp@-
   28342:	2d2d 2d17      	movel %a5@(11543),%fp@-
   28346:	1717           	moveb %sp@,%a3@-
   28348:	1717           	moveb %sp@,%a3@-
   2834a:	172d 2d17      	moveb %a5@(11543),%a3@-
   2834e:	1717           	moveb %sp@,%a3@-
   28350:	172d 2d2d      	moveb %a5@(11565),%a3@-
   28354:	1717           	moveb %sp@,%a3@-
   28356:	1717           	moveb %sp@,%a3@-
   28358:	2d2d 2d2d      	movel %a5@(11565),%fp@-
   2835c:	2f5c 5c5c      	movel %a4@+,%sp@(23644)
   28360:	5c5c           	addqw #6,%a4@+
   28362:	5c25           	addqb #6,%a5@-
   28364:	2d2d 2d2d      	movel %a5@(11565),%fp@-
   28368:	2d2d 2d2d      	movel %a5@(11565),%fp@-
   2836c:	2d2d 2d17      	movel %a5@(11543),%fp@-
   28370:	1717           	moveb %sp@,%a3@-
   28372:	172d 2d2d      	moveb %a5@(11565),%a3@-
   28376:	1717           	moveb %sp@,%a3@-
   28378:	1717           	moveb %sp@,%a3@-
   2837a:	2d2d 2d17      	movel %a5@(11543),%fp@-
   2837e:	1717           	moveb %sp@,%a3@-
   28380:	172d 2d2d      	moveb %a5@(11565),%a3@-
   28384:	2f5c 5c5c      	movel %a4@+,%sp@(23644)
   28388:	5c5c           	addqw #6,%a4@+
   2838a:	5c25           	addqb #6,%a5@-
   2838c:	2d2d 2d2d      	movel %a5@(11565),%fp@-
   28390:	2d2d 2d2d      	movel %a5@(11565),%fp@-
   28394:	2d2d 2d17      	movel %a5@(11543),%fp@-
   28398:	1717           	moveb %sp@,%a3@-
   2839a:	172d 2d2d      	moveb %a5@(11565),%a3@-
   2839e:	1717           	moveb %sp@,%a3@-
   283a0:	1717           	moveb %sp@,%a3@-
   283a2:	2d2d 2d17      	movel %a5@(11543),%fp@-
   283a6:	1717           	moveb %sp@,%a3@-
   283a8:	172d 2d2d      	moveb %a5@(11565),%a3@-
   283ac:	2f5c 5c5c      	movel %a4@+,%sp@(23644)
   283b0:	5c5c           	addqw #6,%a4@+
   283b2:	5c25           	addqb #6,%a5@-
   283b4:	2d2d 2d2d      	movel %a5@(11565),%fp@-
   283b8:	2029 2929      	movel %a1@(10537),%d0
   283bc:	2929 2929      	movel %a1@(10537),%a4@-
   283c0:	2929 2929      	movel %a1@(10537),%a4@-
   283c4:	2929 2929      	movel %a1@(10537),%a4@-
   283c8:	2e2f 2d2d      	movel %sp@(11565),%d7
   283cc:	3336 2225      	movew %fp@(00000025,%d2:w:2),%a1@-
   283d0:	2727           	movel %sp@-,%a3@-
   283d2:	2828 2828      	movel %a0@(10280),%d4
   283d6:	2828 2828      	movel %a0@(10280),%d4
   283da:	2828 2828      	movel %a0@(10280),%d4
   283de:	282c 2f2d      	movel %a4@(12077),%d4
   283e2:	2d2d 2d2d      	movel %a5@(11565),%fp@-
   283e6:	2d2d 2d2d      	movel %a5@(11565),%fp@-
   283ea:	1717           	moveb %sp@,%a3@-
   283ec:	172d 1717      	moveb %a5@(5911),%a3@-
   283f0:	172d 2d2d      	moveb %a5@(11565),%a3@-
   283f4:	1717           	moveb %sp@,%a3@-
   283f6:	172d 1717      	moveb %a5@(5911),%a3@-
   283fa:	172d 2d2d      	moveb %a5@(11565),%a3@-
   283fe:	1717           	moveb %sp@,%a3@-
   28400:	172d 1717      	moveb %a5@(5911),%a3@-
   28404:	172d 2d2d      	moveb %a5@(11565),%a3@-
   28408:	1717           	moveb %sp@,%a3@-
   2840a:	172d 2d2d      	moveb %a5@(11565),%a3@-
   2840e:	2d17           	movel %sp@,%fp@-
   28410:	1717           	moveb %sp@,%a3@-
   28412:	2d2d 2d2d      	movel %a5@(11565),%fp@-
   28416:	1717           	moveb %sp@,%a3@-
   28418:	172d 1717      	moveb %a5@(5911),%a3@-
   2841c:	172d 2d2d      	moveb %a5@(11565),%a3@-
   28420:	1717           	moveb %sp@,%a3@-
   28422:	172d 1717      	moveb %a5@(5911),%a3@-
   28426:	172d 1717      	moveb %a5@(5911),%a3@-
   2842a:	1717           	moveb %sp@,%a3@-
   2842c:	2d2d 2d2d      	movel %a5@(11565),%fp@-
   28430:	2d2d 2d2d      	movel %a5@(11565),%fp@-
   28434:	2d2d 2d2d      	movel %a5@(11565),%fp@-
   28438:	2d2d 2d2d      	movel %a5@(11565),%fp@-
   2843c:	2d2d 2d2d      	movel %a5@(11565),%fp@-
   28440:	2d2d 2d2d      	movel %a5@(11565),%fp@-
   28444:	2d2d 2d2d      	movel %a5@(11565),%fp@-
   28448:	2d2d 2d2d      	movel %a5@(11565),%fp@-
   2844c:	2d2d 2d2d      	movel %a5@(11565),%fp@-
   28450:	2d2d 2d2d      	movel %a5@(11565),%fp@-
   28454:	2d2d 2d2d      	movel %a5@(11565),%fp@-
   28458:	2d2d 2d2d      	movel %a5@(11565),%fp@-
   2845c:	2d2d 2d2d      	movel %a5@(11565),%fp@-
   28460:	2d35 2929 2929 	movel %a5@(00002929,%d2:l)@(00000000),%fp@-
   28466:	2929 2929      	movel %a1@(10537),%a4@-
   2846a:	2929 2929      	movel %a1@(10537),%a4@-
   2846e:	2929 2929      	movel %a1@(10537),%a4@-
   28472:	2929 2929      	movel %a1@(10537),%a4@-
   28476:	2f2f 2d2d      	movel %sp@(11565),%sp@-
   2847a:	2d2d 2d2d      	movel %a5@(11565),%fp@-
   2847e:	2d2d 2d2d      	movel %a5@(11565),%fp@-
   28482:	2d2d 2d2d      	movel %a5@(11565),%fp@-
   28486:	2d2d 2d2d      	movel %a5@(11565),%fp@-
   2848a:	2d2d 2d2d      	movel %a5@(11565),%fp@-
   2848e:	2d2d 2d2d      	movel %a5@(11565),%fp@-
   28492:	2d2d 2d2d      	movel %a5@(11565),%fp@-
   28496:	2d2d 2d2d      	movel %a5@(11565),%fp@-
   2849a:	2d2d 2b29      	movel %a5@(11049),%fp@-
   2849e:	2727           	movel %sp@-,%a3@-
   284a0:	2727           	movel %sp@-,%a3@-
   284a2:	2522           	movel %a2@-,%a2@-
   284a4:	2d2d 2d2d      	movel %a5@(11565),%fp@-
   284a8:	2d2d 2d2d      	movel %a5@(11565),%fp@-
   284ac:	2d2d 2d2d      	movel %a5@(11565),%fp@-
   284b0:	2d2d 2d2d      	movel %a5@(11565),%fp@-
   284b4:	2d2d 2d2d      	movel %a5@(11565),%fp@-
   284b8:	2d2d 2d2d      	movel %a5@(11565),%fp@-
   284bc:	2d2d 2d2d      	movel %a5@(11565),%fp@-
   284c0:	2d2d 2d2d      	movel %a5@(11565),%fp@-
   284c4:	2b29 2727      	movel %a1@(10023),%a5@-
   284c8:	2727           	movel %sp@-,%a3@-
   284ca:	2522           	movel %a2@-,%a2@-
   284cc:	2d2d 2d2d      	movel %a5@(11565),%fp@-
   284d0:	2d2d 2d2d      	movel %a5@(11565),%fp@-
   284d4:	2d2d 2d2d      	movel %a5@(11565),%fp@-
   284d8:	2d2d 2d2d      	movel %a5@(11565),%fp@-
   284dc:	2d2d 2d2d      	movel %a5@(11565),%fp@-
   284e0:	2d2d 2d2d      	movel %a5@(11565),%fp@-
   284e4:	2d2d 2d2d      	movel %a5@(11565),%fp@-
   284e8:	2d2d 2d2d      	movel %a5@(11565),%fp@-
   284ec:	2b29 2727      	movel %a1@(10023),%a5@-
   284f0:	2727           	movel %sp@-,%a3@-
   284f2:	2522           	movel %a2@-,%a2@-
   284f4:	2d2d 2d2d      	movel %a5@(11565),%fp@-
   284f8:	2029 2929      	movel %a1@(10537),%d0
   284fc:	2929 2929      	movel %a1@(10537),%a4@-
   28500:	2929 2929      	movel %a1@(10537),%a4@-
   28504:	2929 2929      	movel %a1@(10537),%a4@-
   28508:	2e2f 2d2d      	movel %sp@(11565),%d7
   2850c:	3422           	movew %a2@-,%d2
   2850e:	2500           	movel %d0,%a2@-
	...
   2851c:	0028 282c 2f2d 	orib #44,%a0@(12077)
   28522:	2d2d 2d2d      	movel %a5@(11565),%fp@-
   28526:	2d2d 2d2d      	movel %a5@(11565),%fp@-
   2852a:	1717           	moveb %sp@,%a3@-
   2852c:	172d 1717      	moveb %a5@(5911),%a3@-
   28530:	172d 2d2d      	moveb %a5@(11565),%a3@-
   28534:	1717           	moveb %sp@,%a3@-
   28536:	172d 1717      	moveb %a5@(5911),%a3@-
   2853a:	172d 2d2d      	moveb %a5@(11565),%a3@-
   2853e:	1717           	moveb %sp@,%a3@-
   28540:	172d 1717      	moveb %a5@(5911),%a3@-
   28544:	172d 2d2d      	moveb %a5@(11565),%a3@-
   28548:	2d2d 2d2d      	movel %a5@(11565),%fp@-
   2854c:	2d2d 2d17      	movel %a5@(11543),%fp@-
   28550:	1717           	moveb %sp@,%a3@-
   28552:	2d2d 2d2d      	movel %a5@(11565),%fp@-
   28556:	1717           	moveb %sp@,%a3@-
   28558:	172d 1717      	moveb %a5@(5911),%a3@-
   2855c:	172d 2d2d      	moveb %a5@(11565),%a3@-
   28560:	2d2d 2d2d      	movel %a5@(11565),%fp@-
   28564:	1717           	moveb %sp@,%a3@-
   28566:	1717           	moveb %sp@,%a3@-
   28568:	1717           	moveb %sp@,%a3@-
   2856a:	172d 2d2d      	moveb %a5@(11565),%a3@-
   2856e:	2d2d 2d2d      	movel %a5@(11565),%fp@-
   28572:	2d2d 2d2d      	movel %a5@(11565),%fp@-
   28576:	2d2d 2d2d      	movel %a5@(11565),%fp@-
   2857a:	2d2d 2d2d      	movel %a5@(11565),%fp@-
   2857e:	2d2d 2d2d      	movel %a5@(11565),%fp@-
   28582:	2d2d 2d2d      	movel %a5@(11565),%fp@-
   28586:	2d2d 2d2d      	movel %a5@(11565),%fp@-
   2858a:	2d2d 2d2d      	movel %a5@(11565),%fp@-
   2858e:	2d2d 2d2d      	movel %a5@(11565),%fp@-
   28592:	2d2d 2d2d      	movel %a5@(11565),%fp@-
   28596:	2d2d 2d2d      	movel %a5@(11565),%fp@-
   2859a:	2d2d 2d2d      	movel %a5@(11565),%fp@-
   2859e:	2d2d 2d35      	movel %a5@(11573),%fp@-
   285a2:	2929 2929      	movel %a1@(10537),%a4@-
   285a6:	2929 2929      	movel %a1@(10537),%a4@-
   285aa:	2929 2929      	movel %a1@(10537),%a4@-
   285ae:	2929 2929      	movel %a1@(10537),%a4@-
   285b2:	2929 2929      	movel %a1@(10537),%a4@-
   285b6:	2f2f 2d2d      	movel %sp@(11565),%sp@-
   285ba:	2d2d 2d2d      	movel %a5@(11565),%fp@-
   285be:	2d2d 2d2d      	movel %a5@(11565),%fp@-
   285c2:	2d2d 2d2d      	movel %a5@(11565),%fp@-
   285c6:	2d2d 2d2d      	movel %a5@(11565),%fp@-
   285ca:	2d2d 2d2d      	movel %a5@(11565),%fp@-
   285ce:	2d2d 2d2d      	movel %a5@(11565),%fp@-
   285d2:	2d2d 2d2d      	movel %a5@(11565),%fp@-
   285d6:	2d2d 2d2d      	movel %a5@(11565),%fp@-
   285da:	2d2d 2d2d      	movel %a5@(11565),%fp@-
   285de:	2d2d 2d2d      	movel %a5@(11565),%fp@-
   285e2:	2d2d 2d2d      	movel %a5@(11565),%fp@-
   285e6:	2d2d 2d2d      	movel %a5@(11565),%fp@-
   285ea:	2d2d 2d2d      	movel %a5@(11565),%fp@-
   285ee:	2d2d 2d2d      	movel %a5@(11565),%fp@-
   285f2:	2d2d 2d2d      	movel %a5@(11565),%fp@-
   285f6:	2d2d 2d2d      	movel %a5@(11565),%fp@-
   285fa:	2d2d 2d2d      	movel %a5@(11565),%fp@-
   285fe:	2d2d 2d2d      	movel %a5@(11565),%fp@-
   28602:	2d2d 2d2d      	movel %a5@(11565),%fp@-
   28606:	2d2d 2d2d      	movel %a5@(11565),%fp@-
   2860a:	2d2d 2d2d      	movel %a5@(11565),%fp@-
   2860e:	2d2d 2d2d      	movel %a5@(11565),%fp@-
   28612:	2d2d 2d2d      	movel %a5@(11565),%fp@-
   28616:	2d2d 2d2d      	movel %a5@(11565),%fp@-
   2861a:	2d2d 2d2d      	movel %a5@(11565),%fp@-
   2861e:	2d2d 2d2d      	movel %a5@(11565),%fp@-
   28622:	2d2d 2d2d      	movel %a5@(11565),%fp@-
   28626:	2d2d 2d2d      	movel %a5@(11565),%fp@-
   2862a:	2d2d 2d2d      	movel %a5@(11565),%fp@-
   2862e:	2d2d 2d2d      	movel %a5@(11565),%fp@-
   28632:	2d2d 2d2d      	movel %a5@(11565),%fp@-
   28636:	2d2d 2029      	movel %a5@(8233),%fp@-
   2863a:	2929 2929      	movel %a1@(10537),%a4@-
   2863e:	2929 2929      	movel %a1@(10537),%a4@-
   28642:	2929 2929      	movel %a1@(10537),%a4@-
   28646:	2929 2e2f      	movel %a1@(11823),%a4@-
   2864a:	2d2d 3425      	movel %a5@(13349),%fp@-
   2864e:	2700           	movel %d0,%a3@-
   28650:	1f1f           	moveb %sp@+,%sp@-
   28652:	1f1f           	moveb %sp@+,%sp@-
   28654:	1f1f           	moveb %sp@+,%sp@-
   28656:	1f1f           	moveb %sp@+,%sp@-
   28658:	1f1f           	moveb %sp@+,%sp@-
   2865a:	1f1f           	moveb %sp@+,%sp@-
   2865c:	1f28 282d      	moveb %a0@(10285),%sp@-
   28660:	2f2d 2d2d      	movel %a5@(11565),%sp@-
   28664:	2d2d 2d2d      	movel %a5@(11565),%fp@-
   28668:	2d2d 1717      	movel %a5@(5911),%fp@-
   2866c:	172d 1717      	moveb %a5@(5911),%a3@-
   28670:	172d 2d2d      	moveb %a5@(11565),%a3@-
   28674:	1717           	moveb %sp@,%a3@-
   28676:	172d 2d17      	moveb %a5@(11543),%a3@-
   2867a:	1717           	moveb %sp@,%a3@-
   2867c:	1717           	moveb %sp@,%a3@-
   2867e:	1717           	moveb %sp@,%a3@-
   28680:	2d2d 1717      	movel %a5@(5911),%fp@-
   28684:	1717           	moveb %sp@,%a3@-
   28686:	1717           	moveb %sp@,%a3@-
   28688:	1717           	moveb %sp@,%a3@-
   2868a:	2d2d 2d2d      	movel %a5@(11565),%fp@-
   2868e:	2d17           	movel %sp@,%fp@-
   28690:	1717           	moveb %sp@,%a3@-
   28692:	2d2d 2d2d      	movel %a5@(11565),%fp@-
   28696:	1717           	moveb %sp@,%a3@-
   28698:	172d 1717      	moveb %a5@(5911),%a3@-
   2869c:	172d 2d2d      	moveb %a5@(11565),%a3@-
   286a0:	2d2d 2d2d      	movel %a5@(11565),%fp@-
   286a4:	1717           	moveb %sp@,%a3@-
   286a6:	1717           	moveb %sp@,%a3@-
   286a8:	1717           	moveb %sp@,%a3@-
   286aa:	2d2d 2d2d      	movel %a5@(11565),%fp@-
   286ae:	2d2d 2d2d      	movel %a5@(11565),%fp@-
   286b2:	2d2d 2d2d      	movel %a5@(11565),%fp@-
   286b6:	2d2d 2d2d      	movel %a5@(11565),%fp@-
   286ba:	2d2d 2d2d      	movel %a5@(11565),%fp@-
   286be:	2d2d 2d2d      	movel %a5@(11565),%fp@-
   286c2:	2d2d 2d2d      	movel %a5@(11565),%fp@-
   286c6:	2d2d 2d2d      	movel %a5@(11565),%fp@-
   286ca:	2d2d 2d2d      	movel %a5@(11565),%fp@-
   286ce:	2d2d 2d2d      	movel %a5@(11565),%fp@-
   286d2:	2d2d 2d2d      	movel %a5@(11565),%fp@-
   286d6:	2d2d 2d2d      	movel %a5@(11565),%fp@-
   286da:	2d2d 2d2d      	movel %a5@(11565),%fp@-
   286de:	2d2d 2d35      	movel %a5@(11573),%fp@-
   286e2:	2929 2929      	movel %a1@(10537),%a4@-
   286e6:	2929 2929      	movel %a1@(10537),%a4@-
   286ea:	2929 2929      	movel %a1@(10537),%a4@-
   286ee:	2929 2929      	movel %a1@(10537),%a4@-
   286f2:	2929 2929      	movel %a1@(10537),%a4@-
   286f6:	2f2f 2d2d      	movel %sp@(11565),%sp@-
   286fa:	2d2d 2d2d      	movel %a5@(11565),%fp@-
   286fe:	2d2d 2d2d      	movel %a5@(11565),%fp@-
   28702:	2d2d 2d2d      	movel %a5@(11565),%fp@-
   28706:	1717           	moveb %sp@,%a3@-
   28708:	1717           	moveb %sp@,%a3@-
   2870a:	2d2d 1717      	movel %a5@(5911),%fp@-
   2870e:	1717           	moveb %sp@,%a3@-
   28710:	1717           	moveb %sp@,%a3@-
   28712:	2d2d 1717      	movel %a5@(5911),%fp@-
   28716:	1717           	moveb %sp@,%a3@-
   28718:	2d2d 2d2d      	movel %a5@(11565),%fp@-
   2871c:	0000 0000      	orib #0,%d0
   28720:	002f 2f2b 2d2d 	orib #43,%sp@(11565)
   28726:	2d2d 2d2d      	movel %a5@(11565),%fp@-
   2872a:	2d2d 2d2d      	movel %a5@(11565),%fp@-
   2872e:	2d17           	movel %sp@,%fp@-
   28730:	1717           	moveb %sp@,%a3@-
   28732:	172d 2d2d      	moveb %a5@(11565),%a3@-
   28736:	1717           	moveb %sp@,%a3@-
   28738:	1717           	moveb %sp@,%a3@-
   2873a:	2d2d 2d17      	movel %a5@(11543),%fp@-
   2873e:	1717           	moveb %sp@,%a3@-
   28740:	172d 2d2d      	moveb %a5@(11565),%a3@-
   28744:	0000 0000      	orib #0,%d0
   28748:	002f 2f2b 2d2d 	orib #43,%sp@(11565)
   2874e:	2d2d 2d2d      	movel %a5@(11565),%fp@-
   28752:	2d2d 2d2d      	movel %a5@(11565),%fp@-
   28756:	2d17           	movel %sp@,%fp@-
   28758:	1717           	moveb %sp@,%a3@-
   2875a:	172d 2d2d      	moveb %a5@(11565),%a3@-
   2875e:	1717           	moveb %sp@,%a3@-
   28760:	1717           	moveb %sp@,%a3@-
   28762:	2d2d 2d17      	movel %a5@(11543),%fp@-
   28766:	1717           	moveb %sp@,%a3@-
   28768:	172d 2d2d      	moveb %a5@(11565),%a3@-
   2876c:	0000 0000      	orib #0,%d0
   28770:	002f 2f2b 2d2d 	orib #43,%sp@(11565)
   28776:	2d2d 2029      	movel %a5@(8233),%fp@-
   2877a:	2929 2929      	movel %a1@(10537),%a4@-
   2877e:	2929 2929      	movel %a1@(10537),%a4@-
   28782:	2929 2929      	movel %a1@(10537),%a4@-
   28786:	2929 2e2f      	movel %a1@(11823),%a4@-
   2878a:	2d2d 3527      	movel %a5@(13607),%fp@-
   2878e:	2700           	movel %d0,%a3@-
   28790:	1f1f           	moveb %sp@+,%sp@-
   28792:	1f1f           	moveb %sp@+,%sp@-
   28794:	1f1f           	moveb %sp@+,%sp@-
   28796:	1f1f           	moveb %sp@+,%sp@-
   28798:	1f1f           	moveb %sp@+,%sp@-
   2879a:	1f1f           	moveb %sp@+,%sp@-
   2879c:	1f28 282d      	moveb %a0@(10285),%sp@-
   287a0:	2f2d 2d2d      	movel %a5@(11565),%sp@-
   287a4:	2d2d 2d2d      	movel %a5@(11565),%fp@-
   287a8:	2d2d 1717      	movel %a5@(5911),%fp@-
   287ac:	172d 1717      	moveb %a5@(5911),%a3@-
   287b0:	172d 2d2d      	moveb %a5@(11565),%a3@-
   287b4:	1717           	moveb %sp@,%a3@-
   287b6:	172d 2d2d      	moveb %a5@(11565),%a3@-
   287ba:	1717           	moveb %sp@,%a3@-
   287bc:	1717           	moveb %sp@,%a3@-
   287be:	172d 2d2d      	moveb %a5@(11565),%a3@-
   287c2:	2d17           	movel %sp@,%fp@-
   287c4:	1717           	moveb %sp@,%a3@-
   287c6:	1717           	moveb %sp@,%a3@-
   287c8:	1717           	moveb %sp@,%a3@-
   287ca:	172d 2d2d      	moveb %a5@(11565),%a3@-
   287ce:	2d17           	movel %sp@,%fp@-
   287d0:	1717           	moveb %sp@,%a3@-
   287d2:	2d2d 2d2d      	movel %a5@(11565),%fp@-
   287d6:	1717           	moveb %sp@,%a3@-
   287d8:	172d 1717      	moveb %a5@(5911),%a3@-
   287dc:	172d 2d2d      	moveb %a5@(11565),%a3@-
   287e0:	2d2d 2d2d      	movel %a5@(11565),%fp@-
   287e4:	1717           	moveb %sp@,%a3@-
   287e6:	1717           	moveb %sp@,%a3@-
   287e8:	1717           	moveb %sp@,%a3@-
   287ea:	2d2d 2d2d      	movel %a5@(11565),%fp@-
   287ee:	2d2d 2d2d      	movel %a5@(11565),%fp@-
   287f2:	2d2d 2d2d      	movel %a5@(11565),%fp@-
   287f6:	2d2d 2d2d      	movel %a5@(11565),%fp@-
   287fa:	2d2d 2d2d      	movel %a5@(11565),%fp@-
   287fe:	2d2d 2d2d      	movel %a5@(11565),%fp@-
   28802:	2d2d 2d2d      	movel %a5@(11565),%fp@-
   28806:	2d2d 2d2d      	movel %a5@(11565),%fp@-
   2880a:	2d2d 2d2d      	movel %a5@(11565),%fp@-
   2880e:	2d2d 2d2d      	movel %a5@(11565),%fp@-
   28812:	2d2d 2d2d      	movel %a5@(11565),%fp@-
   28816:	2d2d 2d2d      	movel %a5@(11565),%fp@-
   2881a:	2d2d 2d2d      	movel %a5@(11565),%fp@-
   2881e:	2d2d 2d0c      	movel %a5@(11532),%fp@-
   28822:	2929 2929      	movel %a1@(10537),%a4@-
   28826:	2929 2929      	movel %a1@(10537),%a4@-
   2882a:	2929 2929      	movel %a1@(10537),%a4@-
   2882e:	2929 2929      	movel %a1@(10537),%a4@-
   28832:	2929 2929      	movel %a1@(10537),%a4@-
   28836:	2f2f 2d2d      	movel %sp@(11565),%sp@-
   2883a:	2d2d 2d2d      	movel %a5@(11565),%fp@-
   2883e:	2d2d 2d2d      	movel %a5@(11565),%fp@-
   28842:	2d2d 2d17      	movel %a5@(11543),%fp@-
   28846:	172d 2d17      	moveb %a5@(11543),%a3@-
   2884a:	172d 1717      	moveb %a5@(5911),%a3@-
   2884e:	2d2d 2d2d      	movel %a5@(11565),%fp@-
   28852:	2d17           	movel %sp@,%fp@-
   28854:	172d 2d2d      	moveb %a5@(11565),%a3@-
   28858:	2d2d 2d2d      	movel %a5@(11565),%fp@-
   2885c:	005e 5e5e      	oriw #24158,%fp@+
   28860:	5e5e           	addqw #7,%fp@+
   28862:	5e29 2d2d      	addqb #7,%a1@(11565)
   28866:	2d2d 2d2d      	movel %a5@(11565),%fp@-
   2886a:	2d2d 2d2d      	movel %a5@(11565),%fp@-
   2886e:	1717           	moveb %sp@,%a3@-
   28870:	2d2d 1717      	movel %a5@(5911),%fp@-
   28874:	2d17           	movel %sp@,%fp@-
   28876:	172d 2d17      	moveb %a5@(11543),%a3@-
   2887a:	172d 1717      	moveb %a5@(5911),%a3@-
   2887e:	2d2d 1717      	movel %a5@(5911),%fp@-
   28882:	2d2d 005e      	movel %a5@(94),%fp@-
   28886:	5e5e           	addqw #7,%fp@+
   28888:	5e5e           	addqw #7,%fp@+
   2888a:	5e29 2d2d      	addqb #7,%a1@(11565)
   2888e:	2d2d 2d2d      	movel %a5@(11565),%fp@-
   28892:	2d2d 2d2d      	movel %a5@(11565),%fp@-
   28896:	1717           	moveb %sp@,%a3@-
   28898:	2d2d 1717      	movel %a5@(5911),%fp@-
   2889c:	2d17           	movel %sp@,%fp@-
   2889e:	172d 2d17      	moveb %a5@(11543),%a3@-
   288a2:	172d 1717      	moveb %a5@(5911),%a3@-
   288a6:	2d2d 1717      	movel %a5@(5911),%fp@-
   288aa:	2d2d 005e      	movel %a5@(94),%fp@-
   288ae:	5e5e           	addqw #7,%fp@+
   288b0:	5e5e           	addqw #7,%fp@+
   288b2:	5e29 2d2d      	addqb #7,%a1@(11565)
   288b6:	2d2d 2029      	movel %a5@(8233),%fp@-
   288ba:	2929 2929      	movel %a1@(10537),%a4@-
   288be:	2929 2929      	movel %a1@(10537),%a4@-
   288c2:	2929 2929      	movel %a1@(10537),%a4@-
   288c6:	2929 2e2f      	movel %a1@(11823),%a4@-
   288ca:	2d2d 3627      	movel %a5@(13863),%fp@-
   288ce:	2800           	movel %d0,%d4
   288d0:	1f1f           	moveb %sp@+,%sp@-
   288d2:	1f1f           	moveb %sp@+,%sp@-
   288d4:	1f1f           	moveb %sp@+,%sp@-
   288d6:	1f1f           	moveb %sp@+,%sp@-
   288d8:	1f1f           	moveb %sp@+,%sp@-
   288da:	1f1f           	moveb %sp@+,%sp@-
   288dc:	1f28 282e      	moveb %a0@(10286),%sp@-
   288e0:	2f2d 2d2d      	movel %a5@(11565),%sp@-
   288e4:	2d2d 2d2d      	movel %a5@(11565),%fp@-
   288e8:	2d2d 1717      	movel %a5@(5911),%fp@-
   288ec:	172d 1717      	moveb %a5@(5911),%a3@-
   288f0:	172d 2d2d      	moveb %a5@(11565),%a3@-
   288f4:	1717           	moveb %sp@,%a3@-
   288f6:	172d 2d2d      	moveb %a5@(11565),%a3@-
   288fa:	2d17           	movel %sp@,%fp@-
   288fc:	1717           	moveb %sp@,%a3@-
   288fe:	2d2d 2d2d      	movel %a5@(11565),%fp@-
   28902:	2d2d 2d2d      	movel %a5@(11565),%fp@-
   28906:	2d2d 1717      	movel %a5@(5911),%fp@-
   2890a:	172d 2d2d      	moveb %a5@(11565),%a3@-
   2890e:	2d17           	movel %sp@,%fp@-
   28910:	1717           	moveb %sp@,%a3@-
   28912:	2d2d 2d2d      	movel %a5@(11565),%fp@-
   28916:	1717           	moveb %sp@,%a3@-
   28918:	172d 1717      	moveb %a5@(5911),%a3@-
   2891c:	172d 2d2d      	moveb %a5@(11565),%a3@-
   28920:	2d2d 2d2d      	movel %a5@(11565),%fp@-
   28924:	1717           	moveb %sp@,%a3@-
   28926:	1717           	moveb %sp@,%a3@-
   28928:	1717           	moveb %sp@,%a3@-
   2892a:	172d 2d2d      	moveb %a5@(11565),%a3@-
   2892e:	2d2d 2d2d      	movel %a5@(11565),%fp@-
   28932:	2d2d 2d2d      	movel %a5@(11565),%fp@-
   28936:	2d2d 2d2d      	movel %a5@(11565),%fp@-
   2893a:	2d2d 2d2d      	movel %a5@(11565),%fp@-
   2893e:	2d2d 2d2d      	movel %a5@(11565),%fp@-
   28942:	2d2d 2d2d      	movel %a5@(11565),%fp@-
   28946:	2d2d 2d2d      	movel %a5@(11565),%fp@-
   2894a:	2d2d 2d2d      	movel %a5@(11565),%fp@-
   2894e:	2d2d 2d2d      	movel %a5@(11565),%fp@-
   28952:	2d2d 2d2d      	movel %a5@(11565),%fp@-
   28956:	2d2d 2d2d      	movel %a5@(11565),%fp@-
   2895a:	2d2d 2d2d      	movel %a5@(11565),%fp@-
   2895e:	2d2d 2d0c      	movel %a5@(11532),%fp@-
   28962:	2929 2929      	movel %a1@(10537),%a4@-
   28966:	2929 2929      	movel %a1@(10537),%a4@-
   2896a:	2929 2929      	movel %a1@(10537),%a4@-
   2896e:	2929 2929      	movel %a1@(10537),%a4@-
   28972:	2929 2929      	movel %a1@(10537),%a4@-
   28976:	2f2f 2d2d      	movel %sp@(11565),%sp@-
   2897a:	2d2d 2d2d      	movel %a5@(11565),%fp@-
   2897e:	2d2d 2d2d      	movel %a5@(11565),%fp@-
   28982:	2d2d 2d2d      	movel %a5@(11565),%fp@-
   28986:	2d2d 2d17      	movel %a5@(11543),%fp@-
   2898a:	172d 1717      	moveb %a5@(5911),%a3@-
   2898e:	1717           	moveb %sp@,%a3@-
   28990:	172d 2d17      	moveb %a5@(11543),%a3@-
   28994:	1717           	moveb %sp@,%a3@-
   28996:	1717           	moveb %sp@,%a3@-
   28998:	2d2d 2d2d      	movel %a5@(11565),%fp@-
   2899c:	005e 5e5e      	oriw #24158,%fp@+
   289a0:	5e5e           	addqw #7,%fp@+
   289a2:	5e27           	addqb #7,%sp@-
   289a4:	2d2d 2d2d      	movel %a5@(11565),%fp@-
   289a8:	2d2d 2d2d      	movel %a5@(11565),%fp@-
   289ac:	2d2d 2d17      	movel %a5@(11543),%fp@-
   289b0:	1717           	moveb %sp@,%a3@-
   289b2:	172d 2d17      	moveb %a5@(11543),%a3@-
   289b6:	172d 2d17      	moveb %a5@(11543),%a3@-
   289ba:	172d 1717      	moveb %a5@(5911),%a3@-
   289be:	2d2d 1717      	movel %a5@(5911),%fp@-
   289c2:	2d2d 005e      	movel %a5@(94),%fp@-
   289c6:	5e5e           	addqw #7,%fp@+
   289c8:	5e5e           	addqw #7,%fp@+
   289ca:	5e27           	addqb #7,%sp@-
   289cc:	2d2d 2d2d      	movel %a5@(11565),%fp@-
   289d0:	2d2d 2d2d      	movel %a5@(11565),%fp@-
   289d4:	2d2d 2d17      	movel %a5@(11543),%fp@-
   289d8:	1717           	moveb %sp@,%a3@-
   289da:	172d 2d17      	moveb %a5@(11543),%a3@-
   289de:	172d 2d17      	moveb %a5@(11543),%a3@-
   289e2:	172d 1717      	moveb %a5@(5911),%a3@-
   289e6:	2d2d 1717      	movel %a5@(5911),%fp@-
   289ea:	2d2d 005e      	movel %a5@(94),%fp@-
   289ee:	5e5e           	addqw #7,%fp@+
   289f0:	5e5e           	addqw #7,%fp@+
   289f2:	5e27           	addqb #7,%sp@-
   289f4:	2d2d 2d2d      	movel %a5@(11565),%fp@-
   289f8:	2029 2929      	movel %a1@(10537),%d0
   289fc:	2929 2929      	movel %a1@(10537),%a4@-
   28a00:	2929 2929      	movel %a1@(10537),%a4@-
   28a04:	2929 2929      	movel %a1@(10537),%a4@-
   28a08:	2d2f 2d2d      	movel %sp@(11565),%fp@-
   28a0c:	2028 2828      	movel %a0@(10280),%d0
   28a10:	2828 2828      	movel %a0@(10280),%d4
   28a14:	2828 2828      	movel %a0@(10280),%d4
   28a18:	2828 2828      	movel %a0@(10280),%d4
   28a1c:	2828 282e      	movel %a0@(10286),%d4
   28a20:	2f2d 2d2d      	movel %a5@(11565),%sp@-
   28a24:	1717           	moveb %sp@,%a3@-
   28a26:	172d 2d2d      	moveb %a5@(11565),%a3@-
   28a2a:	1717           	moveb %sp@,%a3@-
   28a2c:	172d 1717      	moveb %a5@(5911),%a3@-
   28a30:	172d 2d2d      	moveb %a5@(11565),%a3@-
   28a34:	1717           	moveb %sp@,%a3@-
   28a36:	172d 2d2d      	moveb %a5@(11565),%a3@-
   28a3a:	2d17           	movel %sp@,%fp@-
   28a3c:	1717           	moveb %sp@,%a3@-
   28a3e:	2d2d 2d2d      	movel %a5@(11565),%fp@-
   28a42:	1717           	moveb %sp@,%a3@-
   28a44:	172d 2d2d      	moveb %a5@(11565),%a3@-
   28a48:	1717           	moveb %sp@,%a3@-
   28a4a:	172d 2d2d      	moveb %a5@(11565),%a3@-
   28a4e:	2d17           	movel %sp@,%fp@-
   28a50:	1717           	moveb %sp@,%a3@-
   28a52:	2d2d 2d2d      	movel %a5@(11565),%fp@-
   28a56:	1717           	moveb %sp@,%a3@-
   28a58:	172d 1717      	moveb %a5@(5911),%a3@-
   28a5c:	172d 2d2d      	moveb %a5@(11565),%a3@-
   28a60:	1717           	moveb %sp@,%a3@-
   28a62:	172d 1717      	moveb %a5@(5911),%a3@-
   28a66:	172d 1717      	moveb %a5@(5911),%a3@-
   28a6a:	1717           	moveb %sp@,%a3@-
   28a6c:	2d2d 2d2d      	movel %a5@(11565),%fp@-
   28a70:	2d2d 2d2d      	movel %a5@(11565),%fp@-
   28a74:	2d2d 2d2d      	movel %a5@(11565),%fp@-
   28a78:	2d2d 2d2d      	movel %a5@(11565),%fp@-
   28a7c:	2d2d 2d2d      	movel %a5@(11565),%fp@-
   28a80:	2d2d 2d2d      	movel %a5@(11565),%fp@-
   28a84:	2d2d 2d2d      	movel %a5@(11565),%fp@-
   28a88:	2d2d 2d2d      	movel %a5@(11565),%fp@-
   28a8c:	2d2d 2d2d      	movel %a5@(11565),%fp@-
   28a90:	2d2d 2d2d      	movel %a5@(11565),%fp@-
   28a94:	2d2d 2d2d      	movel %a5@(11565),%fp@-
   28a98:	2d2d 2d2d      	movel %a5@(11565),%fp@-
   28a9c:	2d2d 2d2d      	movel %a5@(11565),%fp@-
   28aa0:	2d0c           	movel %a4,%fp@-
   28aa2:	2929 2929      	movel %a1@(10537),%a4@-
   28aa6:	2929 2929      	movel %a1@(10537),%a4@-
   28aaa:	2929 2929      	movel %a1@(10537),%a4@-
   28aae:	2929 2929      	movel %a1@(10537),%a4@-
   28ab2:	2929 2929      	movel %a1@(10537),%a4@-
   28ab6:	2f2f 2d2d      	movel %sp@(11565),%sp@-
   28aba:	2d2d 2d2d      	movel %a5@(11565),%fp@-
   28abe:	2d2d 2d2d      	movel %a5@(11565),%fp@-
   28ac2:	2d2d 2d2d      	movel %a5@(11565),%fp@-
   28ac6:	1717           	moveb %sp@,%a3@-
   28ac8:	1717           	moveb %sp@,%a3@-
   28aca:	2d2d 2d2d      	movel %a5@(11565),%fp@-
   28ace:	2d2d 1717      	movel %a5@(5911),%fp@-
   28ad2:	2d17           	movel %sp@,%fp@-
   28ad4:	172d 2d17      	moveb %a5@(11543),%a3@-
   28ad8:	172d 2d2d      	moveb %a5@(11565),%a3@-
   28adc:	005e 5e5e      	oriw #24158,%fp@+
   28ae0:	5e5e           	addqw #7,%fp@+
   28ae2:	5e27           	addqb #7,%sp@-
   28ae4:	2d2d 2d2d      	movel %a5@(11565),%fp@-
   28ae8:	2d2d 2d2d      	movel %a5@(11565),%fp@-
   28aec:	2d2d 1717      	movel %a5@(5911),%fp@-
   28af0:	2d2d 1717      	movel %a5@(5911),%fp@-
   28af4:	2d17           	movel %sp@,%fp@-
   28af6:	172d 2d17      	moveb %a5@(11543),%a3@-
   28afa:	172d 1717      	moveb %a5@(5911),%a3@-
   28afe:	2d2d 1717      	movel %a5@(5911),%fp@-
   28b02:	2d2d 005e      	movel %a5@(94),%fp@-
   28b06:	5e5e           	addqw #7,%fp@+
   28b08:	5e5e           	addqw #7,%fp@+
   28b0a:	5e27           	addqb #7,%sp@-
   28b0c:	2d2d 2d2d      	movel %a5@(11565),%fp@-
   28b10:	2d2d 2d2d      	movel %a5@(11565),%fp@-
   28b14:	2d2d 1717      	movel %a5@(5911),%fp@-
   28b18:	2d2d 1717      	movel %a5@(5911),%fp@-
   28b1c:	2d17           	movel %sp@,%fp@-
   28b1e:	172d 2d17      	moveb %a5@(11543),%a3@-
   28b22:	172d 1717      	moveb %a5@(5911),%a3@-
   28b26:	2d2d 1717      	movel %a5@(5911),%fp@-
   28b2a:	2d2d 005e      	movel %a5@(94),%fp@-
   28b2e:	5e5e           	addqw #7,%fp@+
   28b30:	5e5e           	addqw #7,%fp@+
   28b32:	5e27           	addqb #7,%sp@-
   28b34:	2d2d 2d2d      	movel %a5@(11565),%fp@-
   28b38:	2029 2929      	movel %a1@(10537),%d0
   28b3c:	2929 2929      	movel %a1@(10537),%a4@-
   28b40:	2929 2929      	movel %a1@(10537),%a4@-
   28b44:	2929 2929      	movel %a1@(10537),%a4@-
   28b48:	2d2f 2d2d      	movel %sp@(11565),%fp@-
   28b4c:	232a 2c2c      	movel %a2@(11308),%a1@-
   28b50:	2d2d 2d2e      	movel %a5@(11566),%fp@-
   28b54:	2e2e 2e2e      	movel %fp@(11822),%d7
   28b58:	2e2f 2f2f      	movel %sp@(12079),%d7
   28b5c:	2f2f 2f2f      	movel %sp@(12079),%sp@-
   28b60:	2f2d 2d2d      	movel %a5@(11565),%sp@-
   28b64:	1717           	moveb %sp@,%a3@-
   28b66:	1717           	moveb %sp@,%a3@-
   28b68:	1717           	moveb %sp@,%a3@-
   28b6a:	1717           	moveb %sp@,%a3@-
   28b6c:	172d 1717      	moveb %a5@(5911),%a3@-
   28b70:	1717           	moveb %sp@,%a3@-
   28b72:	1717           	moveb %sp@,%a3@-
   28b74:	1717           	moveb %sp@,%a3@-
   28b76:	172d 2d2d      	moveb %a5@(11565),%a3@-
   28b7a:	2d17           	movel %sp@,%fp@-
   28b7c:	1717           	moveb %sp@,%a3@-
   28b7e:	2d2d 2d2d      	movel %a5@(11565),%fp@-
   28b82:	1717           	moveb %sp@,%a3@-
   28b84:	1717           	moveb %sp@,%a3@-
   28b86:	1717           	moveb %sp@,%a3@-
   28b88:	1717           	moveb %sp@,%a3@-
   28b8a:	172d 2d2d      	moveb %a5@(11565),%a3@-
   28b8e:	2d17           	movel %sp@,%fp@-
   28b90:	1717           	moveb %sp@,%a3@-
   28b92:	2d2d 2d2d      	movel %a5@(11565),%fp@-
   28b96:	1717           	moveb %sp@,%a3@-
   28b98:	172d 1717      	moveb %a5@(5911),%a3@-
   28b9c:	1717           	moveb %sp@,%a3@-
   28b9e:	1717           	moveb %sp@,%a3@-
   28ba0:	1717           	moveb %sp@,%a3@-
   28ba2:	172d 1717      	moveb %a5@(5911),%a3@-
   28ba6:	172d 2d17      	moveb %a5@(11543),%a3@-
   28baa:	1717           	moveb %sp@,%a3@-
   28bac:	172d 2d2d      	moveb %a5@(11565),%a3@-
   28bb0:	2d2d 2d2d      	movel %a5@(11565),%fp@-
   28bb4:	2d2d 2d2d      	movel %a5@(11565),%fp@-
   28bb8:	2d2d 2d2d      	movel %a5@(11565),%fp@-
   28bbc:	2d2d 2d2d      	movel %a5@(11565),%fp@-
   28bc0:	2d2d 2d2d      	movel %a5@(11565),%fp@-
   28bc4:	2d2d 2d2d      	movel %a5@(11565),%fp@-
   28bc8:	2d2d 2d2d      	movel %a5@(11565),%fp@-
   28bcc:	2d2d 2d2d      	movel %a5@(11565),%fp@-
   28bd0:	2d2d 2d2d      	movel %a5@(11565),%fp@-
   28bd4:	2d2d 2d2d      	movel %a5@(11565),%fp@-
   28bd8:	2d2d 2d2d      	movel %a5@(11565),%fp@-
   28bdc:	2d2d 2d2d      	movel %a5@(11565),%fp@-
   28be0:	2d34 2929 2929 	movel %a4@(00002929,%d2:l)@(00000000),%fp@-
   28be6:	2929 2929      	movel %a1@(10537),%a4@-
   28bea:	2929 2929      	movel %a1@(10537),%a4@-
   28bee:	2929 2929      	movel %a1@(10537),%a4@-
   28bf2:	2929 2929      	movel %a1@(10537),%a4@-
   28bf6:	2f2f 2d2d      	movel %sp@(11565),%sp@-
   28bfa:	2d2d 2d2d      	movel %a5@(11565),%fp@-
   28bfe:	2d2d 2d2d      	movel %a5@(11565),%fp@-
   28c02:	2d2d 2d17      	movel %a5@(11543),%fp@-
   28c06:	172d 2d2d      	moveb %a5@(11565),%a3@-
   28c0a:	2d2d 2d2d      	movel %a5@(11565),%fp@-
   28c0e:	2d2d 1717      	movel %a5@(5911),%fp@-
   28c12:	2d17           	movel %sp@,%fp@-
   28c14:	172d 2d17      	moveb %a5@(11543),%a3@-
   28c18:	172d 2d2d      	moveb %a5@(11565),%a3@-
   28c1c:	2f5e 5e5e      	movel %fp@+,%sp@(24158)
   28c20:	5e5e           	addqw #7,%fp@+
   28c22:	5e27           	addqb #7,%sp@-
   28c24:	2d2d 2d2d      	movel %a5@(11565),%fp@-
   28c28:	2d2d 2d2d      	movel %a5@(11565),%fp@-
   28c2c:	2d2d 1717      	movel %a5@(5911),%fp@-
   28c30:	2d2d 1717      	movel %a5@(5911),%fp@-
   28c34:	2d17           	movel %sp@,%fp@-
   28c36:	172d 2d17      	moveb %a5@(11543),%a3@-
   28c3a:	172d 1717      	moveb %a5@(5911),%a3@-
   28c3e:	2d2d 1717      	movel %a5@(5911),%fp@-
   28c42:	2d2d 2f5e      	movel %a5@(12126),%fp@-
   28c46:	5e5e           	addqw #7,%fp@+
   28c48:	5e5e           	addqw #7,%fp@+
   28c4a:	5e27           	addqb #7,%sp@-
   28c4c:	2d2d 2d2d      	movel %a5@(11565),%fp@-
   28c50:	2d2d 2d2d      	movel %a5@(11565),%fp@-
   28c54:	2d2d 1717      	movel %a5@(5911),%fp@-
   28c58:	2d2d 1717      	movel %a5@(5911),%fp@-
   28c5c:	2d17           	movel %sp@,%fp@-
   28c5e:	172d 2d17      	moveb %a5@(11543),%a3@-
   28c62:	172d 1717      	moveb %a5@(5911),%a3@-
   28c66:	2d2d 1717      	movel %a5@(5911),%fp@-
   28c6a:	2d2d 2f5e      	movel %a5@(12126),%fp@-
   28c6e:	5e5e           	addqw #7,%fp@+
   28c70:	5e5e           	addqw #7,%fp@+
   28c72:	5e27           	addqb #7,%sp@-
   28c74:	2d2d 2d2d      	movel %a5@(11565),%fp@-
   28c78:	2029 2929      	movel %a1@(10537),%d0
   28c7c:	2929 2929      	movel %a1@(10537),%a4@-
   28c80:	2929 2929      	movel %a1@(10537),%a4@-
   28c84:	2929 2929      	movel %a1@(10537),%a4@-
   28c88:	2c2f 2d2d      	movel %sp@(11565),%d6
   28c8c:	2f2f 2f2f      	movel %sp@(12079),%sp@-
   28c90:	2f2f 2f2f      	movel %sp@(12079),%sp@-
   28c94:	2f2f 2f2f      	movel %sp@(12079),%sp@-
   28c98:	2f2f 2f2f      	movel %sp@(12079),%sp@-
   28c9c:	2f2f 2f2f      	movel %sp@(12079),%sp@-
   28ca0:	2f2d 2d2d      	movel %a5@(11565),%sp@-
   28ca4:	2d17           	movel %sp@,%fp@-
   28ca6:	1717           	moveb %sp@,%a3@-
   28ca8:	1717           	moveb %sp@,%a3@-
   28caa:	1717           	moveb %sp@,%a3@-
   28cac:	2d2d 2d17      	movel %a5@(11543),%fp@-
   28cb0:	1717           	moveb %sp@,%a3@-
   28cb2:	1717           	moveb %sp@,%a3@-
   28cb4:	1717           	moveb %sp@,%a3@-
   28cb6:	2d2d 2d2d      	movel %a5@(11565),%fp@-
   28cba:	2d17           	movel %sp@,%fp@-
   28cbc:	1717           	moveb %sp@,%a3@-
   28cbe:	2d2d 2d2d      	movel %a5@(11565),%fp@-
   28cc2:	2d17           	movel %sp@,%fp@-
   28cc4:	1717           	moveb %sp@,%a3@-
   28cc6:	1717           	moveb %sp@,%a3@-
   28cc8:	1717           	moveb %sp@,%a3@-
   28cca:	2d2d 2d2d      	movel %a5@(11565),%fp@-
   28cce:	2d17           	movel %sp@,%fp@-
   28cd0:	1717           	moveb %sp@,%a3@-
   28cd2:	2d2d 2d2d      	movel %a5@(11565),%fp@-
   28cd6:	1717           	moveb %sp@,%a3@-
   28cd8:	172d 2d17      	moveb %a5@(11543),%a3@-
   28cdc:	1717           	moveb %sp@,%a3@-
   28cde:	1717           	moveb %sp@,%a3@-
   28ce0:	1717           	moveb %sp@,%a3@-
   28ce2:	2d2d 1717      	movel %a5@(5911),%fp@-
   28ce6:	172d 2d2d      	moveb %a5@(11565),%a3@-
   28cea:	1717           	moveb %sp@,%a3@-
   28cec:	1717           	moveb %sp@,%a3@-
   28cee:	2d2d 2d2d      	movel %a5@(11565),%fp@-
   28cf2:	2d2d 2d2d      	movel %a5@(11565),%fp@-
   28cf6:	2d2d 2d2d      	movel %a5@(11565),%fp@-
   28cfa:	2d2d 2d2d      	movel %a5@(11565),%fp@-
   28cfe:	2d2d 2d2d      	movel %a5@(11565),%fp@-
   28d02:	2d2d 2d2d      	movel %a5@(11565),%fp@-
   28d06:	2d2d 2d2d      	movel %a5@(11565),%fp@-
   28d0a:	2d2d 2d2d      	movel %a5@(11565),%fp@-
   28d0e:	2d2d 2d2d      	movel %a5@(11565),%fp@-
   28d12:	2d2d 2d2d      	movel %a5@(11565),%fp@-
   28d16:	2d2d 2d2d      	movel %a5@(11565),%fp@-
   28d1a:	2d2d 2d2d      	movel %a5@(11565),%fp@-
   28d1e:	2d2d 2d34      	movel %a5@(11572),%fp@-
   28d22:	2929 2929      	movel %a1@(10537),%a4@-
   28d26:	2929 2929      	movel %a1@(10537),%a4@-
   28d2a:	2929 2929      	movel %a1@(10537),%a4@-
   28d2e:	2929 2929      	movel %a1@(10537),%a4@-
   28d32:	2929 2929      	movel %a1@(10537),%a4@-
   28d36:	2f2f 2d2d      	movel %sp@(11565),%sp@-
   28d3a:	2d2d 2d2d      	movel %a5@(11565),%fp@-
   28d3e:	2d2d 2d2d      	movel %a5@(11565),%fp@-
   28d42:	2d2d 2d17      	movel %a5@(11543),%fp@-
   28d46:	1717           	moveb %sp@,%a3@-
   28d48:	1717           	moveb %sp@,%a3@-
   28d4a:	172d 1717      	moveb %a5@(5911),%a3@-
   28d4e:	1717           	moveb %sp@,%a3@-
   28d50:	172d 2d2d      	moveb %a5@(11565),%a3@-
   28d54:	1717           	moveb %sp@,%a3@-
   28d56:	1717           	moveb %sp@,%a3@-
   28d58:	2d2d 2d2d      	movel %a5@(11565),%fp@-
   28d5c:	2f5e 5e5e      	movel %fp@+,%sp@(24158)
   28d60:	5e5e           	addqw #7,%fp@+
   28d62:	5e25           	addqb #7,%a5@-
   28d64:	2d2d 2d2d      	movel %a5@(11565),%fp@-
   28d68:	2d2d 2d2d      	movel %a5@(11565),%fp@-
   28d6c:	2d2d 2d17      	movel %a5@(11543),%fp@-
   28d70:	1717           	moveb %sp@,%a3@-
   28d72:	172d 2d2d      	moveb %a5@(11565),%a3@-
   28d76:	1717           	moveb %sp@,%a3@-
   28d78:	1717           	moveb %sp@,%a3@-
   28d7a:	2d2d 2d17      	movel %a5@(11543),%fp@-
   28d7e:	1717           	moveb %sp@,%a3@-
   28d80:	172d 2d2d      	moveb %a5@(11565),%a3@-
   28d84:	2f5e 5e5e      	movel %fp@+,%sp@(24158)
   28d88:	5e5e           	addqw #7,%fp@+
   28d8a:	5e25           	addqb #7,%a5@-
   28d8c:	2d2d 2d2d      	movel %a5@(11565),%fp@-
   28d90:	2d2d 2d2d      	movel %a5@(11565),%fp@-
   28d94:	2d2d 2d17      	movel %a5@(11543),%fp@-
   28d98:	1717           	moveb %sp@,%a3@-
   28d9a:	172d 2d2d      	moveb %a5@(11565),%a3@-
   28d9e:	1717           	moveb %sp@,%a3@-
   28da0:	1717           	moveb %sp@,%a3@-
   28da2:	2d2d 2d17      	movel %a5@(11543),%fp@-
   28da6:	1717           	moveb %sp@,%a3@-
   28da8:	172d 2d2d      	moveb %a5@(11565),%a3@-
   28dac:	2f5e 5e5e      	movel %fp@+,%sp@(24158)
   28db0:	5e5e           	addqw #7,%fp@+
   28db2:	5e25           	addqb #7,%a5@-
   28db4:	2d2d 2d2d      	movel %a5@(11565),%fp@-
   28db8:	3629 2929      	movew %a1@(10537),%d3
   28dbc:	2929 2929      	movel %a1@(10537),%a4@-
   28dc0:	2929 2929      	movel %a1@(10537),%a4@-
   28dc4:	2929 2929      	movel %a1@(10537),%a4@-
   28dc8:	2c2f 2d2d      	movel %sp@(11565),%d6
   28dcc:	2d2d 2d2d      	movel %a5@(11565),%fp@-
   28dd0:	2d2d 2d2d      	movel %a5@(11565),%fp@-
   28dd4:	2d2d 2d2d      	movel %a5@(11565),%fp@-
   28dd8:	2d2d 2d2d      	movel %a5@(11565),%fp@-
   28ddc:	2d2d 2d2d      	movel %a5@(11565),%fp@-
   28de0:	2d2d 2d2d      	movel %a5@(11565),%fp@-
   28de4:	2d2d 2d2d      	movel %a5@(11565),%fp@-
   28de8:	2d2d 2d2d      	movel %a5@(11565),%fp@-
   28dec:	2d2d 2d2d      	movel %a5@(11565),%fp@-
   28df0:	2d2d 2d2d      	movel %a5@(11565),%fp@-
   28df4:	2d2d 2d2d      	movel %a5@(11565),%fp@-
   28df8:	2d2d 2d2d      	movel %a5@(11565),%fp@-
   28dfc:	2d2d 2d2d      	movel %a5@(11565),%fp@-
   28e00:	2d2d 2d2d      	movel %a5@(11565),%fp@-
   28e04:	2d2d 2d2d      	movel %a5@(11565),%fp@-
   28e08:	2d2d 2d2d      	movel %a5@(11565),%fp@-
   28e0c:	2d2d 2d2d      	movel %a5@(11565),%fp@-
   28e10:	2d2d 2d2d      	movel %a5@(11565),%fp@-
   28e14:	2d2d 2d2d      	movel %a5@(11565),%fp@-
   28e18:	2d2d 2d2d      	movel %a5@(11565),%fp@-
   28e1c:	2d2d 2d2d      	movel %a5@(11565),%fp@-
   28e20:	2d2d 2d2d      	movel %a5@(11565),%fp@-
   28e24:	2d2d 2d2d      	movel %a5@(11565),%fp@-
   28e28:	2d2d 2d2d      	movel %a5@(11565),%fp@-
   28e2c:	2d2d 2d2d      	movel %a5@(11565),%fp@-
   28e30:	2d2d 2d2d      	movel %a5@(11565),%fp@-
   28e34:	2d2d 2d2d      	movel %a5@(11565),%fp@-
   28e38:	2d2d 2d2d      	movel %a5@(11565),%fp@-
   28e3c:	2d2d 2d2d      	movel %a5@(11565),%fp@-
   28e40:	2d2d 2d2d      	movel %a5@(11565),%fp@-
   28e44:	2d2d 2d2d      	movel %a5@(11565),%fp@-
   28e48:	2d2d 2d2d      	movel %a5@(11565),%fp@-
   28e4c:	2d2d 2d2d      	movel %a5@(11565),%fp@-
   28e50:	2d2d 2d2d      	movel %a5@(11565),%fp@-
   28e54:	2d2d 2d2d      	movel %a5@(11565),%fp@-
   28e58:	2d2d 2d2d      	movel %a5@(11565),%fp@-
   28e5c:	2d2d 2d2d      	movel %a5@(11565),%fp@-
   28e60:	2d34 2929 2929 	movel %a4@(00002929,%d2:l)@(00000000),%fp@-
   28e66:	2929 2929      	movel %a1@(10537),%a4@-
   28e6a:	2929 2929      	movel %a1@(10537),%a4@-
   28e6e:	2929 2929      	movel %a1@(10537),%a4@-
   28e72:	2929 2929      	movel %a1@(10537),%a4@-
   28e76:	2f2f 2d2d      	movel %sp@(11565),%sp@-
   28e7a:	2d2d 2d2d      	movel %a5@(11565),%fp@-
   28e7e:	2d2d 2d2d      	movel %a5@(11565),%fp@-
   28e82:	2d2d 2d2d      	movel %a5@(11565),%fp@-
   28e86:	2d2d 2d2d      	movel %a5@(11565),%fp@-
   28e8a:	2d2d 2d2d      	movel %a5@(11565),%fp@-
   28e8e:	2d2d 2d2d      	movel %a5@(11565),%fp@-
   28e92:	2d2d 2d2d      	movel %a5@(11565),%fp@-
   28e96:	2d2d 2d2d      	movel %a5@(11565),%fp@-
   28e9a:	2d2d 2b29      	movel %a5@(11049),%fp@-
   28e9e:	2727           	movel %sp@-,%a3@-
   28ea0:	2727           	movel %sp@-,%a3@-
   28ea2:	2522           	movel %a2@-,%a2@-
   28ea4:	2d2d 2d2d      	movel %a5@(11565),%fp@-
   28ea8:	2d2d 2d2d      	movel %a5@(11565),%fp@-
   28eac:	2d2d 2d2d      	movel %a5@(11565),%fp@-
   28eb0:	2d2d 2d2d      	movel %a5@(11565),%fp@-
   28eb4:	2d2d 2d2d      	movel %a5@(11565),%fp@-
   28eb8:	2d2d 2d2d      	movel %a5@(11565),%fp@-
   28ebc:	2d2d 2d2d      	movel %a5@(11565),%fp@-
   28ec0:	2d2d 2d2d      	movel %a5@(11565),%fp@-
   28ec4:	2b29 2727      	movel %a1@(10023),%a5@-
   28ec8:	2727           	movel %sp@-,%a3@-
   28eca:	2522           	movel %a2@-,%a2@-
   28ecc:	2d2d 2d2d      	movel %a5@(11565),%fp@-
   28ed0:	2d2d 2d2d      	movel %a5@(11565),%fp@-
   28ed4:	2d2d 2d2d      	movel %a5@(11565),%fp@-
   28ed8:	2d2d 2d2d      	movel %a5@(11565),%fp@-
   28edc:	2d2d 2d2d      	movel %a5@(11565),%fp@-
   28ee0:	2d2d 2d2d      	movel %a5@(11565),%fp@-
   28ee4:	2d2d 2d2d      	movel %a5@(11565),%fp@-
   28ee8:	2d2d 2d2d      	movel %a5@(11565),%fp@-
   28eec:	2b29 2727      	movel %a1@(10023),%a5@-
   28ef0:	2727           	movel %sp@-,%a3@-
   28ef2:	2522           	movel %a2@-,%a2@-
   28ef4:	2d2d 2d2d      	movel %a5@(11565),%fp@-
   28ef8:	3629 2929      	movew %a1@(10537),%d3
   28efc:	2929 2929      	movel %a1@(10537),%a4@-
   28f00:	2929 2929      	movel %a1@(10537),%a4@-
   28f04:	2929 2929      	movel %a1@(10537),%a4@-
   28f08:	2c2f 2d2d      	movel %sp@(11565),%d6
   28f0c:	2d2d 2d2d      	movel %a5@(11565),%fp@-
   28f10:	2d2d 2d2d      	movel %a5@(11565),%fp@-
   28f14:	2d2d 2d2d      	movel %a5@(11565),%fp@-
   28f18:	2d2d 2d2d      	movel %a5@(11565),%fp@-
   28f1c:	2d2d 2d2d      	movel %a5@(11565),%fp@-
   28f20:	2d2d 2d2d      	movel %a5@(11565),%fp@-
   28f24:	2d2d 2d2d      	movel %a5@(11565),%fp@-
   28f28:	2d2d 2d2d      	movel %a5@(11565),%fp@-
   28f2c:	2d2d 2d2d      	movel %a5@(11565),%fp@-
   28f30:	2d2d 2d2d      	movel %a5@(11565),%fp@-
   28f34:	2d2d 2d2d      	movel %a5@(11565),%fp@-
   28f38:	2d2d 2d2d      	movel %a5@(11565),%fp@-
   28f3c:	2d2d 2d2d      	movel %a5@(11565),%fp@-
   28f40:	2d2d 2d2d      	movel %a5@(11565),%fp@-
   28f44:	2d2d 2d2d      	movel %a5@(11565),%fp@-
   28f48:	2d2d 2d2d      	movel %a5@(11565),%fp@-
   28f4c:	2d2d 2d2d      	movel %a5@(11565),%fp@-
   28f50:	2d2d 2d2d      	movel %a5@(11565),%fp@-
   28f54:	2d2d 2d2d      	movel %a5@(11565),%fp@-
   28f58:	2d2d 2d2d      	movel %a5@(11565),%fp@-
   28f5c:	2d2d 2d2d      	movel %a5@(11565),%fp@-
   28f60:	2d2d 2d2d      	movel %a5@(11565),%fp@-
   28f64:	2d2d 2d2d      	movel %a5@(11565),%fp@-
   28f68:	2d2d 2d2d      	movel %a5@(11565),%fp@-
   28f6c:	2d2d 2d2d      	movel %a5@(11565),%fp@-
   28f70:	2d2d 2d2d      	movel %a5@(11565),%fp@-
   28f74:	2d2d 2d2d      	movel %a5@(11565),%fp@-
   28f78:	2d2d 2d2d      	movel %a5@(11565),%fp@-
   28f7c:	2d2d 2d2d      	movel %a5@(11565),%fp@-
   28f80:	2d2d 2d2d      	movel %a5@(11565),%fp@-
   28f84:	2d2d 2d2d      	movel %a5@(11565),%fp@-
   28f88:	2d2d 2d2d      	movel %a5@(11565),%fp@-
   28f8c:	2d2d 2d2d      	movel %a5@(11565),%fp@-
   28f90:	2d2d 2d2d      	movel %a5@(11565),%fp@-
   28f94:	2d2d 2d2d      	movel %a5@(11565),%fp@-
   28f98:	2d2d 2d2d      	movel %a5@(11565),%fp@-
   28f9c:	2d2d 2d2d      	movel %a5@(11565),%fp@-
   28fa0:	2d33 2929 2929 	movel %a3@(00002929,%d2:l)@(00000000),%fp@-
   28fa6:	2929 2929      	movel %a1@(10537),%a4@-
   28faa:	2929 2929      	movel %a1@(10537),%a4@-
   28fae:	2929 2929      	movel %a1@(10537),%a4@-
   28fb2:	2929 2929      	movel %a1@(10537),%a4@-
   28fb6:	2f2f 2d2d      	movel %sp@(11565),%sp@-
   28fba:	2d2d 2d2d      	movel %a5@(11565),%fp@-
   28fbe:	2d2d 2d2d      	movel %a5@(11565),%fp@-
   28fc2:	2d2d 2d2d      	movel %a5@(11565),%fp@-
   28fc6:	2d2d 2d2d      	movel %a5@(11565),%fp@-
   28fca:	2d2d 2d2d      	movel %a5@(11565),%fp@-
   28fce:	2d2d 2d2d      	movel %a5@(11565),%fp@-
   28fd2:	2d2d 2d2d      	movel %a5@(11565),%fp@-
   28fd6:	2d2d 2d2d      	movel %a5@(11565),%fp@-
   28fda:	2d2d 2d2d      	movel %a5@(11565),%fp@-
   28fde:	2d2d 2d2d      	movel %a5@(11565),%fp@-
   28fe2:	2d2d 2d2d      	movel %a5@(11565),%fp@-
   28fe6:	2d2d 2d2d      	movel %a5@(11565),%fp@-
   28fea:	2d2d 2d2d      	movel %a5@(11565),%fp@-
   28fee:	2d2d 2d2d      	movel %a5@(11565),%fp@-
   28ff2:	2d2d 2d2d      	movel %a5@(11565),%fp@-
   28ff6:	2d2d 2d2d      	movel %a5@(11565),%fp@-
   28ffa:	2d2d 2d2d      	movel %a5@(11565),%fp@-
   28ffe:	2d2d 2d2d      	movel %a5@(11565),%fp@-
   29002:	2d2d 2d2d      	movel %a5@(11565),%fp@-
   29006:	2d2d 2d2d      	movel %a5@(11565),%fp@-
   2900a:	2d2d 2d2d      	movel %a5@(11565),%fp@-
   2900e:	2d2d 2d2d      	movel %a5@(11565),%fp@-
   29012:	2d2d 2d2d      	movel %a5@(11565),%fp@-
   29016:	2d2d 2d2d      	movel %a5@(11565),%fp@-
   2901a:	2d2d 2d2d      	movel %a5@(11565),%fp@-
   2901e:	2d2d 2d2d      	movel %a5@(11565),%fp@-
   29022:	2d2d 2d2d      	movel %a5@(11565),%fp@-
   29026:	2d2d 2d2d      	movel %a5@(11565),%fp@-
   2902a:	2d2d 2d2d      	movel %a5@(11565),%fp@-
   2902e:	2d2d 2d2d      	movel %a5@(11565),%fp@-
   29032:	2d2d 2d2d      	movel %a5@(11565),%fp@-
   29036:	2d2d 3629      	movel %a5@(13865),%fp@-
   2903a:	2929 2929      	movel %a1@(10537),%a4@-
   2903e:	2929 2929      	movel %a1@(10537),%a4@-
   29042:	2929 2929      	movel %a1@(10537),%a4@-
   29046:	2929 2c2f      	movel %a1@(11311),%a4@-
   2904a:	2d2d 2d2d      	movel %a5@(11565),%fp@-
   2904e:	2d2d 2d2d      	movel %a5@(11565),%fp@-
   29052:	2d2d 2d2d      	movel %a5@(11565),%fp@-
   29056:	2d2d 2d2d      	movel %a5@(11565),%fp@-
   2905a:	2d2d 2d2d      	movel %a5@(11565),%fp@-
   2905e:	2d2d 2d2d      	movel %a5@(11565),%fp@-
   29062:	2d2d 2d2d      	movel %a5@(11565),%fp@-
   29066:	2d2d 2d2d      	movel %a5@(11565),%fp@-
   2906a:	2d2d 2d2d      	movel %a5@(11565),%fp@-
   2906e:	2d2d 2d2d      	movel %a5@(11565),%fp@-
   29072:	2d2d 2d2d      	movel %a5@(11565),%fp@-
   29076:	2d2d 2d2d      	movel %a5@(11565),%fp@-
   2907a:	2d2d 2d2d      	movel %a5@(11565),%fp@-
   2907e:	2d2d 2d2d      	movel %a5@(11565),%fp@-
   29082:	2d2d 2d2d      	movel %a5@(11565),%fp@-
   29086:	2d2d 2d2d      	movel %a5@(11565),%fp@-
   2908a:	2d2d 2d2d      	movel %a5@(11565),%fp@-
   2908e:	2d2d 2d2d      	movel %a5@(11565),%fp@-
   29092:	2d2d 2d2d      	movel %a5@(11565),%fp@-
   29096:	2d2d 2d2d      	movel %a5@(11565),%fp@-
   2909a:	2d2d 2d2d      	movel %a5@(11565),%fp@-
   2909e:	2d2d 2d2d      	movel %a5@(11565),%fp@-
   290a2:	2d2d 2d2d      	movel %a5@(11565),%fp@-
   290a6:	2d2d 2d2d      	movel %a5@(11565),%fp@-
   290aa:	2d2d 2d2d      	movel %a5@(11565),%fp@-
   290ae:	2d2d 2d2d      	movel %a5@(11565),%fp@-
   290b2:	2d2d 2d2d      	movel %a5@(11565),%fp@-
   290b6:	2d2d 2d2d      	movel %a5@(11565),%fp@-
   290ba:	2d2d 2d2d      	movel %a5@(11565),%fp@-
   290be:	2d2d 2d2d      	movel %a5@(11565),%fp@-
   290c2:	2d2d 2d2d      	movel %a5@(11565),%fp@-
   290c6:	2d2d 2d2d      	movel %a5@(11565),%fp@-
   290ca:	2d2d 2d2d      	movel %a5@(11565),%fp@-
   290ce:	2d2d 2d2d      	movel %a5@(11565),%fp@-
   290d2:	2d2d 2d2d      	movel %a5@(11565),%fp@-
   290d6:	2d2d 2d2d      	movel %a5@(11565),%fp@-
   290da:	2d2d 2d2d      	movel %a5@(11565),%fp@-
   290de:	2d2d 2d33      	movel %a5@(11571),%fp@-
   290e2:	2929 2929      	movel %a1@(10537),%a4@-
   290e6:	2929 2929      	movel %a1@(10537),%a4@-
   290ea:	2929 2929      	movel %a1@(10537),%a4@-
   290ee:	2929 2929      	movel %a1@(10537),%a4@-
   290f2:	2929 2929      	movel %a1@(10537),%a4@-
   290f6:	2f2f 2d2d      	movel %sp@(11565),%sp@-
   290fa:	2d2d 2d2d      	movel %a5@(11565),%fp@-
   290fe:	2d2d 2d2d      	movel %a5@(11565),%fp@-
   29102:	2d2d 2d2d      	movel %a5@(11565),%fp@-
   29106:	1717           	moveb %sp@,%a3@-
   29108:	1717           	moveb %sp@,%a3@-
   2910a:	2d2d 2d17      	movel %a5@(11543),%fp@-
   2910e:	1717           	moveb %sp@,%a3@-
   29110:	172d 2d17      	moveb %a5@(11543),%a3@-
   29114:	172d 2d17      	moveb %a5@(11543),%a3@-
   29118:	172d 2d2d      	moveb %a5@(11565),%a3@-
   2911c:	0000 0000      	orib #0,%d0
   29120:	002f 2f2b 2d2d 	orib #43,%sp@(11565)
   29126:	2d2d 2d2d      	movel %a5@(11565),%fp@-
   2912a:	2d2d 2d2d      	movel %a5@(11565),%fp@-
   2912e:	1717           	moveb %sp@,%a3@-
   29130:	1717           	moveb %sp@,%a3@-
   29132:	1717           	moveb %sp@,%a3@-
   29134:	2d2d 1717      	movel %a5@(5911),%fp@-
   29138:	1717           	moveb %sp@,%a3@-
   2913a:	2d2d 2d17      	movel %a5@(11543),%fp@-
   2913e:	1717           	moveb %sp@,%a3@-
   29140:	172d 2d2d      	moveb %a5@(11565),%a3@-
   29144:	0000 0000      	orib #0,%d0
   29148:	002f 2f2b 2d2d 	orib #43,%sp@(11565)
   2914e:	2d2d 2d2d      	movel %a5@(11565),%fp@-
   29152:	2d2d 2d2d      	movel %a5@(11565),%fp@-
   29156:	1717           	moveb %sp@,%a3@-
   29158:	1717           	moveb %sp@,%a3@-
   2915a:	1717           	moveb %sp@,%a3@-
   2915c:	2d2d 1717      	movel %a5@(5911),%fp@-
   29160:	1717           	moveb %sp@,%a3@-
   29162:	2d2d 2d17      	movel %a5@(11543),%fp@-
   29166:	1717           	moveb %sp@,%a3@-
   29168:	172d 2d2d      	moveb %a5@(11565),%a3@-
   2916c:	0000 0000      	orib #0,%d0
   29170:	002f 2f2b 2d2d 	orib #43,%sp@(11565)
   29176:	2d2d 3629      	movel %a5@(13865),%fp@-
   2917a:	2929 2929      	movel %a1@(10537),%a4@-
   2917e:	2929 2929      	movel %a1@(10537),%a4@-
   29182:	2929 2929      	movel %a1@(10537),%a4@-
   29186:	2929 2824      	movel %a1@(10276),%a4@-
   2918a:	2424           	movel %a4@-,%d2
   2918c:	2424           	movel %a4@-,%d2
   2918e:	2424           	movel %a4@-,%d2
   29190:	2424           	movel %a4@-,%d2
   29192:	2424           	movel %a4@-,%d2
   29194:	2424           	movel %a4@-,%d2
   29196:	2423           	movel %a3@-,%d2
   29198:	2323           	movel %a3@-,%a1@-
   2919a:	2323           	movel %a3@-,%a1@-
   2919c:	2323           	movel %a3@-,%a1@-
   2919e:	2323           	movel %a3@-,%a1@-
   291a0:	2323           	movel %a3@-,%a1@-
   291a2:	2222           	movel %a2@-,%d1
   291a4:	2222           	movel %a2@-,%d1
   291a6:	2222           	movel %a2@-,%d1
   291a8:	2222           	movel %a2@-,%d1
   291aa:	2222           	movel %a2@-,%d1
   291ac:	2222           	movel %a2@-,%d1
   291ae:	2222           	movel %a2@-,%d1
   291b0:	2222           	movel %a2@-,%d1
   291b2:	2222           	movel %a2@-,%d1
   291b4:	2222           	movel %a2@-,%d1
   291b6:	2222           	movel %a2@-,%d1
   291b8:	2121           	movel %a1@-,%a0@-
   291ba:	2121           	movel %a1@-,%a0@-
   291bc:	2121           	movel %a1@-,%a0@-
   291be:	2121           	movel %a1@-,%a0@-
   291c0:	2121           	movel %a1@-,%a0@-
   291c2:	2121           	movel %a1@-,%a0@-
   291c4:	2121           	movel %a1@-,%a0@-
   291c6:	2121           	movel %a1@-,%a0@-
   291c8:	2121           	movel %a1@-,%a0@-
   291ca:	2121           	movel %a1@-,%a0@-
   291cc:	2121           	movel %a1@-,%a0@-
   291ce:	2121           	movel %a1@-,%a0@-
   291d0:	2121           	movel %a1@-,%a0@-
   291d2:	2121           	movel %a1@-,%a0@-
   291d4:	2121           	movel %a1@-,%a0@-
   291d6:	2121           	movel %a1@-,%a0@-
   291d8:	2121           	movel %a1@-,%a0@-
   291da:	2121           	movel %a1@-,%a0@-
   291dc:	2121           	movel %a1@-,%a0@-
   291de:	2121           	movel %a1@-,%a0@-
   291e0:	2121           	movel %a1@-,%a0@-
   291e2:	2121           	movel %a1@-,%a0@-
   291e4:	2121           	movel %a1@-,%a0@-
   291e6:	2121           	movel %a1@-,%a0@-
   291e8:	2121           	movel %a1@-,%a0@-
   291ea:	2121           	movel %a1@-,%a0@-
   291ec:	3737 3737 3737 	movew %sp@(37373737)@(37373737,%d3:w:8),%a3@-
   291f2:	3737 3737 3737 
   291f8:	3736 3636      	movew %fp@(00000036,%d3:w:8),%a3@-
   291fc:	3636 3636      	movew %fp@(00000036,%d3:w:8),%d3
   29200:	3636 3635      	movew %fp@(00000035,%d3:w:8),%d3
   29204:	3535 3535 3535 	movew %a5@(35353535)@(00000000,%d3:w:4),%a2@-
   2920a:	3535 
   2920c:	3535 3535 350c 	movew %a5@(350c0c34)@(00000000,%d3:w:4),%a2@-
   29212:	0c34 
   29214:	3434 3434      	movew %a4@(00000034,%d3:w:4),%d2
   29218:	3434 3434      	movew %a4@(00000034,%d3:w:4),%d2
   2921c:	3434 3433      	movew %a4@(00000033,%d3:w:4),%d2
   29220:	3332 2929 2929 	movew %a2@(00002929,%d2:l)@(00000000),%a1@-
   29226:	2929 2929      	movel %a1@(10537),%a4@-
   2922a:	2929 2929      	movel %a1@(10537),%a4@-
   2922e:	2929 2929      	movel %a1@(10537),%a4@-
   29232:	2929 2929      	movel %a1@(10537),%a4@-
   29236:	2f2f 2d2d      	movel %sp@(11565),%sp@-
   2923a:	2d2d 2d2d      	movel %a5@(11565),%fp@-
   2923e:	2d2d 2d2d      	movel %a5@(11565),%fp@-
   29242:	2d2d 2d17      	movel %a5@(11543),%fp@-
   29246:	172d 2d17      	moveb %a5@(11543),%a3@-
   2924a:	172d 1717      	moveb %a5@(5911),%a3@-
   2924e:	2d2d 1717      	movel %a5@(5911),%fp@-
   29252:	2d17           	movel %sp@,%fp@-
   29254:	172d 2d17      	moveb %a5@(11543),%a3@-
   29258:	172d 2d2d      	moveb %a5@(11565),%a3@-
   2925c:	0060 6060      	oriw #24672,%a0@-
   29260:	6060           	bras 292c2 <picData+0x926e>
   29262:	6029           	bras 2928d <picData+0x9239>
   29264:	2d2d 2d2d      	movel %a5@(11565),%fp@-
   29268:	2d2d 2d2d      	movel %a5@(11565),%fp@-
   2926c:	2d2d 2d2d      	movel %a5@(11565),%fp@-
   29270:	2d2d 1717      	movel %a5@(5911),%fp@-
   29274:	2d17           	movel %sp@,%fp@-
   29276:	172d 2d17      	moveb %a5@(11543),%a3@-
   2927a:	172d 1717      	moveb %a5@(5911),%a3@-
   2927e:	2d2d 1717      	movel %a5@(5911),%fp@-
   29282:	2d2d 0060      	movel %a5@(96),%fp@-
   29286:	6060           	bras 292e8 <picData+0x9294>
   29288:	6060           	bras 292ea <picData+0x9296>
   2928a:	6029           	bras 292b5 <picData+0x9261>
   2928c:	2d2d 2d2d      	movel %a5@(11565),%fp@-
   29290:	2d2d 2d2d      	movel %a5@(11565),%fp@-
   29294:	2d2d 2d2d      	movel %a5@(11565),%fp@-
   29298:	2d2d 1717      	movel %a5@(5911),%fp@-
   2929c:	2d17           	movel %sp@,%fp@-
   2929e:	172d 2d17      	moveb %a5@(11543),%a3@-
   292a2:	172d 1717      	moveb %a5@(5911),%a3@-
   292a6:	2d2d 1717      	movel %a5@(5911),%fp@-
   292aa:	2d2d 0060      	movel %a5@(96),%fp@-
   292ae:	6060           	bras 29310 <picData+0x92bc>
   292b0:	6060           	bras 29312 <picData+0x92be>
   292b2:	6029           	bras 292dd <picData+0x9289>
   292b4:	2d2d 2d2d      	movel %a5@(11565),%fp@-
   292b8:	3629 2929      	movew %a1@(10537),%d3
   292bc:	2929 2929      	movel %a1@(10537),%a4@-
   292c0:	2929 2929      	movel %a1@(10537),%a4@-
   292c4:	2929 2929      	movel %a1@(10537),%a4@-
   292c8:	2929 2929      	movel %a1@(10537),%a4@-
   292cc:	2929 2929      	movel %a1@(10537),%a4@-
   292d0:	2929 2929      	movel %a1@(10537),%a4@-
   292d4:	2929 2929      	movel %a1@(10537),%a4@-
   292d8:	2929 2929      	movel %a1@(10537),%a4@-
   292dc:	2929 2929      	movel %a1@(10537),%a4@-
   292e0:	2929 2929      	movel %a1@(10537),%a4@-
   292e4:	2929 2929      	movel %a1@(10537),%a4@-
   292e8:	2929 2929      	movel %a1@(10537),%a4@-
   292ec:	2929 2929      	movel %a1@(10537),%a4@-
   292f0:	2929 2929      	movel %a1@(10537),%a4@-
   292f4:	2929 2929      	movel %a1@(10537),%a4@-
   292f8:	2929 2929      	movel %a1@(10537),%a4@-
   292fc:	2929 2929      	movel %a1@(10537),%a4@-
   29300:	2929 2929      	movel %a1@(10537),%a4@-
   29304:	2929 2929      	movel %a1@(10537),%a4@-
   29308:	2929 2929      	movel %a1@(10537),%a4@-
   2930c:	2929 2929      	movel %a1@(10537),%a4@-
   29310:	2929 2929      	movel %a1@(10537),%a4@-
   29314:	2929 2929      	movel %a1@(10537),%a4@-
   29318:	2929 2929      	movel %a1@(10537),%a4@-
   2931c:	2929 2929      	movel %a1@(10537),%a4@-
   29320:	2929 2929      	movel %a1@(10537),%a4@-
   29324:	2929 2929      	movel %a1@(10537),%a4@-
   29328:	2929 2929      	movel %a1@(10537),%a4@-
   2932c:	2929 2929      	movel %a1@(10537),%a4@-
   29330:	2929 2929      	movel %a1@(10537),%a4@-
   29334:	2929 2929      	movel %a1@(10537),%a4@-
   29338:	2929 2929      	movel %a1@(10537),%a4@-
   2933c:	2929 2929      	movel %a1@(10537),%a4@-
   29340:	2929 2929      	movel %a1@(10537),%a4@-
   29344:	2929 2929      	movel %a1@(10537),%a4@-
   29348:	2929 2929      	movel %a1@(10537),%a4@-
   2934c:	2929 2929      	movel %a1@(10537),%a4@-
   29350:	2929 2929      	movel %a1@(10537),%a4@-
   29354:	2929 2929      	movel %a1@(10537),%a4@-
   29358:	2929 2929      	movel %a1@(10537),%a4@-
   2935c:	2929 2929      	movel %a1@(10537),%a4@-
   29360:	2929 2929      	movel %a1@(10537),%a4@-
   29364:	2929 2929      	movel %a1@(10537),%a4@-
   29368:	2929 2929      	movel %a1@(10537),%a4@-
   2936c:	2929 2929      	movel %a1@(10537),%a4@-
   29370:	2929 2929      	movel %a1@(10537),%a4@-
   29374:	2929 2f2f      	movel %a1@(12079),%a4@-
   29378:	2d2d 2d2d      	movel %a5@(11565),%fp@-
   2937c:	2d2d 2d2d      	movel %a5@(11565),%fp@-
   29380:	2d2d 2d2d      	movel %a5@(11565),%fp@-
   29384:	2d2d 2d2d      	movel %a5@(11565),%fp@-
   29388:	2d17           	movel %sp@,%fp@-
   2938a:	172d 2d2d      	moveb %a5@(11565),%a3@-
   2938e:	2d2d 1717      	movel %a5@(5911),%fp@-
   29392:	2d17           	movel %sp@,%fp@-
   29394:	1717           	moveb %sp@,%a3@-
   29396:	1717           	moveb %sp@,%a3@-
   29398:	172d 2d2d      	moveb %a5@(11565),%a3@-
   2939c:	0060 6060      	oriw #24672,%a0@-
   293a0:	6060           	bras 29402 <picData+0x93ae>
   293a2:	6027           	bras 293cb <picData+0x9377>
   293a4:	2d2d 2d2d      	movel %a5@(11565),%fp@-
   293a8:	2d2d 2d2d      	movel %a5@(11565),%fp@-
   293ac:	2d2d 2d2d      	movel %a5@(11565),%fp@-
   293b0:	2d17           	movel %sp@,%fp@-
   293b2:	172d 2d17      	moveb %a5@(11543),%a3@-
   293b6:	172d 2d17      	moveb %a5@(11543),%a3@-
   293ba:	172d 1717      	moveb %a5@(5911),%a3@-
   293be:	2d2d 1717      	movel %a5@(5911),%fp@-
   293c2:	2d2d 0060      	movel %a5@(96),%fp@-
   293c6:	6060           	bras 29428 <picData+0x93d4>
   293c8:	6060           	bras 2942a <picData+0x93d6>
   293ca:	6027           	bras 293f3 <picData+0x939f>
   293cc:	2d2d 2d2d      	movel %a5@(11565),%fp@-
   293d0:	2d2d 2d2d      	movel %a5@(11565),%fp@-
   293d4:	2d2d 2d2d      	movel %a5@(11565),%fp@-
   293d8:	2d17           	movel %sp@,%fp@-
   293da:	172d 2d17      	moveb %a5@(11543),%a3@-
   293de:	172d 2d17      	moveb %a5@(11543),%a3@-
   293e2:	172d 1717      	moveb %a5@(5911),%a3@-
   293e6:	2d2d 1717      	movel %a5@(5911),%fp@-
   293ea:	2d2d 0060      	movel %a5@(96),%fp@-
   293ee:	6060           	bras 29450 <picData+0x93fc>
   293f0:	6060           	bras 29452 <picData+0x93fe>
   293f2:	6027           	bras 2941b <picData+0x93c7>
   293f4:	2d2d 2d2d      	movel %a5@(11565),%fp@-
   293f8:	3629 2929      	movew %a1@(10537),%d3
   293fc:	2929 2929      	movel %a1@(10537),%a4@-
   29400:	2929 2929      	movel %a1@(10537),%a4@-
   29404:	2929 2929      	movel %a1@(10537),%a4@-
   29408:	2929 2929      	movel %a1@(10537),%a4@-
   2940c:	2929 2929      	movel %a1@(10537),%a4@-
   29410:	2929 2929      	movel %a1@(10537),%a4@-
   29414:	2929 2929      	movel %a1@(10537),%a4@-
   29418:	2929 2929      	movel %a1@(10537),%a4@-
   2941c:	2929 2929      	movel %a1@(10537),%a4@-
   29420:	2929 2929      	movel %a1@(10537),%a4@-
   29424:	2929 2929      	movel %a1@(10537),%a4@-
   29428:	2929 2929      	movel %a1@(10537),%a4@-
   2942c:	2929 2929      	movel %a1@(10537),%a4@-
   29430:	2929 2929      	movel %a1@(10537),%a4@-
   29434:	2929 2929      	movel %a1@(10537),%a4@-
   29438:	2929 2929      	movel %a1@(10537),%a4@-
   2943c:	2929 2929      	movel %a1@(10537),%a4@-
   29440:	2929 2929      	movel %a1@(10537),%a4@-
   29444:	2929 2929      	movel %a1@(10537),%a4@-
   29448:	2929 2929      	movel %a1@(10537),%a4@-
   2944c:	2929 2929      	movel %a1@(10537),%a4@-
   29450:	2929 2929      	movel %a1@(10537),%a4@-
   29454:	2929 2929      	movel %a1@(10537),%a4@-
   29458:	2929 2929      	movel %a1@(10537),%a4@-
   2945c:	2929 2929      	movel %a1@(10537),%a4@-
   29460:	2929 2929      	movel %a1@(10537),%a4@-
   29464:	2929 2929      	movel %a1@(10537),%a4@-
   29468:	2929 2929      	movel %a1@(10537),%a4@-
   2946c:	2929 2929      	movel %a1@(10537),%a4@-
   29470:	2929 2929      	movel %a1@(10537),%a4@-
   29474:	2929 2929      	movel %a1@(10537),%a4@-
   29478:	2929 2929      	movel %a1@(10537),%a4@-
   2947c:	2929 2929      	movel %a1@(10537),%a4@-
   29480:	2929 2929      	movel %a1@(10537),%a4@-
   29484:	2929 2929      	movel %a1@(10537),%a4@-
   29488:	2929 2929      	movel %a1@(10537),%a4@-
   2948c:	2929 2929      	movel %a1@(10537),%a4@-
   29490:	2929 2929      	movel %a1@(10537),%a4@-
   29494:	2929 2929      	movel %a1@(10537),%a4@-
   29498:	2929 2929      	movel %a1@(10537),%a4@-
   2949c:	2929 2929      	movel %a1@(10537),%a4@-
   294a0:	2929 2929      	movel %a1@(10537),%a4@-
   294a4:	2929 2929      	movel %a1@(10537),%a4@-
   294a8:	2929 2929      	movel %a1@(10537),%a4@-
   294ac:	2929 2929      	movel %a1@(10537),%a4@-
   294b0:	2929 2929      	movel %a1@(10537),%a4@-
   294b4:	2929 2f2f      	movel %a1@(12079),%a4@-
   294b8:	2d2d 2d2d      	movel %a5@(11565),%fp@-
   294bc:	2d2d 2d2d      	movel %a5@(11565),%fp@-
   294c0:	2d2d 2d2d      	movel %a5@(11565),%fp@-
   294c4:	2d2d 1717      	movel %a5@(5911),%fp@-
   294c8:	1717           	moveb %sp@,%a3@-
   294ca:	2d2d 2d17      	movel %a5@(11543),%fp@-
   294ce:	1717           	moveb %sp@,%a3@-
   294d0:	172d 2d2d      	moveb %a5@(11565),%a3@-
   294d4:	2d2d 2d17      	movel %a5@(11543),%fp@-
   294d8:	172d 2d2d      	moveb %a5@(11565),%a3@-
   294dc:	0060 6060      	oriw #24672,%a0@-
   294e0:	6060           	bras 29542 <picData+0x94ee>
   294e2:	6027           	bras 2950b <picData+0x94b7>
   294e4:	2d2d 2d2d      	movel %a5@(11565),%fp@-
   294e8:	2d2d 2d2d      	movel %a5@(11565),%fp@-
   294ec:	2d2d 2d2d      	movel %a5@(11565),%fp@-
   294f0:	1717           	moveb %sp@,%a3@-
   294f2:	2d2d 2d17      	movel %a5@(11543),%fp@-
   294f6:	172d 2d17      	moveb %a5@(11543),%a3@-
   294fa:	172d 1717      	moveb %a5@(5911),%a3@-
   294fe:	2d2d 1717      	movel %a5@(5911),%fp@-
   29502:	2d2d 0060      	movel %a5@(96),%fp@-
   29506:	6060           	bras 29568 <picData+0x9514>
   29508:	6060           	bras 2956a <picData+0x9516>
   2950a:	6027           	bras 29533 <picData+0x94df>
   2950c:	2d2d 2d2d      	movel %a5@(11565),%fp@-
   29510:	2d2d 2d2d      	movel %a5@(11565),%fp@-
   29514:	2d2d 2d2d      	movel %a5@(11565),%fp@-
   29518:	1717           	moveb %sp@,%a3@-
   2951a:	2d2d 2d17      	movel %a5@(11543),%fp@-
   2951e:	172d 2d17      	moveb %a5@(11543),%a3@-
   29522:	172d 1717      	moveb %a5@(5911),%a3@-
   29526:	2d2d 1717      	movel %a5@(5911),%fp@-
   2952a:	2d2d 0060      	movel %a5@(96),%fp@-
   2952e:	6060           	bras 29590 <picData+0x953c>
   29530:	6060           	bras 29592 <picData+0x953e>
   29532:	6027           	bras 2955b <picData+0x9507>
   29534:	2d2d 2d2d      	movel %a5@(11565),%fp@-
   29538:	3629 2929      	movew %a1@(10537),%d3
   2953c:	2929 2929      	movel %a1@(10537),%a4@-
   29540:	2929 2929      	movel %a1@(10537),%a4@-
   29544:	2929 2929      	movel %a1@(10537),%a4@-
   29548:	2929 2929      	movel %a1@(10537),%a4@-
   2954c:	2929 2929      	movel %a1@(10537),%a4@-
   29550:	2929 2929      	movel %a1@(10537),%a4@-
   29554:	2929 2929      	movel %a1@(10537),%a4@-
   29558:	2929 2929      	movel %a1@(10537),%a4@-
   2955c:	2929 2929      	movel %a1@(10537),%a4@-
   29560:	2929 2929      	movel %a1@(10537),%a4@-
   29564:	2929 2929      	movel %a1@(10537),%a4@-
   29568:	2929 2929      	movel %a1@(10537),%a4@-
   2956c:	2929 2929      	movel %a1@(10537),%a4@-
   29570:	2929 2929      	movel %a1@(10537),%a4@-
   29574:	2929 2929      	movel %a1@(10537),%a4@-
   29578:	2929 2929      	movel %a1@(10537),%a4@-
   2957c:	2929 2929      	movel %a1@(10537),%a4@-
   29580:	2929 2929      	movel %a1@(10537),%a4@-
   29584:	2929 2929      	movel %a1@(10537),%a4@-
   29588:	2929 2929      	movel %a1@(10537),%a4@-
   2958c:	2929 2929      	movel %a1@(10537),%a4@-
   29590:	2929 2929      	movel %a1@(10537),%a4@-
   29594:	2929 2929      	movel %a1@(10537),%a4@-
   29598:	2929 2929      	movel %a1@(10537),%a4@-
   2959c:	2929 2929      	movel %a1@(10537),%a4@-
   295a0:	2929 2929      	movel %a1@(10537),%a4@-
   295a4:	2929 2929      	movel %a1@(10537),%a4@-
   295a8:	2929 2929      	movel %a1@(10537),%a4@-
   295ac:	2929 2929      	movel %a1@(10537),%a4@-
   295b0:	2929 2929      	movel %a1@(10537),%a4@-
   295b4:	2929 2929      	movel %a1@(10537),%a4@-
   295b8:	2929 2929      	movel %a1@(10537),%a4@-
   295bc:	2929 2929      	movel %a1@(10537),%a4@-
   295c0:	2929 2929      	movel %a1@(10537),%a4@-
   295c4:	2929 2929      	movel %a1@(10537),%a4@-
   295c8:	2929 2929      	movel %a1@(10537),%a4@-
   295cc:	2929 2929      	movel %a1@(10537),%a4@-
   295d0:	2929 2929      	movel %a1@(10537),%a4@-
   295d4:	2929 2929      	movel %a1@(10537),%a4@-
   295d8:	2929 2929      	movel %a1@(10537),%a4@-
   295dc:	2929 2929      	movel %a1@(10537),%a4@-
   295e0:	2929 2929      	movel %a1@(10537),%a4@-
   295e4:	2929 2929      	movel %a1@(10537),%a4@-
   295e8:	2929 2929      	movel %a1@(10537),%a4@-
   295ec:	2929 2929      	movel %a1@(10537),%a4@-
   295f0:	2929 2929      	movel %a1@(10537),%a4@-
   295f4:	2929 2f2f      	movel %a1@(12079),%a4@-
   295f8:	2d2d 2d2d      	movel %a5@(11565),%fp@-
   295fc:	2d2d 2d2d      	movel %a5@(11565),%fp@-
   29600:	2d2d 2d2d      	movel %a5@(11565),%fp@-
   29604:	2d17           	movel %sp@,%fp@-
   29606:	172d 2d2d      	moveb %a5@(11565),%a3@-
   2960a:	2d2d 1717      	movel %a5@(5911),%fp@-
   2960e:	2d2d 2d2d      	movel %a5@(11565),%fp@-
   29612:	2d2d 2d2d      	movel %a5@(11565),%fp@-
   29616:	2d17           	movel %sp@,%fp@-
   29618:	172d 2d2d      	moveb %a5@(11565),%a3@-
   2961c:	2f60 6060      	movel %a0@-,%sp@(24672)
   29620:	6060           	bras 29682 <picData+0x962e>
   29622:	6027           	bras 2964b <picData+0x95f7>
   29624:	2d2d 2d2d      	movel %a5@(11565),%fp@-
   29628:	2d2d 2d2d      	movel %a5@(11565),%fp@-
   2962c:	2d2d 2d2d      	movel %a5@(11565),%fp@-
   29630:	1717           	moveb %sp@,%a3@-
   29632:	2d2d 2d17      	movel %a5@(11543),%fp@-
   29636:	172d 2d17      	moveb %a5@(11543),%a3@-
   2963a:	172d 1717      	moveb %a5@(5911),%a3@-
   2963e:	2d2d 1717      	movel %a5@(5911),%fp@-
   29642:	2d2d 2f60      	movel %a5@(12128),%fp@-
   29646:	6060           	bras 296a8 <picData+0x9654>
   29648:	6060           	bras 296aa <picData+0x9656>
   2964a:	6027           	bras 29673 <picData+0x961f>
   2964c:	2d2d 2d2d      	movel %a5@(11565),%fp@-
   29650:	2d2d 2d2d      	movel %a5@(11565),%fp@-
   29654:	2d2d 2d2d      	movel %a5@(11565),%fp@-
   29658:	1717           	moveb %sp@,%a3@-
   2965a:	2d2d 2d17      	movel %a5@(11543),%fp@-
   2965e:	172d 2d17      	moveb %a5@(11543),%a3@-
   29662:	172d 1717      	moveb %a5@(5911),%a3@-
   29666:	2d2d 1717      	movel %a5@(5911),%fp@-
   2966a:	2d2d 2f60      	movel %a5@(12128),%fp@-
   2966e:	6060           	bras 296d0 <picData+0x967c>
   29670:	6060           	bras 296d2 <picData+0x967e>
   29672:	6027           	bras 2969b <picData+0x9647>
   29674:	2d2d 2d2d      	movel %a5@(11565),%fp@-
   29678:	3629 2929      	movew %a1@(10537),%d3
   2967c:	2929 2929      	movel %a1@(10537),%a4@-
   29680:	2929 2929      	movel %a1@(10537),%a4@-
   29684:	2929 2929      	movel %a1@(10537),%a4@-
   29688:	2929 2929      	movel %a1@(10537),%a4@-
   2968c:	2929 2929      	movel %a1@(10537),%a4@-
   29690:	2929 2929      	movel %a1@(10537),%a4@-
   29694:	2929 2929      	movel %a1@(10537),%a4@-
   29698:	2929 2929      	movel %a1@(10537),%a4@-
   2969c:	2929 2929      	movel %a1@(10537),%a4@-
   296a0:	2929 2929      	movel %a1@(10537),%a4@-
   296a4:	2929 2929      	movel %a1@(10537),%a4@-
   296a8:	2929 2929      	movel %a1@(10537),%a4@-
   296ac:	2929 2929      	movel %a1@(10537),%a4@-
   296b0:	2929 2929      	movel %a1@(10537),%a4@-
   296b4:	2929 2929      	movel %a1@(10537),%a4@-
   296b8:	2929 2929      	movel %a1@(10537),%a4@-
   296bc:	2929 2929      	movel %a1@(10537),%a4@-
   296c0:	2929 2929      	movel %a1@(10537),%a4@-
   296c4:	2929 2929      	movel %a1@(10537),%a4@-
   296c8:	2929 2929      	movel %a1@(10537),%a4@-
   296cc:	2929 2929      	movel %a1@(10537),%a4@-
   296d0:	2929 2929      	movel %a1@(10537),%a4@-
   296d4:	2929 2929      	movel %a1@(10537),%a4@-
   296d8:	2929 2929      	movel %a1@(10537),%a4@-
   296dc:	2929 2929      	movel %a1@(10537),%a4@-
   296e0:	2929 2929      	movel %a1@(10537),%a4@-
   296e4:	2929 2929      	movel %a1@(10537),%a4@-
   296e8:	2929 2929      	movel %a1@(10537),%a4@-
   296ec:	2929 2929      	movel %a1@(10537),%a4@-
   296f0:	2929 2929      	movel %a1@(10537),%a4@-
   296f4:	2929 2929      	movel %a1@(10537),%a4@-
   296f8:	2929 2929      	movel %a1@(10537),%a4@-
   296fc:	2929 2929      	movel %a1@(10537),%a4@-
   29700:	2929 2929      	movel %a1@(10537),%a4@-
   29704:	2929 2929      	movel %a1@(10537),%a4@-
   29708:	2929 2929      	movel %a1@(10537),%a4@-
   2970c:	2929 2929      	movel %a1@(10537),%a4@-
   29710:	2929 2929      	movel %a1@(10537),%a4@-
   29714:	2929 2929      	movel %a1@(10537),%a4@-
   29718:	2929 2929      	movel %a1@(10537),%a4@-
   2971c:	2929 2929      	movel %a1@(10537),%a4@-
   29720:	2929 2929      	movel %a1@(10537),%a4@-
   29724:	2929 2929      	movel %a1@(10537),%a4@-
   29728:	2929 2929      	movel %a1@(10537),%a4@-
   2972c:	2929 2929      	movel %a1@(10537),%a4@-
   29730:	2929 2929      	movel %a1@(10537),%a4@-
   29734:	2929 2f2f      	movel %a1@(12079),%a4@-
   29738:	2d2d 2d2d      	movel %a5@(11565),%fp@-
   2973c:	2d2d 2d2d      	movel %a5@(11565),%fp@-
   29740:	2d2d 2d2d      	movel %a5@(11565),%fp@-
   29744:	2d17           	movel %sp@,%fp@-
   29746:	1717           	moveb %sp@,%a3@-
   29748:	1717           	moveb %sp@,%a3@-
   2974a:	172d 1717      	moveb %a5@(5911),%a3@-
   2974e:	1717           	moveb %sp@,%a3@-
   29750:	1717           	moveb %sp@,%a3@-
   29752:	2d2d 2d2d      	movel %a5@(11565),%fp@-
   29756:	2d17           	movel %sp@,%fp@-
   29758:	172d 2d2d      	moveb %a5@(11565),%a3@-
   2975c:	2f60 6060      	movel %a0@-,%sp@(24672)
   29760:	6060           	bras 297c2 <picData+0x976e>
   29762:	6025           	bras 29789 <picData+0x9735>
   29764:	2d2d 2d2d      	movel %a5@(11565),%fp@-
   29768:	2d2d 2d2d      	movel %a5@(11565),%fp@-
   2976c:	2d2d 2d2d      	movel %a5@(11565),%fp@-
   29770:	1717           	moveb %sp@,%a3@-
   29772:	2d2d 2d2d      	movel %a5@(11565),%fp@-
   29776:	1717           	moveb %sp@,%a3@-
   29778:	1717           	moveb %sp@,%a3@-
   2977a:	2d2d 2d17      	movel %a5@(11543),%fp@-
   2977e:	1717           	moveb %sp@,%a3@-
   29780:	172d 2d2d      	moveb %a5@(11565),%a3@-
   29784:	2f60 6060      	movel %a0@-,%sp@(24672)
   29788:	6060           	bras 297ea <picData+0x9796>
   2978a:	6025           	bras 297b1 <picData+0x975d>
   2978c:	2d2d 2d2d      	movel %a5@(11565),%fp@-
   29790:	2d2d 2d2d      	movel %a5@(11565),%fp@-
   29794:	2d2d 2d2d      	movel %a5@(11565),%fp@-
   29798:	1717           	moveb %sp@,%a3@-
   2979a:	2d2d 2d2d      	movel %a5@(11565),%fp@-
   2979e:	1717           	moveb %sp@,%a3@-
   297a0:	1717           	moveb %sp@,%a3@-
   297a2:	2d2d 2d17      	movel %a5@(11543),%fp@-
   297a6:	1717           	moveb %sp@,%a3@-
   297a8:	172d 2d2d      	moveb %a5@(11565),%a3@-
   297ac:	2f60 6060      	movel %a0@-,%sp@(24672)
   297b0:	6060           	bras 29812 <picData+0x97be>
   297b2:	6025           	bras 297d9 <picData+0x9785>
   297b4:	2d2d 2d2d      	movel %a5@(11565),%fp@-
   297b8:	3629 2929      	movew %a1@(10537),%d3
   297bc:	2929 2929      	movel %a1@(10537),%a4@-
   297c0:	2929 2929      	movel %a1@(10537),%a4@-
   297c4:	2929 2929      	movel %a1@(10537),%a4@-
   297c8:	2929 2929      	movel %a1@(10537),%a4@-
   297cc:	2929 2929      	movel %a1@(10537),%a4@-
   297d0:	2929 2929      	movel %a1@(10537),%a4@-
   297d4:	2929 2929      	movel %a1@(10537),%a4@-
   297d8:	2929 2929      	movel %a1@(10537),%a4@-
   297dc:	2929 2929      	movel %a1@(10537),%a4@-
   297e0:	2929 2929      	movel %a1@(10537),%a4@-
   297e4:	2929 2929      	movel %a1@(10537),%a4@-
   297e8:	2929 2929      	movel %a1@(10537),%a4@-
   297ec:	2929 2929      	movel %a1@(10537),%a4@-
   297f0:	2929 2929      	movel %a1@(10537),%a4@-
   297f4:	2929 2929      	movel %a1@(10537),%a4@-
   297f8:	2929 2929      	movel %a1@(10537),%a4@-
   297fc:	2929 2929      	movel %a1@(10537),%a4@-
   29800:	2929 2929      	movel %a1@(10537),%a4@-
   29804:	2929 2929      	movel %a1@(10537),%a4@-
   29808:	2929 2929      	movel %a1@(10537),%a4@-
   2980c:	2929 2929      	movel %a1@(10537),%a4@-
   29810:	2929 2929      	movel %a1@(10537),%a4@-
   29814:	2929 2929      	movel %a1@(10537),%a4@-
   29818:	2929 2929      	movel %a1@(10537),%a4@-
   2981c:	2929 2929      	movel %a1@(10537),%a4@-
   29820:	2929 2929      	movel %a1@(10537),%a4@-
   29824:	2929 2929      	movel %a1@(10537),%a4@-
   29828:	2929 2929      	movel %a1@(10537),%a4@-
   2982c:	2929 2929      	movel %a1@(10537),%a4@-
   29830:	2929 2929      	movel %a1@(10537),%a4@-
   29834:	2929 2929      	movel %a1@(10537),%a4@-
   29838:	2929 2929      	movel %a1@(10537),%a4@-
   2983c:	2929 2929      	movel %a1@(10537),%a4@-
   29840:	2929 2929      	movel %a1@(10537),%a4@-
   29844:	2929 2929      	movel %a1@(10537),%a4@-
   29848:	2929 2929      	movel %a1@(10537),%a4@-
   2984c:	2929 2929      	movel %a1@(10537),%a4@-
   29850:	2929 2929      	movel %a1@(10537),%a4@-
   29854:	2929 2929      	movel %a1@(10537),%a4@-
   29858:	2929 2929      	movel %a1@(10537),%a4@-
   2985c:	2929 2929      	movel %a1@(10537),%a4@-
   29860:	2929 2929      	movel %a1@(10537),%a4@-
   29864:	2929 2929      	movel %a1@(10537),%a4@-
   29868:	2929 2929      	movel %a1@(10537),%a4@-
   2986c:	2929 2929      	movel %a1@(10537),%a4@-
   29870:	2929 2929      	movel %a1@(10537),%a4@-
   29874:	2929 2f2f      	movel %a1@(12079),%a4@-
   29878:	2d2d 2d2d      	movel %a5@(11565),%fp@-
   2987c:	2d2d 2d2d      	movel %a5@(11565),%fp@-
   29880:	2d2d 2d2d      	movel %a5@(11565),%fp@-
   29884:	2d2d 2d2d      	movel %a5@(11565),%fp@-
   29888:	2d2d 2d2d      	movel %a5@(11565),%fp@-
   2988c:	2d2d 2d2d      	movel %a5@(11565),%fp@-
   29890:	2d2d 2d2d      	movel %a5@(11565),%fp@-
   29894:	2d2d 2d2d      	movel %a5@(11565),%fp@-
   29898:	2d2d 2d2d      	movel %a5@(11565),%fp@-
   2989c:	2b29 2727      	movel %a1@(10023),%a5@-
   298a0:	2727           	movel %sp@-,%a3@-
   298a2:	2522           	movel %a2@-,%a2@-
   298a4:	2d2d 2d2d      	movel %a5@(11565),%fp@-
   298a8:	2d2d 2d2d      	movel %a5@(11565),%fp@-
   298ac:	2d2d 2d2d      	movel %a5@(11565),%fp@-
   298b0:	2d2d 2d2d      	movel %a5@(11565),%fp@-
   298b4:	2d2d 2d2d      	movel %a5@(11565),%fp@-
   298b8:	2d2d 2d2d      	movel %a5@(11565),%fp@-
   298bc:	2d2d 2d2d      	movel %a5@(11565),%fp@-
   298c0:	2d2d 2d2d      	movel %a5@(11565),%fp@-
   298c4:	2b29 2727      	movel %a1@(10023),%a5@-
   298c8:	2727           	movel %sp@-,%a3@-
   298ca:	2522           	movel %a2@-,%a2@-
   298cc:	2d2d 2d2d      	movel %a5@(11565),%fp@-
   298d0:	2d2d 2d2d      	movel %a5@(11565),%fp@-
   298d4:	2d2d 2d2d      	movel %a5@(11565),%fp@-
   298d8:	2d2d 2d2d      	movel %a5@(11565),%fp@-
   298dc:	2d2d 2d2d      	movel %a5@(11565),%fp@-
   298e0:	2d2d 2d2d      	movel %a5@(11565),%fp@-
   298e4:	2d2d 2d2d      	movel %a5@(11565),%fp@-
   298e8:	2d2d 2d2d      	movel %a5@(11565),%fp@-
   298ec:	2b29 2727      	movel %a1@(10023),%a5@-
   298f0:	2727           	movel %sp@-,%a3@-
   298f2:	2522           	movel %a2@-,%a2@-
   298f4:	2d2d 2d2d      	movel %a5@(11565),%fp@-
   298f8:	3629 2929      	movew %a1@(10537),%d3
   298fc:	2929 2929      	movel %a1@(10537),%a4@-
   29900:	2929 2929      	movel %a1@(10537),%a4@-
   29904:	2929 2929      	movel %a1@(10537),%a4@-
   29908:	2f2f 2f2f      	movel %sp@(12079),%sp@-
   2990c:	2f2f 2f2f      	movel %sp@(12079),%sp@-
   29910:	2f2f 2f2f      	movel %sp@(12079),%sp@-
   29914:	2f2f 2f2f      	movel %sp@(12079),%sp@-
   29918:	2f2f 2f2f      	movel %sp@(12079),%sp@-
   2991c:	2f2f 2f2f      	movel %sp@(12079),%sp@-
   29920:	2f2f 2f2f      	movel %sp@(12079),%sp@-
   29924:	2f2f 2f2f      	movel %sp@(12079),%sp@-
   29928:	2f2f 2f2f      	movel %sp@(12079),%sp@-
   2992c:	2f2f 2f2f      	movel %sp@(12079),%sp@-
   29930:	2f2f 2f2f      	movel %sp@(12079),%sp@-
   29934:	2f2f 2f2f      	movel %sp@(12079),%sp@-
   29938:	2f2f 2f2f      	movel %sp@(12079),%sp@-
   2993c:	2f2f 2f2f      	movel %sp@(12079),%sp@-
   29940:	2f2f 2f2f      	movel %sp@(12079),%sp@-
   29944:	2f2f 2f2f      	movel %sp@(12079),%sp@-
   29948:	2f2f 2f2f      	movel %sp@(12079),%sp@-
   2994c:	2f2f 2f2f      	movel %sp@(12079),%sp@-
   29950:	2f2f 2f2f      	movel %sp@(12079),%sp@-
   29954:	2f2f 2f2f      	movel %sp@(12079),%sp@-
   29958:	2f2f 2f2f      	movel %sp@(12079),%sp@-
   2995c:	2f2f 2f2f      	movel %sp@(12079),%sp@-
   29960:	2f2f 2e2e      	movel %sp@(11822),%sp@-
   29964:	2e2e 2e2e      	movel %fp@(11822),%d7
   29968:	2e2e 2e2e      	movel %fp@(11822),%d7
   2996c:	2e2e 2e2e      	movel %fp@(11822),%d7
   29970:	2e2e 2e2e      	movel %fp@(11822),%d7
   29974:	2e2e 2e2e      	movel %fp@(11822),%d7
   29978:	2e2e 2e2e      	movel %fp@(11822),%d7
   2997c:	2e2e 2e2e      	movel %fp@(11822),%d7
   29980:	2e2e 2e2e      	movel %fp@(11822),%d7
   29984:	2e2e 2e2e      	movel %fp@(11822),%d7
   29988:	2e2e 2d2d      	movel %fp@(11565),%d7
   2998c:	2d2d 2d2d      	movel %a5@(11565),%fp@-
   29990:	2d2d 2d2d      	movel %a5@(11565),%fp@-
   29994:	2d2d 2d2d      	movel %a5@(11565),%fp@-
   29998:	2d2d 2d2c      	movel %a5@(11564),%fp@-
   2999c:	2c2c 2c2c      	movel %a4@(11308),%d6
   299a0:	2c26           	movel %fp@-,%d6
   299a2:	2929 2929      	movel %a1@(10537),%a4@-
   299a6:	2929 2929      	movel %a1@(10537),%a4@-
   299aa:	2929 2929      	movel %a1@(10537),%a4@-
   299ae:	2929 2929      	movel %a1@(10537),%a4@-
   299b2:	2929 2929      	movel %a1@(10537),%a4@-
   299b6:	2f2f 2d2d      	movel %sp@(11565),%sp@-
   299ba:	2d2d 2d2d      	movel %a5@(11565),%fp@-
   299be:	2d2d 2d2d      	movel %a5@(11565),%fp@-
   299c2:	2d2d 2d2d      	movel %a5@(11565),%fp@-
   299c6:	2d2d 2d2d      	movel %a5@(11565),%fp@-
   299ca:	2d2d 2d2d      	movel %a5@(11565),%fp@-
   299ce:	2d2d 2d2d      	movel %a5@(11565),%fp@-
   299d2:	2d2d 2d2d      	movel %a5@(11565),%fp@-
   299d6:	2d2d 2d2d      	movel %a5@(11565),%fp@-
   299da:	2d2d 2d2d      	movel %a5@(11565),%fp@-
   299de:	2d2d 2d2d      	movel %a5@(11565),%fp@-
   299e2:	2d2d 2d2d      	movel %a5@(11565),%fp@-
   299e6:	2d2d 2d2d      	movel %a5@(11565),%fp@-
   299ea:	2d2d 2d2d      	movel %a5@(11565),%fp@-
   299ee:	2d2d 2d2d      	movel %a5@(11565),%fp@-
   299f2:	2d2d 2d2d      	movel %a5@(11565),%fp@-
   299f6:	2d2d 2d2d      	movel %a5@(11565),%fp@-
   299fa:	2d2d 2d2d      	movel %a5@(11565),%fp@-
   299fe:	2d2d 2d2d      	movel %a5@(11565),%fp@-
   29a02:	2d2d 2d2d      	movel %a5@(11565),%fp@-
   29a06:	2d2d 2d2d      	movel %a5@(11565),%fp@-
   29a0a:	2d2d 2d2d      	movel %a5@(11565),%fp@-
   29a0e:	2d2d 2d2d      	movel %a5@(11565),%fp@-
   29a12:	2d2d 2d2d      	movel %a5@(11565),%fp@-
   29a16:	2d2d 2d2d      	movel %a5@(11565),%fp@-
   29a1a:	2d2d 2d2d      	movel %a5@(11565),%fp@-
   29a1e:	2d2d 2d2d      	movel %a5@(11565),%fp@-
   29a22:	2d2d 2d2d      	movel %a5@(11565),%fp@-
   29a26:	2d2d 2d2d      	movel %a5@(11565),%fp@-
   29a2a:	2d2d 2d2d      	movel %a5@(11565),%fp@-
   29a2e:	2d2d 2d2d      	movel %a5@(11565),%fp@-
   29a32:	2d2d 2d2d      	movel %a5@(11565),%fp@-
   29a36:	2d2d 3629      	movel %a5@(13865),%fp@-
   29a3a:	2929 2929      	movel %a1@(10537),%a4@-
   29a3e:	2929 2929      	movel %a1@(10537),%a4@-
   29a42:	2929 2929      	movel %a1@(10537),%a4@-
   29a46:	2929 2f2f      	movel %a1@(12079),%a4@-
   29a4a:	2f2f 2f2f      	movel %sp@(12079),%sp@-
   29a4e:	2f2f 2f2f      	movel %sp@(12079),%sp@-
   29a52:	2f2f 2f2f      	movel %sp@(12079),%sp@-
   29a56:	2f2f 2f2f      	movel %sp@(12079),%sp@-
   29a5a:	2f2f 2f2f      	movel %sp@(12079),%sp@-
   29a5e:	2f2f 2f2f      	movel %sp@(12079),%sp@-
   29a62:	2f2f 2f2f      	movel %sp@(12079),%sp@-
   29a66:	2f2f 2f2f      	movel %sp@(12079),%sp@-
   29a6a:	2f2f 2f2f      	movel %sp@(12079),%sp@-
   29a6e:	2f2f 2f2f      	movel %sp@(12079),%sp@-
   29a72:	2f2f 2f2f      	movel %sp@(12079),%sp@-
   29a76:	2f2f 2f2f      	movel %sp@(12079),%sp@-
   29a7a:	2f2f 2f2f      	movel %sp@(12079),%sp@-
   29a7e:	2f2f 2f2f      	movel %sp@(12079),%sp@-
   29a82:	2f2f 2f2f      	movel %sp@(12079),%sp@-
   29a86:	2f2f 2f2f      	movel %sp@(12079),%sp@-
   29a8a:	2f2f 2f2f      	movel %sp@(12079),%sp@-
   29a8e:	2f2f 2f2f      	movel %sp@(12079),%sp@-
   29a92:	2f2f 2f2f      	movel %sp@(12079),%sp@-
   29a96:	2f2f 2f2f      	movel %sp@(12079),%sp@-
   29a9a:	2f2f 2f2f      	movel %sp@(12079),%sp@-
   29a9e:	2f2f 2f2f      	movel %sp@(12079),%sp@-
   29aa2:	2f2f 2f2f      	movel %sp@(12079),%sp@-
   29aa6:	2f2f 2f2f      	movel %sp@(12079),%sp@-
   29aaa:	2f2f 2f2f      	movel %sp@(12079),%sp@-
   29aae:	2f2f 2f2f      	movel %sp@(12079),%sp@-
   29ab2:	2f2f 2f2f      	movel %sp@(12079),%sp@-
   29ab6:	2f2f 2f2f      	movel %sp@(12079),%sp@-
   29aba:	2f2f 2f2f      	movel %sp@(12079),%sp@-
   29abe:	2f2f 2f2f      	movel %sp@(12079),%sp@-
   29ac2:	2f2f 2f2f      	movel %sp@(12079),%sp@-
   29ac6:	2f2f 2f2f      	movel %sp@(12079),%sp@-
   29aca:	2f2f 2f2f      	movel %sp@(12079),%sp@-
   29ace:	2f2f 2f2f      	movel %sp@(12079),%sp@-
   29ad2:	2f2f 2f2f      	movel %sp@(12079),%sp@-
   29ad6:	2f2f 2f2f      	movel %sp@(12079),%sp@-
   29ada:	2f2f 2f2f      	movel %sp@(12079),%sp@-
   29ade:	2f2f 2f23      	movel %sp@(12067),%sp@-
   29ae2:	2929 2929      	movel %a1@(10537),%a4@-
   29ae6:	2929 2929      	movel %a1@(10537),%a4@-
   29aea:	2929 2929      	movel %a1@(10537),%a4@-
   29aee:	2929 2929      	movel %a1@(10537),%a4@-
   29af2:	2929 2929      	movel %a1@(10537),%a4@-
   29af6:	2f2f 2d2d      	movel %sp@(11565),%sp@-
   29afa:	2d2d 2d2d      	movel %a5@(11565),%fp@-
   29afe:	2d2d 2d2d      	movel %a5@(11565),%fp@-
   29b02:	2d2d 2d2d      	movel %a5@(11565),%fp@-
   29b06:	2d17           	movel %sp@,%fp@-
   29b08:	172d 2d2d      	moveb %a5@(11565),%a3@-
   29b0c:	2d17           	movel %sp@,%fp@-
   29b0e:	1717           	moveb %sp@,%a3@-
   29b10:	172d 2d2d      	moveb %a5@(11565),%a3@-
   29b14:	1717           	moveb %sp@,%a3@-
   29b16:	1717           	moveb %sp@,%a3@-
   29b18:	2d2d 2d2d      	movel %a5@(11565),%fp@-
   29b1c:	0000 0000      	orib #0,%d0
   29b20:	002f 2f2b 2d2d 	orib #43,%sp@(11565)
   29b26:	2d2d 2d2d      	movel %a5@(11565),%fp@-
   29b2a:	2d2d 2d2d      	movel %a5@(11565),%fp@-
   29b2e:	2d17           	movel %sp@,%fp@-
   29b30:	1717           	moveb %sp@,%a3@-
   29b32:	172d 2d2d      	moveb %a5@(11565),%a3@-
   29b36:	1717           	moveb %sp@,%a3@-
   29b38:	1717           	moveb %sp@,%a3@-
   29b3a:	2d2d 2d17      	movel %a5@(11543),%fp@-
   29b3e:	1717           	moveb %sp@,%a3@-
   29b40:	172d 2d2d      	moveb %a5@(11565),%a3@-
   29b44:	0000 0000      	orib #0,%d0
   29b48:	002f 2f2b 2d2d 	orib #43,%sp@(11565)
   29b4e:	2d2d 2d2d      	movel %a5@(11565),%fp@-
   29b52:	2d2d 2d2d      	movel %a5@(11565),%fp@-
   29b56:	2d17           	movel %sp@,%fp@-
   29b58:	1717           	moveb %sp@,%a3@-
   29b5a:	172d 2d2d      	moveb %a5@(11565),%a3@-
   29b5e:	1717           	moveb %sp@,%a3@-
   29b60:	1717           	moveb %sp@,%a3@-
   29b62:	2d2d 2d17      	movel %a5@(11543),%fp@-
   29b66:	1717           	moveb %sp@,%a3@-
   29b68:	172d 2d2d      	moveb %a5@(11565),%a3@-
   29b6c:	0000 0000      	orib #0,%d0
   29b70:	002f 2f2b 2d2d 	orib #43,%sp@(11565)
   29b76:	2d2d 3629      	movel %a5@(13865),%fp@-
   29b7a:	2929 2929      	movel %a1@(10537),%a4@-
   29b7e:	2929 2929      	movel %a1@(10537),%a4@-
   29b82:	2929 2929      	movel %a1@(10537),%a4@-
   29b86:	2929 2f2f      	movel %a1@(12079),%a4@-
   29b8a:	2d2d 2d2d      	movel %a5@(11565),%fp@-
   29b8e:	2d2d 2d2d      	movel %a5@(11565),%fp@-
   29b92:	2d2d 2d2d      	movel %a5@(11565),%fp@-
   29b96:	2d2d 2d2d      	movel %a5@(11565),%fp@-
   29b9a:	2d2d 2d2d      	movel %a5@(11565),%fp@-
   29b9e:	2d2d 2d2d      	movel %a5@(11565),%fp@-
   29ba2:	2d2d 2d2d      	movel %a5@(11565),%fp@-
   29ba6:	2d2d 2d2d      	movel %a5@(11565),%fp@-
   29baa:	2d2d 2d2d      	movel %a5@(11565),%fp@-
   29bae:	2d2d 2d2d      	movel %a5@(11565),%fp@-
   29bb2:	2d2d 2d2d      	movel %a5@(11565),%fp@-
   29bb6:	2d2d 2d2d      	movel %a5@(11565),%fp@-
   29bba:	2d2d 2d2d      	movel %a5@(11565),%fp@-
   29bbe:	2d2d 2d2d      	movel %a5@(11565),%fp@-
   29bc2:	2d2d 2d2d      	movel %a5@(11565),%fp@-
   29bc6:	2d2d 2d2d      	movel %a5@(11565),%fp@-
   29bca:	2d2d 2d2d      	movel %a5@(11565),%fp@-
   29bce:	2d2d 2d2d      	movel %a5@(11565),%fp@-
   29bd2:	2d2d 2d2d      	movel %a5@(11565),%fp@-
   29bd6:	2d2d 2d2d      	movel %a5@(11565),%fp@-
   29bda:	2d2d 2d2d      	movel %a5@(11565),%fp@-
   29bde:	2d2d 2d2d      	movel %a5@(11565),%fp@-
   29be2:	2d2d 2d2d      	movel %a5@(11565),%fp@-
   29be6:	2d2d 2d2d      	movel %a5@(11565),%fp@-
   29bea:	2d2d 2d2d      	movel %a5@(11565),%fp@-
   29bee:	2d2d 2d2d      	movel %a5@(11565),%fp@-
   29bf2:	2d2d 2d2d      	movel %a5@(11565),%fp@-
   29bf6:	2d2d 2d2d      	movel %a5@(11565),%fp@-
   29bfa:	2d2d 2d2d      	movel %a5@(11565),%fp@-
   29bfe:	2d2d 2d2d      	movel %a5@(11565),%fp@-
   29c02:	2d2d 2d2d      	movel %a5@(11565),%fp@-
   29c06:	2d2d 2d2d      	movel %a5@(11565),%fp@-
   29c0a:	2d2d 2d2d      	movel %a5@(11565),%fp@-
   29c0e:	2d2d 2d2d      	movel %a5@(11565),%fp@-
   29c12:	2d2d 2d2d      	movel %a5@(11565),%fp@-
   29c16:	2d2d 2d2d      	movel %a5@(11565),%fp@-
   29c1a:	2d2d 2d2d      	movel %a5@(11565),%fp@-
   29c1e:	2d2d 2d20      	movel %a5@(11552),%fp@-
   29c22:	2929 2929      	movel %a1@(10537),%a4@-
   29c26:	2929 2929      	movel %a1@(10537),%a4@-
   29c2a:	2929 2929      	movel %a1@(10537),%a4@-
   29c2e:	2929 2929      	movel %a1@(10537),%a4@-
   29c32:	2929 2929      	movel %a1@(10537),%a4@-
   29c36:	2f2f 2d2d      	movel %sp@(11565),%sp@-
   29c3a:	2d2d 2d2d      	movel %a5@(11565),%fp@-
   29c3e:	2d2d 2d2d      	movel %a5@(11565),%fp@-
   29c42:	2d2d 2d2d      	movel %a5@(11565),%fp@-
   29c46:	1717           	moveb %sp@,%a3@-
   29c48:	172d 2d2d      	moveb %a5@(11565),%a3@-
   29c4c:	1717           	moveb %sp@,%a3@-
   29c4e:	2d2d 1717      	movel %a5@(5911),%fp@-
   29c52:	2d17           	movel %sp@,%fp@-
   29c54:	172d 2d17      	moveb %a5@(11543),%a3@-
   29c58:	172d 2d2d      	moveb %a5@(11565),%a3@-
   29c5c:	0062 6262      	oriw #25186,%a2@-
   29c60:	6262           	bhis 29cc4 <picData+0x9c70>
   29c62:	6229           	bhis 29c8d <picData+0x9c39>
   29c64:	2d2d 2d2d      	movel %a5@(11565),%fp@-
   29c68:	2d2d 2d2d      	movel %a5@(11565),%fp@-
   29c6c:	2d2d 1717      	movel %a5@(5911),%fp@-
   29c70:	2d2d 2d2d      	movel %a5@(11565),%fp@-
   29c74:	2d17           	movel %sp@,%fp@-
   29c76:	172d 2d17      	moveb %a5@(11543),%a3@-
   29c7a:	172d 1717      	moveb %a5@(5911),%a3@-
   29c7e:	2d2d 1717      	movel %a5@(5911),%fp@-
   29c82:	2d2d 0062      	movel %a5@(98),%fp@-
   29c86:	6262           	bhis 29cea <picData+0x9c96>
   29c88:	6262           	bhis 29cec <picData+0x9c98>
   29c8a:	6229           	bhis 29cb5 <picData+0x9c61>
   29c8c:	2d2d 2d2d      	movel %a5@(11565),%fp@-
   29c90:	2d2d 2d2d      	movel %a5@(11565),%fp@-
   29c94:	2d2d 1717      	movel %a5@(5911),%fp@-
   29c98:	2d2d 2d2d      	movel %a5@(11565),%fp@-
   29c9c:	2d17           	movel %sp@,%fp@-
   29c9e:	172d 2d17      	moveb %a5@(11543),%a3@-
   29ca2:	172d 1717      	moveb %a5@(5911),%a3@-
   29ca6:	2d2d 1717      	movel %a5@(5911),%fp@-
   29caa:	2d2d 0062      	movel %a5@(98),%fp@-
   29cae:	6262           	bhis 29d12 <picData+0x9cbe>
   29cb0:	6262           	bhis 29d14 <picData+0x9cc0>
   29cb2:	6229           	bhis 29cdd <picData+0x9c89>
   29cb4:	2d2d 2d2d      	movel %a5@(11565),%fp@-
   29cb8:	3629 2929      	movew %a1@(10537),%d3
   29cbc:	2929 2929      	movel %a1@(10537),%a4@-
   29cc0:	2929 2929      	movel %a1@(10537),%a4@-
   29cc4:	2929 2929      	movel %a1@(10537),%a4@-
   29cc8:	2f2f 2d2d      	movel %sp@(11565),%sp@-
   29ccc:	2d2d 2d2d      	movel %a5@(11565),%fp@-
   29cd0:	2d2d 2d2d      	movel %a5@(11565),%fp@-
   29cd4:	2d2d 2d2d      	movel %a5@(11565),%fp@-
   29cd8:	2d2d 2d2d      	movel %a5@(11565),%fp@-
   29cdc:	2d2d 2d2d      	movel %a5@(11565),%fp@-
   29ce0:	2d2d 2d2d      	movel %a5@(11565),%fp@-
   29ce4:	2d2d 2d2d      	movel %a5@(11565),%fp@-
   29ce8:	2d2d 2d2d      	movel %a5@(11565),%fp@-
   29cec:	2d2d 2d2d      	movel %a5@(11565),%fp@-
   29cf0:	2d2d 2d2d      	movel %a5@(11565),%fp@-
   29cf4:	2d2d 2d2d      	movel %a5@(11565),%fp@-
   29cf8:	2d2d 2d2d      	movel %a5@(11565),%fp@-
   29cfc:	2d2d 2d2d      	movel %a5@(11565),%fp@-
   29d00:	2d2d 2d2d      	movel %a5@(11565),%fp@-
   29d04:	2d2d 2d2d      	movel %a5@(11565),%fp@-
   29d08:	2d2d 2d2d      	movel %a5@(11565),%fp@-
   29d0c:	2d2d 2d2d      	movel %a5@(11565),%fp@-
   29d10:	2d2d 2d2d      	movel %a5@(11565),%fp@-
   29d14:	2d2d 2d2d      	movel %a5@(11565),%fp@-
   29d18:	2d2d 2d2d      	movel %a5@(11565),%fp@-
   29d1c:	2d2d 2d2d      	movel %a5@(11565),%fp@-
   29d20:	2d2d 2d2d      	movel %a5@(11565),%fp@-
   29d24:	2d2d 2d2d      	movel %a5@(11565),%fp@-
   29d28:	2d2d 2d2d      	movel %a5@(11565),%fp@-
   29d2c:	2d2d 2d2d      	movel %a5@(11565),%fp@-
   29d30:	2d2d 2d2d      	movel %a5@(11565),%fp@-
   29d34:	2d2d 2d2d      	movel %a5@(11565),%fp@-
   29d38:	2d2d 2d2d      	movel %a5@(11565),%fp@-
   29d3c:	2d2d 2d2d      	movel %a5@(11565),%fp@-
   29d40:	2d2d 2d2d      	movel %a5@(11565),%fp@-
   29d44:	2d2d 2d2d      	movel %a5@(11565),%fp@-
   29d48:	2d2d 2d2d      	movel %a5@(11565),%fp@-
   29d4c:	2d2d 2d2d      	movel %a5@(11565),%fp@-
   29d50:	2d2d 2d2d      	movel %a5@(11565),%fp@-
   29d54:	2d2d 2d2d      	movel %a5@(11565),%fp@-
   29d58:	2d2d 2d2d      	movel %a5@(11565),%fp@-
   29d5c:	2d2d 2d2d      	movel %a5@(11565),%fp@-
   29d60:	2d36 2929 2929 	movel %fp@(00002929,%d2:l)@(00000000),%fp@-
   29d66:	2929 2929      	movel %a1@(10537),%a4@-
   29d6a:	2929 2929      	movel %a1@(10537),%a4@-
   29d6e:	2929 2929      	movel %a1@(10537),%a4@-
   29d72:	2929 2929      	movel %a1@(10537),%a4@-
   29d76:	2f2f 2d2d      	movel %sp@(11565),%sp@-
   29d7a:	2d2d 2d2d      	movel %a5@(11565),%fp@-
   29d7e:	2d2d 2d2d      	movel %a5@(11565),%fp@-
   29d82:	2d2d 2d2d      	movel %a5@(11565),%fp@-
   29d86:	2d17           	movel %sp@,%fp@-
   29d88:	172d 2d2d      	moveb %a5@(11565),%a3@-
   29d8c:	1717           	moveb %sp@,%a3@-
   29d8e:	2d2d 1717      	movel %a5@(5911),%fp@-
   29d92:	2d2d 2d2d      	movel %a5@(11565),%fp@-
   29d96:	2d17           	movel %sp@,%fp@-
   29d98:	172d 2d2d      	moveb %a5@(11565),%a3@-
   29d9c:	0062 6262      	oriw #25186,%a2@-
   29da0:	6262           	bhis 29e04 <picData+0x9db0>
   29da2:	6227           	bhis 29dcb <picData+0x9d77>
   29da4:	2d2d 2d2d      	movel %a5@(11565),%fp@-
   29da8:	2d2d 2d2d      	movel %a5@(11565),%fp@-
   29dac:	2d2d 1717      	movel %a5@(5911),%fp@-
   29db0:	1717           	moveb %sp@,%a3@-
   29db2:	172d 2d17      	moveb %a5@(11543),%a3@-
   29db6:	172d 2d17      	moveb %a5@(11543),%a3@-
   29dba:	172d 1717      	moveb %a5@(5911),%a3@-
   29dbe:	2d2d 1717      	movel %a5@(5911),%fp@-
   29dc2:	2d2d 0062      	movel %a5@(98),%fp@-
   29dc6:	6262           	bhis 29e2a <picData+0x9dd6>
   29dc8:	6262           	bhis 29e2c <picData+0x9dd8>
   29dca:	6227           	bhis 29df3 <picData+0x9d9f>
   29dcc:	2d2d 2d2d      	movel %a5@(11565),%fp@-
   29dd0:	2d2d 2d2d      	movel %a5@(11565),%fp@-
   29dd4:	2d2d 1717      	movel %a5@(5911),%fp@-
   29dd8:	1717           	moveb %sp@,%a3@-
   29dda:	172d 2d17      	moveb %a5@(11543),%a3@-
   29dde:	172d 2d17      	moveb %a5@(11543),%a3@-
   29de2:	172d 1717      	moveb %a5@(5911),%a3@-
   29de6:	2d2d 1717      	movel %a5@(5911),%fp@-
   29dea:	2d2d 0062      	movel %a5@(98),%fp@-
   29dee:	6262           	bhis 29e52 <picData+0x9dfe>
   29df0:	6262           	bhis 29e54 <picData+0x9e00>
   29df2:	6227           	bhis 29e1b <picData+0x9dc7>
   29df4:	2d2d 2d2d      	movel %a5@(11565),%fp@-
   29df8:	3629 2929      	movew %a1@(10537),%d3
   29dfc:	2929 2929      	movel %a1@(10537),%a4@-
   29e00:	2929 2929      	movel %a1@(10537),%a4@-
   29e04:	2929 2929      	movel %a1@(10537),%a4@-
   29e08:	2f2f 2d2d      	movel %sp@(11565),%sp@-
   29e0c:	2d2d 2d2d      	movel %a5@(11565),%fp@-
   29e10:	2d2d 2d2d      	movel %a5@(11565),%fp@-
   29e14:	2d2d 2d2d      	movel %a5@(11565),%fp@-
   29e18:	2d2d 2d2d      	movel %a5@(11565),%fp@-
   29e1c:	2d2d 2d2d      	movel %a5@(11565),%fp@-
   29e20:	2d2d 2d2d      	movel %a5@(11565),%fp@-
   29e24:	2d17           	movel %sp@,%fp@-
   29e26:	1717           	moveb %sp@,%a3@-
   29e28:	1717           	moveb %sp@,%a3@-
   29e2a:	1717           	moveb %sp@,%a3@-
   29e2c:	2d2d 1717      	movel %a5@(5911),%fp@-
   29e30:	1717           	moveb %sp@,%a3@-
   29e32:	1717           	moveb %sp@,%a3@-
   29e34:	1717           	moveb %sp@,%a3@-
   29e36:	2d2d 1717      	movel %a5@(5911),%fp@-
   29e3a:	172d 2d2d      	moveb %a5@(11565),%a3@-
   29e3e:	2d2d 2d2d      	movel %a5@(11565),%fp@-
   29e42:	1717           	moveb %sp@,%a3@-
   29e44:	172d 1717      	moveb %a5@(5911),%a3@-
   29e48:	1717           	moveb %sp@,%a3@-
   29e4a:	1717           	moveb %sp@,%a3@-
   29e4c:	1717           	moveb %sp@,%a3@-
   29e4e:	2d2d 2d2d      	movel %a5@(11565),%fp@-
   29e52:	2d2d 2d2d      	movel %a5@(11565),%fp@-
   29e56:	2d2d 2d2d      	movel %a5@(11565),%fp@-
   29e5a:	2d2d 2d2d      	movel %a5@(11565),%fp@-
   29e5e:	2d2d 2d2d      	movel %a5@(11565),%fp@-
   29e62:	2d2d 2d2d      	movel %a5@(11565),%fp@-
   29e66:	2d2d 2d2d      	movel %a5@(11565),%fp@-
   29e6a:	2d2d 2d2d      	movel %a5@(11565),%fp@-
   29e6e:	2d2d 2d2d      	movel %a5@(11565),%fp@-
   29e72:	2d2d 2d2d      	movel %a5@(11565),%fp@-
   29e76:	2d2d 2d2d      	movel %a5@(11565),%fp@-
   29e7a:	2d2d 2d2d      	movel %a5@(11565),%fp@-
   29e7e:	2d2d 2d2d      	movel %a5@(11565),%fp@-
   29e82:	2d2d 2d2d      	movel %a5@(11565),%fp@-
   29e86:	2d2d 2d2d      	movel %a5@(11565),%fp@-
   29e8a:	2d2d 2d2d      	movel %a5@(11565),%fp@-
   29e8e:	2d2d 2d2d      	movel %a5@(11565),%fp@-
   29e92:	2d2d 2d2d      	movel %a5@(11565),%fp@-
   29e96:	2d2d 2d2d      	movel %a5@(11565),%fp@-
   29e9a:	2d2d 2d2d      	movel %a5@(11565),%fp@-
   29e9e:	2d2d 2d36      	movel %a5@(11574),%fp@-
   29ea2:	2929 2929      	movel %a1@(10537),%a4@-
   29ea6:	2929 2929      	movel %a1@(10537),%a4@-
   29eaa:	2929 2929      	movel %a1@(10537),%a4@-
   29eae:	2929 2929      	movel %a1@(10537),%a4@-
   29eb2:	2929 2929      	movel %a1@(10537),%a4@-
   29eb6:	2f2f 2d2d      	movel %sp@(11565),%sp@-
   29eba:	2d2d 2d2d      	movel %a5@(11565),%fp@-
   29ebe:	2d2d 2d2d      	movel %a5@(11565),%fp@-
   29ec2:	2d2d 2d2d      	movel %a5@(11565),%fp@-
   29ec6:	2d17           	movel %sp@,%fp@-
   29ec8:	172d 2d2d      	moveb %a5@(11565),%a3@-
   29ecc:	2d17           	movel %sp@,%fp@-
   29ece:	1717           	moveb %sp@,%a3@-
   29ed0:	1717           	moveb %sp@,%a3@-
   29ed2:	2d2d 1717      	movel %a5@(5911),%fp@-
   29ed6:	1717           	moveb %sp@,%a3@-
   29ed8:	2d2d 2d2d      	movel %a5@(11565),%fp@-
   29edc:	0062 6262      	oriw #25186,%a2@-
   29ee0:	6262           	bhis 29f44 <picData+0x9ef0>
   29ee2:	6227           	bhis 29f0b <picData+0x9eb7>
   29ee4:	2d2d 2d2d      	movel %a5@(11565),%fp@-
   29ee8:	2d2d 2d2d      	movel %a5@(11565),%fp@-
   29eec:	2d2d 1717      	movel %a5@(5911),%fp@-
   29ef0:	2d2d 1717      	movel %a5@(5911),%fp@-
   29ef4:	2d17           	movel %sp@,%fp@-
   29ef6:	172d 2d17      	moveb %a5@(11543),%a3@-
   29efa:	172d 1717      	moveb %a5@(5911),%a3@-
   29efe:	2d2d 1717      	movel %a5@(5911),%fp@-
   29f02:	2d2d 0062      	movel %a5@(98),%fp@-
   29f06:	6262           	bhis 29f6a <picData+0x9f16>
   29f08:	6262           	bhis 29f6c <picData+0x9f18>
   29f0a:	6227           	bhis 29f33 <picData+0x9edf>
   29f0c:	2d2d 2d2d      	movel %a5@(11565),%fp@-
   29f10:	2d2d 2d2d      	movel %a5@(11565),%fp@-
   29f14:	2d2d 1717      	movel %a5@(5911),%fp@-
   29f18:	2d2d 1717      	movel %a5@(5911),%fp@-
   29f1c:	2d17           	movel %sp@,%fp@-
   29f1e:	172d 2d17      	moveb %a5@(11543),%a3@-
   29f22:	172d 1717      	moveb %a5@(5911),%a3@-
   29f26:	2d2d 1717      	movel %a5@(5911),%fp@-
   29f2a:	2d2d 0062      	movel %a5@(98),%fp@-
   29f2e:	6262           	bhis 29f92 <picData+0x9f3e>
   29f30:	6262           	bhis 29f94 <picData+0x9f40>
   29f32:	6227           	bhis 29f5b <picData+0x9f07>
   29f34:	2d2d 2d2d      	movel %a5@(11565),%fp@-
   29f38:	3629 2929      	movew %a1@(10537),%d3
   29f3c:	2929 2929      	movel %a1@(10537),%a4@-
   29f40:	2929 2929      	movel %a1@(10537),%a4@-
   29f44:	2929 2929      	movel %a1@(10537),%a4@-
   29f48:	2f2f 2d2d      	movel %sp@(11565),%sp@-
   29f4c:	3233 3334 0c0c 	movew %a3@(0c0c0c0c)@(00000000,%d3:w:2),%d1
   29f52:	0c0c 
   29f54:	0c0c           	.short 0x0c0c
   29f56:	3535 3535 3636 	movew %a5@(36363636)@(00000000,%d3:w:4),%a2@-
   29f5c:	3636 
   29f5e:	2023           	movel %a3@-,%d0
   29f60:	2f2d 2d2d      	movel %a5@(11565),%sp@-
   29f64:	1717           	moveb %sp@,%a3@-
   29f66:	1717           	moveb %sp@,%a3@-
   29f68:	1717           	moveb %sp@,%a3@-
   29f6a:	1717           	moveb %sp@,%a3@-
   29f6c:	172d 1717      	moveb %a5@(5911),%a3@-
   29f70:	1717           	moveb %sp@,%a3@-
   29f72:	1717           	moveb %sp@,%a3@-
   29f74:	1717           	moveb %sp@,%a3@-
   29f76:	172d 1717      	moveb %a5@(5911),%a3@-
   29f7a:	172d 2d2d      	moveb %a5@(11565),%a3@-
   29f7e:	2d2d 2d2d      	movel %a5@(11565),%fp@-
   29f82:	1717           	moveb %sp@,%a3@-
   29f84:	172d 1717      	moveb %a5@(5911),%a3@-
   29f88:	1717           	moveb %sp@,%a3@-
   29f8a:	1717           	moveb %sp@,%a3@-
   29f8c:	1717           	moveb %sp@,%a3@-
   29f8e:	172d 2d2d      	moveb %a5@(11565),%a3@-
   29f92:	2d2d 2d2d      	movel %a5@(11565),%fp@-
   29f96:	2d2d 2d2d      	movel %a5@(11565),%fp@-
   29f9a:	2d2d 2d2d      	movel %a5@(11565),%fp@-
   29f9e:	2d2d 2d2d      	movel %a5@(11565),%fp@-
   29fa2:	2d2d 2d2d      	movel %a5@(11565),%fp@-
   29fa6:	2d2d 2d2d      	movel %a5@(11565),%fp@-
   29faa:	2d2d 2d2d      	movel %a5@(11565),%fp@-
   29fae:	2d2d 2d2d      	movel %a5@(11565),%fp@-
   29fb2:	2d2d 2d2d      	movel %a5@(11565),%fp@-
   29fb6:	2d2d 2d2d      	movel %a5@(11565),%fp@-
   29fba:	2d2d 2d2d      	movel %a5@(11565),%fp@-
   29fbe:	2d2d 2d2d      	movel %a5@(11565),%fp@-
   29fc2:	2d2d 2d2d      	movel %a5@(11565),%fp@-
   29fc6:	2d2d 2d2d      	movel %a5@(11565),%fp@-
   29fca:	2d2d 2d2d      	movel %a5@(11565),%fp@-
   29fce:	2d2d 2d2d      	movel %a5@(11565),%fp@-
   29fd2:	2d2d 2d2d      	movel %a5@(11565),%fp@-
   29fd6:	2d2d 2d2d      	movel %a5@(11565),%fp@-
   29fda:	2d2d 2d2d      	movel %a5@(11565),%fp@-
   29fde:	2d2d 2d35      	movel %a5@(11573),%fp@-
   29fe2:	2929 2929      	movel %a1@(10537),%a4@-
   29fe6:	2929 2929      	movel %a1@(10537),%a4@-
   29fea:	2929 2929      	movel %a1@(10537),%a4@-
   29fee:	2929 2929      	movel %a1@(10537),%a4@-
   29ff2:	2929 2929      	movel %a1@(10537),%a4@-
   29ff6:	2f2f 2d2d      	movel %sp@(11565),%sp@-
   29ffa:	2d2d 2d2d      	movel %a5@(11565),%fp@-
   29ffe:	2d2d 2d2d      	movel %a5@(11565),%fp@-
   2a002:	2d2d 2d2d      	movel %a5@(11565),%fp@-
   2a006:	2d17           	movel %sp@,%fp@-
   2a008:	172d 2d2d      	moveb %a5@(11565),%a3@-
   2a00c:	2d2d 2d2d      	movel %a5@(11565),%fp@-
   2a010:	1717           	moveb %sp@,%a3@-
   2a012:	2d17           	movel %sp@,%fp@-
   2a014:	172d 2d2d      	moveb %a5@(11565),%a3@-
   2a018:	2d2d 2d2d      	movel %a5@(11565),%fp@-
   2a01c:	2f62 6262      	movel %a2@-,%sp@(25186)
   2a020:	6262           	bhis 2a084 <picData+0xa030>
   2a022:	6227           	bhis 2a04b <picData+0x9ff7>
   2a024:	2d2d 2d2d      	movel %a5@(11565),%fp@-
   2a028:	2d2d 2d2d      	movel %a5@(11565),%fp@-
   2a02c:	2d2d 1717      	movel %a5@(5911),%fp@-
   2a030:	2d2d 1717      	movel %a5@(5911),%fp@-
   2a034:	2d17           	movel %sp@,%fp@-
   2a036:	172d 2d17      	moveb %a5@(11543),%a3@-
   2a03a:	172d 1717      	moveb %a5@(5911),%a3@-
   2a03e:	2d2d 1717      	movel %a5@(5911),%fp@-
   2a042:	2d2d 2f62      	movel %a5@(12130),%fp@-
   2a046:	6262           	bhis 2a0aa <picData+0xa056>
   2a048:	6262           	bhis 2a0ac <picData+0xa058>
   2a04a:	6227           	bhis 2a073 <picData+0xa01f>
   2a04c:	2d2d 2d2d      	movel %a5@(11565),%fp@-
   2a050:	2d2d 2d2d      	movel %a5@(11565),%fp@-
   2a054:	2d2d 1717      	movel %a5@(5911),%fp@-
   2a058:	2d2d 1717      	movel %a5@(5911),%fp@-
   2a05c:	2d17           	movel %sp@,%fp@-
   2a05e:	172d 2d17      	moveb %a5@(11543),%a3@-
   2a062:	172d 1717      	moveb %a5@(5911),%a3@-
   2a066:	2d2d 1717      	movel %a5@(5911),%fp@-
   2a06a:	2d2d 2f62      	movel %a5@(12130),%fp@-
   2a06e:	6262           	bhis 2a0d2 <picData+0xa07e>
   2a070:	6262           	bhis 2a0d4 <picData+0xa080>
   2a072:	6227           	bhis 2a09b <picData+0xa047>
   2a074:	2d2d 2d2d      	movel %a5@(11565),%fp@-
   2a078:	3629 2929      	movew %a1@(10537),%d3
   2a07c:	2929 2929      	movel %a1@(10537),%a4@-
   2a080:	2929 2929      	movel %a1@(10537),%a4@-
   2a084:	2929 2929      	movel %a1@(10537),%a4@-
   2a088:	2e2f 2d2d      	movel %sp@(11565),%d7
   2a08c:	3336 2225      	movew %fp@(00000025,%d2:w:2),%a1@-
   2a090:	2727           	movel %sp@-,%a3@-
   2a092:	2828 2828      	movel %a0@(10280),%d4
   2a096:	2828 2828      	movel %a0@(10280),%d4
   2a09a:	2828 2828      	movel %a0@(10280),%d4
   2a09e:	282c 2f2d      	movel %a4@(12077),%d4
   2a0a2:	2d2d 1717      	movel %a5@(5911),%fp@-
   2a0a6:	172d 2d2d      	moveb %a5@(11565),%a3@-
   2a0aa:	1717           	moveb %sp@,%a3@-
   2a0ac:	172d 1717      	moveb %a5@(5911),%a3@-
   2a0b0:	172d 2d2d      	moveb %a5@(11565),%a3@-
   2a0b4:	1717           	moveb %sp@,%a3@-
   2a0b6:	172d 1717      	moveb %a5@(5911),%a3@-
   2a0ba:	172d 2d2d      	moveb %a5@(11565),%a3@-
   2a0be:	2d2d 2d2d      	movel %a5@(11565),%fp@-
   2a0c2:	1717           	moveb %sp@,%a3@-
   2a0c4:	172d 1717      	moveb %a5@(5911),%a3@-
   2a0c8:	172d 2d2d      	moveb %a5@(11565),%a3@-
   2a0cc:	1717           	moveb %sp@,%a3@-
   2a0ce:	172d 2d2d      	moveb %a5@(11565),%a3@-
   2a0d2:	2d2d 2d2d      	movel %a5@(11565),%fp@-
   2a0d6:	2d2d 2d2d      	movel %a5@(11565),%fp@-
   2a0da:	2d2d 2d2d      	movel %a5@(11565),%fp@-
   2a0de:	2d2d 2d2d      	movel %a5@(11565),%fp@-
   2a0e2:	2d2d 2d2d      	movel %a5@(11565),%fp@-
   2a0e6:	2d2d 2d2d      	movel %a5@(11565),%fp@-
   2a0ea:	2d2d 2d2d      	movel %a5@(11565),%fp@-
   2a0ee:	2d2d 2d2d      	movel %a5@(11565),%fp@-
   2a0f2:	2d2d 2d2d      	movel %a5@(11565),%fp@-
   2a0f6:	2d2d 2d2d      	movel %a5@(11565),%fp@-
   2a0fa:	2d2d 2d2d      	movel %a5@(11565),%fp@-
   2a0fe:	2d2d 2d2d      	movel %a5@(11565),%fp@-
   2a102:	2d2d 2d2d      	movel %a5@(11565),%fp@-
   2a106:	2d2d 2d2d      	movel %a5@(11565),%fp@-
   2a10a:	2d2d 2d2d      	movel %a5@(11565),%fp@-
   2a10e:	2d2d 2d2d      	movel %a5@(11565),%fp@-
   2a112:	2d2d 2d2d      	movel %a5@(11565),%fp@-
   2a116:	2d2d 2d2d      	movel %a5@(11565),%fp@-
   2a11a:	2d2d 2d2d      	movel %a5@(11565),%fp@-
   2a11e:	2d2d 2d35      	movel %a5@(11573),%fp@-
   2a122:	2929 2929      	movel %a1@(10537),%a4@-
   2a126:	2929 2929      	movel %a1@(10537),%a4@-
   2a12a:	2929 2929      	movel %a1@(10537),%a4@-
   2a12e:	2929 2929      	movel %a1@(10537),%a4@-
   2a132:	2929 2929      	movel %a1@(10537),%a4@-
   2a136:	2f2f 2d2d      	movel %sp@(11565),%sp@-
   2a13a:	2d2d 2d2d      	movel %a5@(11565),%fp@-
   2a13e:	2d2d 2d2d      	movel %a5@(11565),%fp@-
   2a142:	2d2d 2d2d      	movel %a5@(11565),%fp@-
   2a146:	1717           	moveb %sp@,%a3@-
   2a148:	1717           	moveb %sp@,%a3@-
   2a14a:	2d2d 2d17      	movel %a5@(11543),%fp@-
   2a14e:	1717           	moveb %sp@,%a3@-
   2a150:	172d 2d17      	moveb %a5@(11543),%a3@-
   2a154:	1717           	moveb %sp@,%a3@-
   2a156:	1717           	moveb %sp@,%a3@-
   2a158:	172d 2d2d      	moveb %a5@(11565),%a3@-
   2a15c:	2f62 6262      	movel %a2@-,%sp@(25186)
   2a160:	6262           	bhis 2a1c4 <picData+0xa170>
   2a162:	6225           	bhis 2a189 <picData+0xa135>
   2a164:	2d2d 2d2d      	movel %a5@(11565),%fp@-
   2a168:	2d2d 2d2d      	movel %a5@(11565),%fp@-
   2a16c:	2d2d 2d17      	movel %a5@(11543),%fp@-
   2a170:	1717           	moveb %sp@,%a3@-
   2a172:	172d 2d2d      	moveb %a5@(11565),%a3@-
   2a176:	1717           	moveb %sp@,%a3@-
   2a178:	1717           	moveb %sp@,%a3@-
   2a17a:	2d2d 2d17      	movel %a5@(11543),%fp@-
   2a17e:	1717           	moveb %sp@,%a3@-
   2a180:	172d 2d2d      	moveb %a5@(11565),%a3@-
   2a184:	2f62 6262      	movel %a2@-,%sp@(25186)
   2a188:	6262           	bhis 2a1ec <picData+0xa198>
   2a18a:	6225           	bhis 2a1b1 <picData+0xa15d>
   2a18c:	2d2d 2d2d      	movel %a5@(11565),%fp@-
   2a190:	2d2d 2d2d      	movel %a5@(11565),%fp@-
   2a194:	2d2d 2d17      	movel %a5@(11543),%fp@-
   2a198:	1717           	moveb %sp@,%a3@-
   2a19a:	172d 2d2d      	moveb %a5@(11565),%a3@-
   2a19e:	1717           	moveb %sp@,%a3@-
   2a1a0:	1717           	moveb %sp@,%a3@-
   2a1a2:	2d2d 2d17      	movel %a5@(11543),%fp@-
   2a1a6:	1717           	moveb %sp@,%a3@-
   2a1a8:	172d 2d2d      	moveb %a5@(11565),%a3@-
   2a1ac:	2f62 6262      	movel %a2@-,%sp@(25186)
   2a1b0:	6262           	bhis 2a214 <picData+0xa1c0>
   2a1b2:	6225           	bhis 2a1d9 <picData+0xa185>
   2a1b4:	2d2d 2d2d      	movel %a5@(11565),%fp@-
   2a1b8:	3629 2929      	movew %a1@(10537),%d3
   2a1bc:	2929 2929      	movel %a1@(10537),%a4@-
   2a1c0:	2929 2929      	movel %a1@(10537),%a4@-
   2a1c4:	2929 2929      	movel %a1@(10537),%a4@-
   2a1c8:	2e2f 2d2d      	movel %sp@(11565),%d7
   2a1cc:	3422           	movew %a2@-,%d2
   2a1ce:	2500           	movel %d0,%a2@-
	...
   2a1dc:	0028 282c 2f2d 	orib #44,%a0@(12077)
   2a1e2:	2d2d 1717      	movel %a5@(5911),%fp@-
   2a1e6:	172d 2d2d      	moveb %a5@(11565),%a3@-
   2a1ea:	1717           	moveb %sp@,%a3@-
   2a1ec:	172d 1717      	moveb %a5@(5911),%a3@-
   2a1f0:	172d 2d2d      	moveb %a5@(11565),%a3@-
   2a1f4:	1717           	moveb %sp@,%a3@-
   2a1f6:	172d 1717      	moveb %a5@(5911),%a3@-
   2a1fa:	172d 2d2d      	moveb %a5@(11565),%a3@-
   2a1fe:	2d2d 2d2d      	movel %a5@(11565),%fp@-
   2a202:	1717           	moveb %sp@,%a3@-
   2a204:	172d 1717      	moveb %a5@(5911),%a3@-
   2a208:	172d 2d2d      	moveb %a5@(11565),%a3@-
   2a20c:	1717           	moveb %sp@,%a3@-
   2a20e:	172d 2d2d      	moveb %a5@(11565),%a3@-
   2a212:	2d2d 2d2d      	movel %a5@(11565),%fp@-
   2a216:	2d2d 2d2d      	movel %a5@(11565),%fp@-
   2a21a:	2d2d 2d2d      	movel %a5@(11565),%fp@-
   2a21e:	2d2d 2d2d      	movel %a5@(11565),%fp@-
   2a222:	2d2d 2d2d      	movel %a5@(11565),%fp@-
   2a226:	2d2d 2d2d      	movel %a5@(11565),%fp@-
   2a22a:	2d2d 2d2d      	movel %a5@(11565),%fp@-
   2a22e:	2d2d 2d2d      	movel %a5@(11565),%fp@-
   2a232:	2d2d 2d2d      	movel %a5@(11565),%fp@-
   2a236:	2d2d 2d2d      	movel %a5@(11565),%fp@-
   2a23a:	2d2d 2d2d      	movel %a5@(11565),%fp@-
   2a23e:	2d2d 2d2d      	movel %a5@(11565),%fp@-
   2a242:	2d2d 2d2d      	movel %a5@(11565),%fp@-
   2a246:	2d2d 2d2d      	movel %a5@(11565),%fp@-
   2a24a:	2d2d 2d2d      	movel %a5@(11565),%fp@-
   2a24e:	2d2d 2d2d      	movel %a5@(11565),%fp@-
   2a252:	2d2d 2d2d      	movel %a5@(11565),%fp@-
   2a256:	2d2d 2d2d      	movel %a5@(11565),%fp@-
   2a25a:	2d2d 2d2d      	movel %a5@(11565),%fp@-
   2a25e:	2d2d 2d35      	movel %a5@(11573),%fp@-
   2a262:	2929 2929      	movel %a1@(10537),%a4@-
   2a266:	2929 2929      	movel %a1@(10537),%a4@-
   2a26a:	2929 2929      	movel %a1@(10537),%a4@-
   2a26e:	2929 2929      	movel %a1@(10537),%a4@-
   2a272:	2929 2929      	movel %a1@(10537),%a4@-
   2a276:	2f2f 2d2d      	movel %sp@(11565),%sp@-
   2a27a:	2d2d 2d2d      	movel %a5@(11565),%fp@-
   2a27e:	2d2d 2d2d      	movel %a5@(11565),%fp@-
   2a282:	2d2d 2d2d      	movel %a5@(11565),%fp@-
   2a286:	2d2d 2d2d      	movel %a5@(11565),%fp@-
   2a28a:	2d2d 2d2d      	movel %a5@(11565),%fp@-
   2a28e:	2d2d 2d2d      	movel %a5@(11565),%fp@-
   2a292:	2d2d 2d2d      	movel %a5@(11565),%fp@-
   2a296:	2d2d 2d2d      	movel %a5@(11565),%fp@-
   2a29a:	2d2d 2b29      	movel %a5@(11049),%fp@-
   2a29e:	2727           	movel %sp@-,%a3@-
   2a2a0:	2727           	movel %sp@-,%a3@-
   2a2a2:	2522           	movel %a2@-,%a2@-
   2a2a4:	2d2d 2d2d      	movel %a5@(11565),%fp@-
   2a2a8:	2d2d 2d2d      	movel %a5@(11565),%fp@-
   2a2ac:	2d2d 2d2d      	movel %a5@(11565),%fp@-
   2a2b0:	2d2d 2d2d      	movel %a5@(11565),%fp@-
   2a2b4:	2d2d 2d2d      	movel %a5@(11565),%fp@-
   2a2b8:	2d2d 2d2d      	movel %a5@(11565),%fp@-
   2a2bc:	2d2d 2d2d      	movel %a5@(11565),%fp@-
   2a2c0:	2d2d 2d2d      	movel %a5@(11565),%fp@-
   2a2c4:	2b29 2727      	movel %a1@(10023),%a5@-
   2a2c8:	2727           	movel %sp@-,%a3@-
   2a2ca:	2522           	movel %a2@-,%a2@-
   2a2cc:	2d2d 2d2d      	movel %a5@(11565),%fp@-
   2a2d0:	2d2d 2d2d      	movel %a5@(11565),%fp@-
   2a2d4:	2d2d 2d2d      	movel %a5@(11565),%fp@-
   2a2d8:	2d2d 2d2d      	movel %a5@(11565),%fp@-
   2a2dc:	2d2d 2d2d      	movel %a5@(11565),%fp@-
   2a2e0:	2d2d 2d2d      	movel %a5@(11565),%fp@-
   2a2e4:	2d2d 2d2d      	movel %a5@(11565),%fp@-
   2a2e8:	2d2d 2d2d      	movel %a5@(11565),%fp@-
   2a2ec:	2b29 2727      	movel %a1@(10023),%a5@-
   2a2f0:	2727           	movel %sp@-,%a3@-
   2a2f2:	2522           	movel %a2@-,%a2@-
   2a2f4:	2d2d 2d2d      	movel %a5@(11565),%fp@-
   2a2f8:	3629 2929      	movew %a1@(10537),%d3
   2a2fc:	2929 2929      	movel %a1@(10537),%a4@-
   2a300:	2929 2929      	movel %a1@(10537),%a4@-
   2a304:	2929 2929      	movel %a1@(10537),%a4@-
   2a308:	2e2f 2d2d      	movel %sp@(11565),%d7
   2a30c:	3425           	movew %a5@-,%d2
   2a30e:	2700           	movel %d0,%a3@-
   2a310:	1f1f           	moveb %sp@+,%sp@-
   2a312:	1f1f           	moveb %sp@+,%sp@-
   2a314:	1f1f           	moveb %sp@+,%sp@-
   2a316:	1f1f           	moveb %sp@+,%sp@-
   2a318:	1f1f           	moveb %sp@+,%sp@-
   2a31a:	1f1f           	moveb %sp@+,%sp@-
   2a31c:	1f28 282d      	moveb %a0@(10285),%sp@-
   2a320:	2f2d 2d2d      	movel %a5@(11565),%sp@-
   2a324:	1717           	moveb %sp@,%a3@-
   2a326:	1717           	moveb %sp@,%a3@-
   2a328:	1717           	moveb %sp@,%a3@-
   2a32a:	1717           	moveb %sp@,%a3@-
   2a32c:	172d 1717      	moveb %a5@(5911),%a3@-
   2a330:	172d 2d2d      	moveb %a5@(11565),%a3@-
   2a334:	1717           	moveb %sp@,%a3@-
   2a336:	172d 1717      	moveb %a5@(5911),%a3@-
   2a33a:	172d 2d2d      	moveb %a5@(11565),%a3@-
   2a33e:	2d2d 2d2d      	movel %a5@(11565),%fp@-
   2a342:	1717           	moveb %sp@,%a3@-
   2a344:	172d 1717      	moveb %a5@(5911),%a3@-
   2a348:	1717           	moveb %sp@,%a3@-
   2a34a:	1717           	moveb %sp@,%a3@-
   2a34c:	1717           	moveb %sp@,%a3@-
   2a34e:	2d2d 2d2d      	movel %a5@(11565),%fp@-
   2a352:	2d2d 2d2d      	movel %a5@(11565),%fp@-
   2a356:	2d2d 2d2d      	movel %a5@(11565),%fp@-
   2a35a:	2d2d 2d2d      	movel %a5@(11565),%fp@-
   2a35e:	2d2d 2d2d      	movel %a5@(11565),%fp@-
   2a362:	2d2d 2d2d      	movel %a5@(11565),%fp@-
   2a366:	2d2d 2d2d      	movel %a5@(11565),%fp@-
   2a36a:	2d2d 2d2d      	movel %a5@(11565),%fp@-
   2a36e:	2d2d 2d2d      	movel %a5@(11565),%fp@-
   2a372:	2d2d 2d2d      	movel %a5@(11565),%fp@-
   2a376:	2d2d 2d2d      	movel %a5@(11565),%fp@-
   2a37a:	2d2d 2d2d      	movel %a5@(11565),%fp@-
   2a37e:	2d2d 2d2d      	movel %a5@(11565),%fp@-
   2a382:	2d2d 2d2d      	movel %a5@(11565),%fp@-
   2a386:	2d2d 2d2d      	movel %a5@(11565),%fp@-
   2a38a:	2d2d 2d2d      	movel %a5@(11565),%fp@-
   2a38e:	2d2d 2d2d      	movel %a5@(11565),%fp@-
   2a392:	2d2d 2d2d      	movel %a5@(11565),%fp@-
   2a396:	2d2d 2d2d      	movel %a5@(11565),%fp@-
   2a39a:	2d2d 2d2d      	movel %a5@(11565),%fp@-
   2a39e:	2d2d 2d35      	movel %a5@(11573),%fp@-
   2a3a2:	2929 2929      	movel %a1@(10537),%a4@-
   2a3a6:	2929 2929      	movel %a1@(10537),%a4@-
   2a3aa:	2929 2929      	movel %a1@(10537),%a4@-
   2a3ae:	2929 2929      	movel %a1@(10537),%a4@-
   2a3b2:	2929 2929      	movel %a1@(10537),%a4@-
   2a3b6:	2f2f 2d2d      	movel %sp@(11565),%sp@-
   2a3ba:	2d2d 2d2d      	movel %a5@(11565),%fp@-
   2a3be:	2d2d 2d2d      	movel %a5@(11565),%fp@-
   2a3c2:	2d2d 2d2d      	movel %a5@(11565),%fp@-
   2a3c6:	2d2d 2d2d      	movel %a5@(11565),%fp@-
   2a3ca:	2d2d 2d2d      	movel %a5@(11565),%fp@-
   2a3ce:	2d2d 2d2d      	movel %a5@(11565),%fp@-
   2a3d2:	2d2d 2d2d      	movel %a5@(11565),%fp@-
   2a3d6:	2d2d 2d2d      	movel %a5@(11565),%fp@-
   2a3da:	2d2d 2d2d      	movel %a5@(11565),%fp@-
   2a3de:	2d2d 2d2d      	movel %a5@(11565),%fp@-
   2a3e2:	2d2d 2d2d      	movel %a5@(11565),%fp@-
   2a3e6:	2d2d 2d2d      	movel %a5@(11565),%fp@-
   2a3ea:	2d2d 2d2d      	movel %a5@(11565),%fp@-
   2a3ee:	2d2d 2d2d      	movel %a5@(11565),%fp@-
   2a3f2:	2d2d 2d2d      	movel %a5@(11565),%fp@-
   2a3f6:	2d2d 2d2d      	movel %a5@(11565),%fp@-
   2a3fa:	2d2d 2d2d      	movel %a5@(11565),%fp@-
   2a3fe:	2d2d 2d2d      	movel %a5@(11565),%fp@-
   2a402:	2d2d 2d2d      	movel %a5@(11565),%fp@-
   2a406:	2d2d 2d2d      	movel %a5@(11565),%fp@-
   2a40a:	2d2d 2d2d      	movel %a5@(11565),%fp@-
   2a40e:	2d2d 2d2d      	movel %a5@(11565),%fp@-
   2a412:	2d2d 2d2d      	movel %a5@(11565),%fp@-
   2a416:	2d2d 2d2d      	movel %a5@(11565),%fp@-
   2a41a:	2d2d 2d2d      	movel %a5@(11565),%fp@-
   2a41e:	2d2d 2d2d      	movel %a5@(11565),%fp@-
   2a422:	2d2d 2d2d      	movel %a5@(11565),%fp@-
   2a426:	2d2d 2d2d      	movel %a5@(11565),%fp@-
   2a42a:	2d2d 2d2d      	movel %a5@(11565),%fp@-
   2a42e:	2d2d 2d2d      	movel %a5@(11565),%fp@-
   2a432:	2d2d 2d2d      	movel %a5@(11565),%fp@-
   2a436:	2d2d 3529      	movel %a5@(13609),%fp@-
   2a43a:	2929 2929      	movel %a1@(10537),%a4@-
   2a43e:	2929 2929      	movel %a1@(10537),%a4@-
   2a442:	2929 2929      	movel %a1@(10537),%a4@-
   2a446:	2929 2e2f      	movel %a1@(11823),%a4@-
   2a44a:	2d2d 3527      	movel %a5@(13607),%fp@-
   2a44e:	2700           	movel %d0,%a3@-
   2a450:	1f1f           	moveb %sp@+,%sp@-
   2a452:	1f1f           	moveb %sp@+,%sp@-
   2a454:	1f1f           	moveb %sp@+,%sp@-
   2a456:	1f1f           	moveb %sp@+,%sp@-
   2a458:	1f1f           	moveb %sp@+,%sp@-
   2a45a:	1f1f           	moveb %sp@+,%sp@-
   2a45c:	1f28 282d      	moveb %a0@(10285),%sp@-
   2a460:	2f2d 2d2d      	movel %a5@(11565),%sp@-
   2a464:	1717           	moveb %sp@,%a3@-
   2a466:	1717           	moveb %sp@,%a3@-
   2a468:	1717           	moveb %sp@,%a3@-
   2a46a:	1717           	moveb %sp@,%a3@-
   2a46c:	172d 1717      	moveb %a5@(5911),%a3@-
   2a470:	172d 2d2d      	moveb %a5@(11565),%a3@-
   2a474:	1717           	moveb %sp@,%a3@-
   2a476:	172d 1717      	moveb %a5@(5911),%a3@-
   2a47a:	172d 2d2d      	moveb %a5@(11565),%a3@-
   2a47e:	2d2d 2d2d      	movel %a5@(11565),%fp@-
   2a482:	1717           	moveb %sp@,%a3@-
   2a484:	172d 1717      	moveb %a5@(5911),%a3@-
   2a488:	1717           	moveb %sp@,%a3@-
   2a48a:	1717           	moveb %sp@,%a3@-
   2a48c:	1717           	moveb %sp@,%a3@-
   2a48e:	2d2d 2d2d      	movel %a5@(11565),%fp@-
   2a492:	2d2d 2d2d      	movel %a5@(11565),%fp@-
   2a496:	2d2d 2d2d      	movel %a5@(11565),%fp@-
   2a49a:	2d2d 2d2d      	movel %a5@(11565),%fp@-
   2a49e:	2d2d 2d2d      	movel %a5@(11565),%fp@-
   2a4a2:	2d2d 2d2d      	movel %a5@(11565),%fp@-
   2a4a6:	2d2d 2d2d      	movel %a5@(11565),%fp@-
   2a4aa:	2d2d 2d2d      	movel %a5@(11565),%fp@-
   2a4ae:	2d2d 2d2d      	movel %a5@(11565),%fp@-
   2a4b2:	2d2d 2d2d      	movel %a5@(11565),%fp@-
   2a4b6:	2d2d 2d2d      	movel %a5@(11565),%fp@-
   2a4ba:	2d2d 2d2d      	movel %a5@(11565),%fp@-
   2a4be:	2d2d 2d2d      	movel %a5@(11565),%fp@-
   2a4c2:	2d2d 2d2d      	movel %a5@(11565),%fp@-
   2a4c6:	2d2d 2d2d      	movel %a5@(11565),%fp@-
   2a4ca:	2d2d 2d2d      	movel %a5@(11565),%fp@-
   2a4ce:	2d2d 2d2d      	movel %a5@(11565),%fp@-
   2a4d2:	2d2d 2d2d      	movel %a5@(11565),%fp@-
   2a4d6:	2d2d 2d2d      	movel %a5@(11565),%fp@-
   2a4da:	2d2d 2d2d      	movel %a5@(11565),%fp@-
   2a4de:	2d2d 2d0c      	movel %a5@(11532),%fp@-
   2a4e2:	2929 2929      	movel %a1@(10537),%a4@-
   2a4e6:	2929 2929      	movel %a1@(10537),%a4@-
   2a4ea:	2929 2929      	movel %a1@(10537),%a4@-
   2a4ee:	2929 2929      	movel %a1@(10537),%a4@-
   2a4f2:	2929 2929      	movel %a1@(10537),%a4@-
   2a4f6:	2f2f 2d2d      	movel %sp@(11565),%sp@-
   2a4fa:	2d2d 2d2d      	movel %a5@(11565),%fp@-
   2a4fe:	2d2d 2d2d      	movel %a5@(11565),%fp@-
   2a502:	2d2d 2d2d      	movel %a5@(11565),%fp@-
   2a506:	2d17           	movel %sp@,%fp@-
   2a508:	172d 2d2d      	moveb %a5@(11565),%a3@-
   2a50c:	2d17           	movel %sp@,%fp@-
   2a50e:	1717           	moveb %sp@,%a3@-
   2a510:	172d 2d2d      	moveb %a5@(11565),%a3@-
   2a514:	1717           	moveb %sp@,%a3@-
   2a516:	1717           	moveb %sp@,%a3@-
   2a518:	2d2d 2d2d      	movel %a5@(11565),%fp@-
   2a51c:	0000 0000      	orib #0,%d0
   2a520:	002f 2f2b 2d2d 	orib #43,%sp@(11565)
   2a526:	2d2d 2d2d      	movel %a5@(11565),%fp@-
   2a52a:	2d2d 2d2d      	movel %a5@(11565),%fp@-
   2a52e:	1717           	moveb %sp@,%a3@-
   2a530:	1717           	moveb %sp@,%a3@-
   2a532:	1717           	moveb %sp@,%a3@-
   2a534:	2d2d 1717      	movel %a5@(5911),%fp@-
   2a538:	1717           	moveb %sp@,%a3@-
   2a53a:	2d2d 2d17      	movel %a5@(11543),%fp@-
   2a53e:	1717           	moveb %sp@,%a3@-
   2a540:	172d 2d2d      	moveb %a5@(11565),%a3@-
   2a544:	0000 0000      	orib #0,%d0
   2a548:	002f 2f2b 2d2d 	orib #43,%sp@(11565)
   2a54e:	2d2d 2d2d      	movel %a5@(11565),%fp@-
   2a552:	2d2d 2d2d      	movel %a5@(11565),%fp@-
   2a556:	1717           	moveb %sp@,%a3@-
   2a558:	1717           	moveb %sp@,%a3@-
   2a55a:	1717           	moveb %sp@,%a3@-
   2a55c:	2d2d 1717      	movel %a5@(5911),%fp@-
   2a560:	1717           	moveb %sp@,%a3@-
   2a562:	2d2d 2d17      	movel %a5@(11543),%fp@-
   2a566:	1717           	moveb %sp@,%a3@-
   2a568:	172d 2d2d      	moveb %a5@(11565),%a3@-
   2a56c:	0000 0000      	orib #0,%d0
   2a570:	002f 2f2b 2d2d 	orib #43,%sp@(11565)
   2a576:	2d2d 3529      	movel %a5@(13609),%fp@-
   2a57a:	2929 2929      	movel %a1@(10537),%a4@-
   2a57e:	2929 2929      	movel %a1@(10537),%a4@-
   2a582:	2929 2929      	movel %a1@(10537),%a4@-
   2a586:	2929 2e2f      	movel %a1@(11823),%a4@-
   2a58a:	2d2d 3627      	movel %a5@(13863),%fp@-
   2a58e:	2800           	movel %d0,%d4
   2a590:	1f1f           	moveb %sp@+,%sp@-
   2a592:	1f1f           	moveb %sp@+,%sp@-
   2a594:	1f1f           	moveb %sp@+,%sp@-
   2a596:	1f1f           	moveb %sp@+,%sp@-
   2a598:	1f1f           	moveb %sp@+,%sp@-
   2a59a:	1f1f           	moveb %sp@+,%sp@-
   2a59c:	1f28 282e      	moveb %a0@(10286),%sp@-
   2a5a0:	2f2d 2d2d      	movel %a5@(11565),%sp@-
   2a5a4:	1717           	moveb %sp@,%a3@-
   2a5a6:	172d 2d2d      	moveb %a5@(11565),%a3@-
   2a5aa:	1717           	moveb %sp@,%a3@-
   2a5ac:	172d 1717      	moveb %a5@(5911),%a3@-
   2a5b0:	172d 2d2d      	moveb %a5@(11565),%a3@-
   2a5b4:	1717           	moveb %sp@,%a3@-
   2a5b6:	172d 1717      	moveb %a5@(5911),%a3@-
   2a5ba:	172d 2d2d      	moveb %a5@(11565),%a3@-
   2a5be:	2d2d 2d2d      	movel %a5@(11565),%fp@-
   2a5c2:	1717           	moveb %sp@,%a3@-
   2a5c4:	172d 1717      	moveb %a5@(5911),%a3@-
   2a5c8:	172d 2d2d      	moveb %a5@(11565),%a3@-
   2a5cc:	1717           	moveb %sp@,%a3@-
   2a5ce:	172d 2d2d      	moveb %a5@(11565),%a3@-
   2a5d2:	2d2d 2d2d      	movel %a5@(11565),%fp@-
   2a5d6:	2d2d 2d2d      	movel %a5@(11565),%fp@-
   2a5da:	2d2d 2d2d      	movel %a5@(11565),%fp@-
   2a5de:	2d2d 2d2d      	movel %a5@(11565),%fp@-
   2a5e2:	2d2d 2d2d      	movel %a5@(11565),%fp@-
   2a5e6:	2d2d 2d2d      	movel %a5@(11565),%fp@-
   2a5ea:	2d2d 2d2d      	movel %a5@(11565),%fp@-
   2a5ee:	2d2d 2d2d      	movel %a5@(11565),%fp@-
   2a5f2:	2d2d 2d2d      	movel %a5@(11565),%fp@-
   2a5f6:	2d2d 2d2d      	movel %a5@(11565),%fp@-
   2a5fa:	2d2d 2d2d      	movel %a5@(11565),%fp@-
   2a5fe:	2d2d 2d2d      	movel %a5@(11565),%fp@-
   2a602:	2d2d 2d2d      	movel %a5@(11565),%fp@-
   2a606:	2d2d 2d2d      	movel %a5@(11565),%fp@-
   2a60a:	2d2d 2d2d      	movel %a5@(11565),%fp@-
   2a60e:	2d2d 2d2d      	movel %a5@(11565),%fp@-
   2a612:	2d2d 2d2d      	movel %a5@(11565),%fp@-
   2a616:	2d2d 2d2d      	movel %a5@(11565),%fp@-
   2a61a:	2d2d 2d2d      	movel %a5@(11565),%fp@-
   2a61e:	2d2d 2d0c      	movel %a5@(11532),%fp@-
   2a622:	2929 2929      	movel %a1@(10537),%a4@-
   2a626:	2929 2929      	movel %a1@(10537),%a4@-
   2a62a:	2929 2929      	movel %a1@(10537),%a4@-
   2a62e:	2929 2929      	movel %a1@(10537),%a4@-
   2a632:	2929 2929      	movel %a1@(10537),%a4@-
   2a636:	2f2f 2d2d      	movel %sp@(11565),%sp@-
   2a63a:	2d2d 2d2d      	movel %a5@(11565),%fp@-
   2a63e:	2d2d 2d2d      	movel %a5@(11565),%fp@-
   2a642:	2d2d 2d2d      	movel %a5@(11565),%fp@-
   2a646:	1717           	moveb %sp@,%a3@-
   2a648:	172d 2d2d      	moveb %a5@(11565),%a3@-
   2a64c:	1717           	moveb %sp@,%a3@-
   2a64e:	2d2d 2d2d      	movel %a5@(11565),%fp@-
   2a652:	2d17           	movel %sp@,%fp@-
   2a654:	172d 2d17      	moveb %a5@(11543),%a3@-
   2a658:	172d 2d2d      	moveb %a5@(11565),%a3@-
   2a65c:	0064 6464      	oriw #25700,%a4@-
   2a660:	6464           	bccs 2a6c6 <picData+0xa672>
   2a662:	6429           	bccs 2a68d <picData+0xa639>
   2a664:	2d2d 2d2d      	movel %a5@(11565),%fp@-
   2a668:	2d2d 2d2d      	movel %a5@(11565),%fp@-
   2a66c:	2d2d 1717      	movel %a5@(5911),%fp@-
   2a670:	2d2d 2d2d      	movel %a5@(11565),%fp@-
   2a674:	2d17           	movel %sp@,%fp@-
   2a676:	172d 2d17      	moveb %a5@(11543),%a3@-
   2a67a:	172d 1717      	moveb %a5@(5911),%a3@-
   2a67e:	2d2d 1717      	movel %a5@(5911),%fp@-
   2a682:	2d2d 0064      	movel %a5@(100),%fp@-
   2a686:	6464           	bccs 2a6ec <picData+0xa698>
   2a688:	6464           	bccs 2a6ee <picData+0xa69a>
   2a68a:	6429           	bccs 2a6b5 <picData+0xa661>
   2a68c:	2d2d 2d2d      	movel %a5@(11565),%fp@-
   2a690:	2d2d 2d2d      	movel %a5@(11565),%fp@-
   2a694:	2d2d 1717      	movel %a5@(5911),%fp@-
   2a698:	2d2d 2d2d      	movel %a5@(11565),%fp@-
   2a69c:	2d17           	movel %sp@,%fp@-
   2a69e:	172d 2d17      	moveb %a5@(11543),%a3@-
   2a6a2:	172d 1717      	moveb %a5@(5911),%a3@-
   2a6a6:	2d2d 1717      	movel %a5@(5911),%fp@-
   2a6aa:	2d2d 0064      	movel %a5@(100),%fp@-
   2a6ae:	6464           	bccs 2a714 <picData+0xa6c0>
   2a6b0:	6464           	bccs 2a716 <picData+0xa6c2>
   2a6b2:	6429           	bccs 2a6dd <picData+0xa689>
   2a6b4:	2d2d 2d2d      	movel %a5@(11565),%fp@-
   2a6b8:	3529 2929      	movew %a1@(10537),%a2@-
   2a6bc:	2929 2929      	movel %a1@(10537),%a4@-
   2a6c0:	2929 2929      	movel %a1@(10537),%a4@-
   2a6c4:	2929 2929      	movel %a1@(10537),%a4@-
   2a6c8:	2d2f 2d2d      	movel %sp@(11565),%fp@-
   2a6cc:	2028 2828      	movel %a0@(10280),%d0
   2a6d0:	2828 2828      	movel %a0@(10280),%d4
   2a6d4:	2828 2828      	movel %a0@(10280),%d4
   2a6d8:	2828 2828      	movel %a0@(10280),%d4
   2a6dc:	2828 282e      	movel %a0@(10286),%d4
   2a6e0:	2f2d 2d2d      	movel %a5@(11565),%sp@-
   2a6e4:	1717           	moveb %sp@,%a3@-
   2a6e6:	172d 2d2d      	moveb %a5@(11565),%a3@-
   2a6ea:	1717           	moveb %sp@,%a3@-
   2a6ec:	172d 1717      	moveb %a5@(5911),%a3@-
   2a6f0:	172d 2d2d      	moveb %a5@(11565),%a3@-
   2a6f4:	1717           	moveb %sp@,%a3@-
   2a6f6:	172d 1717      	moveb %a5@(5911),%a3@-
   2a6fa:	172d 2d2d      	moveb %a5@(11565),%a3@-
   2a6fe:	2d2d 2d2d      	movel %a5@(11565),%fp@-
   2a702:	1717           	moveb %sp@,%a3@-
   2a704:	172d 1717      	moveb %a5@(5911),%a3@-
   2a708:	172d 2d2d      	moveb %a5@(11565),%a3@-
   2a70c:	1717           	moveb %sp@,%a3@-
   2a70e:	172d 2d2d      	moveb %a5@(11565),%a3@-
   2a712:	2d2d 2d2d      	movel %a5@(11565),%fp@-
   2a716:	2d2d 2d2d      	movel %a5@(11565),%fp@-
   2a71a:	2d2d 2d2d      	movel %a5@(11565),%fp@-
   2a71e:	2d2d 2d2d      	movel %a5@(11565),%fp@-
   2a722:	2d2d 2d2d      	movel %a5@(11565),%fp@-
   2a726:	2d2d 2d2d      	movel %a5@(11565),%fp@-
   2a72a:	2d2d 2d2d      	movel %a5@(11565),%fp@-
   2a72e:	2d2d 2d2d      	movel %a5@(11565),%fp@-
   2a732:	2d2d 2d2d      	movel %a5@(11565),%fp@-
   2a736:	2d2d 2d2d      	movel %a5@(11565),%fp@-
   2a73a:	2d2d 2d2d      	movel %a5@(11565),%fp@-
   2a73e:	2d2d 2d2d      	movel %a5@(11565),%fp@-
   2a742:	2d2d 2d2d      	movel %a5@(11565),%fp@-
   2a746:	2d2d 2d2d      	movel %a5@(11565),%fp@-
   2a74a:	2d2d 2d2d      	movel %a5@(11565),%fp@-
   2a74e:	2d2d 2d2d      	movel %a5@(11565),%fp@-
   2a752:	2d2d 2d2d      	movel %a5@(11565),%fp@-
   2a756:	2d2d 2d2d      	movel %a5@(11565),%fp@-
   2a75a:	2d2d 2d2d      	movel %a5@(11565),%fp@-
   2a75e:	2d2d 2d0c      	movel %a5@(11532),%fp@-
   2a762:	2929 2929      	movel %a1@(10537),%a4@-
   2a766:	2929 2929      	movel %a1@(10537),%a4@-
   2a76a:	2929 2929      	movel %a1@(10537),%a4@-
   2a76e:	2929 2929      	movel %a1@(10537),%a4@-
   2a772:	2929 2929      	movel %a1@(10537),%a4@-
   2a776:	2f2f 2d2d      	movel %sp@(11565),%sp@-
   2a77a:	2d2d 2d2d      	movel %a5@(11565),%fp@-
   2a77e:	2d2d 2d2d      	movel %a5@(11565),%fp@-
   2a782:	2d2d 2d2d      	movel %a5@(11565),%fp@-
   2a786:	2d17           	movel %sp@,%fp@-
   2a788:	172d 2d2d      	moveb %a5@(11565),%a3@-
   2a78c:	1717           	moveb %sp@,%a3@-
   2a78e:	1717           	moveb %sp@,%a3@-
   2a790:	172d 2d17      	moveb %a5@(11543),%a3@-
   2a794:	172d 2d17      	moveb %a5@(11543),%a3@-
   2a798:	172d 2d2d      	moveb %a5@(11565),%a3@-
   2a79c:	0064 6464      	oriw #25700,%a4@-
   2a7a0:	6464           	bccs 2a806 <picData+0xa7b2>
   2a7a2:	6427           	bccs 2a7cb <picData+0xa777>
   2a7a4:	2d2d 2d2d      	movel %a5@(11565),%fp@-
   2a7a8:	2d2d 2d2d      	movel %a5@(11565),%fp@-
   2a7ac:	2d2d 1717      	movel %a5@(5911),%fp@-
   2a7b0:	1717           	moveb %sp@,%a3@-
   2a7b2:	172d 2d17      	moveb %a5@(11543),%a3@-
   2a7b6:	172d 2d17      	moveb %a5@(11543),%a3@-
   2a7ba:	172d 1717      	moveb %a5@(5911),%a3@-
   2a7be:	2d2d 1717      	movel %a5@(5911),%fp@-
   2a7c2:	2d2d 0064      	movel %a5@(100),%fp@-
   2a7c6:	6464           	bccs 2a82c <picData+0xa7d8>
   2a7c8:	6464           	bccs 2a82e <picData+0xa7da>
   2a7ca:	6427           	bccs 2a7f3 <picData+0xa79f>
   2a7cc:	2d2d 2d2d      	movel %a5@(11565),%fp@-
   2a7d0:	2d2d 2d2d      	movel %a5@(11565),%fp@-
   2a7d4:	2d2d 1717      	movel %a5@(5911),%fp@-
   2a7d8:	1717           	moveb %sp@,%a3@-
   2a7da:	172d 2d17      	moveb %a5@(11543),%a3@-
   2a7de:	172d 2d17      	moveb %a5@(11543),%a3@-
   2a7e2:	172d 1717      	moveb %a5@(5911),%a3@-
   2a7e6:	2d2d 1717      	movel %a5@(5911),%fp@-
   2a7ea:	2d2d 0064      	movel %a5@(100),%fp@-
   2a7ee:	6464           	bccs 2a854 <picData+0xa800>
   2a7f0:	6464           	bccs 2a856 <picData+0xa802>
   2a7f2:	6427           	bccs 2a81b <picData+0xa7c7>
   2a7f4:	2d2d 2d2d      	movel %a5@(11565),%fp@-
   2a7f8:	3529 2929      	movew %a1@(10537),%a2@-
   2a7fc:	2929 2929      	movel %a1@(10537),%a4@-
   2a800:	2929 2929      	movel %a1@(10537),%a4@-
   2a804:	2929 2929      	movel %a1@(10537),%a4@-
   2a808:	2d2f 2d2d      	movel %sp@(11565),%fp@-
   2a80c:	232a 2c2c      	movel %a2@(11308),%a1@-
   2a810:	2d2d 2d2e      	movel %a5@(11566),%fp@-
   2a814:	2e2e 2e2e      	movel %fp@(11822),%d7
   2a818:	2e2f 2f2f      	movel %sp@(12079),%d7
   2a81c:	2f2f 2f2f      	movel %sp@(12079),%sp@-
   2a820:	2f2d 2d2d      	movel %a5@(11565),%sp@-
   2a824:	1717           	moveb %sp@,%a3@-
   2a826:	172d 2d2d      	moveb %a5@(11565),%a3@-
   2a82a:	1717           	moveb %sp@,%a3@-
   2a82c:	172d 1717      	moveb %a5@(5911),%a3@-
   2a830:	1717           	moveb %sp@,%a3@-
   2a832:	1717           	moveb %sp@,%a3@-
   2a834:	1717           	moveb %sp@,%a3@-
   2a836:	172d 1717      	moveb %a5@(5911),%a3@-
   2a83a:	1717           	moveb %sp@,%a3@-
   2a83c:	1717           	moveb %sp@,%a3@-
   2a83e:	1717           	moveb %sp@,%a3@-
   2a840:	172d 1717      	moveb %a5@(5911),%a3@-
   2a844:	172d 1717      	moveb %a5@(5911),%a3@-
   2a848:	1717           	moveb %sp@,%a3@-
   2a84a:	1717           	moveb %sp@,%a3@-
   2a84c:	1717           	moveb %sp@,%a3@-
   2a84e:	172d 2d2d      	moveb %a5@(11565),%a3@-
   2a852:	2d2d 2d2d      	movel %a5@(11565),%fp@-
   2a856:	2d2d 2d2d      	movel %a5@(11565),%fp@-
   2a85a:	2d2d 2d2d      	movel %a5@(11565),%fp@-
   2a85e:	2d2d 2d2d      	movel %a5@(11565),%fp@-
   2a862:	2d2d 2d2d      	movel %a5@(11565),%fp@-
   2a866:	2d2d 2d2d      	movel %a5@(11565),%fp@-
   2a86a:	2d2d 2d2d      	movel %a5@(11565),%fp@-
   2a86e:	2d2d 2d2d      	movel %a5@(11565),%fp@-
   2a872:	2d2d 2d2d      	movel %a5@(11565),%fp@-
   2a876:	2d2d 2d2d      	movel %a5@(11565),%fp@-
   2a87a:	2d2d 2d2d      	movel %a5@(11565),%fp@-
   2a87e:	2d2d 2d2d      	movel %a5@(11565),%fp@-
   2a882:	2d2d 2d2d      	movel %a5@(11565),%fp@-
   2a886:	2d2d 2d2d      	movel %a5@(11565),%fp@-
   2a88a:	2d2d 2d2d      	movel %a5@(11565),%fp@-
   2a88e:	2d2d 2d2d      	movel %a5@(11565),%fp@-
   2a892:	2d2d 2d2d      	movel %a5@(11565),%fp@-
   2a896:	2d2d 2d2d      	movel %a5@(11565),%fp@-
   2a89a:	2d2d 2d2d      	movel %a5@(11565),%fp@-
   2a89e:	2d2d 2d34      	movel %a5@(11572),%fp@-
   2a8a2:	2929 2929      	movel %a1@(10537),%a4@-
   2a8a6:	2929 2929      	movel %a1@(10537),%a4@-
   2a8aa:	2929 2929      	movel %a1@(10537),%a4@-
   2a8ae:	2929 2929      	movel %a1@(10537),%a4@-
   2a8b2:	2929 2929      	movel %a1@(10537),%a4@-
   2a8b6:	2f2f 2d2d      	movel %sp@(11565),%sp@-
   2a8ba:	2d2d 2d2d      	movel %a5@(11565),%fp@-
   2a8be:	2d2d 2d2d      	movel %a5@(11565),%fp@-
   2a8c2:	2d2d 2d2d      	movel %a5@(11565),%fp@-
   2a8c6:	2d17           	movel %sp@,%fp@-
   2a8c8:	172d 2d2d      	moveb %a5@(11565),%a3@-
   2a8cc:	1717           	moveb %sp@,%a3@-
   2a8ce:	2d2d 1717      	movel %a5@(5911),%fp@-
   2a8d2:	2d17           	movel %sp@,%fp@-
   2a8d4:	172d 2d17      	moveb %a5@(11543),%a3@-
   2a8d8:	172d 2d2d      	moveb %a5@(11565),%a3@-
   2a8dc:	0064 6464      	oriw #25700,%a4@-
   2a8e0:	6464           	bccs 2a946 <picData+0xa8f2>
   2a8e2:	6427           	bccs 2a90b <picData+0xa8b7>
   2a8e4:	2d2d 2d2d      	movel %a5@(11565),%fp@-
   2a8e8:	2d2d 2d2d      	movel %a5@(11565),%fp@-
   2a8ec:	2d2d 2d2d      	movel %a5@(11565),%fp@-
   2a8f0:	2d2d 1717      	movel %a5@(5911),%fp@-
   2a8f4:	2d17           	movel %sp@,%fp@-
   2a8f6:	172d 2d17      	moveb %a5@(11543),%a3@-
   2a8fa:	172d 1717      	moveb %a5@(5911),%a3@-
   2a8fe:	2d2d 1717      	movel %a5@(5911),%fp@-
   2a902:	2d2d 0064      	movel %a5@(100),%fp@-
   2a906:	6464           	bccs 2a96c <picData+0xa918>
   2a908:	6464           	bccs 2a96e <picData+0xa91a>
   2a90a:	6427           	bccs 2a933 <picData+0xa8df>
   2a90c:	2d2d 2d2d      	movel %a5@(11565),%fp@-
   2a910:	2d2d 2d2d      	movel %a5@(11565),%fp@-
   2a914:	2d2d 2d2d      	movel %a5@(11565),%fp@-
   2a918:	2d2d 1717      	movel %a5@(5911),%fp@-
   2a91c:	2d17           	movel %sp@,%fp@-
   2a91e:	172d 2d17      	moveb %a5@(11543),%a3@-
   2a922:	172d 1717      	moveb %a5@(5911),%a3@-
   2a926:	2d2d 1717      	movel %a5@(5911),%fp@-
   2a92a:	2d2d 0064      	movel %a5@(100),%fp@-
   2a92e:	6464           	bccs 2a994 <picData+0xa940>
   2a930:	6464           	bccs 2a996 <picData+0xa942>
   2a932:	6427           	bccs 2a95b <picData+0xa907>
   2a934:	2d2d 2d2d      	movel %a5@(11565),%fp@-
   2a938:	3529 2929      	movew %a1@(10537),%a2@-
   2a93c:	2929 2929      	movel %a1@(10537),%a4@-
   2a940:	2929 2929      	movel %a1@(10537),%a4@-
   2a944:	2929 2929      	movel %a1@(10537),%a4@-
   2a948:	2c2f 2d2d      	movel %sp@(11565),%d6
   2a94c:	2f2f 2f2f      	movel %sp@(12079),%sp@-
   2a950:	2f2f 2f2f      	movel %sp@(12079),%sp@-
   2a954:	2f2f 2f2f      	movel %sp@(12079),%sp@-
   2a958:	2f2f 2f2f      	movel %sp@(12079),%sp@-
   2a95c:	2f2f 2f2f      	movel %sp@(12079),%sp@-
   2a960:	2f2d 2d2d      	movel %a5@(11565),%sp@-
   2a964:	1717           	moveb %sp@,%a3@-
   2a966:	172d 2d2d      	moveb %a5@(11565),%a3@-
   2a96a:	1717           	moveb %sp@,%a3@-
   2a96c:	172d 1717      	moveb %a5@(5911),%a3@-
   2a970:	1717           	moveb %sp@,%a3@-
   2a972:	1717           	moveb %sp@,%a3@-
   2a974:	1717           	moveb %sp@,%a3@-
   2a976:	2d2d 1717      	movel %a5@(5911),%fp@-
   2a97a:	1717           	moveb %sp@,%a3@-
   2a97c:	1717           	moveb %sp@,%a3@-
   2a97e:	1717           	moveb %sp@,%a3@-
   2a980:	172d 1717      	moveb %a5@(5911),%a3@-
   2a984:	172d 1717      	moveb %a5@(5911),%a3@-
   2a988:	1717           	moveb %sp@,%a3@-
   2a98a:	1717           	moveb %sp@,%a3@-
   2a98c:	1717           	moveb %sp@,%a3@-
   2a98e:	2d2d 2d2d      	movel %a5@(11565),%fp@-
   2a992:	2d2d 2d2d      	movel %a5@(11565),%fp@-
   2a996:	2d2d 2d2d      	movel %a5@(11565),%fp@-
   2a99a:	2d2d 2d2d      	movel %a5@(11565),%fp@-
   2a99e:	2d2d 2d2d      	movel %a5@(11565),%fp@-
   2a9a2:	2d2d 2d2d      	movel %a5@(11565),%fp@-
   2a9a6:	2d2d 2d2d      	movel %a5@(11565),%fp@-
   2a9aa:	2d2d 2d2d      	movel %a5@(11565),%fp@-
   2a9ae:	2d2d 2d2d      	movel %a5@(11565),%fp@-
   2a9b2:	2d2d 2d2d      	movel %a5@(11565),%fp@-
   2a9b6:	2d2d 2d2d      	movel %a5@(11565),%fp@-
   2a9ba:	2d2d 2d2d      	movel %a5@(11565),%fp@-
   2a9be:	2d2d 2d2d      	movel %a5@(11565),%fp@-
   2a9c2:	2d2d 2d2d      	movel %a5@(11565),%fp@-
   2a9c6:	2d2d 2d2d      	movel %a5@(11565),%fp@-
   2a9ca:	2d2d 2d2d      	movel %a5@(11565),%fp@-
   2a9ce:	2d2d 2d2d      	movel %a5@(11565),%fp@-
   2a9d2:	2d2d 2d2d      	movel %a5@(11565),%fp@-
   2a9d6:	2d2d 2d2d      	movel %a5@(11565),%fp@-
   2a9da:	2d2d 2d2d      	movel %a5@(11565),%fp@-
   2a9de:	2d2d 2d34      	movel %a5@(11572),%fp@-
   2a9e2:	2929 2929      	movel %a1@(10537),%a4@-
   2a9e6:	2929 2929      	movel %a1@(10537),%a4@-
   2a9ea:	2929 2929      	movel %a1@(10537),%a4@-
   2a9ee:	2929 2929      	movel %a1@(10537),%a4@-
   2a9f2:	2929 2929      	movel %a1@(10537),%a4@-
   2a9f6:	2f2f 2d2d      	movel %sp@(11565),%sp@-
   2a9fa:	2d2d 2d2d      	movel %a5@(11565),%fp@-
   2a9fe:	2d2d 2d2d      	movel %a5@(11565),%fp@-
   2aa02:	2d2d 2d2d      	movel %a5@(11565),%fp@-
   2aa06:	2d17           	movel %sp@,%fp@-
   2aa08:	172d 2d2d      	moveb %a5@(11565),%a3@-
   2aa0c:	1717           	moveb %sp@,%a3@-
   2aa0e:	2d2d 1717      	movel %a5@(5911),%fp@-
   2aa12:	2d17           	movel %sp@,%fp@-
   2aa14:	172d 2d17      	moveb %a5@(11543),%a3@-
   2aa18:	172d 2d2d      	moveb %a5@(11565),%a3@-
   2aa1c:	2f64 6464      	movel %a4@-,%sp@(25700)
   2aa20:	6464           	bccs 2aa86 <picData+0xaa32>
   2aa22:	6427           	bccs 2aa4b <picData+0xa9f7>
   2aa24:	2d2d 2d2d      	movel %a5@(11565),%fp@-
   2aa28:	2d2d 2d2d      	movel %a5@(11565),%fp@-
   2aa2c:	2d2d 2d2d      	movel %a5@(11565),%fp@-
   2aa30:	2d2d 1717      	movel %a5@(5911),%fp@-
   2aa34:	2d17           	movel %sp@,%fp@-
   2aa36:	172d 2d17      	moveb %a5@(11543),%a3@-
   2aa3a:	172d 1717      	moveb %a5@(5911),%a3@-
   2aa3e:	2d2d 1717      	movel %a5@(5911),%fp@-
   2aa42:	2d2d 2f64      	movel %a5@(12132),%fp@-
   2aa46:	6464           	bccs 2aaac <picData+0xaa58>
   2aa48:	6464           	bccs 2aaae <picData+0xaa5a>
   2aa4a:	6427           	bccs 2aa73 <picData+0xaa1f>
   2aa4c:	2d2d 2d2d      	movel %a5@(11565),%fp@-
   2aa50:	2d2d 2d2d      	movel %a5@(11565),%fp@-
   2aa54:	2d2d 2d2d      	movel %a5@(11565),%fp@-
   2aa58:	2d2d 1717      	movel %a5@(5911),%fp@-
   2aa5c:	2d17           	movel %sp@,%fp@-
   2aa5e:	172d 2d17      	moveb %a5@(11543),%a3@-
   2aa62:	172d 1717      	moveb %a5@(5911),%a3@-
   2aa66:	2d2d 1717      	movel %a5@(5911),%fp@-
   2aa6a:	2d2d 2f64      	movel %a5@(12132),%fp@-
   2aa6e:	6464           	bccs 2aad4 <picData+0xaa80>
   2aa70:	6464           	bccs 2aad6 <picData+0xaa82>
   2aa72:	6427           	bccs 2aa9b <picData+0xaa47>
   2aa74:	2d2d 2d2d      	movel %a5@(11565),%fp@-
   2aa78:	3529 2929      	movew %a1@(10537),%a2@-
   2aa7c:	2929 2929      	movel %a1@(10537),%a4@-
   2aa80:	2929 2929      	movel %a1@(10537),%a4@-
   2aa84:	2929 2929      	movel %a1@(10537),%a4@-
   2aa88:	2c2f 2d2d      	movel %sp@(11565),%d6
   2aa8c:	2d2d 2d2d      	movel %a5@(11565),%fp@-
   2aa90:	2d2d 2d2d      	movel %a5@(11565),%fp@-
   2aa94:	2d2d 2d2d      	movel %a5@(11565),%fp@-
   2aa98:	2d2d 2d2d      	movel %a5@(11565),%fp@-
   2aa9c:	2d2d 2d2d      	movel %a5@(11565),%fp@-
   2aaa0:	2d2d 2d2d      	movel %a5@(11565),%fp@-
   2aaa4:	2d2d 2d2d      	movel %a5@(11565),%fp@-
   2aaa8:	2d2d 2d2d      	movel %a5@(11565),%fp@-
   2aaac:	2d2d 2d2d      	movel %a5@(11565),%fp@-
   2aab0:	2d2d 2d2d      	movel %a5@(11565),%fp@-
   2aab4:	2d2d 2d2d      	movel %a5@(11565),%fp@-
   2aab8:	2d2d 2d2d      	movel %a5@(11565),%fp@-
   2aabc:	2d2d 2d2d      	movel %a5@(11565),%fp@-
   2aac0:	2d2d 2d2d      	movel %a5@(11565),%fp@-
   2aac4:	2d2d 2d2d      	movel %a5@(11565),%fp@-
   2aac8:	2d2d 2d2d      	movel %a5@(11565),%fp@-
   2aacc:	2d2d 2d2d      	movel %a5@(11565),%fp@-
   2aad0:	2d2d 2d2d      	movel %a5@(11565),%fp@-
   2aad4:	2d2d 2d2d      	movel %a5@(11565),%fp@-
   2aad8:	2d2d 2d2d      	movel %a5@(11565),%fp@-
   2aadc:	2d2d 2d2d      	movel %a5@(11565),%fp@-
   2aae0:	2d2d 2d2d      	movel %a5@(11565),%fp@-
   2aae4:	2d2d 2d2d      	movel %a5@(11565),%fp@-
   2aae8:	2d2d 2d2d      	movel %a5@(11565),%fp@-
   2aaec:	2d2d 2d2d      	movel %a5@(11565),%fp@-
   2aaf0:	2d2d 2d2d      	movel %a5@(11565),%fp@-
   2aaf4:	2d2d 2d2d      	movel %a5@(11565),%fp@-
   2aaf8:	2d2d 2d2d      	movel %a5@(11565),%fp@-
   2aafc:	2d2d 2d2d      	movel %a5@(11565),%fp@-
   2ab00:	2d2d 2d2d      	movel %a5@(11565),%fp@-
   2ab04:	2d2d 2d2d      	movel %a5@(11565),%fp@-
   2ab08:	2d2d 2d2d      	movel %a5@(11565),%fp@-
   2ab0c:	2d2d 2d2d      	movel %a5@(11565),%fp@-
   2ab10:	2d2d 2d2d      	movel %a5@(11565),%fp@-
   2ab14:	2d2d 2d2d      	movel %a5@(11565),%fp@-
   2ab18:	2d2d 2d2d      	movel %a5@(11565),%fp@-
   2ab1c:	2d2d 2d2d      	movel %a5@(11565),%fp@-
   2ab20:	2d34 2929 2929 	movel %a4@(00002929,%d2:l)@(00000000),%fp@-
   2ab26:	2929 2929      	movel %a1@(10537),%a4@-
   2ab2a:	2929 2929      	movel %a1@(10537),%a4@-
   2ab2e:	2929 2929      	movel %a1@(10537),%a4@-
   2ab32:	2929 2929      	movel %a1@(10537),%a4@-
   2ab36:	2f2f 2d2d      	movel %sp@(11565),%sp@-
   2ab3a:	2d2d 2d2d      	movel %a5@(11565),%fp@-
   2ab3e:	2d2d 2d2d      	movel %a5@(11565),%fp@-
   2ab42:	2d2d 2d2d      	movel %a5@(11565),%fp@-
   2ab46:	1717           	moveb %sp@,%a3@-
   2ab48:	1717           	moveb %sp@,%a3@-
   2ab4a:	2d2d 2d17      	movel %a5@(11543),%fp@-
   2ab4e:	1717           	moveb %sp@,%a3@-
   2ab50:	172d 2d2d      	moveb %a5@(11565),%a3@-
   2ab54:	1717           	moveb %sp@,%a3@-
   2ab56:	1717           	moveb %sp@,%a3@-
   2ab58:	2d2d 2d2d      	movel %a5@(11565),%fp@-
   2ab5c:	2f64 6464      	movel %a4@-,%sp@(25700)
   2ab60:	6464           	bccs 2abc6 <picData+0xab72>
   2ab62:	6425           	bccs 2ab89 <picData+0xab35>
   2ab64:	2d2d 2d2d      	movel %a5@(11565),%fp@-
   2ab68:	2d2d 2d2d      	movel %a5@(11565),%fp@-
   2ab6c:	2d2d 1717      	movel %a5@(5911),%fp@-
   2ab70:	1717           	moveb %sp@,%a3@-
   2ab72:	172d 2d2d      	moveb %a5@(11565),%a3@-
   2ab76:	1717           	moveb %sp@,%a3@-
   2ab78:	1717           	moveb %sp@,%a3@-
   2ab7a:	2d2d 2d17      	movel %a5@(11543),%fp@-
   2ab7e:	1717           	moveb %sp@,%a3@-
   2ab80:	172d 2d2d      	moveb %a5@(11565),%a3@-
   2ab84:	2f64 6464      	movel %a4@-,%sp@(25700)
   2ab88:	6464           	bccs 2abee <picData+0xab9a>
   2ab8a:	6425           	bccs 2abb1 <picData+0xab5d>
   2ab8c:	2d2d 2d2d      	movel %a5@(11565),%fp@-
   2ab90:	2d2d 2d2d      	movel %a5@(11565),%fp@-
   2ab94:	2d2d 1717      	movel %a5@(5911),%fp@-
   2ab98:	1717           	moveb %sp@,%a3@-
   2ab9a:	172d 2d2d      	moveb %a5@(11565),%a3@-
   2ab9e:	1717           	moveb %sp@,%a3@-
   2aba0:	1717           	moveb %sp@,%a3@-
   2aba2:	2d2d 2d17      	movel %a5@(11543),%fp@-
   2aba6:	1717           	moveb %sp@,%a3@-
   2aba8:	172d 2d2d      	moveb %a5@(11565),%a3@-
   2abac:	2f64 6464      	movel %a4@-,%sp@(25700)
   2abb0:	6464           	bccs 2ac16 <picData+0xabc2>
   2abb2:	6425           	bccs 2abd9 <picData+0xab85>
   2abb4:	2d2d 2d2d      	movel %a5@(11565),%fp@-
   2abb8:	3529 2929      	movew %a1@(10537),%a2@-
   2abbc:	2929 2929      	movel %a1@(10537),%a4@-
   2abc0:	2929 2929      	movel %a1@(10537),%a4@-
   2abc4:	2929 2929      	movel %a1@(10537),%a4@-
   2abc8:	2c2f 2d2d      	movel %sp@(11565),%d6
   2abcc:	2d2d 2d2d      	movel %a5@(11565),%fp@-
   2abd0:	2d2d 2d2d      	movel %a5@(11565),%fp@-
   2abd4:	2d2d 2d2d      	movel %a5@(11565),%fp@-
   2abd8:	2d2d 2d2d      	movel %a5@(11565),%fp@-
   2abdc:	2d2d 2d2d      	movel %a5@(11565),%fp@-
   2abe0:	2d2d 2d2d      	movel %a5@(11565),%fp@-
   2abe4:	2d2d 2d2d      	movel %a5@(11565),%fp@-
   2abe8:	2d2d 2d2d      	movel %a5@(11565),%fp@-
   2abec:	2d2d 2d2d      	movel %a5@(11565),%fp@-
   2abf0:	2d2d 2d2d      	movel %a5@(11565),%fp@-
   2abf4:	2d2d 2d2d      	movel %a5@(11565),%fp@-
   2abf8:	2d2d 2d2d      	movel %a5@(11565),%fp@-
   2abfc:	2d2d 2d2d      	movel %a5@(11565),%fp@-
   2ac00:	2d2d 2d2d      	movel %a5@(11565),%fp@-
   2ac04:	2d2d 2d2d      	movel %a5@(11565),%fp@-
   2ac08:	2d2d 2d2d      	movel %a5@(11565),%fp@-
   2ac0c:	2d2d 2d2d      	movel %a5@(11565),%fp@-
   2ac10:	2d2d 2d2d      	movel %a5@(11565),%fp@-
   2ac14:	2d2d 2d2d      	movel %a5@(11565),%fp@-
   2ac18:	2d2d 2d2d      	movel %a5@(11565),%fp@-
   2ac1c:	2d2d 2d2d      	movel %a5@(11565),%fp@-
   2ac20:	2d2d 2d2d      	movel %a5@(11565),%fp@-
   2ac24:	2d2d 2d2d      	movel %a5@(11565),%fp@-
   2ac28:	2d2d 2d2d      	movel %a5@(11565),%fp@-
   2ac2c:	2d2d 2d2d      	movel %a5@(11565),%fp@-
   2ac30:	2d2d 2d2d      	movel %a5@(11565),%fp@-
   2ac34:	2d2d 2d2d      	movel %a5@(11565),%fp@-
   2ac38:	2d2d 2d2d      	movel %a5@(11565),%fp@-
   2ac3c:	2d2d 2d2d      	movel %a5@(11565),%fp@-
   2ac40:	2d2d 2d2d      	movel %a5@(11565),%fp@-
   2ac44:	2d2d 2d2d      	movel %a5@(11565),%fp@-
   2ac48:	2d2d 2d2d      	movel %a5@(11565),%fp@-
   2ac4c:	2d2d 2d2d      	movel %a5@(11565),%fp@-
   2ac50:	2d2d 2d2d      	movel %a5@(11565),%fp@-
   2ac54:	2d2d 2d2d      	movel %a5@(11565),%fp@-
   2ac58:	2d2d 2d2d      	movel %a5@(11565),%fp@-
   2ac5c:	2d2d 2d2d      	movel %a5@(11565),%fp@-
   2ac60:	2d33 2929 2929 	movel %a3@(00002929,%d2:l)@(00000000),%fp@-
   2ac66:	2929 2929      	movel %a1@(10537),%a4@-
   2ac6a:	2929 2929      	movel %a1@(10537),%a4@-
   2ac6e:	2929 2929      	movel %a1@(10537),%a4@-
   2ac72:	2929 2929      	movel %a1@(10537),%a4@-
   2ac76:	2f2f 2d2d      	movel %sp@(11565),%sp@-
   2ac7a:	2d2d 2d2d      	movel %a5@(11565),%fp@-
   2ac7e:	2d2d 2d2d      	movel %a5@(11565),%fp@-
   2ac82:	2d2d 2d2d      	movel %a5@(11565),%fp@-
   2ac86:	2d2d 2d2d      	movel %a5@(11565),%fp@-
   2ac8a:	2d2d 2d2d      	movel %a5@(11565),%fp@-
   2ac8e:	2d2d 2d2d      	movel %a5@(11565),%fp@-
   2ac92:	2d2d 2d2d      	movel %a5@(11565),%fp@-
   2ac96:	2d2d 2d2d      	movel %a5@(11565),%fp@-
   2ac9a:	2d2d 2b29      	movel %a5@(11049),%fp@-
   2ac9e:	2727           	movel %sp@-,%a3@-
   2aca0:	2727           	movel %sp@-,%a3@-
   2aca2:	2522           	movel %a2@-,%a2@-
   2aca4:	2d2d 2d2d      	movel %a5@(11565),%fp@-
   2aca8:	2d2d 2d2d      	movel %a5@(11565),%fp@-
   2acac:	2d2d 2d2d      	movel %a5@(11565),%fp@-
   2acb0:	2d2d 2d2d      	movel %a5@(11565),%fp@-
   2acb4:	2d2d 2d2d      	movel %a5@(11565),%fp@-
   2acb8:	2d2d 2d2d      	movel %a5@(11565),%fp@-
   2acbc:	2d2d 2d2d      	movel %a5@(11565),%fp@-
   2acc0:	2d2d 2d2d      	movel %a5@(11565),%fp@-
   2acc4:	2b29 2727      	movel %a1@(10023),%a5@-
   2acc8:	2727           	movel %sp@-,%a3@-
   2acca:	2522           	movel %a2@-,%a2@-
   2accc:	2d2d 2d2d      	movel %a5@(11565),%fp@-
   2acd0:	2d2d 2d2d      	movel %a5@(11565),%fp@-
   2acd4:	2d2d 2d2d      	movel %a5@(11565),%fp@-
   2acd8:	2d2d 2d2d      	movel %a5@(11565),%fp@-
   2acdc:	2d2d 2d2d      	movel %a5@(11565),%fp@-
   2ace0:	2d2d 2d2d      	movel %a5@(11565),%fp@-
   2ace4:	2d2d 2d2d      	movel %a5@(11565),%fp@-
   2ace8:	2d2d 2d2d      	movel %a5@(11565),%fp@-
   2acec:	2b29 2727      	movel %a1@(10023),%a5@-
   2acf0:	2727           	movel %sp@-,%a3@-
   2acf2:	2522           	movel %a2@-,%a2@-
   2acf4:	2d2d 2d2d      	movel %a5@(11565),%fp@-
   2acf8:	3529 2929      	movew %a1@(10537),%a2@-
   2acfc:	2929 2929      	movel %a1@(10537),%a4@-
   2ad00:	2929 2929      	movel %a1@(10537),%a4@-
   2ad04:	2929 2929      	movel %a1@(10537),%a4@-
   2ad08:	2c2f 2d2d      	movel %sp@(11565),%d6
   2ad0c:	2d2d 2d2d      	movel %a5@(11565),%fp@-
   2ad10:	2d2d 2d2d      	movel %a5@(11565),%fp@-
   2ad14:	2d2d 2d2d      	movel %a5@(11565),%fp@-
   2ad18:	2d2d 2d2d      	movel %a5@(11565),%fp@-
   2ad1c:	2d2d 2d2d      	movel %a5@(11565),%fp@-
   2ad20:	2d2d 2d2d      	movel %a5@(11565),%fp@-
   2ad24:	2d2d 2d2d      	movel %a5@(11565),%fp@-
   2ad28:	2d2d 2d2d      	movel %a5@(11565),%fp@-
   2ad2c:	2d2d 2d2d      	movel %a5@(11565),%fp@-
   2ad30:	2d2d 2d2d      	movel %a5@(11565),%fp@-
   2ad34:	2d2d 2d2d      	movel %a5@(11565),%fp@-
   2ad38:	2d2d 2d2d      	movel %a5@(11565),%fp@-
   2ad3c:	2d2d 2d2d      	movel %a5@(11565),%fp@-
   2ad40:	2d2d 2d2d      	movel %a5@(11565),%fp@-
   2ad44:	2d2d 2d2d      	movel %a5@(11565),%fp@-
   2ad48:	2d2d 2d2d      	movel %a5@(11565),%fp@-
   2ad4c:	2d2d 2d2d      	movel %a5@(11565),%fp@-
   2ad50:	2d2d 2d2d      	movel %a5@(11565),%fp@-
   2ad54:	2d2d 2d2d      	movel %a5@(11565),%fp@-
   2ad58:	2d2d 2d2d      	movel %a5@(11565),%fp@-
   2ad5c:	2d2d 2d2d      	movel %a5@(11565),%fp@-
   2ad60:	2d2d 2d2d      	movel %a5@(11565),%fp@-
   2ad64:	2d2d 2d2d      	movel %a5@(11565),%fp@-
   2ad68:	2d2d 2d2d      	movel %a5@(11565),%fp@-
   2ad6c:	2d2d 2d2d      	movel %a5@(11565),%fp@-
   2ad70:	2d2d 2d2d      	movel %a5@(11565),%fp@-
   2ad74:	2d2d 2d2d      	movel %a5@(11565),%fp@-
   2ad78:	2d2d 2d2d      	movel %a5@(11565),%fp@-
   2ad7c:	2d2d 2d2d      	movel %a5@(11565),%fp@-
   2ad80:	2d2d 2d2d      	movel %a5@(11565),%fp@-
   2ad84:	2d2d 2d2d      	movel %a5@(11565),%fp@-
   2ad88:	2d2d 2d2d      	movel %a5@(11565),%fp@-
   2ad8c:	2d2d 2d2d      	movel %a5@(11565),%fp@-
   2ad90:	2d2d 2d2d      	movel %a5@(11565),%fp@-
   2ad94:	2d2d 2d2d      	movel %a5@(11565),%fp@-
   2ad98:	2d2d 2d2d      	movel %a5@(11565),%fp@-
   2ad9c:	2d2d 2d2d      	movel %a5@(11565),%fp@-
   2ada0:	2d33 2929 2929 	movel %a3@(00002929,%d2:l)@(00000000),%fp@-
   2ada6:	2929 2929      	movel %a1@(10537),%a4@-
   2adaa:	2929 2929      	movel %a1@(10537),%a4@-
   2adae:	2929 2929      	movel %a1@(10537),%a4@-
   2adb2:	2929 2929      	movel %a1@(10537),%a4@-
   2adb6:	2f2f 2d2d      	movel %sp@(11565),%sp@-
   2adba:	2d2d 2d2d      	movel %a5@(11565),%fp@-
   2adbe:	2d2d 2d2d      	movel %a5@(11565),%fp@-
   2adc2:	2d2d 2d2d      	movel %a5@(11565),%fp@-
   2adc6:	2d2d 2d2d      	movel %a5@(11565),%fp@-
   2adca:	2d2d 2d2d      	movel %a5@(11565),%fp@-
   2adce:	2d2d 2d2d      	movel %a5@(11565),%fp@-
   2add2:	2d2d 2d2d      	movel %a5@(11565),%fp@-
   2add6:	2d2d 2d2d      	movel %a5@(11565),%fp@-
   2adda:	2d2d 2d2d      	movel %a5@(11565),%fp@-
   2adde:	2d2d 2d2d      	movel %a5@(11565),%fp@-
   2ade2:	2d2d 2d2d      	movel %a5@(11565),%fp@-
   2ade6:	2d2d 2d2d      	movel %a5@(11565),%fp@-
   2adea:	2d2d 2d2d      	movel %a5@(11565),%fp@-
   2adee:	2d2d 2d2d      	movel %a5@(11565),%fp@-
   2adf2:	2d2d 2d2d      	movel %a5@(11565),%fp@-
   2adf6:	2d2d 2d2d      	movel %a5@(11565),%fp@-
   2adfa:	2d2d 2d2d      	movel %a5@(11565),%fp@-
   2adfe:	2d2d 2d2d      	movel %a5@(11565),%fp@-
   2ae02:	2d2d 2d2d      	movel %a5@(11565),%fp@-
   2ae06:	2d2d 2d2d      	movel %a5@(11565),%fp@-
   2ae0a:	2d2d 2d2d      	movel %a5@(11565),%fp@-
   2ae0e:	2d2d 2d2d      	movel %a5@(11565),%fp@-
   2ae12:	2d2d 2d2d      	movel %a5@(11565),%fp@-
   2ae16:	2d2d 2d2d      	movel %a5@(11565),%fp@-
   2ae1a:	2d2d 2d2d      	movel %a5@(11565),%fp@-
   2ae1e:	2d2d 2d2d      	movel %a5@(11565),%fp@-
   2ae22:	2d2d 2d2d      	movel %a5@(11565),%fp@-
   2ae26:	2d2d 2d2d      	movel %a5@(11565),%fp@-
   2ae2a:	2d2d 2d2d      	movel %a5@(11565),%fp@-
   2ae2e:	2d2d 2d2d      	movel %a5@(11565),%fp@-
   2ae32:	2d2d 2d2d      	movel %a5@(11565),%fp@-
   2ae36:	2d2d 3529      	movel %a5@(13609),%fp@-
   2ae3a:	2929 2929      	movel %a1@(10537),%a4@-
   2ae3e:	2929 2929      	movel %a1@(10537),%a4@-
   2ae42:	2929 2929      	movel %a1@(10537),%a4@-
   2ae46:	2929 2824      	movel %a1@(10276),%a4@-
   2ae4a:	2424           	movel %a4@-,%d2
   2ae4c:	2424           	movel %a4@-,%d2
   2ae4e:	2424           	movel %a4@-,%d2
   2ae50:	2424           	movel %a4@-,%d2
   2ae52:	2424           	movel %a4@-,%d2
   2ae54:	2424           	movel %a4@-,%d2
   2ae56:	2423           	movel %a3@-,%d2
   2ae58:	2323           	movel %a3@-,%a1@-
   2ae5a:	2323           	movel %a3@-,%a1@-
   2ae5c:	2323           	movel %a3@-,%a1@-
   2ae5e:	2323           	movel %a3@-,%a1@-
   2ae60:	2323           	movel %a3@-,%a1@-
   2ae62:	2222           	movel %a2@-,%d1
   2ae64:	2222           	movel %a2@-,%d1
   2ae66:	2222           	movel %a2@-,%d1
   2ae68:	2222           	movel %a2@-,%d1
   2ae6a:	2222           	movel %a2@-,%d1
   2ae6c:	2222           	movel %a2@-,%d1
   2ae6e:	2222           	movel %a2@-,%d1
   2ae70:	2222           	movel %a2@-,%d1
   2ae72:	2222           	movel %a2@-,%d1
   2ae74:	2222           	movel %a2@-,%d1
   2ae76:	2222           	movel %a2@-,%d1
   2ae78:	2121           	movel %a1@-,%a0@-
   2ae7a:	2121           	movel %a1@-,%a0@-
   2ae7c:	2121           	movel %a1@-,%a0@-
   2ae7e:	2121           	movel %a1@-,%a0@-
   2ae80:	2121           	movel %a1@-,%a0@-
   2ae82:	2121           	movel %a1@-,%a0@-
   2ae84:	2121           	movel %a1@-,%a0@-
   2ae86:	2121           	movel %a1@-,%a0@-
   2ae88:	2121           	movel %a1@-,%a0@-
   2ae8a:	2121           	movel %a1@-,%a0@-
   2ae8c:	2121           	movel %a1@-,%a0@-
   2ae8e:	2121           	movel %a1@-,%a0@-
   2ae90:	2121           	movel %a1@-,%a0@-
   2ae92:	2121           	movel %a1@-,%a0@-
   2ae94:	2121           	movel %a1@-,%a0@-
   2ae96:	2121           	movel %a1@-,%a0@-
   2ae98:	2121           	movel %a1@-,%a0@-
   2ae9a:	2121           	movel %a1@-,%a0@-
   2ae9c:	2121           	movel %a1@-,%a0@-
   2ae9e:	2121           	movel %a1@-,%a0@-
   2aea0:	2121           	movel %a1@-,%a0@-
   2aea2:	2121           	movel %a1@-,%a0@-
   2aea4:	2121           	movel %a1@-,%a0@-
   2aea6:	2121           	movel %a1@-,%a0@-
   2aea8:	2121           	movel %a1@-,%a0@-
   2aeaa:	2121           	movel %a1@-,%a0@-
   2aeac:	3737 3737 3737 	movew %sp@(37373737)@(37373737,%d3:w:8),%a3@-
   2aeb2:	3737 3737 3737 
   2aeb8:	3736 3636      	movew %fp@(00000036,%d3:w:8),%a3@-
   2aebc:	3636 3636      	movew %fp@(00000036,%d3:w:8),%d3
   2aec0:	3636 3635      	movew %fp@(00000035,%d3:w:8),%d3
   2aec4:	3535 3535 3535 	movew %a5@(35353535)@(00000000,%d3:w:4),%a2@-
   2aeca:	3535 
   2aecc:	3535 3535 350c 	movew %a5@(350c0c34)@(00000000,%d3:w:4),%a2@-
   2aed2:	0c34 
   2aed4:	3434 3434      	movew %a4@(00000034,%d3:w:4),%d2
   2aed8:	3434 3434      	movew %a4@(00000034,%d3:w:4),%d2
   2aedc:	3434 3433      	movew %a4@(00000033,%d3:w:4),%d2
   2aee0:	3332 2929 2929 	movew %a2@(00002929,%d2:l)@(00000000),%a1@-
   2aee6:	2929 2929      	movel %a1@(10537),%a4@-
   2aeea:	2929 2929      	movel %a1@(10537),%a4@-
   2aeee:	2929 2929      	movel %a1@(10537),%a4@-
   2aef2:	2929 2929      	movel %a1@(10537),%a4@-
   2aef6:	2f2f 2d2d      	movel %sp@(11565),%sp@-
   2aefa:	2d2d 2d2d      	movel %a5@(11565),%fp@-
   2aefe:	2d2d 2d2d      	movel %a5@(11565),%fp@-
   2af02:	2d2d 2d2d      	movel %a5@(11565),%fp@-
   2af06:	2d17           	movel %sp@,%fp@-
   2af08:	172d 2d2d      	moveb %a5@(11565),%a3@-
   2af0c:	2d17           	movel %sp@,%fp@-
   2af0e:	1717           	moveb %sp@,%a3@-
   2af10:	172d 2d2d      	moveb %a5@(11565),%a3@-
   2af14:	1717           	moveb %sp@,%a3@-
   2af16:	1717           	moveb %sp@,%a3@-
   2af18:	2d2d 2d2d      	movel %a5@(11565),%fp@-
   2af1c:	0000 0000      	orib #0,%d0
   2af20:	002f 2f2b 2d2d 	orib #43,%sp@(11565)
   2af26:	2d2d 2d2d      	movel %a5@(11565),%fp@-
   2af2a:	2d2d 2d2d      	movel %a5@(11565),%fp@-
   2af2e:	1717           	moveb %sp@,%a3@-
   2af30:	2d2d 1717      	movel %a5@(5911),%fp@-
   2af34:	2d2d 1717      	movel %a5@(5911),%fp@-
   2af38:	1717           	moveb %sp@,%a3@-
   2af3a:	2d2d 2d17      	movel %a5@(11543),%fp@-
   2af3e:	1717           	moveb %sp@,%a3@-
   2af40:	172d 2d2d      	moveb %a5@(11565),%a3@-
   2af44:	0000 0000      	orib #0,%d0
   2af48:	002f 2f2b 2d2d 	orib #43,%sp@(11565)
   2af4e:	2d2d 2d2d      	movel %a5@(11565),%fp@-
   2af52:	2d2d 2d2d      	movel %a5@(11565),%fp@-
   2af56:	1717           	moveb %sp@,%a3@-
   2af58:	2d2d 1717      	movel %a5@(5911),%fp@-
   2af5c:	2d2d 1717      	movel %a5@(5911),%fp@-
   2af60:	1717           	moveb %sp@,%a3@-
   2af62:	2d2d 2d17      	movel %a5@(11543),%fp@-
   2af66:	1717           	moveb %sp@,%a3@-
   2af68:	172d 2d2d      	moveb %a5@(11565),%a3@-
   2af6c:	0000 0000      	orib #0,%d0
   2af70:	002f 2f2b 2d2d 	orib #43,%sp@(11565)
   2af76:	2d2d 3529      	movel %a5@(13609),%fp@-
   2af7a:	2929 2929      	movel %a1@(10537),%a4@-
   2af7e:	2929 2929      	movel %a1@(10537),%a4@-
   2af82:	2929 2929      	movel %a1@(10537),%a4@-
   2af86:	2929 2929      	movel %a1@(10537),%a4@-
   2af8a:	2929 2929      	movel %a1@(10537),%a4@-
   2af8e:	2929 2929      	movel %a1@(10537),%a4@-
   2af92:	2929 2929      	movel %a1@(10537),%a4@-
   2af96:	2929 2929      	movel %a1@(10537),%a4@-
   2af9a:	2929 2929      	movel %a1@(10537),%a4@-
   2af9e:	2929 2929      	movel %a1@(10537),%a4@-
   2afa2:	2929 2929      	movel %a1@(10537),%a4@-
   2afa6:	2929 2929      	movel %a1@(10537),%a4@-
   2afaa:	2929 2929      	movel %a1@(10537),%a4@-
   2afae:	2929 2929      	movel %a1@(10537),%a4@-
   2afb2:	2929 2929      	movel %a1@(10537),%a4@-
   2afb6:	2929 2929      	movel %a1@(10537),%a4@-
   2afba:	2929 2929      	movel %a1@(10537),%a4@-
   2afbe:	2929 2929      	movel %a1@(10537),%a4@-
   2afc2:	2929 2929      	movel %a1@(10537),%a4@-
   2afc6:	2929 2929      	movel %a1@(10537),%a4@-
   2afca:	2929 2929      	movel %a1@(10537),%a4@-
   2afce:	2929 2929      	movel %a1@(10537),%a4@-
   2afd2:	2929 2929      	movel %a1@(10537),%a4@-
   2afd6:	2929 2929      	movel %a1@(10537),%a4@-
   2afda:	2929 2929      	movel %a1@(10537),%a4@-
   2afde:	2929 2929      	movel %a1@(10537),%a4@-
   2afe2:	2929 2929      	movel %a1@(10537),%a4@-
   2afe6:	2929 2929      	movel %a1@(10537),%a4@-
   2afea:	2929 2929      	movel %a1@(10537),%a4@-
   2afee:	2929 2929      	movel %a1@(10537),%a4@-
   2aff2:	2929 2929      	movel %a1@(10537),%a4@-
   2aff6:	2929 2929      	movel %a1@(10537),%a4@-
   2affa:	2929 2929      	movel %a1@(10537),%a4@-
   2affe:	2929 2929      	movel %a1@(10537),%a4@-
   2b002:	2929 2929      	movel %a1@(10537),%a4@-
   2b006:	2929 2929      	movel %a1@(10537),%a4@-
   2b00a:	2929 2929      	movel %a1@(10537),%a4@-
   2b00e:	2929 2929      	movel %a1@(10537),%a4@-
   2b012:	2929 2929      	movel %a1@(10537),%a4@-
   2b016:	2929 2929      	movel %a1@(10537),%a4@-
   2b01a:	2929 2929      	movel %a1@(10537),%a4@-
   2b01e:	2929 2929      	movel %a1@(10537),%a4@-
   2b022:	2929 2929      	movel %a1@(10537),%a4@-
   2b026:	2929 2929      	movel %a1@(10537),%a4@-
   2b02a:	2929 2929      	movel %a1@(10537),%a4@-
   2b02e:	2929 2929      	movel %a1@(10537),%a4@-
   2b032:	2929 2929      	movel %a1@(10537),%a4@-
   2b036:	2f2f 2d2d      	movel %sp@(11565),%sp@-
   2b03a:	2d2d 2d2d      	movel %a5@(11565),%fp@-
   2b03e:	2d2d 2d2d      	movel %a5@(11565),%fp@-
   2b042:	2d2d 2d2d      	movel %a5@(11565),%fp@-
   2b046:	1717           	moveb %sp@,%a3@-
   2b048:	172d 2d2d      	moveb %a5@(11565),%a3@-
   2b04c:	1717           	moveb %sp@,%a3@-
   2b04e:	2d2d 1717      	movel %a5@(5911),%fp@-
   2b052:	2d17           	movel %sp@,%fp@-
   2b054:	172d 2d17      	moveb %a5@(11543),%a3@-
   2b058:	172d 2d2d      	moveb %a5@(11565),%a3@-
   2b05c:	0066 6666      	oriw #26214,%fp@-
   2b060:	6666           	bnes 2b0c8 <picData+0xb074>
   2b062:	6629           	bnes 2b08d <picData+0xb039>
   2b064:	2d2d 2d2d      	movel %a5@(11565),%fp@-
   2b068:	2d2d 2d2d      	movel %a5@(11565),%fp@-
   2b06c:	2d2d 1717      	movel %a5@(5911),%fp@-
   2b070:	2d2d 1717      	movel %a5@(5911),%fp@-
   2b074:	2d17           	movel %sp@,%fp@-
   2b076:	172d 2d17      	moveb %a5@(11543),%a3@-
   2b07a:	172d 1717      	moveb %a5@(5911),%a3@-
   2b07e:	2d2d 1717      	movel %a5@(5911),%fp@-
   2b082:	2d2d 0066      	movel %a5@(102),%fp@-
   2b086:	6666           	bnes 2b0ee <picData+0xb09a>
   2b088:	6666           	bnes 2b0f0 <picData+0xb09c>
   2b08a:	6629           	bnes 2b0b5 <picData+0xb061>
   2b08c:	2d2d 2d2d      	movel %a5@(11565),%fp@-
   2b090:	2d2d 2d2d      	movel %a5@(11565),%fp@-
   2b094:	2d2d 1717      	movel %a5@(5911),%fp@-
   2b098:	2d2d 1717      	movel %a5@(5911),%fp@-
   2b09c:	2d17           	movel %sp@,%fp@-
   2b09e:	172d 2d17      	moveb %a5@(11543),%a3@-
   2b0a2:	172d 1717      	moveb %a5@(5911),%a3@-
   2b0a6:	2d2d 1717      	movel %a5@(5911),%fp@-
   2b0aa:	2d2d 0066      	movel %a5@(102),%fp@-
   2b0ae:	6666           	bnes 2b116 <picData+0xb0c2>
   2b0b0:	6666           	bnes 2b118 <picData+0xb0c4>
   2b0b2:	6629           	bnes 2b0dd <picData+0xb089>
   2b0b4:	2d2d 2d2d      	movel %a5@(11565),%fp@-
   2b0b8:	3529 2929      	movew %a1@(10537),%a2@-
   2b0bc:	2929 2929      	movel %a1@(10537),%a4@-
   2b0c0:	2929 2929      	movel %a1@(10537),%a4@-
   2b0c4:	2929 2929      	movel %a1@(10537),%a4@-
   2b0c8:	2929 2929      	movel %a1@(10537),%a4@-
   2b0cc:	2929 2929      	movel %a1@(10537),%a4@-
   2b0d0:	2929 2929      	movel %a1@(10537),%a4@-
   2b0d4:	2929 2929      	movel %a1@(10537),%a4@-
   2b0d8:	2929 2929      	movel %a1@(10537),%a4@-
   2b0dc:	2929 2929      	movel %a1@(10537),%a4@-
   2b0e0:	2929 2929      	movel %a1@(10537),%a4@-
   2b0e4:	2929 2929      	movel %a1@(10537),%a4@-
   2b0e8:	2929 2929      	movel %a1@(10537),%a4@-
   2b0ec:	2929 2929      	movel %a1@(10537),%a4@-
   2b0f0:	2929 2929      	movel %a1@(10537),%a4@-
   2b0f4:	2929 2929      	movel %a1@(10537),%a4@-
   2b0f8:	2929 2929      	movel %a1@(10537),%a4@-
   2b0fc:	2929 2929      	movel %a1@(10537),%a4@-
   2b100:	2929 2929      	movel %a1@(10537),%a4@-
   2b104:	2929 2929      	movel %a1@(10537),%a4@-
   2b108:	2929 2929      	movel %a1@(10537),%a4@-
   2b10c:	2929 2929      	movel %a1@(10537),%a4@-
   2b110:	2929 2929      	movel %a1@(10537),%a4@-
   2b114:	2929 2929      	movel %a1@(10537),%a4@-
   2b118:	2929 2929      	movel %a1@(10537),%a4@-
   2b11c:	2929 2929      	movel %a1@(10537),%a4@-
   2b120:	2929 2929      	movel %a1@(10537),%a4@-
   2b124:	2929 2929      	movel %a1@(10537),%a4@-
   2b128:	2929 2929      	movel %a1@(10537),%a4@-
   2b12c:	2929 2929      	movel %a1@(10537),%a4@-
   2b130:	2929 2929      	movel %a1@(10537),%a4@-
   2b134:	2929 2929      	movel %a1@(10537),%a4@-
   2b138:	2929 2929      	movel %a1@(10537),%a4@-
   2b13c:	2929 2929      	movel %a1@(10537),%a4@-
   2b140:	2929 2929      	movel %a1@(10537),%a4@-
   2b144:	2929 2929      	movel %a1@(10537),%a4@-
   2b148:	2929 2929      	movel %a1@(10537),%a4@-
   2b14c:	2929 2929      	movel %a1@(10537),%a4@-
   2b150:	2929 2929      	movel %a1@(10537),%a4@-
   2b154:	2929 2929      	movel %a1@(10537),%a4@-
   2b158:	2929 2929      	movel %a1@(10537),%a4@-
   2b15c:	2929 2929      	movel %a1@(10537),%a4@-
   2b160:	2929 2929      	movel %a1@(10537),%a4@-
   2b164:	2929 2929      	movel %a1@(10537),%a4@-
   2b168:	2929 2929      	movel %a1@(10537),%a4@-
   2b16c:	2929 2929      	movel %a1@(10537),%a4@-
   2b170:	2929 2929      	movel %a1@(10537),%a4@-
   2b174:	2929 2f2f      	movel %a1@(12079),%a4@-
   2b178:	2d2d 2d2d      	movel %a5@(11565),%fp@-
   2b17c:	2d2d 2d2d      	movel %a5@(11565),%fp@-
   2b180:	2d2d 2d2d      	movel %a5@(11565),%fp@-
   2b184:	2d2d 2d17      	movel %a5@(11543),%fp@-
   2b188:	172d 2d2d      	moveb %a5@(11565),%a3@-
   2b18c:	2d2d 2d2d      	movel %a5@(11565),%fp@-
   2b190:	1717           	moveb %sp@,%a3@-
   2b192:	2d2d 1717      	movel %a5@(5911),%fp@-
   2b196:	1717           	moveb %sp@,%a3@-
   2b198:	2d2d 2d2d      	movel %a5@(11565),%fp@-
   2b19c:	0066 6666      	oriw #26214,%fp@-
   2b1a0:	6666           	bnes 2b208 <picData+0xb1b4>
   2b1a2:	6627           	bnes 2b1cb <picData+0xb177>
   2b1a4:	2d2d 2d2d      	movel %a5@(11565),%fp@-
   2b1a8:	2d2d 2d2d      	movel %a5@(11565),%fp@-
   2b1ac:	2d2d 1717      	movel %a5@(5911),%fp@-
   2b1b0:	1717           	moveb %sp@,%a3@-
   2b1b2:	1717           	moveb %sp@,%a3@-
   2b1b4:	2d17           	movel %sp@,%fp@-
   2b1b6:	172d 2d17      	moveb %a5@(11543),%a3@-
   2b1ba:	172d 1717      	moveb %a5@(5911),%a3@-
   2b1be:	2d2d 1717      	movel %a5@(5911),%fp@-
   2b1c2:	2d2d 0066      	movel %a5@(102),%fp@-
   2b1c6:	6666           	bnes 2b22e <picData+0xb1da>
   2b1c8:	6666           	bnes 2b230 <picData+0xb1dc>
   2b1ca:	6627           	bnes 2b1f3 <picData+0xb19f>
   2b1cc:	2d2d 2d2d      	movel %a5@(11565),%fp@-
   2b1d0:	2d2d 2d2d      	movel %a5@(11565),%fp@-
   2b1d4:	2d2d 1717      	movel %a5@(5911),%fp@-
   2b1d8:	1717           	moveb %sp@,%a3@-
   2b1da:	1717           	moveb %sp@,%a3@-
   2b1dc:	2d17           	movel %sp@,%fp@-
   2b1de:	172d 2d17      	moveb %a5@(11543),%a3@-
   2b1e2:	172d 1717      	moveb %a5@(5911),%a3@-
   2b1e6:	2d2d 1717      	movel %a5@(5911),%fp@-
   2b1ea:	2d2d 0066      	movel %a5@(102),%fp@-
   2b1ee:	6666           	bnes 2b256 <picData+0xb202>
   2b1f0:	6666           	bnes 2b258 <picData+0xb204>
   2b1f2:	6627           	bnes 2b21b <picData+0xb1c7>
   2b1f4:	2d2d 2d2d      	movel %a5@(11565),%fp@-
   2b1f8:	3529 2929      	movew %a1@(10537),%a2@-
   2b1fc:	2929 2929      	movel %a1@(10537),%a4@-
   2b200:	2929 2929      	movel %a1@(10537),%a4@-
   2b204:	2929 2929      	movel %a1@(10537),%a4@-
   2b208:	2929 2929      	movel %a1@(10537),%a4@-
   2b20c:	2929 2929      	movel %a1@(10537),%a4@-
   2b210:	2929 2929      	movel %a1@(10537),%a4@-
   2b214:	2929 2929      	movel %a1@(10537),%a4@-
   2b218:	2929 2929      	movel %a1@(10537),%a4@-
   2b21c:	2929 2929      	movel %a1@(10537),%a4@-
   2b220:	2929 2929      	movel %a1@(10537),%a4@-
   2b224:	2929 2929      	movel %a1@(10537),%a4@-
   2b228:	2929 2929      	movel %a1@(10537),%a4@-
   2b22c:	2929 2929      	movel %a1@(10537),%a4@-
   2b230:	2929 2929      	movel %a1@(10537),%a4@-
   2b234:	2929 2929      	movel %a1@(10537),%a4@-
   2b238:	2929 2929      	movel %a1@(10537),%a4@-
   2b23c:	2929 2929      	movel %a1@(10537),%a4@-
   2b240:	2929 2929      	movel %a1@(10537),%a4@-
   2b244:	2929 2929      	movel %a1@(10537),%a4@-
   2b248:	2929 2929      	movel %a1@(10537),%a4@-
   2b24c:	2929 2929      	movel %a1@(10537),%a4@-
   2b250:	2929 2929      	movel %a1@(10537),%a4@-
   2b254:	2929 2929      	movel %a1@(10537),%a4@-
   2b258:	2929 2929      	movel %a1@(10537),%a4@-
   2b25c:	2929 2929      	movel %a1@(10537),%a4@-
   2b260:	2929 2929      	movel %a1@(10537),%a4@-
   2b264:	2929 2929      	movel %a1@(10537),%a4@-
   2b268:	2929 2929      	movel %a1@(10537),%a4@-
   2b26c:	2929 2929      	movel %a1@(10537),%a4@-
   2b270:	2929 2929      	movel %a1@(10537),%a4@-
   2b274:	2929 2929      	movel %a1@(10537),%a4@-
   2b278:	2929 2929      	movel %a1@(10537),%a4@-
   2b27c:	2929 2929      	movel %a1@(10537),%a4@-
   2b280:	2929 2929      	movel %a1@(10537),%a4@-
   2b284:	2929 2929      	movel %a1@(10537),%a4@-
   2b288:	2929 2929      	movel %a1@(10537),%a4@-
   2b28c:	2929 2929      	movel %a1@(10537),%a4@-
   2b290:	2929 2929      	movel %a1@(10537),%a4@-
   2b294:	2929 2929      	movel %a1@(10537),%a4@-
   2b298:	2929 2929      	movel %a1@(10537),%a4@-
   2b29c:	2929 2929      	movel %a1@(10537),%a4@-
   2b2a0:	2929 2929      	movel %a1@(10537),%a4@-
   2b2a4:	2929 2929      	movel %a1@(10537),%a4@-
   2b2a8:	2929 2929      	movel %a1@(10537),%a4@-
   2b2ac:	2929 2929      	movel %a1@(10537),%a4@-
   2b2b0:	2929 2929      	movel %a1@(10537),%a4@-
   2b2b4:	2929 2f2f      	movel %a1@(12079),%a4@-
   2b2b8:	2d2d 2d2d      	movel %a5@(11565),%fp@-
   2b2bc:	2d2d 2d2d      	movel %a5@(11565),%fp@-
   2b2c0:	2d2d 2d2d      	movel %a5@(11565),%fp@-
   2b2c4:	2d2d 2d17      	movel %a5@(11543),%fp@-
   2b2c8:	172d 2d2d      	moveb %a5@(11565),%a3@-
   2b2cc:	2d17           	movel %sp@,%fp@-
   2b2ce:	1717           	moveb %sp@,%a3@-
   2b2d0:	172d 2d17      	moveb %a5@(11543),%a3@-
   2b2d4:	172d 2d17      	moveb %a5@(11543),%a3@-
   2b2d8:	172d 2d2d      	moveb %a5@(11565),%a3@-
   2b2dc:	0066 6666      	oriw #26214,%fp@-
   2b2e0:	6666           	bnes 2b348 <picData+0xb2f4>
   2b2e2:	6627           	bnes 2b30b <picData+0xb2b7>
   2b2e4:	2d2d 2d2d      	movel %a5@(11565),%fp@-
   2b2e8:	2d2d 2d2d      	movel %a5@(11565),%fp@-
   2b2ec:	2d2d 2d2d      	movel %a5@(11565),%fp@-
   2b2f0:	2d2d 1717      	movel %a5@(5911),%fp@-
   2b2f4:	2d17           	movel %sp@,%fp@-
   2b2f6:	172d 2d17      	moveb %a5@(11543),%a3@-
   2b2fa:	172d 1717      	moveb %a5@(5911),%a3@-
   2b2fe:	2d2d 1717      	movel %a5@(5911),%fp@-
   2b302:	2d2d 0066      	movel %a5@(102),%fp@-
   2b306:	6666           	bnes 2b36e <picData+0xb31a>
   2b308:	6666           	bnes 2b370 <picData+0xb31c>
   2b30a:	6627           	bnes 2b333 <picData+0xb2df>
   2b30c:	2d2d 2d2d      	movel %a5@(11565),%fp@-
   2b310:	2d2d 2d2d      	movel %a5@(11565),%fp@-
   2b314:	2d2d 2d2d      	movel %a5@(11565),%fp@-
   2b318:	2d2d 1717      	movel %a5@(5911),%fp@-
   2b31c:	2d17           	movel %sp@,%fp@-
   2b31e:	172d 2d17      	moveb %a5@(11543),%a3@-
   2b322:	172d 1717      	moveb %a5@(5911),%a3@-
   2b326:	2d2d 1717      	movel %a5@(5911),%fp@-
   2b32a:	2d2d 0066      	movel %a5@(102),%fp@-
   2b32e:	6666           	bnes 2b396 <picData+0xb342>
   2b330:	6666           	bnes 2b398 <picData+0xb344>
   2b332:	6627           	bnes 2b35b <picData+0xb307>
   2b334:	2d2d 2d2d      	movel %a5@(11565),%fp@-
   2b338:	3529 2929      	movew %a1@(10537),%a2@-
   2b33c:	2929 2929      	movel %a1@(10537),%a4@-
   2b340:	2929 2929      	movel %a1@(10537),%a4@-
   2b344:	2929 2929      	movel %a1@(10537),%a4@-
   2b348:	2929 2929      	movel %a1@(10537),%a4@-
   2b34c:	2929 2929      	movel %a1@(10537),%a4@-
   2b350:	2929 2929      	movel %a1@(10537),%a4@-
   2b354:	2929 2929      	movel %a1@(10537),%a4@-
   2b358:	2929 2929      	movel %a1@(10537),%a4@-
   2b35c:	2929 2929      	movel %a1@(10537),%a4@-
   2b360:	2929 2929      	movel %a1@(10537),%a4@-
   2b364:	2929 2929      	movel %a1@(10537),%a4@-
   2b368:	2929 2929      	movel %a1@(10537),%a4@-
   2b36c:	2929 2929      	movel %a1@(10537),%a4@-
   2b370:	2929 2929      	movel %a1@(10537),%a4@-
   2b374:	2929 2929      	movel %a1@(10537),%a4@-
   2b378:	2929 2929      	movel %a1@(10537),%a4@-
   2b37c:	2929 2929      	movel %a1@(10537),%a4@-
   2b380:	2929 2929      	movel %a1@(10537),%a4@-
   2b384:	2929 2929      	movel %a1@(10537),%a4@-
   2b388:	2929 2929      	movel %a1@(10537),%a4@-
   2b38c:	2929 2929      	movel %a1@(10537),%a4@-
   2b390:	2929 2929      	movel %a1@(10537),%a4@-
   2b394:	2929 2929      	movel %a1@(10537),%a4@-
   2b398:	2929 2929      	movel %a1@(10537),%a4@-
   2b39c:	2929 2929      	movel %a1@(10537),%a4@-
   2b3a0:	2929 2929      	movel %a1@(10537),%a4@-
   2b3a4:	2929 2929      	movel %a1@(10537),%a4@-
   2b3a8:	2929 2929      	movel %a1@(10537),%a4@-
   2b3ac:	2929 2929      	movel %a1@(10537),%a4@-
   2b3b0:	2929 2929      	movel %a1@(10537),%a4@-
   2b3b4:	2929 2929      	movel %a1@(10537),%a4@-
   2b3b8:	2929 2929      	movel %a1@(10537),%a4@-
   2b3bc:	2929 2929      	movel %a1@(10537),%a4@-
   2b3c0:	2929 2929      	movel %a1@(10537),%a4@-
   2b3c4:	2929 2929      	movel %a1@(10537),%a4@-
   2b3c8:	2929 2929      	movel %a1@(10537),%a4@-
   2b3cc:	2929 2929      	movel %a1@(10537),%a4@-
   2b3d0:	2929 2929      	movel %a1@(10537),%a4@-
   2b3d4:	2929 2929      	movel %a1@(10537),%a4@-
   2b3d8:	2929 2929      	movel %a1@(10537),%a4@-
   2b3dc:	2929 2929      	movel %a1@(10537),%a4@-
   2b3e0:	2929 2929      	movel %a1@(10537),%a4@-
   2b3e4:	2929 2929      	movel %a1@(10537),%a4@-
   2b3e8:	2929 2929      	movel %a1@(10537),%a4@-
   2b3ec:	2929 2929      	movel %a1@(10537),%a4@-
   2b3f0:	2929 2929      	movel %a1@(10537),%a4@-
   2b3f4:	2929 2f2f      	movel %a1@(12079),%a4@-
   2b3f8:	2d2d 2d2d      	movel %a5@(11565),%fp@-
   2b3fc:	2d2d 2d2d      	movel %a5@(11565),%fp@-
   2b400:	2d2d 2d2d      	movel %a5@(11565),%fp@-
   2b404:	2d2d 2d17      	movel %a5@(11543),%fp@-
   2b408:	172d 2d2d      	moveb %a5@(11565),%a3@-
   2b40c:	1717           	moveb %sp@,%a3@-
   2b40e:	2d2d 2d2d      	movel %a5@(11565),%fp@-
   2b412:	2d17           	movel %sp@,%fp@-
   2b414:	172d 2d17      	moveb %a5@(11543),%a3@-
   2b418:	172d 2d2d      	moveb %a5@(11565),%a3@-
   2b41c:	2f66 6666      	movel %fp@-,%sp@(26214)
   2b420:	6666           	bnes 2b488 <picData+0xb434>
   2b422:	6627           	bnes 2b44b <picData+0xb3f7>
   2b424:	2d2d 2d2d      	movel %a5@(11565),%fp@-
   2b428:	2d2d 2d2d      	movel %a5@(11565),%fp@-
   2b42c:	2d2d 2d2d      	movel %a5@(11565),%fp@-
   2b430:	2d2d 1717      	movel %a5@(5911),%fp@-
   2b434:	2d17           	movel %sp@,%fp@-
   2b436:	172d 2d17      	moveb %a5@(11543),%a3@-
   2b43a:	172d 1717      	moveb %a5@(5911),%a3@-
   2b43e:	2d2d 1717      	movel %a5@(5911),%fp@-
   2b442:	2d2d 2f66      	movel %a5@(12134),%fp@-
   2b446:	6666           	bnes 2b4ae <picData+0xb45a>
   2b448:	6666           	bnes 2b4b0 <picData+0xb45c>
   2b44a:	6627           	bnes 2b473 <picData+0xb41f>
   2b44c:	2d2d 2d2d      	movel %a5@(11565),%fp@-
   2b450:	2d2d 2d2d      	movel %a5@(11565),%fp@-
   2b454:	2d2d 2d2d      	movel %a5@(11565),%fp@-
   2b458:	2d2d 1717      	movel %a5@(5911),%fp@-
   2b45c:	2d17           	movel %sp@,%fp@-
   2b45e:	172d 2d17      	moveb %a5@(11543),%a3@-
   2b462:	172d 1717      	moveb %a5@(5911),%a3@-
   2b466:	2d2d 1717      	movel %a5@(5911),%fp@-
   2b46a:	2d2d 2f66      	movel %a5@(12134),%fp@-
   2b46e:	6666           	bnes 2b4d6 <picData+0xb482>
   2b470:	6666           	bnes 2b4d8 <picData+0xb484>
   2b472:	6627           	bnes 2b49b <picData+0xb447>
   2b474:	2d2d 2d2d      	movel %a5@(11565),%fp@-
   2b478:	3529 2929      	movew %a1@(10537),%a2@-
   2b47c:	2929 2929      	movel %a1@(10537),%a4@-
   2b480:	2929 2929      	movel %a1@(10537),%a4@-
   2b484:	2929 2929      	movel %a1@(10537),%a4@-
   2b488:	2929 2929      	movel %a1@(10537),%a4@-
   2b48c:	2929 2929      	movel %a1@(10537),%a4@-
   2b490:	2929 2929      	movel %a1@(10537),%a4@-
   2b494:	2929 2929      	movel %a1@(10537),%a4@-
   2b498:	2929 2929      	movel %a1@(10537),%a4@-
   2b49c:	2929 2929      	movel %a1@(10537),%a4@-
   2b4a0:	2929 2929      	movel %a1@(10537),%a4@-
   2b4a4:	2929 2929      	movel %a1@(10537),%a4@-
   2b4a8:	2929 2929      	movel %a1@(10537),%a4@-
   2b4ac:	2929 2929      	movel %a1@(10537),%a4@-
   2b4b0:	2929 2929      	movel %a1@(10537),%a4@-
   2b4b4:	2929 2929      	movel %a1@(10537),%a4@-
   2b4b8:	2929 2929      	movel %a1@(10537),%a4@-
   2b4bc:	2929 2929      	movel %a1@(10537),%a4@-
   2b4c0:	2929 2929      	movel %a1@(10537),%a4@-
   2b4c4:	2929 2929      	movel %a1@(10537),%a4@-
   2b4c8:	2929 2929      	movel %a1@(10537),%a4@-
   2b4cc:	2929 2929      	movel %a1@(10537),%a4@-
   2b4d0:	2929 2929      	movel %a1@(10537),%a4@-
   2b4d4:	2929 2929      	movel %a1@(10537),%a4@-
   2b4d8:	2929 2929      	movel %a1@(10537),%a4@-
   2b4dc:	2929 2929      	movel %a1@(10537),%a4@-
   2b4e0:	2929 2929      	movel %a1@(10537),%a4@-
   2b4e4:	2929 2929      	movel %a1@(10537),%a4@-
   2b4e8:	2929 2929      	movel %a1@(10537),%a4@-
   2b4ec:	2929 2929      	movel %a1@(10537),%a4@-
   2b4f0:	2929 2929      	movel %a1@(10537),%a4@-
   2b4f4:	2929 2929      	movel %a1@(10537),%a4@-
   2b4f8:	2929 2929      	movel %a1@(10537),%a4@-
   2b4fc:	2929 2929      	movel %a1@(10537),%a4@-
   2b500:	2929 2929      	movel %a1@(10537),%a4@-
   2b504:	2929 2929      	movel %a1@(10537),%a4@-
   2b508:	2929 2929      	movel %a1@(10537),%a4@-
   2b50c:	2929 2929      	movel %a1@(10537),%a4@-
   2b510:	2929 2929      	movel %a1@(10537),%a4@-
   2b514:	2929 2929      	movel %a1@(10537),%a4@-
   2b518:	2929 2929      	movel %a1@(10537),%a4@-
   2b51c:	2929 2929      	movel %a1@(10537),%a4@-
   2b520:	2929 2929      	movel %a1@(10537),%a4@-
   2b524:	2929 2929      	movel %a1@(10537),%a4@-
   2b528:	2929 2929      	movel %a1@(10537),%a4@-
   2b52c:	2929 2929      	movel %a1@(10537),%a4@-
   2b530:	2929 2929      	movel %a1@(10537),%a4@-
   2b534:	2929 2f2f      	movel %a1@(12079),%a4@-
   2b538:	2d2d 2d2d      	movel %a5@(11565),%fp@-
   2b53c:	2d2d 2d2d      	movel %a5@(11565),%fp@-
   2b540:	2d2d 2d2d      	movel %a5@(11565),%fp@-
   2b544:	2d2d 1717      	movel %a5@(5911),%fp@-
   2b548:	1717           	moveb %sp@,%a3@-
   2b54a:	2d2d 1717      	movel %a5@(5911),%fp@-
   2b54e:	1717           	moveb %sp@,%a3@-
   2b550:	1717           	moveb %sp@,%a3@-
   2b552:	2d2d 1717      	movel %a5@(5911),%fp@-
   2b556:	1717           	moveb %sp@,%a3@-
   2b558:	2d2d 2d2d      	movel %a5@(11565),%fp@-
   2b55c:	2f66 6666      	movel %fp@-,%sp@(26214)
   2b560:	6666           	bnes 2b5c8 <picData+0xb574>
   2b562:	6625           	bnes 2b589 <picData+0xb535>
   2b564:	2d2d 2d2d      	movel %a5@(11565),%fp@-
   2b568:	2d2d 2d2d      	movel %a5@(11565),%fp@-
   2b56c:	2d2d 2d2d      	movel %a5@(11565),%fp@-
   2b570:	2d2d 1717      	movel %a5@(5911),%fp@-
   2b574:	2d2d 1717      	movel %a5@(5911),%fp@-
   2b578:	1717           	moveb %sp@,%a3@-
   2b57a:	2d2d 2d17      	movel %a5@(11543),%fp@-
   2b57e:	1717           	moveb %sp@,%a3@-
   2b580:	172d 2d2d      	moveb %a5@(11565),%a3@-
   2b584:	2f66 6666      	movel %fp@-,%sp@(26214)
   2b588:	6666           	bnes 2b5f0 <picData+0xb59c>
   2b58a:	6625           	bnes 2b5b1 <picData+0xb55d>
   2b58c:	2d2d 2d2d      	movel %a5@(11565),%fp@-
   2b590:	2d2d 2d2d      	movel %a5@(11565),%fp@-
   2b594:	2d2d 2d2d      	movel %a5@(11565),%fp@-
   2b598:	2d2d 1717      	movel %a5@(5911),%fp@-
   2b59c:	2d2d 1717      	movel %a5@(5911),%fp@-
   2b5a0:	1717           	moveb %sp@,%a3@-
   2b5a2:	2d2d 2d17      	movel %a5@(11543),%fp@-
   2b5a6:	1717           	moveb %sp@,%a3@-
   2b5a8:	172d 2d2d      	moveb %a5@(11565),%a3@-
   2b5ac:	2f66 6666      	movel %fp@-,%sp@(26214)
   2b5b0:	6666           	bnes 2b618 <picData+0xb5c4>
   2b5b2:	6625           	bnes 2b5d9 <picData+0xb585>
   2b5b4:	2d2d 2d2d      	movel %a5@(11565),%fp@-
   2b5b8:	3529 2929      	movew %a1@(10537),%a2@-
   2b5bc:	2929 2929      	movel %a1@(10537),%a4@-
   2b5c0:	2929 2929      	movel %a1@(10537),%a4@-
   2b5c4:	2929 2929      	movel %a1@(10537),%a4@-
   2b5c8:	2f2f 2f2f      	movel %sp@(12079),%sp@-
   2b5cc:	2f2f 2f2f      	movel %sp@(12079),%sp@-
   2b5d0:	2f2f 2f2f      	movel %sp@(12079),%sp@-
   2b5d4:	2f2f 2f2f      	movel %sp@(12079),%sp@-
   2b5d8:	2f2f 2f2f      	movel %sp@(12079),%sp@-
   2b5dc:	2f2f 2f2f      	movel %sp@(12079),%sp@-
   2b5e0:	2f2f 2f2f      	movel %sp@(12079),%sp@-
   2b5e4:	2f2f 2f2f      	movel %sp@(12079),%sp@-
   2b5e8:	2f2f 2f2f      	movel %sp@(12079),%sp@-
   2b5ec:	2f2f 2f2f      	movel %sp@(12079),%sp@-
   2b5f0:	2f2f 2f2f      	movel %sp@(12079),%sp@-
   2b5f4:	2f2f 2f2f      	movel %sp@(12079),%sp@-
   2b5f8:	2f2f 2f2f      	movel %sp@(12079),%sp@-
   2b5fc:	2f2f 2f2f      	movel %sp@(12079),%sp@-
   2b600:	2f2f 2f2f      	movel %sp@(12079),%sp@-
   2b604:	2f2f 2f2f      	movel %sp@(12079),%sp@-
   2b608:	2f2f 2f2f      	movel %sp@(12079),%sp@-
   2b60c:	2f2f 2f2f      	movel %sp@(12079),%sp@-
   2b610:	2f2f 2f2f      	movel %sp@(12079),%sp@-
   2b614:	2f2f 2f2f      	movel %sp@(12079),%sp@-
   2b618:	2f2f 2f2f      	movel %sp@(12079),%sp@-
   2b61c:	2f2f 2f2f      	movel %sp@(12079),%sp@-
   2b620:	2f2f 2e2e      	movel %sp@(11822),%sp@-
   2b624:	2e2e 2e2e      	movel %fp@(11822),%d7
   2b628:	2e2e 2e2e      	movel %fp@(11822),%d7
   2b62c:	2e2e 2e2e      	movel %fp@(11822),%d7
   2b630:	2e2e 2e2e      	movel %fp@(11822),%d7
   2b634:	2e2e 2e2e      	movel %fp@(11822),%d7
   2b638:	2e2e 2e2e      	movel %fp@(11822),%d7
   2b63c:	2e2e 2e2e      	movel %fp@(11822),%d7
   2b640:	2e2e 2e2e      	movel %fp@(11822),%d7
   2b644:	2e2e 2e2e      	movel %fp@(11822),%d7
   2b648:	2e2e 2d2d      	movel %fp@(11565),%d7
   2b64c:	2d2d 2d2d      	movel %a5@(11565),%fp@-
   2b650:	2d2d 2d2d      	movel %a5@(11565),%fp@-
   2b654:	2d2d 2d2d      	movel %a5@(11565),%fp@-
   2b658:	2d2d 2d2c      	movel %a5@(11564),%fp@-
   2b65c:	2c2c 2c2c      	movel %a4@(11308),%d6
   2b660:	2c26           	movel %fp@-,%d6
   2b662:	2929 2929      	movel %a1@(10537),%a4@-
   2b666:	2929 2929      	movel %a1@(10537),%a4@-
   2b66a:	2929 2929      	movel %a1@(10537),%a4@-
   2b66e:	2929 2929      	movel %a1@(10537),%a4@-
   2b672:	2929 2929      	movel %a1@(10537),%a4@-
   2b676:	2f2f 2d2d      	movel %sp@(11565),%sp@-
   2b67a:	2d2d 2d2d      	movel %a5@(11565),%fp@-
   2b67e:	2d2d 2d2d      	movel %a5@(11565),%fp@-
   2b682:	2d2d 2d2d      	movel %a5@(11565),%fp@-
   2b686:	2d2d 2d2d      	movel %a5@(11565),%fp@-
   2b68a:	2d2d 2d2d      	movel %a5@(11565),%fp@-
   2b68e:	2d2d 2d2d      	movel %a5@(11565),%fp@-
   2b692:	2d2d 2d2d      	movel %a5@(11565),%fp@-
   2b696:	2d2d 2d2d      	movel %a5@(11565),%fp@-
   2b69a:	2d2d 2b29      	movel %a5@(11049),%fp@-
   2b69e:	2727           	movel %sp@-,%a3@-
   2b6a0:	2727           	movel %sp@-,%a3@-
   2b6a2:	2522           	movel %a2@-,%a2@-
   2b6a4:	2d2d 2d2d      	movel %a5@(11565),%fp@-
   2b6a8:	2d2d 2d2d      	movel %a5@(11565),%fp@-
   2b6ac:	2d2d 2d2d      	movel %a5@(11565),%fp@-
   2b6b0:	2d2d 2d2d      	movel %a5@(11565),%fp@-
   2b6b4:	2d2d 2d2d      	movel %a5@(11565),%fp@-
   2b6b8:	2d2d 2d2d      	movel %a5@(11565),%fp@-
   2b6bc:	2d2d 2d2d      	movel %a5@(11565),%fp@-
   2b6c0:	2d2d 2d2d      	movel %a5@(11565),%fp@-
   2b6c4:	2b29 2727      	movel %a1@(10023),%a5@-
   2b6c8:	2727           	movel %sp@-,%a3@-
   2b6ca:	2522           	movel %a2@-,%a2@-
   2b6cc:	2d2d 2d2d      	movel %a5@(11565),%fp@-
   2b6d0:	2d2d 2d2d      	movel %a5@(11565),%fp@-
   2b6d4:	2d2d 2d2d      	movel %a5@(11565),%fp@-
   2b6d8:	2d2d 2d2d      	movel %a5@(11565),%fp@-
   2b6dc:	2d2d 2d2d      	movel %a5@(11565),%fp@-
   2b6e0:	2d2d 2d2d      	movel %a5@(11565),%fp@-
   2b6e4:	2d2d 2d2d      	movel %a5@(11565),%fp@-
   2b6e8:	2d2d 2d2d      	movel %a5@(11565),%fp@-
   2b6ec:	2b29 2727      	movel %a1@(10023),%a5@-
   2b6f0:	2727           	movel %sp@-,%a3@-
   2b6f2:	2522           	movel %a2@-,%a2@-
   2b6f4:	2d2d 2d2d      	movel %a5@(11565),%fp@-
   2b6f8:	3529 2929      	movew %a1@(10537),%a2@-
   2b6fc:	2929 2929      	movel %a1@(10537),%a4@-
   2b700:	2929 2929      	movel %a1@(10537),%a4@-
   2b704:	2929 2929      	movel %a1@(10537),%a4@-
   2b708:	2f2f 2f2f      	movel %sp@(12079),%sp@-
   2b70c:	2f2f 2f2f      	movel %sp@(12079),%sp@-
   2b710:	2f2f 2f2f      	movel %sp@(12079),%sp@-
   2b714:	2f2f 2f2f      	movel %sp@(12079),%sp@-
   2b718:	2f2f 2f2f      	movel %sp@(12079),%sp@-
   2b71c:	2f2f 2f2f      	movel %sp@(12079),%sp@-
   2b720:	2f2f 2f2f      	movel %sp@(12079),%sp@-
   2b724:	2f2f 2f2f      	movel %sp@(12079),%sp@-
   2b728:	2f2f 2f2f      	movel %sp@(12079),%sp@-
   2b72c:	2f2f 2f2f      	movel %sp@(12079),%sp@-
   2b730:	2f2f 2f2f      	movel %sp@(12079),%sp@-
   2b734:	2f2f 2f2f      	movel %sp@(12079),%sp@-
   2b738:	2f2f 2f2f      	movel %sp@(12079),%sp@-
   2b73c:	2f2f 2f2f      	movel %sp@(12079),%sp@-
   2b740:	2f2f 2f2f      	movel %sp@(12079),%sp@-
   2b744:	2f2f 2f2f      	movel %sp@(12079),%sp@-
   2b748:	2f2f 2f2f      	movel %sp@(12079),%sp@-
   2b74c:	2f2f 2f2f      	movel %sp@(12079),%sp@-
   2b750:	2f2f 2f2f      	movel %sp@(12079),%sp@-
   2b754:	2f2f 2f2f      	movel %sp@(12079),%sp@-
   2b758:	2f2f 2f2f      	movel %sp@(12079),%sp@-
   2b75c:	2f2f 2f2f      	movel %sp@(12079),%sp@-
   2b760:	2f2f 2f2f      	movel %sp@(12079),%sp@-
   2b764:	2f2f 2f2f      	movel %sp@(12079),%sp@-
   2b768:	2f2f 2f2f      	movel %sp@(12079),%sp@-
   2b76c:	2f2f 2f2f      	movel %sp@(12079),%sp@-
   2b770:	2f2f 2f2f      	movel %sp@(12079),%sp@-
   2b774:	2f2f 2f2f      	movel %sp@(12079),%sp@-
   2b778:	2f2f 2f2f      	movel %sp@(12079),%sp@-
   2b77c:	2f2f 2f2f      	movel %sp@(12079),%sp@-
   2b780:	2f2f 2f2f      	movel %sp@(12079),%sp@-
   2b784:	2f2f 2f2f      	movel %sp@(12079),%sp@-
   2b788:	2f2f 2f2f      	movel %sp@(12079),%sp@-
   2b78c:	2f2f 2f2f      	movel %sp@(12079),%sp@-
   2b790:	2f2f 2f2f      	movel %sp@(12079),%sp@-
   2b794:	2f2f 2f2f      	movel %sp@(12079),%sp@-
   2b798:	2f2f 2f2f      	movel %sp@(12079),%sp@-
   2b79c:	2f2f 2f2f      	movel %sp@(12079),%sp@-
   2b7a0:	2f23           	movel %a3@-,%sp@-
   2b7a2:	2929 2929      	movel %a1@(10537),%a4@-
   2b7a6:	2929 2929      	movel %a1@(10537),%a4@-
   2b7aa:	2929 2929      	movel %a1@(10537),%a4@-
   2b7ae:	2929 2929      	movel %a1@(10537),%a4@-
   2b7b2:	2929 2929      	movel %a1@(10537),%a4@-
   2b7b6:	2f2f 2d2d      	movel %sp@(11565),%sp@-
   2b7ba:	2d2d 2d2d      	movel %a5@(11565),%fp@-
   2b7be:	2d2d 2d2d      	movel %a5@(11565),%fp@-
   2b7c2:	2d2d 2d2d      	movel %a5@(11565),%fp@-
   2b7c6:	2d2d 2d2d      	movel %a5@(11565),%fp@-
   2b7ca:	2d2d 2d2d      	movel %a5@(11565),%fp@-
   2b7ce:	2d2d 2d2d      	movel %a5@(11565),%fp@-
   2b7d2:	2d2d 2d2d      	movel %a5@(11565),%fp@-
   2b7d6:	2d2d 2d2d      	movel %a5@(11565),%fp@-
   2b7da:	2d2d 2d2d      	movel %a5@(11565),%fp@-
   2b7de:	2d2d 2d2d      	movel %a5@(11565),%fp@-
   2b7e2:	2d2d 2d2d      	movel %a5@(11565),%fp@-
   2b7e6:	2d2d 2d2d      	movel %a5@(11565),%fp@-
   2b7ea:	2d2d 2d2d      	movel %a5@(11565),%fp@-
   2b7ee:	2d2d 2d2d      	movel %a5@(11565),%fp@-
   2b7f2:	2d2d 2d2d      	movel %a5@(11565),%fp@-
   2b7f6:	2d2d 2d2d      	movel %a5@(11565),%fp@-
   2b7fa:	2d2d 2d2d      	movel %a5@(11565),%fp@-
   2b7fe:	2d2d 2d2d      	movel %a5@(11565),%fp@-
   2b802:	2d2d 2d2d      	movel %a5@(11565),%fp@-
   2b806:	2d2d 2d2d      	movel %a5@(11565),%fp@-
   2b80a:	2d2d 2d2d      	movel %a5@(11565),%fp@-
   2b80e:	2d2d 2d2d      	movel %a5@(11565),%fp@-
   2b812:	2d2d 2d2d      	movel %a5@(11565),%fp@-
   2b816:	2d2d 2d2d      	movel %a5@(11565),%fp@-
   2b81a:	2d2d 2d2d      	movel %a5@(11565),%fp@-
   2b81e:	2d2d 2d2d      	movel %a5@(11565),%fp@-
   2b822:	2d2d 2d2d      	movel %a5@(11565),%fp@-
   2b826:	2d2d 2d2d      	movel %a5@(11565),%fp@-
   2b82a:	2d2d 2d2d      	movel %a5@(11565),%fp@-
   2b82e:	2d2d 2d2d      	movel %a5@(11565),%fp@-
   2b832:	2d2d 2d2d      	movel %a5@(11565),%fp@-
   2b836:	2d2d 3529      	movel %a5@(13609),%fp@-
   2b83a:	2929 2929      	movel %a1@(10537),%a4@-
   2b83e:	2929 2929      	movel %a1@(10537),%a4@-
   2b842:	2929 2929      	movel %a1@(10537),%a4@-
   2b846:	2929 2f2f      	movel %a1@(12079),%a4@-
   2b84a:	2d2d 2d2d      	movel %a5@(11565),%fp@-
   2b84e:	2d2d 2d2d      	movel %a5@(11565),%fp@-
   2b852:	2d2d 2d2d      	movel %a5@(11565),%fp@-
   2b856:	2d2d 2d2d      	movel %a5@(11565),%fp@-
   2b85a:	2d2d 2d2d      	movel %a5@(11565),%fp@-
   2b85e:	2d2d 2d2d      	movel %a5@(11565),%fp@-
   2b862:	2d2d 2d2d      	movel %a5@(11565),%fp@-
   2b866:	2d2d 2d2d      	movel %a5@(11565),%fp@-
   2b86a:	2d2d 2d2d      	movel %a5@(11565),%fp@-
   2b86e:	2d2d 2d2d      	movel %a5@(11565),%fp@-
   2b872:	2d2d 2d2d      	movel %a5@(11565),%fp@-
   2b876:	2d2d 2d2d      	movel %a5@(11565),%fp@-
   2b87a:	2d2d 2d2d      	movel %a5@(11565),%fp@-
   2b87e:	2d2d 2d2d      	movel %a5@(11565),%fp@-
   2b882:	2d2d 2d2d      	movel %a5@(11565),%fp@-
   2b886:	2d2d 2d2d      	movel %a5@(11565),%fp@-
   2b88a:	2d2d 2d2d      	movel %a5@(11565),%fp@-
   2b88e:	2d2d 2d2d      	movel %a5@(11565),%fp@-
   2b892:	2d2d 2d2d      	movel %a5@(11565),%fp@-
   2b896:	2d2d 2d2d      	movel %a5@(11565),%fp@-
   2b89a:	2d2d 2d2d      	movel %a5@(11565),%fp@-
   2b89e:	2d2d 2d2d      	movel %a5@(11565),%fp@-
   2b8a2:	2d2d 2d2d      	movel %a5@(11565),%fp@-
   2b8a6:	2d2d 2d2d      	movel %a5@(11565),%fp@-
   2b8aa:	2d2d 2d2d      	movel %a5@(11565),%fp@-
   2b8ae:	2d2d 2d2d      	movel %a5@(11565),%fp@-
   2b8b2:	2d2d 2d2d      	movel %a5@(11565),%fp@-
   2b8b6:	2d2d 2d2d      	movel %a5@(11565),%fp@-
   2b8ba:	2d2d 2d2d      	movel %a5@(11565),%fp@-
   2b8be:	2d2d 2d2d      	movel %a5@(11565),%fp@-
   2b8c2:	2d2d 2d2d      	movel %a5@(11565),%fp@-
   2b8c6:	2d2d 2d2d      	movel %a5@(11565),%fp@-
   2b8ca:	2d2d 2d2d      	movel %a5@(11565),%fp@-
   2b8ce:	2d2d 2d2d      	movel %a5@(11565),%fp@-
   2b8d2:	2d2d 2d2d      	movel %a5@(11565),%fp@-
   2b8d6:	2d2d 2d2d      	movel %a5@(11565),%fp@-
   2b8da:	2d2d 2d2d      	movel %a5@(11565),%fp@-
   2b8de:	2d2d 2d20      	movel %a5@(11552),%fp@-
   2b8e2:	2929 2929      	movel %a1@(10537),%a4@-
   2b8e6:	2929 2929      	movel %a1@(10537),%a4@-
   2b8ea:	2929 2929      	movel %a1@(10537),%a4@-
   2b8ee:	2929 2929      	movel %a1@(10537),%a4@-
   2b8f2:	2929 2929      	movel %a1@(10537),%a4@-
   2b8f6:	2f2f 2d2d      	movel %sp@(11565),%sp@-
   2b8fa:	2d2d 2d2d      	movel %a5@(11565),%fp@-
   2b8fe:	2d2d 2d2d      	movel %a5@(11565),%fp@-
   2b902:	2d2d 2d2d      	movel %a5@(11565),%fp@-
   2b906:	2d2d 2d2d      	movel %a5@(11565),%fp@-
   2b90a:	2d2d 2d17      	movel %a5@(11543),%fp@-
   2b90e:	1717           	moveb %sp@,%a3@-
   2b910:	172d 2d2d      	moveb %a5@(11565),%a3@-
   2b914:	1717           	moveb %sp@,%a3@-
   2b916:	1717           	moveb %sp@,%a3@-
   2b918:	2d2d 2d2d      	movel %a5@(11565),%fp@-
   2b91c:	0000 0000      	orib #0,%d0
   2b920:	002f 2f2b 2d2d 	orib #43,%sp@(11565)
   2b926:	2d2d 2d2d      	movel %a5@(11565),%fp@-
   2b92a:	2d2d 2d2d      	movel %a5@(11565),%fp@-
   2b92e:	1717           	moveb %sp@,%a3@-
   2b930:	1717           	moveb %sp@,%a3@-
   2b932:	172d 2d2d      	moveb %a5@(11565),%a3@-
   2b936:	1717           	moveb %sp@,%a3@-
   2b938:	1717           	moveb %sp@,%a3@-
   2b93a:	2d2d 2d17      	movel %a5@(11543),%fp@-
   2b93e:	1717           	moveb %sp@,%a3@-
   2b940:	172d 2d2d      	moveb %a5@(11565),%a3@-
   2b944:	0000 0000      	orib #0,%d0
   2b948:	002f 2f2b 2d2d 	orib #43,%sp@(11565)
   2b94e:	2d2d 2d2d      	movel %a5@(11565),%fp@-
   2b952:	2d2d 2d2d      	movel %a5@(11565),%fp@-
   2b956:	1717           	moveb %sp@,%a3@-
   2b958:	1717           	moveb %sp@,%a3@-
   2b95a:	172d 2d2d      	moveb %a5@(11565),%a3@-
   2b95e:	1717           	moveb %sp@,%a3@-
   2b960:	1717           	moveb %sp@,%a3@-
   2b962:	2d2d 2d17      	movel %a5@(11543),%fp@-
   2b966:	1717           	moveb %sp@,%a3@-
   2b968:	172d 2d2d      	moveb %a5@(11565),%a3@-
   2b96c:	0000 0000      	orib #0,%d0
   2b970:	002f 2f2b 2d2d 	orib #43,%sp@(11565)
   2b976:	2d2d 3529      	movel %a5@(13609),%fp@-
   2b97a:	2929 2929      	movel %a1@(10537),%a4@-
   2b97e:	2929 2929      	movel %a1@(10537),%a4@-
   2b982:	2929 2929      	movel %a1@(10537),%a4@-
   2b986:	2929 2f2f      	movel %a1@(12079),%a4@-
   2b98a:	2d2d 2d2d      	movel %a5@(11565),%fp@-
   2b98e:	2d2d 2d2d      	movel %a5@(11565),%fp@-
   2b992:	2d2d 2d2d      	movel %a5@(11565),%fp@-
   2b996:	2d2d 2d2d      	movel %a5@(11565),%fp@-
   2b99a:	2d2d 2d2d      	movel %a5@(11565),%fp@-
   2b99e:	2d2d 2d2d      	movel %a5@(11565),%fp@-
   2b9a2:	2d2d 2d2d      	movel %a5@(11565),%fp@-
   2b9a6:	2d2d 2d2d      	movel %a5@(11565),%fp@-
   2b9aa:	2d2d 2d2d      	movel %a5@(11565),%fp@-
   2b9ae:	2d2d 2d2d      	movel %a5@(11565),%fp@-
   2b9b2:	2d2d 2d2d      	movel %a5@(11565),%fp@-
   2b9b6:	2d2d 2d2d      	movel %a5@(11565),%fp@-
   2b9ba:	2d2d 2d2d      	movel %a5@(11565),%fp@-
   2b9be:	2d2d 2d2d      	movel %a5@(11565),%fp@-
   2b9c2:	2d2d 2d2d      	movel %a5@(11565),%fp@-
   2b9c6:	2d2d 2d2d      	movel %a5@(11565),%fp@-
   2b9ca:	2d2d 2d2d      	movel %a5@(11565),%fp@-
   2b9ce:	2d2d 2d2d      	movel %a5@(11565),%fp@-
   2b9d2:	2d2d 2d2d      	movel %a5@(11565),%fp@-
   2b9d6:	2d2d 2d2d      	movel %a5@(11565),%fp@-
   2b9da:	2d2d 2d2d      	movel %a5@(11565),%fp@-
   2b9de:	2d2d 2d2d      	movel %a5@(11565),%fp@-
   2b9e2:	2d2d 2d2d      	movel %a5@(11565),%fp@-
   2b9e6:	2d2d 2d2d      	movel %a5@(11565),%fp@-
   2b9ea:	2d2d 2d2d      	movel %a5@(11565),%fp@-
   2b9ee:	2d2d 2d2d      	movel %a5@(11565),%fp@-
   2b9f2:	2d2d 2d2d      	movel %a5@(11565),%fp@-
   2b9f6:	2d2d 2d2d      	movel %a5@(11565),%fp@-
   2b9fa:	2d2d 2d2d      	movel %a5@(11565),%fp@-
   2b9fe:	2d2d 2d2d      	movel %a5@(11565),%fp@-
   2ba02:	2d2d 2d2d      	movel %a5@(11565),%fp@-
   2ba06:	2d2d 2d2d      	movel %a5@(11565),%fp@-
   2ba0a:	2d2d 2d2d      	movel %a5@(11565),%fp@-
   2ba0e:	2d2d 2d2d      	movel %a5@(11565),%fp@-
   2ba12:	2d2d 2d2d      	movel %a5@(11565),%fp@-
   2ba16:	2d2d 2d2d      	movel %a5@(11565),%fp@-
   2ba1a:	2d2d 2d2d      	movel %a5@(11565),%fp@-
   2ba1e:	2d2d 2d36      	movel %a5@(11574),%fp@-
   2ba22:	2929 2929      	movel %a1@(10537),%a4@-
   2ba26:	2929 2929      	movel %a1@(10537),%a4@-
   2ba2a:	2929 2929      	movel %a1@(10537),%a4@-
   2ba2e:	2929 2929      	movel %a1@(10537),%a4@-
   2ba32:	2929 2929      	movel %a1@(10537),%a4@-
   2ba36:	2f2f 2d2d      	movel %sp@(11565),%sp@-
   2ba3a:	2d2d 2d2d      	movel %a5@(11565),%fp@-
   2ba3e:	2d2d 2d2d      	movel %a5@(11565),%fp@-
   2ba42:	2d2d 2d2d      	movel %a5@(11565),%fp@-
   2ba46:	2d2d 2d2d      	movel %a5@(11565),%fp@-
   2ba4a:	2d2d 1717      	movel %a5@(5911),%fp@-
   2ba4e:	2d2d 1717      	movel %a5@(5911),%fp@-
   2ba52:	2d17           	movel %sp@,%fp@-
   2ba54:	172d 2d2d      	moveb %a5@(11565),%a3@-
   2ba58:	2d2d 2d2d      	movel %a5@(11565),%fp@-
   2ba5c:	0068 6868 6868 	oriw #26728,%a0@(26728)
   2ba62:	6829           	bvcs 2ba8d <picData+0xba39>
   2ba64:	2d2d 2d2d      	movel %a5@(11565),%fp@-
   2ba68:	2d2d 2d2d      	movel %a5@(11565),%fp@-
   2ba6c:	2d2d 2d2d      	movel %a5@(11565),%fp@-
   2ba70:	2d2d 1717      	movel %a5@(5911),%fp@-
   2ba74:	2d17           	movel %sp@,%fp@-
   2ba76:	172d 2d17      	moveb %a5@(11543),%a3@-
   2ba7a:	172d 1717      	moveb %a5@(5911),%a3@-
   2ba7e:	2d2d 1717      	movel %a5@(5911),%fp@-
   2ba82:	2d2d 0068      	movel %a5@(104),%fp@-
   2ba86:	6868           	bvcs 2baf0 <picData+0xba9c>
   2ba88:	6868           	bvcs 2baf2 <picData+0xba9e>
   2ba8a:	6829           	bvcs 2bab5 <picData+0xba61>
   2ba8c:	2d2d 2d2d      	movel %a5@(11565),%fp@-
   2ba90:	2d2d 2d2d      	movel %a5@(11565),%fp@-
   2ba94:	2d2d 2d2d      	movel %a5@(11565),%fp@-
   2ba98:	2d2d 1717      	movel %a5@(5911),%fp@-
   2ba9c:	2d17           	movel %sp@,%fp@-
   2ba9e:	172d 2d17      	moveb %a5@(11543),%a3@-
   2baa2:	172d 1717      	moveb %a5@(5911),%a3@-
   2baa6:	2d2d 1717      	movel %a5@(5911),%fp@-
   2baaa:	2d2d 0068      	movel %a5@(104),%fp@-
   2baae:	6868           	bvcs 2bb18 <picData+0xbac4>
   2bab0:	6868           	bvcs 2bb1a <picData+0xbac6>
   2bab2:	6829           	bvcs 2badd <picData+0xba89>
   2bab4:	2d2d 2d2d      	movel %a5@(11565),%fp@-
   2bab8:	3529 2929      	movew %a1@(10537),%a2@-
   2babc:	2929 2929      	movel %a1@(10537),%a4@-
   2bac0:	2929 2929      	movel %a1@(10537),%a4@-
   2bac4:	2929 2929      	movel %a1@(10537),%a4@-
   2bac8:	2f2f 2d2d      	movel %sp@(11565),%sp@-
   2bacc:	2d2d 2d2d      	movel %a5@(11565),%fp@-
   2bad0:	2d2d 2d2d      	movel %a5@(11565),%fp@-
   2bad4:	2d2d 2d2d      	movel %a5@(11565),%fp@-
   2bad8:	2d2d 2d2d      	movel %a5@(11565),%fp@-
   2badc:	2d2d 2d2d      	movel %a5@(11565),%fp@-
   2bae0:	2d2d 2d2d      	movel %a5@(11565),%fp@-
   2bae4:	2d17           	movel %sp@,%fp@-
   2bae6:	1717           	moveb %sp@,%a3@-
   2bae8:	1717           	moveb %sp@,%a3@-
   2baea:	1717           	moveb %sp@,%a3@-
   2baec:	2d2d 2d17      	movel %a5@(11543),%fp@-
   2baf0:	1717           	moveb %sp@,%a3@-
   2baf2:	1717           	moveb %sp@,%a3@-
   2baf4:	1717           	moveb %sp@,%a3@-
   2baf6:	2d2d 1717      	movel %a5@(5911),%fp@-
   2bafa:	172d 2d2d      	moveb %a5@(11565),%a3@-
   2bafe:	1717           	moveb %sp@,%a3@-
   2bb00:	172d 1717      	moveb %a5@(5911),%a3@-
   2bb04:	172d 2d2d      	moveb %a5@(11565),%a3@-
   2bb08:	1717           	moveb %sp@,%a3@-
   2bb0a:	172d 1717      	moveb %a5@(5911),%a3@-
   2bb0e:	1717           	moveb %sp@,%a3@-
   2bb10:	1717           	moveb %sp@,%a3@-
   2bb12:	1717           	moveb %sp@,%a3@-
   2bb14:	2d2d 2d2d      	movel %a5@(11565),%fp@-
   2bb18:	2d2d 2d17      	movel %a5@(11543),%fp@-
   2bb1c:	1717           	moveb %sp@,%a3@-
   2bb1e:	1717           	moveb %sp@,%a3@-
   2bb20:	1717           	moveb %sp@,%a3@-
   2bb22:	172d 2d17      	moveb %a5@(11543),%a3@-
   2bb26:	1717           	moveb %sp@,%a3@-
   2bb28:	2d2d 2d2d      	movel %a5@(11565),%fp@-
   2bb2c:	2d2d 2d2d      	movel %a5@(11565),%fp@-
   2bb30:	1717           	moveb %sp@,%a3@-
   2bb32:	1717           	moveb %sp@,%a3@-
   2bb34:	1717           	moveb %sp@,%a3@-
   2bb36:	172d 2d2d      	moveb %a5@(11565),%a3@-
   2bb3a:	1717           	moveb %sp@,%a3@-
   2bb3c:	1717           	moveb %sp@,%a3@-
   2bb3e:	1717           	moveb %sp@,%a3@-
   2bb40:	172d 2d17      	moveb %a5@(11543),%a3@-
   2bb44:	1717           	moveb %sp@,%a3@-
   2bb46:	1717           	moveb %sp@,%a3@-
   2bb48:	1717           	moveb %sp@,%a3@-
   2bb4a:	1717           	moveb %sp@,%a3@-
   2bb4c:	2d17           	movel %sp@,%fp@-
   2bb4e:	1717           	moveb %sp@,%a3@-
   2bb50:	1717           	moveb %sp@,%a3@-
   2bb52:	1717           	moveb %sp@,%a3@-
   2bb54:	172d 1717      	moveb %a5@(5911),%a3@-
   2bb58:	1717           	moveb %sp@,%a3@-
   2bb5a:	1717           	moveb %sp@,%a3@-
   2bb5c:	1717           	moveb %sp@,%a3@-
   2bb5e:	2d2d 2d36      	movel %a5@(11574),%fp@-
   2bb62:	2929 2929      	movel %a1@(10537),%a4@-
   2bb66:	2929 2929      	movel %a1@(10537),%a4@-
   2bb6a:	2929 2929      	movel %a1@(10537),%a4@-
   2bb6e:	2929 2929      	movel %a1@(10537),%a4@-
   2bb72:	2929 2929      	movel %a1@(10537),%a4@-
   2bb76:	2f2f 2d2d      	movel %sp@(11565),%sp@-
   2bb7a:	2d2d 2d2d      	movel %a5@(11565),%fp@-
   2bb7e:	2d2d 2d2d      	movel %a5@(11565),%fp@-
   2bb82:	2d2d 2d2d      	movel %a5@(11565),%fp@-
   2bb86:	2d2d 2d2d      	movel %a5@(11565),%fp@-
   2bb8a:	2d2d 1717      	movel %a5@(5911),%fp@-
   2bb8e:	2d2d 1717      	movel %a5@(5911),%fp@-
   2bb92:	2d17           	movel %sp@,%fp@-
   2bb94:	1717           	moveb %sp@,%a3@-
   2bb96:	1717           	moveb %sp@,%a3@-
   2bb98:	2d2d 2d2d      	movel %a5@(11565),%fp@-
   2bb9c:	0068 6868 6868 	oriw #26728,%a0@(26728)
   2bba2:	6827           	bvcs 2bbcb <picData+0xbb77>
   2bba4:	2d2d 2d2d      	movel %a5@(11565),%fp@-
   2bba8:	2d2d 2d2d      	movel %a5@(11565),%fp@-
   2bbac:	2d2d 2d2d      	movel %a5@(11565),%fp@-
   2bbb0:	1717           	moveb %sp@,%a3@-
   2bbb2:	172d 2d17      	moveb %a5@(11543),%a3@-
   2bbb6:	172d 2d17      	moveb %a5@(11543),%a3@-
   2bbba:	172d 1717      	moveb %a5@(5911),%a3@-
   2bbbe:	2d2d 1717      	movel %a5@(5911),%fp@-
   2bbc2:	2d2d 0068      	movel %a5@(104),%fp@-
   2bbc6:	6868           	bvcs 2bc30 <picData+0xbbdc>
   2bbc8:	6868           	bvcs 2bc32 <picData+0xbbde>
   2bbca:	6827           	bvcs 2bbf3 <picData+0xbb9f>
   2bbcc:	2d2d 2d2d      	movel %a5@(11565),%fp@-
   2bbd0:	2d2d 2d2d      	movel %a5@(11565),%fp@-
   2bbd4:	2d2d 2d2d      	movel %a5@(11565),%fp@-
   2bbd8:	1717           	moveb %sp@,%a3@-
   2bbda:	172d 2d17      	moveb %a5@(11543),%a3@-
   2bbde:	172d 2d17      	moveb %a5@(11543),%a3@-
   2bbe2:	172d 1717      	moveb %a5@(5911),%a3@-
   2bbe6:	2d2d 1717      	movel %a5@(5911),%fp@-
   2bbea:	2d2d 0068      	movel %a5@(104),%fp@-
   2bbee:	6868           	bvcs 2bc58 <picData+0xbc04>
   2bbf0:	6868           	bvcs 2bc5a <picData+0xbc06>
   2bbf2:	6827           	bvcs 2bc1b <picData+0xbbc7>
   2bbf4:	2d2d 2d2d      	movel %a5@(11565),%fp@-
   2bbf8:	3529 2929      	movew %a1@(10537),%a2@-
   2bbfc:	2929 2929      	movel %a1@(10537),%a4@-
   2bc00:	2929 2929      	movel %a1@(10537),%a4@-
   2bc04:	2929 2929      	movel %a1@(10537),%a4@-
   2bc08:	2f2f 2d2d      	movel %sp@(11565),%sp@-
   2bc0c:	3233 3334 0c0c 	movew %a3@(0c0c0c0c)@(00000000,%d3:w:2),%d1
   2bc12:	0c0c 
   2bc14:	0c0c           	.short 0x0c0c
   2bc16:	3535 3535 3636 	movew %a5@(36363636)@(00000000,%d3:w:4),%a2@-
   2bc1c:	3636 
   2bc1e:	2023           	movel %a3@-,%d0
   2bc20:	2f2d 2d2d      	movel %a5@(11565),%sp@-
   2bc24:	1717           	moveb %sp@,%a3@-
   2bc26:	1717           	moveb %sp@,%a3@-
   2bc28:	1717           	moveb %sp@,%a3@-
   2bc2a:	1717           	moveb %sp@,%a3@-
   2bc2c:	172d 1717      	moveb %a5@(5911),%a3@-
   2bc30:	1717           	moveb %sp@,%a3@-
   2bc32:	1717           	moveb %sp@,%a3@-
   2bc34:	1717           	moveb %sp@,%a3@-
   2bc36:	172d 1717      	moveb %a5@(5911),%a3@-
   2bc3a:	172d 2d2d      	moveb %a5@(11565),%a3@-
   2bc3e:	1717           	moveb %sp@,%a3@-
   2bc40:	172d 1717      	moveb %a5@(5911),%a3@-
   2bc44:	1717           	moveb %sp@,%a3@-
   2bc46:	2d2d 1717      	movel %a5@(5911),%fp@-
   2bc4a:	172d 1717      	moveb %a5@(5911),%a3@-
   2bc4e:	1717           	moveb %sp@,%a3@-
   2bc50:	1717           	moveb %sp@,%a3@-
   2bc52:	1717           	moveb %sp@,%a3@-
   2bc54:	172d 2d2d      	moveb %a5@(11565),%a3@-
   2bc58:	2d2d 2d17      	movel %a5@(11543),%fp@-
   2bc5c:	1717           	moveb %sp@,%a3@-
   2bc5e:	1717           	moveb %sp@,%a3@-
   2bc60:	1717           	moveb %sp@,%a3@-
   2bc62:	1717           	moveb %sp@,%a3@-
   2bc64:	2d17           	movel %sp@,%fp@-
   2bc66:	1717           	moveb %sp@,%a3@-
   2bc68:	2d2d 2d2d      	movel %a5@(11565),%fp@-
   2bc6c:	2d2d 2d17      	movel %a5@(11543),%fp@-
   2bc70:	1717           	moveb %sp@,%a3@-
   2bc72:	1717           	moveb %sp@,%a3@-
   2bc74:	1717           	moveb %sp@,%a3@-
   2bc76:	1717           	moveb %sp@,%a3@-
   2bc78:	2d17           	movel %sp@,%fp@-
   2bc7a:	1717           	moveb %sp@,%a3@-
   2bc7c:	1717           	moveb %sp@,%a3@-
   2bc7e:	1717           	moveb %sp@,%a3@-
   2bc80:	1717           	moveb %sp@,%a3@-
   2bc82:	2d17           	movel %sp@,%fp@-
   2bc84:	1717           	moveb %sp@,%a3@-
   2bc86:	1717           	moveb %sp@,%a3@-
   2bc88:	1717           	moveb %sp@,%a3@-
   2bc8a:	1717           	moveb %sp@,%a3@-
   2bc8c:	2d17           	movel %sp@,%fp@-
   2bc8e:	1717           	moveb %sp@,%a3@-
   2bc90:	1717           	moveb %sp@,%a3@-
   2bc92:	1717           	moveb %sp@,%a3@-
   2bc94:	172d 1717      	moveb %a5@(5911),%a3@-
   2bc98:	1717           	moveb %sp@,%a3@-
   2bc9a:	1717           	moveb %sp@,%a3@-
   2bc9c:	1717           	moveb %sp@,%a3@-
   2bc9e:	172d 2d35      	moveb %a5@(11573),%a3@-
   2bca2:	2929 2929      	movel %a1@(10537),%a4@-
   2bca6:	2929 2929      	movel %a1@(10537),%a4@-
   2bcaa:	2929 2929      	movel %a1@(10537),%a4@-
   2bcae:	2929 2929      	movel %a1@(10537),%a4@-
   2bcb2:	2929 2929      	movel %a1@(10537),%a4@-
   2bcb6:	2f2f 2d2d      	movel %sp@(11565),%sp@-
   2bcba:	2d2d 2d2d      	movel %a5@(11565),%fp@-
   2bcbe:	2d2d 2d2d      	movel %a5@(11565),%fp@-
   2bcc2:	2d2d 2d2d      	movel %a5@(11565),%fp@-
   2bcc6:	2d2d 2d2d      	movel %a5@(11565),%fp@-
   2bcca:	2d2d 2d17      	movel %a5@(11543),%fp@-
   2bcce:	1717           	moveb %sp@,%a3@-
   2bcd0:	1717           	moveb %sp@,%a3@-
   2bcd2:	2d17           	movel %sp@,%fp@-
   2bcd4:	172d 2d17      	moveb %a5@(11543),%a3@-
   2bcd8:	172d 2d2d      	moveb %a5@(11565),%a3@-
   2bcdc:	0068 6868 6868 	oriw #26728,%a0@(26728)
   2bce2:	6827           	bvcs 2bd0b <picData+0xbcb7>
   2bce4:	2d2d 2d2d      	movel %a5@(11565),%fp@-
   2bce8:	2d2d 2d2d      	movel %a5@(11565),%fp@-
   2bcec:	2d2d 2d2d      	movel %a5@(11565),%fp@-
   2bcf0:	2d2d 1717      	movel %a5@(5911),%fp@-
   2bcf4:	2d17           	movel %sp@,%fp@-
   2bcf6:	172d 2d17      	moveb %a5@(11543),%a3@-
   2bcfa:	172d 1717      	moveb %a5@(5911),%a3@-
   2bcfe:	2d2d 1717      	movel %a5@(5911),%fp@-
   2bd02:	2d2d 0068      	movel %a5@(104),%fp@-
   2bd06:	6868           	bvcs 2bd70 <picData+0xbd1c>
   2bd08:	6868           	bvcs 2bd72 <picData+0xbd1e>
   2bd0a:	6827           	bvcs 2bd33 <picData+0xbcdf>
   2bd0c:	2d2d 2d2d      	movel %a5@(11565),%fp@-
   2bd10:	2d2d 2d2d      	movel %a5@(11565),%fp@-
   2bd14:	2d2d 2d2d      	movel %a5@(11565),%fp@-
   2bd18:	2d2d 1717      	movel %a5@(5911),%fp@-
   2bd1c:	2d17           	movel %sp@,%fp@-
   2bd1e:	172d 2d17      	moveb %a5@(11543),%a3@-
   2bd22:	172d 1717      	moveb %a5@(5911),%a3@-
   2bd26:	2d2d 1717      	movel %a5@(5911),%fp@-
   2bd2a:	2d2d 0068      	movel %a5@(104),%fp@-
   2bd2e:	6868           	bvcs 2bd98 <picData+0xbd44>
   2bd30:	6868           	bvcs 2bd9a <picData+0xbd46>
   2bd32:	6827           	bvcs 2bd5b <picData+0xbd07>
   2bd34:	2d2d 2d2d      	movel %a5@(11565),%fp@-
   2bd38:	3529 2929      	movew %a1@(10537),%a2@-
   2bd3c:	2929 2929      	movel %a1@(10537),%a4@-
   2bd40:	2929 2929      	movel %a1@(10537),%a4@-
   2bd44:	2929 2929      	movel %a1@(10537),%a4@-
   2bd48:	2e2f 2d2d      	movel %sp@(11565),%d7
   2bd4c:	3336 2225      	movew %fp@(00000025,%d2:w:2),%a1@-
   2bd50:	2727           	movel %sp@-,%a3@-
   2bd52:	2828 2828      	movel %a0@(10280),%d4
   2bd56:	2828 2828      	movel %a0@(10280),%d4
   2bd5a:	2828 2828      	movel %a0@(10280),%d4
   2bd5e:	282c 2f2d      	movel %a4@(12077),%d4
   2bd62:	2d2d 1717      	movel %a5@(5911),%fp@-
   2bd66:	172d 2d2d      	moveb %a5@(11565),%a3@-
   2bd6a:	1717           	moveb %sp@,%a3@-
   2bd6c:	172d 1717      	moveb %a5@(5911),%a3@-
   2bd70:	172d 2d2d      	moveb %a5@(11565),%a3@-
   2bd74:	1717           	moveb %sp@,%a3@-
   2bd76:	172d 1717      	moveb %a5@(5911),%a3@-
   2bd7a:	172d 2d2d      	moveb %a5@(11565),%a3@-
   2bd7e:	1717           	moveb %sp@,%a3@-
   2bd80:	172d 1717      	moveb %a5@(5911),%a3@-
   2bd84:	1717           	moveb %sp@,%a3@-
   2bd86:	172d 1717      	moveb %a5@(5911),%a3@-
   2bd8a:	172d 1717      	moveb %a5@(5911),%a3@-
   2bd8e:	172d 2d2d      	moveb %a5@(11565),%a3@-
   2bd92:	1717           	moveb %sp@,%a3@-
   2bd94:	172d 2d2d      	moveb %a5@(11565),%a3@-
   2bd98:	2d2d 2d17      	movel %a5@(11543),%fp@-
   2bd9c:	1717           	moveb %sp@,%a3@-
   2bd9e:	2d2d 2d17      	movel %a5@(11543),%fp@-
   2bda2:	1717           	moveb %sp@,%a3@-
   2bda4:	2d17           	movel %sp@,%fp@-
   2bda6:	1717           	moveb %sp@,%a3@-
   2bda8:	2d2d 2d2d      	movel %a5@(11565),%fp@-
   2bdac:	2d2d 2d17      	movel %a5@(11543),%fp@-
   2bdb0:	1717           	moveb %sp@,%a3@-
   2bdb2:	2d2d 2d17      	movel %a5@(11543),%fp@-
   2bdb6:	1717           	moveb %sp@,%a3@-
   2bdb8:	2d17           	movel %sp@,%fp@-
   2bdba:	1717           	moveb %sp@,%a3@-
   2bdbc:	2d2d 2d17      	movel %a5@(11543),%fp@-
   2bdc0:	1717           	moveb %sp@,%a3@-
   2bdc2:	2d2d 2d2d      	movel %a5@(11565),%fp@-
   2bdc6:	1717           	moveb %sp@,%a3@-
   2bdc8:	172d 2d2d      	moveb %a5@(11565),%a3@-
   2bdcc:	2d17           	movel %sp@,%fp@-
   2bdce:	1717           	moveb %sp@,%a3@-
   2bdd0:	2d2d 2d2d      	movel %a5@(11565),%fp@-
   2bdd4:	2d2d 1717      	movel %a5@(5911),%fp@-
   2bdd8:	172d 2d2d      	moveb %a5@(11565),%a3@-
   2bddc:	1717           	moveb %sp@,%a3@-
   2bdde:	172d 2d35      	moveb %a5@(11573),%a3@-
   2bde2:	2929 2929      	movel %a1@(10537),%a4@-
   2bde6:	2929 2929      	movel %a1@(10537),%a4@-
   2bdea:	2929 2929      	movel %a1@(10537),%a4@-
   2bdee:	2929 2929      	movel %a1@(10537),%a4@-
   2bdf2:	2929 2929      	movel %a1@(10537),%a4@-
   2bdf6:	2f2f 2d2d      	movel %sp@(11565),%sp@-
   2bdfa:	2d2d 2d2d      	movel %a5@(11565),%fp@-
   2bdfe:	2d2d 2d2d      	movel %a5@(11565),%fp@-
   2be02:	2d2d 2d2d      	movel %a5@(11565),%fp@-
   2be06:	2d2d 2d2d      	movel %a5@(11565),%fp@-
   2be0a:	2d2d 2d2d      	movel %a5@(11565),%fp@-
   2be0e:	2d2d 1717      	movel %a5@(5911),%fp@-
   2be12:	2d17           	movel %sp@,%fp@-
   2be14:	172d 2d17      	moveb %a5@(11543),%a3@-
   2be18:	172d 2d2d      	moveb %a5@(11565),%a3@-
   2be1c:	2f68 6868 6868 	movel %a0@(26728),%sp@(26728)
   2be22:	6827           	bvcs 2be4b <picData+0xbdf7>
   2be24:	2d2d 2d2d      	movel %a5@(11565),%fp@-
   2be28:	2d2d 2d2d      	movel %a5@(11565),%fp@-
   2be2c:	2d2d 2d2d      	movel %a5@(11565),%fp@-
   2be30:	2d2d 1717      	movel %a5@(5911),%fp@-
   2be34:	2d17           	movel %sp@,%fp@-
   2be36:	172d 2d17      	moveb %a5@(11543),%a3@-
   2be3a:	172d 1717      	moveb %a5@(5911),%a3@-
   2be3e:	2d2d 1717      	movel %a5@(5911),%fp@-
   2be42:	2d2d 2f68      	movel %a5@(12136),%fp@-
   2be46:	6868           	bvcs 2beb0 <picData+0xbe5c>
   2be48:	6868           	bvcs 2beb2 <picData+0xbe5e>
   2be4a:	6827           	bvcs 2be73 <picData+0xbe1f>
   2be4c:	2d2d 2d2d      	movel %a5@(11565),%fp@-
   2be50:	2d2d 2d2d      	movel %a5@(11565),%fp@-
   2be54:	2d2d 2d2d      	movel %a5@(11565),%fp@-
   2be58:	2d2d 1717      	movel %a5@(5911),%fp@-
   2be5c:	2d17           	movel %sp@,%fp@-
   2be5e:	172d 2d17      	moveb %a5@(11543),%a3@-
   2be62:	172d 1717      	moveb %a5@(5911),%a3@-
   2be66:	2d2d 1717      	movel %a5@(5911),%fp@-
   2be6a:	2d2d 2f68      	movel %a5@(12136),%fp@-
   2be6e:	6868           	bvcs 2bed8 <picData+0xbe84>
   2be70:	6868           	bvcs 2beda <picData+0xbe86>
   2be72:	6827           	bvcs 2be9b <picData+0xbe47>
   2be74:	2d2d 2d2d      	movel %a5@(11565),%fp@-
   2be78:	3529 2929      	movew %a1@(10537),%a2@-
   2be7c:	2929 2929      	movel %a1@(10537),%a4@-
   2be80:	2929 2929      	movel %a1@(10537),%a4@-
   2be84:	2929 2929      	movel %a1@(10537),%a4@-
   2be88:	2e2f 2d2d      	movel %sp@(11565),%d7
   2be8c:	3422           	movew %a2@-,%d2
   2be8e:	2500           	movel %d0,%a2@-
	...
   2be9c:	0028 282c 2f2d 	orib #44,%a0@(12077)
   2bea2:	2d2d 1717      	movel %a5@(5911),%fp@-
   2bea6:	172d 2d2d      	moveb %a5@(11565),%a3@-
   2beaa:	2d2d 2d2d      	movel %a5@(11565),%fp@-
   2beae:	1717           	moveb %sp@,%a3@-
   2beb0:	172d 2d2d      	moveb %a5@(11565),%a3@-
   2beb4:	1717           	moveb %sp@,%a3@-
   2beb6:	172d 1717      	moveb %a5@(5911),%a3@-
   2beba:	172d 2d2d      	moveb %a5@(11565),%a3@-
   2bebe:	1717           	moveb %sp@,%a3@-
   2bec0:	172d 1717      	moveb %a5@(5911),%a3@-
   2bec4:	1717           	moveb %sp@,%a3@-
   2bec6:	1717           	moveb %sp@,%a3@-
   2bec8:	1717           	moveb %sp@,%a3@-
   2beca:	172d 1717      	moveb %a5@(5911),%a3@-
   2bece:	172d 2d2d      	moveb %a5@(11565),%a3@-
   2bed2:	1717           	moveb %sp@,%a3@-
   2bed4:	172d 2d2d      	moveb %a5@(11565),%a3@-
   2bed8:	2d2d 2d17      	movel %a5@(11543),%fp@-
   2bedc:	1717           	moveb %sp@,%a3@-
   2bede:	2d2d 2d17      	movel %a5@(11543),%fp@-
   2bee2:	1717           	moveb %sp@,%a3@-
   2bee4:	2d17           	movel %sp@,%fp@-
   2bee6:	1717           	moveb %sp@,%a3@-
   2bee8:	2d2d 2d2d      	movel %a5@(11565),%fp@-
   2beec:	2d2d 2d17      	movel %a5@(11543),%fp@-
   2bef0:	1717           	moveb %sp@,%a3@-
   2bef2:	2d2d 2d17      	movel %a5@(11543),%fp@-
   2bef6:	1717           	moveb %sp@,%a3@-
   2bef8:	2d17           	movel %sp@,%fp@-
   2befa:	1717           	moveb %sp@,%a3@-
   2befc:	2d2d 2d2d      	movel %a5@(11565),%fp@-
   2bf00:	2d2d 2d2d      	movel %a5@(11565),%fp@-
   2bf04:	2d2d 1717      	movel %a5@(5911),%fp@-
   2bf08:	172d 2d2d      	moveb %a5@(11565),%a3@-
   2bf0c:	2d17           	movel %sp@,%fp@-
   2bf0e:	1717           	moveb %sp@,%a3@-
   2bf10:	2d2d 2d2d      	movel %a5@(11565),%fp@-
   2bf14:	2d2d 1717      	movel %a5@(5911),%fp@-
   2bf18:	172d 2d2d      	moveb %a5@(11565),%a3@-
   2bf1c:	1717           	moveb %sp@,%a3@-
   2bf1e:	172d 2d35      	moveb %a5@(11573),%a3@-
   2bf22:	2929 2929      	movel %a1@(10537),%a4@-
   2bf26:	2929 2929      	movel %a1@(10537),%a4@-
   2bf2a:	2929 2929      	movel %a1@(10537),%a4@-
   2bf2e:	2929 2929      	movel %a1@(10537),%a4@-
   2bf32:	2929 2929      	movel %a1@(10537),%a4@-
   2bf36:	2f2f 2d2d      	movel %sp@(11565),%sp@-
   2bf3a:	2d2d 2d2d      	movel %a5@(11565),%fp@-
   2bf3e:	2d2d 2d2d      	movel %a5@(11565),%fp@-
   2bf42:	2d2d 2d2d      	movel %a5@(11565),%fp@-
   2bf46:	2d2d 2d2d      	movel %a5@(11565),%fp@-
   2bf4a:	2d2d 2d17      	movel %a5@(11543),%fp@-
   2bf4e:	1717           	moveb %sp@,%a3@-
   2bf50:	172d 2d2d      	moveb %a5@(11565),%a3@-
   2bf54:	1717           	moveb %sp@,%a3@-
   2bf56:	1717           	moveb %sp@,%a3@-
   2bf58:	2d2d 2d2d      	movel %a5@(11565),%fp@-
   2bf5c:	2f68 6868 6868 	movel %a0@(26728),%sp@(26728)
   2bf62:	6825           	bvcs 2bf89 <picData+0xbf35>
   2bf64:	2d2d 2d2d      	movel %a5@(11565),%fp@-
   2bf68:	2d2d 2d2d      	movel %a5@(11565),%fp@-
   2bf6c:	2d2d 1717      	movel %a5@(5911),%fp@-
   2bf70:	1717           	moveb %sp@,%a3@-
   2bf72:	172d 2d2d      	moveb %a5@(11565),%a3@-
   2bf76:	1717           	moveb %sp@,%a3@-
   2bf78:	1717           	moveb %sp@,%a3@-
   2bf7a:	2d2d 2d17      	movel %a5@(11543),%fp@-
   2bf7e:	1717           	moveb %sp@,%a3@-
   2bf80:	172d 2d2d      	moveb %a5@(11565),%a3@-
   2bf84:	2f68 6868 6868 	movel %a0@(26728),%sp@(26728)
   2bf8a:	6825           	bvcs 2bfb1 <picData+0xbf5d>
   2bf8c:	2d2d 2d2d      	movel %a5@(11565),%fp@-
   2bf90:	2d2d 2d2d      	movel %a5@(11565),%fp@-
   2bf94:	2d2d 1717      	movel %a5@(5911),%fp@-
   2bf98:	1717           	moveb %sp@,%a3@-
   2bf9a:	172d 2d2d      	moveb %a5@(11565),%a3@-
   2bf9e:	1717           	moveb %sp@,%a3@-
   2bfa0:	1717           	moveb %sp@,%a3@-
   2bfa2:	2d2d 2d17      	movel %a5@(11543),%fp@-
   2bfa6:	1717           	moveb %sp@,%a3@-
   2bfa8:	172d 2d2d      	moveb %a5@(11565),%a3@-
   2bfac:	2f68 6868 6868 	movel %a0@(26728),%sp@(26728)
   2bfb2:	6825           	bvcs 2bfd9 <picData+0xbf85>
   2bfb4:	2d2d 2d2d      	movel %a5@(11565),%fp@-
   2bfb8:	3529 2929      	movew %a1@(10537),%a2@-
   2bfbc:	2929 2929      	movel %a1@(10537),%a4@-
   2bfc0:	2929 2929      	movel %a1@(10537),%a4@-
   2bfc4:	2929 2929      	movel %a1@(10537),%a4@-
   2bfc8:	2e2f 2d2d      	movel %sp@(11565),%d7
   2bfcc:	3425           	movew %a5@-,%d2
   2bfce:	2700           	movel %d0,%a3@-
   2bfd0:	0e0e           	.short 0x0e0e
   2bfd2:	0e0e           	.short 0x0e0e
   2bfd4:	0e0e           	.short 0x0e0e
   2bfd6:	0e0e           	.short 0x0e0e
   2bfd8:	0e0e           	.short 0x0e0e
   2bfda:	0e0e           	.short 0x0e0e
   2bfdc:	1f28 282d      	moveb %a0@(10285),%sp@-
   2bfe0:	2f2d 2d2d      	movel %a5@(11565),%sp@-
   2bfe4:	1717           	moveb %sp@,%a3@-
   2bfe6:	1717           	moveb %sp@,%a3@-
   2bfe8:	1717           	moveb %sp@,%a3@-
   2bfea:	1717           	moveb %sp@,%a3@-
   2bfec:	2d2d 1717      	movel %a5@(5911),%fp@-
   2bff0:	172d 2d2d      	moveb %a5@(11565),%a3@-
   2bff4:	1717           	moveb %sp@,%a3@-
   2bff6:	172d 1717      	moveb %a5@(5911),%a3@-
   2bffa:	172d 2d2d      	moveb %a5@(11565),%a3@-
   2bffe:	1717           	moveb %sp@,%a3@-
   2c000:	172d 1717      	moveb %a5@(5911),%a3@-
   2c004:	172d 1717      	moveb %a5@(5911),%a3@-
   2c008:	1717           	moveb %sp@,%a3@-
   2c00a:	172d 1717      	moveb %a5@(5911),%a3@-
   2c00e:	172d 2d2d      	moveb %a5@(11565),%a3@-
   2c012:	1717           	moveb %sp@,%a3@-
   2c014:	172d 2d2d      	moveb %a5@(11565),%a3@-
   2c018:	2d2d 2d17      	movel %a5@(11543),%fp@-
   2c01c:	1717           	moveb %sp@,%a3@-
   2c01e:	1717           	moveb %sp@,%a3@-
   2c020:	1717           	moveb %sp@,%a3@-
   2c022:	172d 2d17      	moveb %a5@(11543),%a3@-
   2c026:	1717           	moveb %sp@,%a3@-
   2c028:	2d2d 2d2d      	movel %a5@(11565),%fp@-
   2c02c:	2d2d 2d17      	movel %a5@(11543),%fp@-
   2c030:	1717           	moveb %sp@,%a3@-
   2c032:	1717           	moveb %sp@,%a3@-
   2c034:	1717           	moveb %sp@,%a3@-
   2c036:	1717           	moveb %sp@,%a3@-
   2c038:	2d17           	movel %sp@,%fp@-
   2c03a:	1717           	moveb %sp@,%a3@-
   2c03c:	1717           	moveb %sp@,%a3@-
   2c03e:	1717           	moveb %sp@,%a3@-
   2c040:	172d 2d2d      	moveb %a5@(11565),%a3@-
   2c044:	2d2d 1717      	movel %a5@(5911),%fp@-
   2c048:	172d 2d2d      	moveb %a5@(11565),%a3@-
   2c04c:	2d17           	movel %sp@,%fp@-
   2c04e:	1717           	moveb %sp@,%a3@-
   2c050:	1717           	moveb %sp@,%a3@-
   2c052:	172d 2d2d      	moveb %a5@(11565),%a3@-
   2c056:	1717           	moveb %sp@,%a3@-
   2c058:	1717           	moveb %sp@,%a3@-
   2c05a:	1717           	moveb %sp@,%a3@-
   2c05c:	1717           	moveb %sp@,%a3@-
   2c05e:	172d 2d35      	moveb %a5@(11573),%a3@-
   2c062:	2929 2929      	movel %a1@(10537),%a4@-
   2c066:	2929 2929      	movel %a1@(10537),%a4@-
   2c06a:	2929 2929      	movel %a1@(10537),%a4@-
   2c06e:	2929 2929      	movel %a1@(10537),%a4@-
   2c072:	2929 2929      	movel %a1@(10537),%a4@-
   2c076:	2f2f 2d2d      	movel %sp@(11565),%sp@-
   2c07a:	2d2d 2d2d      	movel %a5@(11565),%fp@-
   2c07e:	2d2d 2d2d      	movel %a5@(11565),%fp@-
   2c082:	2d2d 2d2d      	movel %a5@(11565),%fp@-
   2c086:	2d2d 2d2d      	movel %a5@(11565),%fp@-
   2c08a:	2d2d 2d2d      	movel %a5@(11565),%fp@-
   2c08e:	2d2d 2d2d      	movel %a5@(11565),%fp@-
   2c092:	2d2d 2d2d      	movel %a5@(11565),%fp@-
   2c096:	2d2d 2d2d      	movel %a5@(11565),%fp@-
   2c09a:	2d2d 2b29      	movel %a5@(11049),%fp@-
   2c09e:	2727           	movel %sp@-,%a3@-
   2c0a0:	2727           	movel %sp@-,%a3@-
   2c0a2:	2522           	movel %a2@-,%a2@-
   2c0a4:	2d2d 2d2d      	movel %a5@(11565),%fp@-
   2c0a8:	2d2d 2d2d      	movel %a5@(11565),%fp@-
   2c0ac:	2d2d 2d2d      	movel %a5@(11565),%fp@-
   2c0b0:	2d2d 2d2d      	movel %a5@(11565),%fp@-
   2c0b4:	2d2d 2d2d      	movel %a5@(11565),%fp@-
   2c0b8:	2d2d 2d2d      	movel %a5@(11565),%fp@-
   2c0bc:	2d2d 2d2d      	movel %a5@(11565),%fp@-
   2c0c0:	2d2d 2d2d      	movel %a5@(11565),%fp@-
   2c0c4:	2b29 2727      	movel %a1@(10023),%a5@-
   2c0c8:	2727           	movel %sp@-,%a3@-
   2c0ca:	2522           	movel %a2@-,%a2@-
   2c0cc:	2d2d 2d2d      	movel %a5@(11565),%fp@-
   2c0d0:	2d2d 2d2d      	movel %a5@(11565),%fp@-
   2c0d4:	2d2d 2d2d      	movel %a5@(11565),%fp@-
   2c0d8:	2d2d 2d2d      	movel %a5@(11565),%fp@-
   2c0dc:	2d2d 2d2d      	movel %a5@(11565),%fp@-
   2c0e0:	2d2d 2d2d      	movel %a5@(11565),%fp@-
   2c0e4:	2d2d 2d2d      	movel %a5@(11565),%fp@-
   2c0e8:	2d2d 2d2d      	movel %a5@(11565),%fp@-
   2c0ec:	2b29 2727      	movel %a1@(10023),%a5@-
   2c0f0:	2727           	movel %sp@-,%a3@-
   2c0f2:	2522           	movel %a2@-,%a2@-
   2c0f4:	2d2d 2d2d      	movel %a5@(11565),%fp@-
   2c0f8:	3529 2929      	movew %a1@(10537),%a2@-
   2c0fc:	2929 2929      	movel %a1@(10537),%a4@-
   2c100:	2929 2929      	movel %a1@(10537),%a4@-
   2c104:	2929 2929      	movel %a1@(10537),%a4@-
   2c108:	2e2f 2d2d      	movel %sp@(11565),%d7
   2c10c:	3527           	movew %sp@-,%a2@-
   2c10e:	2700           	movel %d0,%a3@-
   2c110:	0e0e           	.short 0x0e0e
   2c112:	0e0e           	.short 0x0e0e
   2c114:	0e0e           	.short 0x0e0e
   2c116:	0e0e           	.short 0x0e0e
   2c118:	0e0e           	.short 0x0e0e
   2c11a:	0e0e           	.short 0x0e0e
   2c11c:	1f28 282d      	moveb %a0@(10285),%sp@-
   2c120:	2f2d 2d2d      	movel %a5@(11565),%sp@-
   2c124:	2d17           	movel %sp@,%fp@-
   2c126:	1717           	moveb %sp@,%a3@-
   2c128:	1717           	moveb %sp@,%a3@-
   2c12a:	1717           	moveb %sp@,%a3@-
   2c12c:	172d 1717      	moveb %a5@(5911),%a3@-
   2c130:	172d 2d2d      	moveb %a5@(11565),%a3@-
   2c134:	1717           	moveb %sp@,%a3@-
   2c136:	172d 1717      	moveb %a5@(5911),%a3@-
   2c13a:	172d 2d2d      	moveb %a5@(11565),%a3@-
   2c13e:	1717           	moveb %sp@,%a3@-
   2c140:	172d 1717      	moveb %a5@(5911),%a3@-
   2c144:	172d 2d17      	moveb %a5@(11543),%a3@-
   2c148:	1717           	moveb %sp@,%a3@-
   2c14a:	172d 1717      	moveb %a5@(5911),%a3@-
   2c14e:	172d 2d2d      	moveb %a5@(11565),%a3@-
   2c152:	1717           	moveb %sp@,%a3@-
   2c154:	172d 2d2d      	moveb %a5@(11565),%a3@-
   2c158:	2d2d 2d17      	movel %a5@(11543),%fp@-
   2c15c:	1717           	moveb %sp@,%a3@-
   2c15e:	1717           	moveb %sp@,%a3@-
   2c160:	1717           	moveb %sp@,%a3@-
   2c162:	172d 2d17      	moveb %a5@(11543),%a3@-
   2c166:	1717           	moveb %sp@,%a3@-
   2c168:	2d2d 2d2d      	movel %a5@(11565),%fp@-
   2c16c:	2d2d 2d17      	movel %a5@(11543),%fp@-
   2c170:	1717           	moveb %sp@,%a3@-
   2c172:	1717           	moveb %sp@,%a3@-
   2c174:	1717           	moveb %sp@,%a3@-
   2c176:	1717           	moveb %sp@,%a3@-
   2c178:	2d2d 1717      	movel %a5@(5911),%fp@-
   2c17c:	1717           	moveb %sp@,%a3@-
   2c17e:	1717           	moveb %sp@,%a3@-
   2c180:	1717           	moveb %sp@,%a3@-
   2c182:	2d2d 2d2d      	movel %a5@(11565),%fp@-
   2c186:	1717           	moveb %sp@,%a3@-
   2c188:	172d 2d2d      	moveb %a5@(11565),%a3@-
   2c18c:	2d17           	movel %sp@,%fp@-
   2c18e:	1717           	moveb %sp@,%a3@-
   2c190:	1717           	moveb %sp@,%a3@-
   2c192:	172d 2d2d      	moveb %a5@(11565),%a3@-
   2c196:	1717           	moveb %sp@,%a3@-
   2c198:	1717           	moveb %sp@,%a3@-
   2c19a:	1717           	moveb %sp@,%a3@-
   2c19c:	1717           	moveb %sp@,%a3@-
   2c19e:	2d2d 2d0c      	movel %a5@(11532),%fp@-
   2c1a2:	2929 2929      	movel %a1@(10537),%a4@-
   2c1a6:	2929 2929      	movel %a1@(10537),%a4@-
   2c1aa:	2929 2929      	movel %a1@(10537),%a4@-
   2c1ae:	2929 2929      	movel %a1@(10537),%a4@-
   2c1b2:	2929 2929      	movel %a1@(10537),%a4@-
   2c1b6:	2f2f 2d2d      	movel %sp@(11565),%sp@-
   2c1ba:	2d2d 2d2d      	movel %a5@(11565),%fp@-
   2c1be:	2d2d 2d2d      	movel %a5@(11565),%fp@-
   2c1c2:	2d2d 2d2d      	movel %a5@(11565),%fp@-
   2c1c6:	2d2d 2d2d      	movel %a5@(11565),%fp@-
   2c1ca:	2d2d 2d2d      	movel %a5@(11565),%fp@-
   2c1ce:	2d2d 2d2d      	movel %a5@(11565),%fp@-
   2c1d2:	2d2d 2d2d      	movel %a5@(11565),%fp@-
   2c1d6:	2d2d 2d2d      	movel %a5@(11565),%fp@-
   2c1da:	2d2d 2d2d      	movel %a5@(11565),%fp@-
   2c1de:	2d2d 2d2d      	movel %a5@(11565),%fp@-
   2c1e2:	2d2d 2d2d      	movel %a5@(11565),%fp@-
   2c1e6:	2d2d 2d2d      	movel %a5@(11565),%fp@-
   2c1ea:	2d2d 2d2d      	movel %a5@(11565),%fp@-
   2c1ee:	2d2d 2d2d      	movel %a5@(11565),%fp@-
   2c1f2:	2d2d 2d2d      	movel %a5@(11565),%fp@-
   2c1f6:	2d2d 2d2d      	movel %a5@(11565),%fp@-
   2c1fa:	2d2d 2d2d      	movel %a5@(11565),%fp@-
   2c1fe:	2d2d 2d2d      	movel %a5@(11565),%fp@-
   2c202:	2d2d 2d2d      	movel %a5@(11565),%fp@-
   2c206:	2d2d 2d2d      	movel %a5@(11565),%fp@-
   2c20a:	2d2d 2d2d      	movel %a5@(11565),%fp@-
   2c20e:	2d2d 2d2d      	movel %a5@(11565),%fp@-
   2c212:	2d2d 2d2d      	movel %a5@(11565),%fp@-
   2c216:	2d2d 2d2d      	movel %a5@(11565),%fp@-
   2c21a:	2d2d 2d2d      	movel %a5@(11565),%fp@-
   2c21e:	2d2d 2d2d      	movel %a5@(11565),%fp@-
   2c222:	2d2d 2d2d      	movel %a5@(11565),%fp@-
   2c226:	2d2d 2d2d      	movel %a5@(11565),%fp@-
   2c22a:	2d2d 2d2d      	movel %a5@(11565),%fp@-
   2c22e:	2d2d 2d2d      	movel %a5@(11565),%fp@-
   2c232:	2d2d 2d2d      	movel %a5@(11565),%fp@-
   2c236:	2d2d 3529      	movel %a5@(13609),%fp@-
   2c23a:	2929 2929      	movel %a1@(10537),%a4@-
   2c23e:	2929 2929      	movel %a1@(10537),%a4@-
   2c242:	2929 2929      	movel %a1@(10537),%a4@-
   2c246:	2929 2e2f      	movel %a1@(11823),%a4@-
   2c24a:	2d2d 3627      	movel %a5@(13863),%fp@-
   2c24e:	2800           	movel %d0,%d4
   2c250:	1f1f           	moveb %sp@+,%sp@-
   2c252:	1f1f           	moveb %sp@+,%sp@-
   2c254:	1f1f           	moveb %sp@+,%sp@-
   2c256:	1f1f           	moveb %sp@+,%sp@-
   2c258:	1f1f           	moveb %sp@+,%sp@-
   2c25a:	1f1f           	moveb %sp@+,%sp@-
   2c25c:	1f28 282e      	moveb %a0@(10286),%sp@-
   2c260:	2f2d 2d2d      	movel %a5@(11565),%sp@-
   2c264:	2d2d 2d2d      	movel %a5@(11565),%fp@-
   2c268:	2d2d 1717      	movel %a5@(5911),%fp@-
   2c26c:	172d 1717      	moveb %a5@(5911),%a3@-
   2c270:	172d 2d2d      	moveb %a5@(11565),%a3@-
   2c274:	1717           	moveb %sp@,%a3@-
   2c276:	172d 1717      	moveb %a5@(5911),%a3@-
   2c27a:	172d 2d2d      	moveb %a5@(11565),%a3@-
   2c27e:	1717           	moveb %sp@,%a3@-
   2c280:	172d 1717      	moveb %a5@(5911),%a3@-
   2c284:	172d 2d2d      	moveb %a5@(11565),%a3@-
   2c288:	1717           	moveb %sp@,%a3@-
   2c28a:	172d 1717      	moveb %a5@(5911),%a3@-
   2c28e:	172d 2d2d      	moveb %a5@(11565),%a3@-
   2c292:	1717           	moveb %sp@,%a3@-
   2c294:	172d 2d2d      	moveb %a5@(11565),%a3@-
   2c298:	2d2d 2d17      	movel %a5@(11543),%fp@-
   2c29c:	1717           	moveb %sp@,%a3@-
   2c29e:	2d2d 2d17      	movel %a5@(11543),%fp@-
   2c2a2:	1717           	moveb %sp@,%a3@-
   2c2a4:	2d17           	movel %sp@,%fp@-
   2c2a6:	1717           	moveb %sp@,%a3@-
   2c2a8:	2d2d 2d2d      	movel %a5@(11565),%fp@-
   2c2ac:	2d2d 2d17      	movel %a5@(11543),%fp@-
   2c2b0:	1717           	moveb %sp@,%a3@-
   2c2b2:	2d2d 2d17      	movel %a5@(11543),%fp@-
   2c2b6:	1717           	moveb %sp@,%a3@-
   2c2b8:	2d2d 2d2d      	movel %a5@(11565),%fp@-
   2c2bc:	2d2d 2d17      	movel %a5@(11543),%fp@-
   2c2c0:	1717           	moveb %sp@,%a3@-
   2c2c2:	2d2d 2d2d      	movel %a5@(11565),%fp@-
   2c2c6:	1717           	moveb %sp@,%a3@-
   2c2c8:	172d 2d2d      	moveb %a5@(11565),%a3@-
   2c2cc:	2d17           	movel %sp@,%fp@-
   2c2ce:	1717           	moveb %sp@,%a3@-
   2c2d0:	2d2d 2d2d      	movel %a5@(11565),%fp@-
   2c2d4:	2d2d 1717      	movel %a5@(5911),%fp@-
   2c2d8:	1717           	moveb %sp@,%a3@-
   2c2da:	1717           	moveb %sp@,%a3@-
   2c2dc:	2d2d 2d2d      	movel %a5@(11565),%fp@-
   2c2e0:	2d0c           	movel %a4,%fp@-
   2c2e2:	2929 2929      	movel %a1@(10537),%a4@-
   2c2e6:	2929 2929      	movel %a1@(10537),%a4@-
   2c2ea:	2929 2929      	movel %a1@(10537),%a4@-
   2c2ee:	2929 2929      	movel %a1@(10537),%a4@-
   2c2f2:	2929 2929      	movel %a1@(10537),%a4@-
   2c2f6:	2f2f 2d2d      	movel %sp@(11565),%sp@-
   2c2fa:	2d2d 2d2d      	movel %a5@(11565),%fp@-
   2c2fe:	2d2d 2d2d      	movel %a5@(11565),%fp@-
   2c302:	2d2d 2d2d      	movel %a5@(11565),%fp@-
   2c306:	2d2d 2d2d      	movel %a5@(11565),%fp@-
   2c30a:	2d2d 2d17      	movel %a5@(11543),%fp@-
   2c30e:	1717           	moveb %sp@,%a3@-
   2c310:	172d 2d17      	moveb %a5@(11543),%a3@-
   2c314:	172d 2d17      	moveb %a5@(11543),%a3@-
   2c318:	172d 2d2d      	moveb %a5@(11565),%a3@-
   2c31c:	0000 0000      	orib #0,%d0
   2c320:	002f 2f2b 2d2d 	orib #43,%sp@(11565)
   2c326:	2d2d 2d2d      	movel %a5@(11565),%fp@-
   2c32a:	2d2d 2d2d      	movel %a5@(11565),%fp@-
   2c32e:	2d17           	movel %sp@,%fp@-
   2c330:	1717           	moveb %sp@,%a3@-
   2c332:	172d 2d2d      	moveb %a5@(11565),%a3@-
   2c336:	1717           	moveb %sp@,%a3@-
   2c338:	1717           	moveb %sp@,%a3@-
   2c33a:	2d2d 2d17      	movel %a5@(11543),%fp@-
   2c33e:	1717           	moveb %sp@,%a3@-
   2c340:	172d 2d2d      	moveb %a5@(11565),%a3@-
   2c344:	0000 0000      	orib #0,%d0
   2c348:	002f 2f2b 2d2d 	orib #43,%sp@(11565)
   2c34e:	2d2d 2d2d      	movel %a5@(11565),%fp@-
   2c352:	2d2d 2d2d      	movel %a5@(11565),%fp@-
   2c356:	2d17           	movel %sp@,%fp@-
   2c358:	1717           	moveb %sp@,%a3@-
   2c35a:	172d 2d2d      	moveb %a5@(11565),%a3@-
   2c35e:	1717           	moveb %sp@,%a3@-
   2c360:	1717           	moveb %sp@,%a3@-
   2c362:	2d2d 2d17      	movel %a5@(11543),%fp@-
   2c366:	1717           	moveb %sp@,%a3@-
   2c368:	172d 2d2d      	moveb %a5@(11565),%a3@-
   2c36c:	0000 0000      	orib #0,%d0
   2c370:	002f 2f2b 2d2d 	orib #43,%sp@(11565)
   2c376:	2d2d 3529      	movel %a5@(13609),%fp@-
   2c37a:	2929 2929      	movel %a1@(10537),%a4@-
   2c37e:	2929 2929      	movel %a1@(10537),%a4@-
   2c382:	2929 2929      	movel %a1@(10537),%a4@-
   2c386:	2929 2d2f      	movel %a1@(11567),%a4@-
   2c38a:	2d2d 2028      	movel %a5@(8232),%fp@-
   2c38e:	2828 2828      	movel %a0@(10280),%d4
   2c392:	2828 2828      	movel %a0@(10280),%d4
   2c396:	2828 2828      	movel %a0@(10280),%d4
   2c39a:	2828 2828      	movel %a0@(10280),%d4
   2c39e:	282e 2f2d      	movel %fp@(12077),%d4
   2c3a2:	2d2d 1717      	movel %a5@(5911),%fp@-
   2c3a6:	172d 2d2d      	moveb %a5@(11565),%a3@-
   2c3aa:	1717           	moveb %sp@,%a3@-
   2c3ac:	172d 1717      	moveb %a5@(5911),%a3@-
   2c3b0:	172d 2d2d      	moveb %a5@(11565),%a3@-
   2c3b4:	1717           	moveb %sp@,%a3@-
   2c3b6:	172d 1717      	moveb %a5@(5911),%a3@-
   2c3ba:	172d 2d2d      	moveb %a5@(11565),%a3@-
   2c3be:	1717           	moveb %sp@,%a3@-
   2c3c0:	172d 1717      	moveb %a5@(5911),%a3@-
   2c3c4:	172d 2d2d      	moveb %a5@(11565),%a3@-
   2c3c8:	1717           	moveb %sp@,%a3@-
   2c3ca:	172d 1717      	moveb %a5@(5911),%a3@-
   2c3ce:	172d 2d2d      	moveb %a5@(11565),%a3@-
   2c3d2:	1717           	moveb %sp@,%a3@-
   2c3d4:	172d 2d2d      	moveb %a5@(11565),%a3@-
   2c3d8:	2d2d 2d17      	movel %a5@(11543),%fp@-
   2c3dc:	1717           	moveb %sp@,%a3@-
   2c3de:	2d2d 2d17      	movel %a5@(11543),%fp@-
   2c3e2:	1717           	moveb %sp@,%a3@-
   2c3e4:	2d17           	movel %sp@,%fp@-
   2c3e6:	1717           	moveb %sp@,%a3@-
   2c3e8:	2d2d 2d2d      	movel %a5@(11565),%fp@-
   2c3ec:	2d2d 2d17      	movel %a5@(11543),%fp@-
   2c3f0:	1717           	moveb %sp@,%a3@-
   2c3f2:	2d2d 2d17      	movel %a5@(11543),%fp@-
   2c3f6:	1717           	moveb %sp@,%a3@-
   2c3f8:	2d17           	movel %sp@,%fp@-
   2c3fa:	1717           	moveb %sp@,%a3@-
   2c3fc:	2d2d 2d17      	movel %a5@(11543),%fp@-
   2c400:	1717           	moveb %sp@,%a3@-
   2c402:	2d2d 2d2d      	movel %a5@(11565),%fp@-
   2c406:	1717           	moveb %sp@,%a3@-
   2c408:	172d 2d2d      	moveb %a5@(11565),%a3@-
   2c40c:	2d17           	movel %sp@,%fp@-
   2c40e:	1717           	moveb %sp@,%a3@-
   2c410:	2d2d 2d2d      	movel %a5@(11565),%fp@-
   2c414:	2d2d 1717      	movel %a5@(5911),%fp@-
   2c418:	1717           	moveb %sp@,%a3@-
   2c41a:	1717           	moveb %sp@,%a3@-
   2c41c:	172d 2d2d      	moveb %a5@(11565),%a3@-
   2c420:	2d0c           	movel %a4,%fp@-
   2c422:	2929 2929      	movel %a1@(10537),%a4@-
   2c426:	2929 2929      	movel %a1@(10537),%a4@-
   2c42a:	2929 2929      	movel %a1@(10537),%a4@-
   2c42e:	2929 2929      	movel %a1@(10537),%a4@-
   2c432:	2929 2929      	movel %a1@(10537),%a4@-
   2c436:	2f2f 2d2d      	movel %sp@(11565),%sp@-
   2c43a:	2d2d 2d2d      	movel %a5@(11565),%fp@-
   2c43e:	2d2d 2d2d      	movel %a5@(11565),%fp@-
   2c442:	2d2d 2d2d      	movel %a5@(11565),%fp@-
   2c446:	2d2d 2d2d      	movel %a5@(11565),%fp@-
   2c44a:	2d2d 1717      	movel %a5@(5911),%fp@-
   2c44e:	2d2d 2d2d      	movel %a5@(11565),%fp@-
   2c452:	2d17           	movel %sp@,%fp@-
   2c454:	172d 2d17      	moveb %a5@(11543),%a3@-
   2c458:	172d 2d2d      	moveb %a5@(11565),%a3@-
   2c45c:	006a 6a6a 6a6a 	oriw #27242,%a2@(27242)
   2c462:	6a29           	bpls 2c48d <picData+0xc439>
   2c464:	2d2d 2d2d      	movel %a5@(11565),%fp@-
   2c468:	2d2d 2d2d      	movel %a5@(11565),%fp@-
   2c46c:	2d2d 1717      	movel %a5@(5911),%fp@-
   2c470:	2d2d 1717      	movel %a5@(5911),%fp@-
   2c474:	2d17           	movel %sp@,%fp@-
   2c476:	172d 2d17      	moveb %a5@(11543),%a3@-
   2c47a:	172d 1717      	moveb %a5@(5911),%a3@-
   2c47e:	2d2d 1717      	movel %a5@(5911),%fp@-
   2c482:	2d2d 006a      	movel %a5@(106),%fp@-
   2c486:	6a6a           	bpls 2c4f2 <picData+0xc49e>
   2c488:	6a6a           	bpls 2c4f4 <picData+0xc4a0>
   2c48a:	6a29           	bpls 2c4b5 <picData+0xc461>
   2c48c:	2d2d 2d2d      	movel %a5@(11565),%fp@-
   2c490:	2d2d 2d2d      	movel %a5@(11565),%fp@-
   2c494:	2d2d 1717      	movel %a5@(5911),%fp@-
   2c498:	2d2d 1717      	movel %a5@(5911),%fp@-
   2c49c:	2d17           	movel %sp@,%fp@-
   2c49e:	172d 2d17      	moveb %a5@(11543),%a3@-
   2c4a2:	172d 1717      	moveb %a5@(5911),%a3@-
   2c4a6:	2d2d 1717      	movel %a5@(5911),%fp@-
   2c4aa:	2d2d 006a      	movel %a5@(106),%fp@-
   2c4ae:	6a6a           	bpls 2c51a <picData+0xc4c6>
   2c4b0:	6a6a           	bpls 2c51c <picData+0xc4c8>
   2c4b2:	6a29           	bpls 2c4dd <picData+0xc489>
   2c4b4:	2d2d 2d2d      	movel %a5@(11565),%fp@-
   2c4b8:	3529 2929      	movew %a1@(10537),%a2@-
   2c4bc:	2929 2929      	movel %a1@(10537),%a4@-
   2c4c0:	2929 2929      	movel %a1@(10537),%a4@-
   2c4c4:	2929 2929      	movel %a1@(10537),%a4@-
   2c4c8:	2d2f 2d2d      	movel %sp@(11565),%fp@-
   2c4cc:	232a 2c2c      	movel %a2@(11308),%a1@-
   2c4d0:	2d2d 2d2e      	movel %a5@(11566),%fp@-
   2c4d4:	2e2e 2e2e      	movel %fp@(11822),%d7
   2c4d8:	2e2f 2f2f      	movel %sp@(12079),%d7
   2c4dc:	2f2f 2f2f      	movel %sp@(12079),%sp@-
   2c4e0:	2f2d 2d2d      	movel %a5@(11565),%sp@-
   2c4e4:	1717           	moveb %sp@,%a3@-
   2c4e6:	1717           	moveb %sp@,%a3@-
   2c4e8:	1717           	moveb %sp@,%a3@-
   2c4ea:	1717           	moveb %sp@,%a3@-
   2c4ec:	172d 1717      	moveb %a5@(5911),%a3@-
   2c4f0:	1717           	moveb %sp@,%a3@-
   2c4f2:	1717           	moveb %sp@,%a3@-
   2c4f4:	1717           	moveb %sp@,%a3@-
   2c4f6:	172d 1717      	moveb %a5@(5911),%a3@-
   2c4fa:	1717           	moveb %sp@,%a3@-
   2c4fc:	1717           	moveb %sp@,%a3@-
   2c4fe:	1717           	moveb %sp@,%a3@-
   2c500:	172d 1717      	moveb %a5@(5911),%a3@-
   2c504:	172d 2d2d      	moveb %a5@(11565),%a3@-
   2c508:	1717           	moveb %sp@,%a3@-
   2c50a:	172d 1717      	moveb %a5@(5911),%a3@-
   2c50e:	1717           	moveb %sp@,%a3@-
   2c510:	1717           	moveb %sp@,%a3@-
   2c512:	1717           	moveb %sp@,%a3@-
   2c514:	172d 2d2d      	moveb %a5@(11565),%a3@-
   2c518:	2d2d 2d17      	movel %a5@(11543),%fp@-
   2c51c:	1717           	moveb %sp@,%a3@-
   2c51e:	1717           	moveb %sp@,%a3@-
   2c520:	1717           	moveb %sp@,%a3@-
   2c522:	1717           	moveb %sp@,%a3@-
   2c524:	2d17           	movel %sp@,%fp@-
   2c526:	1717           	moveb %sp@,%a3@-
   2c528:	1717           	moveb %sp@,%a3@-
   2c52a:	1717           	moveb %sp@,%a3@-
   2c52c:	1717           	moveb %sp@,%a3@-
   2c52e:	2d17           	movel %sp@,%fp@-
   2c530:	1717           	moveb %sp@,%a3@-
   2c532:	2d2d 2d17      	movel %a5@(11543),%fp@-
   2c536:	1717           	moveb %sp@,%a3@-
   2c538:	2d17           	movel %sp@,%fp@-
   2c53a:	1717           	moveb %sp@,%a3@-
   2c53c:	1717           	moveb %sp@,%a3@-
   2c53e:	1717           	moveb %sp@,%a3@-
   2c540:	1717           	moveb %sp@,%a3@-
   2c542:	2d2d 2d2d      	movel %a5@(11565),%fp@-
   2c546:	1717           	moveb %sp@,%a3@-
   2c548:	172d 2d2d      	moveb %a5@(11565),%a3@-
   2c54c:	2d17           	movel %sp@,%fp@-
   2c54e:	1717           	moveb %sp@,%a3@-
   2c550:	1717           	moveb %sp@,%a3@-
   2c552:	1717           	moveb %sp@,%a3@-
   2c554:	172d 1717      	moveb %a5@(5911),%a3@-
   2c558:	172d 1717      	moveb %a5@(5911),%a3@-
   2c55c:	1717           	moveb %sp@,%a3@-
   2c55e:	2d2d 2d34      	movel %a5@(11572),%fp@-
   2c562:	2929 2929      	movel %a1@(10537),%a4@-
   2c566:	2929 2929      	movel %a1@(10537),%a4@-
   2c56a:	2929 2929      	movel %a1@(10537),%a4@-
   2c56e:	2929 2929      	movel %a1@(10537),%a4@-
   2c572:	2929 2929      	movel %a1@(10537),%a4@-
   2c576:	2f2f 2d2d      	movel %sp@(11565),%sp@-
   2c57a:	2d2d 2d2d      	movel %a5@(11565),%fp@-
   2c57e:	2d2d 2d2d      	movel %a5@(11565),%fp@-
   2c582:	2d2d 2d2d      	movel %a5@(11565),%fp@-
   2c586:	2d2d 2d2d      	movel %a5@(11565),%fp@-
   2c58a:	2d2d 1717      	movel %a5@(5911),%fp@-
   2c58e:	1717           	moveb %sp@,%a3@-
   2c590:	172d 2d17      	moveb %a5@(11543),%a3@-
   2c594:	1717           	moveb %sp@,%a3@-
   2c596:	1717           	moveb %sp@,%a3@-
   2c598:	172d 2d2d      	moveb %a5@(11565),%a3@-
   2c59c:	006a 6a6a 6a6a 	oriw #27242,%a2@(27242)
   2c5a2:	6a27           	bpls 2c5cb <picData+0xc577>
   2c5a4:	2d2d 2d2d      	movel %a5@(11565),%fp@-
   2c5a8:	2d2d 2d2d      	movel %a5@(11565),%fp@-
   2c5ac:	2d2d 2d2d      	movel %a5@(11565),%fp@-
   2c5b0:	2d2d 1717      	movel %a5@(5911),%fp@-
   2c5b4:	2d17           	movel %sp@,%fp@-
   2c5b6:	172d 2d17      	moveb %a5@(11543),%a3@-
   2c5ba:	172d 1717      	moveb %a5@(5911),%a3@-
   2c5be:	2d2d 1717      	movel %a5@(5911),%fp@-
   2c5c2:	2d2d 006a      	movel %a5@(106),%fp@-
   2c5c6:	6a6a           	bpls 2c632 <picData+0xc5de>
   2c5c8:	6a6a           	bpls 2c634 <picData+0xc5e0>
   2c5ca:	6a27           	bpls 2c5f3 <picData+0xc59f>
   2c5cc:	2d2d 2d2d      	movel %a5@(11565),%fp@-
   2c5d0:	2d2d 2d2d      	movel %a5@(11565),%fp@-
   2c5d4:	2d2d 2d2d      	movel %a5@(11565),%fp@-
   2c5d8:	2d2d 1717      	movel %a5@(5911),%fp@-
   2c5dc:	2d17           	movel %sp@,%fp@-
   2c5de:	172d 2d17      	moveb %a5@(11543),%a3@-
   2c5e2:	172d 1717      	moveb %a5@(5911),%a3@-
   2c5e6:	2d2d 1717      	movel %a5@(5911),%fp@-
   2c5ea:	2d2d 006a      	movel %a5@(106),%fp@-
   2c5ee:	6a6a           	bpls 2c65a <picData+0xc606>
   2c5f0:	6a6a           	bpls 2c65c <picData+0xc608>
   2c5f2:	6a27           	bpls 2c61b <picData+0xc5c7>
   2c5f4:	2d2d 2d2d      	movel %a5@(11565),%fp@-
   2c5f8:	3529 2929      	movew %a1@(10537),%a2@-
   2c5fc:	2929 2929      	movel %a1@(10537),%a4@-
   2c600:	2929 2929      	movel %a1@(10537),%a4@-
   2c604:	2929 2929      	movel %a1@(10537),%a4@-
   2c608:	2c2f 2d2d      	movel %sp@(11565),%d6
   2c60c:	2f2f 2f2f      	movel %sp@(12079),%sp@-
   2c610:	2f2f 2f2f      	movel %sp@(12079),%sp@-
   2c614:	2f2f 2f2f      	movel %sp@(12079),%sp@-
   2c618:	2f2f 2f2f      	movel %sp@(12079),%sp@-
   2c61c:	2f2f 2f2f      	movel %sp@(12079),%sp@-
   2c620:	2f2d 2d2d      	movel %a5@(11565),%sp@-
   2c624:	2d17           	movel %sp@,%fp@-
   2c626:	1717           	moveb %sp@,%a3@-
   2c628:	1717           	moveb %sp@,%a3@-
   2c62a:	1717           	moveb %sp@,%a3@-
   2c62c:	2d2d 2d17      	movel %a5@(11543),%fp@-
   2c630:	1717           	moveb %sp@,%a3@-
   2c632:	1717           	moveb %sp@,%a3@-
   2c634:	1717           	moveb %sp@,%a3@-
   2c636:	2d2d 2d17      	movel %a5@(11543),%fp@-
   2c63a:	1717           	moveb %sp@,%a3@-
   2c63c:	1717           	moveb %sp@,%a3@-
   2c63e:	1717           	moveb %sp@,%a3@-
   2c640:	2d2d 1717      	movel %a5@(5911),%fp@-
   2c644:	172d 2d2d      	moveb %a5@(11565),%a3@-
   2c648:	1717           	moveb %sp@,%a3@-
   2c64a:	172d 1717      	moveb %a5@(5911),%a3@-
   2c64e:	1717           	moveb %sp@,%a3@-
   2c650:	1717           	moveb %sp@,%a3@-
   2c652:	1717           	moveb %sp@,%a3@-
   2c654:	2d2d 2d2d      	movel %a5@(11565),%fp@-
   2c658:	2d2d 2d17      	movel %a5@(11543),%fp@-
   2c65c:	1717           	moveb %sp@,%a3@-
   2c65e:	1717           	moveb %sp@,%a3@-
   2c660:	1717           	moveb %sp@,%a3@-
   2c662:	172d 2d17      	moveb %a5@(11543),%a3@-
   2c666:	1717           	moveb %sp@,%a3@-
   2c668:	1717           	moveb %sp@,%a3@-
   2c66a:	1717           	moveb %sp@,%a3@-
   2c66c:	1717           	moveb %sp@,%a3@-
   2c66e:	2d17           	movel %sp@,%fp@-
   2c670:	1717           	moveb %sp@,%a3@-
   2c672:	2d2d 2d17      	movel %a5@(11543),%fp@-
   2c676:	1717           	moveb %sp@,%a3@-
   2c678:	2d2d 1717      	movel %a5@(5911),%fp@-
   2c67c:	1717           	moveb %sp@,%a3@-
   2c67e:	1717           	moveb %sp@,%a3@-
   2c680:	172d 2d2d      	moveb %a5@(11565),%a3@-
   2c684:	2d2d 1717      	movel %a5@(5911),%fp@-
   2c688:	172d 2d2d      	moveb %a5@(11565),%a3@-
   2c68c:	2d17           	movel %sp@,%fp@-
   2c68e:	1717           	moveb %sp@,%a3@-
   2c690:	1717           	moveb %sp@,%a3@-
   2c692:	1717           	moveb %sp@,%a3@-
   2c694:	172d 1717      	moveb %a5@(5911),%a3@-
   2c698:	172d 2d17      	moveb %a5@(11543),%a3@-
   2c69c:	1717           	moveb %sp@,%a3@-
   2c69e:	172d 2d34      	moveb %a5@(11572),%a3@-
   2c6a2:	2929 2929      	movel %a1@(10537),%a4@-
   2c6a6:	2929 2929      	movel %a1@(10537),%a4@-
   2c6aa:	2929 2929      	movel %a1@(10537),%a4@-
   2c6ae:	2929 2929      	movel %a1@(10537),%a4@-
   2c6b2:	2929 2929      	movel %a1@(10537),%a4@-
   2c6b6:	2f2f 2d2d      	movel %sp@(11565),%sp@-
   2c6ba:	2d2d 2d2d      	movel %a5@(11565),%fp@-
   2c6be:	2d2d 2d2d      	movel %a5@(11565),%fp@-
   2c6c2:	2d2d 2d2d      	movel %a5@(11565),%fp@-
   2c6c6:	2d2d 2d2d      	movel %a5@(11565),%fp@-
   2c6ca:	2d2d 1717      	movel %a5@(5911),%fp@-
   2c6ce:	2d2d 1717      	movel %a5@(5911),%fp@-
   2c6d2:	2d2d 2d2d      	movel %a5@(11565),%fp@-
   2c6d6:	2d17           	movel %sp@,%fp@-
   2c6d8:	172d 2d2d      	moveb %a5@(11565),%a3@-
   2c6dc:	006a 6a6a 6a6a 	oriw #27242,%a2@(27242)
   2c6e2:	6a27           	bpls 2c70b <picData+0xc6b7>
   2c6e4:	2d2d 2d2d      	movel %a5@(11565),%fp@-
   2c6e8:	2d2d 2d2d      	movel %a5@(11565),%fp@-
   2c6ec:	2d2d 2d17      	movel %a5@(11543),%fp@-
   2c6f0:	1717           	moveb %sp@,%a3@-
   2c6f2:	172d 2d17      	moveb %a5@(11543),%a3@-
   2c6f6:	172d 2d17      	moveb %a5@(11543),%a3@-
   2c6fa:	172d 1717      	moveb %a5@(5911),%a3@-
   2c6fe:	2d2d 1717      	movel %a5@(5911),%fp@-
   2c702:	2d2d 006a      	movel %a5@(106),%fp@-
   2c706:	6a6a           	bpls 2c772 <picData+0xc71e>
   2c708:	6a6a           	bpls 2c774 <picData+0xc720>
   2c70a:	6a27           	bpls 2c733 <picData+0xc6df>
   2c70c:	2d2d 2d2d      	movel %a5@(11565),%fp@-
   2c710:	2d2d 2d2d      	movel %a5@(11565),%fp@-
   2c714:	2d2d 2d17      	movel %a5@(11543),%fp@-
   2c718:	1717           	moveb %sp@,%a3@-
   2c71a:	172d 2d17      	moveb %a5@(11543),%a3@-
   2c71e:	172d 2d17      	moveb %a5@(11543),%a3@-
   2c722:	172d 1717      	moveb %a5@(5911),%a3@-
   2c726:	2d2d 1717      	movel %a5@(5911),%fp@-
   2c72a:	2d2d 006a      	movel %a5@(106),%fp@-
   2c72e:	6a6a           	bpls 2c79a <picData+0xc746>
   2c730:	6a6a           	bpls 2c79c <picData+0xc748>
   2c732:	6a27           	bpls 2c75b <picData+0xc707>
   2c734:	2d2d 2d2d      	movel %a5@(11565),%fp@-
   2c738:	3529 2929      	movew %a1@(10537),%a2@-
   2c73c:	2929 2929      	movel %a1@(10537),%a4@-
   2c740:	2929 2929      	movel %a1@(10537),%a4@-
   2c744:	2929 2929      	movel %a1@(10537),%a4@-
   2c748:	2c2f 2d2d      	movel %sp@(11565),%d6
   2c74c:	2d2d 2d2d      	movel %a5@(11565),%fp@-
   2c750:	2d2d 2d2d      	movel %a5@(11565),%fp@-
   2c754:	2d2d 2d2d      	movel %a5@(11565),%fp@-
   2c758:	2d2d 2d2d      	movel %a5@(11565),%fp@-
   2c75c:	2d2d 2d2d      	movel %a5@(11565),%fp@-
   2c760:	2d2d 2d2d      	movel %a5@(11565),%fp@-
   2c764:	2d2d 2d2d      	movel %a5@(11565),%fp@-
   2c768:	2d2d 2d2d      	movel %a5@(11565),%fp@-
   2c76c:	2d2d 2d2d      	movel %a5@(11565),%fp@-
   2c770:	2d2d 2d2d      	movel %a5@(11565),%fp@-
   2c774:	2d2d 2d2d      	movel %a5@(11565),%fp@-
   2c778:	2d2d 2d2d      	movel %a5@(11565),%fp@-
   2c77c:	2d2d 2d2d      	movel %a5@(11565),%fp@-
   2c780:	2d2d 2d2d      	movel %a5@(11565),%fp@-
   2c784:	2d2d 2d2d      	movel %a5@(11565),%fp@-
   2c788:	2d2d 2d2d      	movel %a5@(11565),%fp@-
   2c78c:	2d2d 2d2d      	movel %a5@(11565),%fp@-
   2c790:	2d2d 2d2d      	movel %a5@(11565),%fp@-
   2c794:	2d2d 2d2d      	movel %a5@(11565),%fp@-
   2c798:	2d2d 2d2d      	movel %a5@(11565),%fp@-
   2c79c:	2d2d 2d2d      	movel %a5@(11565),%fp@-
   2c7a0:	2d2d 2d2d      	movel %a5@(11565),%fp@-
   2c7a4:	2d2d 2d2d      	movel %a5@(11565),%fp@-
   2c7a8:	2d2d 2d2d      	movel %a5@(11565),%fp@-
   2c7ac:	2d2d 2d2d      	movel %a5@(11565),%fp@-
   2c7b0:	2d2d 2d2d      	movel %a5@(11565),%fp@-
   2c7b4:	2d2d 2d2d      	movel %a5@(11565),%fp@-
   2c7b8:	2d2d 2d2d      	movel %a5@(11565),%fp@-
   2c7bc:	2d2d 2d2d      	movel %a5@(11565),%fp@-
   2c7c0:	2d2d 2d2d      	movel %a5@(11565),%fp@-
   2c7c4:	2d2d 2d2d      	movel %a5@(11565),%fp@-
   2c7c8:	2d2d 2d2d      	movel %a5@(11565),%fp@-
   2c7cc:	2d2d 2d2d      	movel %a5@(11565),%fp@-
   2c7d0:	2d2d 2d2d      	movel %a5@(11565),%fp@-
   2c7d4:	2d2d 2d2d      	movel %a5@(11565),%fp@-
   2c7d8:	2d2d 2d2d      	movel %a5@(11565),%fp@-
   2c7dc:	2d2d 2d2d      	movel %a5@(11565),%fp@-
   2c7e0:	2d34 2929 2929 	movel %a4@(00002929,%d2:l)@(00000000),%fp@-
   2c7e6:	2929 2929      	movel %a1@(10537),%a4@-
   2c7ea:	2929 2929      	movel %a1@(10537),%a4@-
   2c7ee:	2929 2929      	movel %a1@(10537),%a4@-
   2c7f2:	2929 2929      	movel %a1@(10537),%a4@-
   2c7f6:	2f2f 2d2d      	movel %sp@(11565),%sp@-
   2c7fa:	2d2d 2d2d      	movel %a5@(11565),%fp@-
   2c7fe:	2d2d 2d2d      	movel %a5@(11565),%fp@-
   2c802:	2d2d 2d2d      	movel %a5@(11565),%fp@-
   2c806:	2d2d 2d2d      	movel %a5@(11565),%fp@-
   2c80a:	2d2d 1717      	movel %a5@(5911),%fp@-
   2c80e:	2d2d 1717      	movel %a5@(5911),%fp@-
   2c812:	2d2d 2d2d      	movel %a5@(11565),%fp@-
   2c816:	2d17           	movel %sp@,%fp@-
   2c818:	172d 2d2d      	moveb %a5@(11565),%a3@-
   2c81c:	2f6a 6a6a 6a6a 	movel %a2@(27242),%sp@(27242)
   2c822:	6a27           	bpls 2c84b <picData+0xc7f7>
   2c824:	2d2d 2d2d      	movel %a5@(11565),%fp@-
   2c828:	2d2d 2d2d      	movel %a5@(11565),%fp@-
   2c82c:	2d2d 1717      	movel %a5@(5911),%fp@-
   2c830:	2d2d 2d2d      	movel %a5@(11565),%fp@-
   2c834:	2d17           	movel %sp@,%fp@-
   2c836:	172d 2d17      	moveb %a5@(11543),%a3@-
   2c83a:	172d 1717      	moveb %a5@(5911),%a3@-
   2c83e:	2d2d 1717      	movel %a5@(5911),%fp@-
   2c842:	2d2d 2f6a      	movel %a5@(12138),%fp@-
   2c846:	6a6a           	bpls 2c8b2 <picData+0xc85e>
   2c848:	6a6a           	bpls 2c8b4 <picData+0xc860>
   2c84a:	6a27           	bpls 2c873 <picData+0xc81f>
   2c84c:	2d2d 2d2d      	movel %a5@(11565),%fp@-
   2c850:	2d2d 2d2d      	movel %a5@(11565),%fp@-
   2c854:	2d2d 1717      	movel %a5@(5911),%fp@-
   2c858:	2d2d 2d2d      	movel %a5@(11565),%fp@-
   2c85c:	2d17           	movel %sp@,%fp@-
   2c85e:	172d 2d17      	moveb %a5@(11543),%a3@-
   2c862:	172d 1717      	moveb %a5@(5911),%a3@-
   2c866:	2d2d 1717      	movel %a5@(5911),%fp@-
   2c86a:	2d2d 2f6a      	movel %a5@(12138),%fp@-
   2c86e:	6a6a           	bpls 2c8da <picData+0xc886>
   2c870:	6a6a           	bpls 2c8dc <picData+0xc888>
   2c872:	6a27           	bpls 2c89b <picData+0xc847>
   2c874:	2d2d 2d2d      	movel %a5@(11565),%fp@-
   2c878:	3529 2929      	movew %a1@(10537),%a2@-
   2c87c:	2929 2929      	movel %a1@(10537),%a4@-
   2c880:	2929 2929      	movel %a1@(10537),%a4@-
   2c884:	2929 2929      	movel %a1@(10537),%a4@-
   2c888:	2c2f 2d2d      	movel %sp@(11565),%d6
   2c88c:	2d2d 2d2d      	movel %a5@(11565),%fp@-
   2c890:	2d2d 2d2d      	movel %a5@(11565),%fp@-
   2c894:	2d2d 2d2d      	movel %a5@(11565),%fp@-
   2c898:	2d2d 2d2d      	movel %a5@(11565),%fp@-
   2c89c:	2d2d 2d2d      	movel %a5@(11565),%fp@-
   2c8a0:	2d2d 2d2d      	movel %a5@(11565),%fp@-
   2c8a4:	2d2d 2d2d      	movel %a5@(11565),%fp@-
   2c8a8:	2d2d 2d2d      	movel %a5@(11565),%fp@-
   2c8ac:	2d2d 2d2d      	movel %a5@(11565),%fp@-
   2c8b0:	2d2d 2d2d      	movel %a5@(11565),%fp@-
   2c8b4:	2d2d 2d2d      	movel %a5@(11565),%fp@-
   2c8b8:	2d2d 2d2d      	movel %a5@(11565),%fp@-
   2c8bc:	2d2d 2d2d      	movel %a5@(11565),%fp@-
   2c8c0:	2d2d 2d2d      	movel %a5@(11565),%fp@-
   2c8c4:	2d2d 2d2d      	movel %a5@(11565),%fp@-
   2c8c8:	2d2d 2d2d      	movel %a5@(11565),%fp@-
   2c8cc:	2d2d 2d2d      	movel %a5@(11565),%fp@-
   2c8d0:	2d2d 2d2d      	movel %a5@(11565),%fp@-
   2c8d4:	2d2d 2d2d      	movel %a5@(11565),%fp@-
   2c8d8:	2d2d 2d2d      	movel %a5@(11565),%fp@-
   2c8dc:	2d2d 2d2d      	movel %a5@(11565),%fp@-
   2c8e0:	2d2d 2d2d      	movel %a5@(11565),%fp@-
   2c8e4:	2d2d 2d2d      	movel %a5@(11565),%fp@-
   2c8e8:	2d2d 2d2d      	movel %a5@(11565),%fp@-
   2c8ec:	2d2d 2d2d      	movel %a5@(11565),%fp@-
   2c8f0:	2d2d 2d2d      	movel %a5@(11565),%fp@-
   2c8f4:	2d2d 2d2d      	movel %a5@(11565),%fp@-
   2c8f8:	2d2d 2d2d      	movel %a5@(11565),%fp@-
   2c8fc:	2d2d 2d2d      	movel %a5@(11565),%fp@-
   2c900:	2d2d 2d2d      	movel %a5@(11565),%fp@-
   2c904:	2d2d 2d2d      	movel %a5@(11565),%fp@-
   2c908:	2d2d 2d2d      	movel %a5@(11565),%fp@-
   2c90c:	2d2d 2d2d      	movel %a5@(11565),%fp@-
   2c910:	2d2d 2d2d      	movel %a5@(11565),%fp@-
   2c914:	2d2d 2d2d      	movel %a5@(11565),%fp@-
   2c918:	2d2d 2d2d      	movel %a5@(11565),%fp@-
   2c91c:	2d2d 2d2d      	movel %a5@(11565),%fp@-
   2c920:	2d33 2929 2929 	movel %a3@(00002929,%d2:l)@(00000000),%fp@-
   2c926:	2929 2929      	movel %a1@(10537),%a4@-
   2c92a:	2929 2929      	movel %a1@(10537),%a4@-
   2c92e:	2929 2929      	movel %a1@(10537),%a4@-
   2c932:	2929 2929      	movel %a1@(10537),%a4@-
   2c936:	2f2f 2d2d      	movel %sp@(11565),%sp@-
   2c93a:	2d2d 2d2d      	movel %a5@(11565),%fp@-
   2c93e:	2d2d 2d2d      	movel %a5@(11565),%fp@-
   2c942:	2d2d 2d2d      	movel %a5@(11565),%fp@-
   2c946:	2d2d 2d2d      	movel %a5@(11565),%fp@-
   2c94a:	2d2d 2d17      	movel %a5@(11543),%fp@-
   2c94e:	1717           	moveb %sp@,%a3@-
   2c950:	172d 2d2d      	moveb %a5@(11565),%a3@-
   2c954:	2d2d 2d17      	movel %a5@(11543),%fp@-
   2c958:	172d 2d2d      	moveb %a5@(11565),%a3@-
   2c95c:	2f6a 6a6a 6a6a 	movel %a2@(27242),%sp@(27242)
   2c962:	6a25           	bpls 2c989 <picData+0xc935>
   2c964:	2d2d 2d2d      	movel %a5@(11565),%fp@-
   2c968:	2d2d 2d2d      	movel %a5@(11565),%fp@-
   2c96c:	2d2d 1717      	movel %a5@(5911),%fp@-
   2c970:	1717           	moveb %sp@,%a3@-
   2c972:	1717           	moveb %sp@,%a3@-
   2c974:	2d2d 1717      	movel %a5@(5911),%fp@-
   2c978:	1717           	moveb %sp@,%a3@-
   2c97a:	2d2d 2d17      	movel %a5@(11543),%fp@-
   2c97e:	1717           	moveb %sp@,%a3@-
   2c980:	172d 2d2d      	moveb %a5@(11565),%a3@-
   2c984:	2f6a 6a6a 6a6a 	movel %a2@(27242),%sp@(27242)
   2c98a:	6a25           	bpls 2c9b1 <picData+0xc95d>
   2c98c:	2d2d 2d2d      	movel %a5@(11565),%fp@-
   2c990:	2d2d 2d2d      	movel %a5@(11565),%fp@-
   2c994:	2d2d 1717      	movel %a5@(5911),%fp@-
   2c998:	1717           	moveb %sp@,%a3@-
   2c99a:	1717           	moveb %sp@,%a3@-
   2c99c:	2d2d 1717      	movel %a5@(5911),%fp@-
   2c9a0:	1717           	moveb %sp@,%a3@-
   2c9a2:	2d2d 2d17      	movel %a5@(11543),%fp@-
   2c9a6:	1717           	moveb %sp@,%a3@-
   2c9a8:	172d 2d2d      	moveb %a5@(11565),%a3@-
   2c9ac:	2f6a 6a6a 6a6a 	movel %a2@(27242),%sp@(27242)
   2c9b2:	6a25           	bpls 2c9d9 <picData+0xc985>
   2c9b4:	2d2d 2d2d      	movel %a5@(11565),%fp@-
   2c9b8:	3529 2929      	movew %a1@(10537),%a2@-
   2c9bc:	2929 2929      	movel %a1@(10537),%a4@-
   2c9c0:	2929 2929      	movel %a1@(10537),%a4@-
   2c9c4:	2929 2929      	movel %a1@(10537),%a4@-
   2c9c8:	2c2f 2d2d      	movel %sp@(11565),%d6
   2c9cc:	2d2d 2d2d      	movel %a5@(11565),%fp@-
   2c9d0:	2d2d 2d2d      	movel %a5@(11565),%fp@-
   2c9d4:	2d2d 2d2d      	movel %a5@(11565),%fp@-
   2c9d8:	2d2d 2d2d      	movel %a5@(11565),%fp@-
   2c9dc:	2d2d 2d2d      	movel %a5@(11565),%fp@-
   2c9e0:	2d2d 2d2d      	movel %a5@(11565),%fp@-
   2c9e4:	2d2d 2d2d      	movel %a5@(11565),%fp@-
   2c9e8:	2d2d 2d2d      	movel %a5@(11565),%fp@-
   2c9ec:	2d2d 2d2d      	movel %a5@(11565),%fp@-
   2c9f0:	2d2d 2d2d      	movel %a5@(11565),%fp@-
   2c9f4:	2d2d 2d2d      	movel %a5@(11565),%fp@-
   2c9f8:	2d2d 2d2d      	movel %a5@(11565),%fp@-
   2c9fc:	2d2d 2d2d      	movel %a5@(11565),%fp@-
   2ca00:	2d2d 2d2d      	movel %a5@(11565),%fp@-
   2ca04:	2d2d 2d2d      	movel %a5@(11565),%fp@-
   2ca08:	2d2d 2d2d      	movel %a5@(11565),%fp@-
   2ca0c:	2d2d 2d2d      	movel %a5@(11565),%fp@-
   2ca10:	2d2d 2d2d      	movel %a5@(11565),%fp@-
   2ca14:	2d2d 2d2d      	movel %a5@(11565),%fp@-
   2ca18:	2d2d 2d2d      	movel %a5@(11565),%fp@-
   2ca1c:	2d2d 2d2d      	movel %a5@(11565),%fp@-
   2ca20:	2d2d 2d2d      	movel %a5@(11565),%fp@-
   2ca24:	2d2d 2d2d      	movel %a5@(11565),%fp@-
   2ca28:	2d2d 2d2d      	movel %a5@(11565),%fp@-
   2ca2c:	2d2d 2d2d      	movel %a5@(11565),%fp@-
   2ca30:	2d2d 2d2d      	movel %a5@(11565),%fp@-
   2ca34:	2d2d 2d2d      	movel %a5@(11565),%fp@-
   2ca38:	2d2d 2d2d      	movel %a5@(11565),%fp@-
   2ca3c:	2d2d 2d2d      	movel %a5@(11565),%fp@-
   2ca40:	2d2d 2d2d      	movel %a5@(11565),%fp@-
   2ca44:	2d2d 2d2d      	movel %a5@(11565),%fp@-
   2ca48:	2d2d 2d2d      	movel %a5@(11565),%fp@-
   2ca4c:	2d2d 2d2d      	movel %a5@(11565),%fp@-
   2ca50:	2d2d 2d2d      	movel %a5@(11565),%fp@-
   2ca54:	2d2d 2d2d      	movel %a5@(11565),%fp@-
   2ca58:	2d2d 2d2d      	movel %a5@(11565),%fp@-
   2ca5c:	2d2d 2d2d      	movel %a5@(11565),%fp@-
   2ca60:	2d33 2929 2929 	movel %a3@(00002929,%d2:l)@(00000000),%fp@-
   2ca66:	2929 2929      	movel %a1@(10537),%a4@-
   2ca6a:	2929 2929      	movel %a1@(10537),%a4@-
   2ca6e:	2929 2929      	movel %a1@(10537),%a4@-
   2ca72:	2929 2929      	movel %a1@(10537),%a4@-
   2ca76:	2f2f 2d2d      	movel %sp@(11565),%sp@-
   2ca7a:	2d2d 2d2d      	movel %a5@(11565),%fp@-
   2ca7e:	2d2d 2d2d      	movel %a5@(11565),%fp@-
   2ca82:	2d2d 2d2d      	movel %a5@(11565),%fp@-
   2ca86:	2d2d 2d2d      	movel %a5@(11565),%fp@-
   2ca8a:	2d2d 2d2d      	movel %a5@(11565),%fp@-
   2ca8e:	2d2d 2d2d      	movel %a5@(11565),%fp@-
   2ca92:	2d2d 2d2d      	movel %a5@(11565),%fp@-
   2ca96:	2d2d 2d2d      	movel %a5@(11565),%fp@-
   2ca9a:	2d2d 2b29      	movel %a5@(11049),%fp@-
   2ca9e:	2727           	movel %sp@-,%a3@-
   2caa0:	2727           	movel %sp@-,%a3@-
   2caa2:	2522           	movel %a2@-,%a2@-
   2caa4:	2d2d 2d2d      	movel %a5@(11565),%fp@-
   2caa8:	2d2d 2d2d      	movel %a5@(11565),%fp@-
   2caac:	2d2d 2d2d      	movel %a5@(11565),%fp@-
   2cab0:	2d2d 2d2d      	movel %a5@(11565),%fp@-
   2cab4:	2d2d 2d2d      	movel %a5@(11565),%fp@-
   2cab8:	2d2d 2d2d      	movel %a5@(11565),%fp@-
   2cabc:	2d2d 2d2d      	movel %a5@(11565),%fp@-
   2cac0:	2d2d 2d2d      	movel %a5@(11565),%fp@-
   2cac4:	2b29 2727      	movel %a1@(10023),%a5@-
   2cac8:	2727           	movel %sp@-,%a3@-
   2caca:	2522           	movel %a2@-,%a2@-
   2cacc:	2d2d 2d2d      	movel %a5@(11565),%fp@-
   2cad0:	2d2d 2d2d      	movel %a5@(11565),%fp@-
   2cad4:	2d2d 2d2d      	movel %a5@(11565),%fp@-
   2cad8:	2d2d 2d2d      	movel %a5@(11565),%fp@-
   2cadc:	2d2d 2d2d      	movel %a5@(11565),%fp@-
   2cae0:	2d2d 2d2d      	movel %a5@(11565),%fp@-
   2cae4:	2d2d 2d2d      	movel %a5@(11565),%fp@-
   2cae8:	2d2d 2d2d      	movel %a5@(11565),%fp@-
   2caec:	2b29 2727      	movel %a1@(10023),%a5@-
   2caf0:	2727           	movel %sp@-,%a3@-
   2caf2:	2522           	movel %a2@-,%a2@-
   2caf4:	2d2d 2d2d      	movel %a5@(11565),%fp@-
   2caf8:	3529 2929      	movew %a1@(10537),%a2@-
   2cafc:	2929 2929      	movel %a1@(10537),%a4@-
   2cb00:	2929 2929      	movel %a1@(10537),%a4@-
   2cb04:	2929 2929      	movel %a1@(10537),%a4@-
   2cb08:	2824           	movel %a4@-,%d4
   2cb0a:	2324           	movel %a4@-,%a1@-
   2cb0c:	2424           	movel %a4@-,%d2
   2cb0e:	2424           	movel %a4@-,%d2
   2cb10:	2424           	movel %a4@-,%d2
   2cb12:	2424           	movel %a4@-,%d2
   2cb14:	2424           	movel %a4@-,%d2
   2cb16:	2423           	movel %a3@-,%d2
   2cb18:	2323           	movel %a3@-,%a1@-
   2cb1a:	2323           	movel %a3@-,%a1@-
   2cb1c:	2323           	movel %a3@-,%a1@-
   2cb1e:	2323           	movel %a3@-,%a1@-
   2cb20:	2323           	movel %a3@-,%a1@-
   2cb22:	2222           	movel %a2@-,%d1
   2cb24:	2222           	movel %a2@-,%d1
   2cb26:	2222           	movel %a2@-,%d1
   2cb28:	2222           	movel %a2@-,%d1
   2cb2a:	2222           	movel %a2@-,%d1
   2cb2c:	2222           	movel %a2@-,%d1
   2cb2e:	2222           	movel %a2@-,%d1
   2cb30:	2222           	movel %a2@-,%d1
   2cb32:	2222           	movel %a2@-,%d1
   2cb34:	2222           	movel %a2@-,%d1
   2cb36:	2222           	movel %a2@-,%d1
   2cb38:	2121           	movel %a1@-,%a0@-
   2cb3a:	2121           	movel %a1@-,%a0@-
   2cb3c:	2121           	movel %a1@-,%a0@-
   2cb3e:	2121           	movel %a1@-,%a0@-
   2cb40:	2121           	movel %a1@-,%a0@-
   2cb42:	2121           	movel %a1@-,%a0@-
   2cb44:	2121           	movel %a1@-,%a0@-
   2cb46:	2121           	movel %a1@-,%a0@-
   2cb48:	2121           	movel %a1@-,%a0@-
   2cb4a:	2121           	movel %a1@-,%a0@-
   2cb4c:	2121           	movel %a1@-,%a0@-
   2cb4e:	2121           	movel %a1@-,%a0@-
   2cb50:	2121           	movel %a1@-,%a0@-
   2cb52:	2121           	movel %a1@-,%a0@-
   2cb54:	2121           	movel %a1@-,%a0@-
   2cb56:	2121           	movel %a1@-,%a0@-
   2cb58:	2121           	movel %a1@-,%a0@-
   2cb5a:	2121           	movel %a1@-,%a0@-
   2cb5c:	2121           	movel %a1@-,%a0@-
   2cb5e:	2121           	movel %a1@-,%a0@-
   2cb60:	2121           	movel %a1@-,%a0@-
   2cb62:	2121           	movel %a1@-,%a0@-
   2cb64:	2121           	movel %a1@-,%a0@-
   2cb66:	2121           	movel %a1@-,%a0@-
   2cb68:	2121           	movel %a1@-,%a0@-
   2cb6a:	2121           	movel %a1@-,%a0@-
   2cb6c:	3737 3737 3737 	movew %sp@(37373737)@(37373737,%d3:w:8),%a3@-
   2cb72:	3737 3737 3737 
   2cb78:	3736 3636      	movew %fp@(00000036,%d3:w:8),%a3@-
   2cb7c:	3636 3636      	movew %fp@(00000036,%d3:w:8),%d3
   2cb80:	3636 3635      	movew %fp@(00000035,%d3:w:8),%d3
   2cb84:	3535 3535 3535 	movew %a5@(35353535)@(00000000,%d3:w:4),%a2@-
   2cb8a:	3535 
   2cb8c:	3535 3535 350c 	movew %a5@(350c0c34)@(00000000,%d3:w:4),%a2@-
   2cb92:	0c34 
   2cb94:	3434 3434      	movew %a4@(00000034,%d3:w:4),%d2
   2cb98:	3434 3434      	movew %a4@(00000034,%d3:w:4),%d2
   2cb9c:	3434 3433      	movew %a4@(00000033,%d3:w:4),%d2
   2cba0:	3332 2929 2929 	movew %a2@(00002929,%d2:l)@(00000000),%a1@-
   2cba6:	2929 2929      	movel %a1@(10537),%a4@-
   2cbaa:	2929 2929      	movel %a1@(10537),%a4@-
   2cbae:	2929 2929      	movel %a1@(10537),%a4@-
   2cbb2:	2929 2929      	movel %a1@(10537),%a4@-
   2cbb6:	2f2f 2d2d      	movel %sp@(11565),%sp@-
   2cbba:	2d2d 2d2d      	movel %a5@(11565),%fp@-
   2cbbe:	2d2d 2d2d      	movel %a5@(11565),%fp@-
   2cbc2:	2d2d 2d2d      	movel %a5@(11565),%fp@-
   2cbc6:	2d2d 2d2d      	movel %a5@(11565),%fp@-
   2cbca:	2d2d 2d2d      	movel %a5@(11565),%fp@-
   2cbce:	2d2d 2d2d      	movel %a5@(11565),%fp@-
   2cbd2:	2d2d 2d2d      	movel %a5@(11565),%fp@-
   2cbd6:	2d2d 2d2d      	movel %a5@(11565),%fp@-
   2cbda:	2d2d 2d2d      	movel %a5@(11565),%fp@-
   2cbde:	2d2d 2d2d      	movel %a5@(11565),%fp@-
   2cbe2:	2d2d 2d2d      	movel %a5@(11565),%fp@-
   2cbe6:	2d2d 2d2d      	movel %a5@(11565),%fp@-
   2cbea:	2d2d 2d2d      	movel %a5@(11565),%fp@-
   2cbee:	2d2d 2d2d      	movel %a5@(11565),%fp@-
   2cbf2:	2d2d 2d2d      	movel %a5@(11565),%fp@-
   2cbf6:	2d2d 2d2d      	movel %a5@(11565),%fp@-
   2cbfa:	2d2d 2d2d      	movel %a5@(11565),%fp@-
   2cbfe:	2d2d 2d2d      	movel %a5@(11565),%fp@-
   2cc02:	2d2d 2d2d      	movel %a5@(11565),%fp@-
   2cc06:	2d2d 2d2d      	movel %a5@(11565),%fp@-
   2cc0a:	2d2d 2d2d      	movel %a5@(11565),%fp@-
   2cc0e:	2d2d 2d2d      	movel %a5@(11565),%fp@-
   2cc12:	2d2d 2d2d      	movel %a5@(11565),%fp@-
   2cc16:	2d2d 2d2d      	movel %a5@(11565),%fp@-
   2cc1a:	2d2d 2d2d      	movel %a5@(11565),%fp@-
   2cc1e:	2d2d 2d2d      	movel %a5@(11565),%fp@-
   2cc22:	2d2d 2d2d      	movel %a5@(11565),%fp@-
   2cc26:	2d2d 2d2d      	movel %a5@(11565),%fp@-
   2cc2a:	2d2d 2d2d      	movel %a5@(11565),%fp@-
   2cc2e:	2d2d 2d2d      	movel %a5@(11565),%fp@-
   2cc32:	2d2d 2d2d      	movel %a5@(11565),%fp@-
   2cc36:	2d2d 0c29      	movel %a5@(3113),%fp@-
   2cc3a:	2929 2929      	movel %a1@(10537),%a4@-
   2cc3e:	2929 2929      	movel %a1@(10537),%a4@-
   2cc42:	2929 2929      	movel %a1@(10537),%a4@-
   2cc46:	2929 2929      	movel %a1@(10537),%a4@-
   2cc4a:	2929 2929      	movel %a1@(10537),%a4@-
   2cc4e:	2929 2929      	movel %a1@(10537),%a4@-
   2cc52:	2929 2929      	movel %a1@(10537),%a4@-
   2cc56:	2929 2929      	movel %a1@(10537),%a4@-
   2cc5a:	2929 2929      	movel %a1@(10537),%a4@-
   2cc5e:	2929 2929      	movel %a1@(10537),%a4@-
   2cc62:	2929 2929      	movel %a1@(10537),%a4@-
   2cc66:	2929 2929      	movel %a1@(10537),%a4@-
   2cc6a:	2929 2929      	movel %a1@(10537),%a4@-
   2cc6e:	2929 2929      	movel %a1@(10537),%a4@-
   2cc72:	2929 2929      	movel %a1@(10537),%a4@-
   2cc76:	2929 2929      	movel %a1@(10537),%a4@-
   2cc7a:	2929 2929      	movel %a1@(10537),%a4@-
   2cc7e:	2929 2929      	movel %a1@(10537),%a4@-
   2cc82:	2929 2929      	movel %a1@(10537),%a4@-
   2cc86:	2929 2929      	movel %a1@(10537),%a4@-
   2cc8a:	2929 2929      	movel %a1@(10537),%a4@-
   2cc8e:	2929 2929      	movel %a1@(10537),%a4@-
   2cc92:	2929 2929      	movel %a1@(10537),%a4@-
   2cc96:	2929 2929      	movel %a1@(10537),%a4@-
   2cc9a:	2929 2929      	movel %a1@(10537),%a4@-
   2cc9e:	2929 2929      	movel %a1@(10537),%a4@-
   2cca2:	2929 2929      	movel %a1@(10537),%a4@-
   2cca6:	2929 2929      	movel %a1@(10537),%a4@-
   2ccaa:	2929 2929      	movel %a1@(10537),%a4@-
   2ccae:	2929 2929      	movel %a1@(10537),%a4@-
   2ccb2:	2929 2929      	movel %a1@(10537),%a4@-
   2ccb6:	2929 2929      	movel %a1@(10537),%a4@-
   2ccba:	2929 2929      	movel %a1@(10537),%a4@-
   2ccbe:	2929 2929      	movel %a1@(10537),%a4@-
   2ccc2:	2929 2929      	movel %a1@(10537),%a4@-
   2ccc6:	2929 2929      	movel %a1@(10537),%a4@-
   2ccca:	2929 2929      	movel %a1@(10537),%a4@-
   2ccce:	2929 2929      	movel %a1@(10537),%a4@-
   2ccd2:	2929 2929      	movel %a1@(10537),%a4@-
   2ccd6:	2929 2929      	movel %a1@(10537),%a4@-
   2ccda:	2929 2929      	movel %a1@(10537),%a4@-
   2ccde:	2929 2929      	movel %a1@(10537),%a4@-
   2cce2:	2929 2929      	movel %a1@(10537),%a4@-
   2cce6:	2929 2929      	movel %a1@(10537),%a4@-
   2ccea:	2929 2929      	movel %a1@(10537),%a4@-
   2ccee:	2929 2929      	movel %a1@(10537),%a4@-
   2ccf2:	2929 2929      	movel %a1@(10537),%a4@-
   2ccf6:	2f2f 2d2d      	movel %sp@(11565),%sp@-
   2ccfa:	2d2d 2d2d      	movel %a5@(11565),%fp@-
   2ccfe:	2d2d 2d2d      	movel %a5@(11565),%fp@-
   2cd02:	2d2d 2d2d      	movel %a5@(11565),%fp@-
   2cd06:	2d2d 2d2d      	movel %a5@(11565),%fp@-
   2cd0a:	2d2d 1717      	movel %a5@(5911),%fp@-
   2cd0e:	1717           	moveb %sp@,%a3@-
   2cd10:	172d 2d2d      	moveb %a5@(11565),%a3@-
   2cd14:	1717           	moveb %sp@,%a3@-
   2cd16:	1717           	moveb %sp@,%a3@-
   2cd18:	2d2d 2d2d      	movel %a5@(11565),%fp@-
   2cd1c:	0000 0000      	orib #0,%d0
   2cd20:	002f 2f2b 2d2d 	orib #43,%sp@(11565)
   2cd26:	2d2d 2d2d      	movel %a5@(11565),%fp@-
   2cd2a:	2d2d 2d2d      	movel %a5@(11565),%fp@-
   2cd2e:	2d2d 2d17      	movel %a5@(11543),%fp@-
   2cd32:	172d 2d2d      	moveb %a5@(11565),%a3@-
   2cd36:	1717           	moveb %sp@,%a3@-
   2cd38:	1717           	moveb %sp@,%a3@-
   2cd3a:	2d2d 2d17      	movel %a5@(11543),%fp@-
   2cd3e:	1717           	moveb %sp@,%a3@-
   2cd40:	172d 2d2d      	moveb %a5@(11565),%a3@-
   2cd44:	0000 0000      	orib #0,%d0
   2cd48:	002f 2f2b 2d2d 	orib #43,%sp@(11565)
   2cd4e:	2d2d 2d2d      	movel %a5@(11565),%fp@-
   2cd52:	2d2d 2d2d      	movel %a5@(11565),%fp@-
   2cd56:	2d2d 2d17      	movel %a5@(11543),%fp@-
   2cd5a:	172d 2d2d      	moveb %a5@(11565),%a3@-
   2cd5e:	1717           	moveb %sp@,%a3@-
   2cd60:	1717           	moveb %sp@,%a3@-
   2cd62:	2d2d 2d17      	movel %a5@(11543),%fp@-
   2cd66:	1717           	moveb %sp@,%a3@-
   2cd68:	172d 2d2d      	moveb %a5@(11565),%a3@-
   2cd6c:	0000 0000      	orib #0,%d0
   2cd70:	002f 2f2b 2d2d 	orib #43,%sp@(11565)
   2cd76:	2d2d 0c29      	movel %a5@(3113),%fp@-
   2cd7a:	2929 2929      	movel %a1@(10537),%a4@-
   2cd7e:	2929 2929      	movel %a1@(10537),%a4@-
   2cd82:	2929 2929      	movel %a1@(10537),%a4@-
   2cd86:	2929 2929      	movel %a1@(10537),%a4@-
   2cd8a:	2929 2929      	movel %a1@(10537),%a4@-
   2cd8e:	2929 2929      	movel %a1@(10537),%a4@-
   2cd92:	2929 2929      	movel %a1@(10537),%a4@-
   2cd96:	2929 2929      	movel %a1@(10537),%a4@-
   2cd9a:	2929 2929      	movel %a1@(10537),%a4@-
   2cd9e:	2929 2929      	movel %a1@(10537),%a4@-
   2cda2:	2929 2929      	movel %a1@(10537),%a4@-
   2cda6:	2929 2929      	movel %a1@(10537),%a4@-
   2cdaa:	2929 2929      	movel %a1@(10537),%a4@-
   2cdae:	2929 2929      	movel %a1@(10537),%a4@-
   2cdb2:	2929 2929      	movel %a1@(10537),%a4@-
   2cdb6:	2929 2929      	movel %a1@(10537),%a4@-
   2cdba:	2929 2929      	movel %a1@(10537),%a4@-
   2cdbe:	2929 2929      	movel %a1@(10537),%a4@-
   2cdc2:	2929 2929      	movel %a1@(10537),%a4@-
   2cdc6:	2929 2929      	movel %a1@(10537),%a4@-
   2cdca:	2929 2929      	movel %a1@(10537),%a4@-
   2cdce:	2929 2929      	movel %a1@(10537),%a4@-
   2cdd2:	2929 2929      	movel %a1@(10537),%a4@-
   2cdd6:	2929 2929      	movel %a1@(10537),%a4@-
   2cdda:	2929 2929      	movel %a1@(10537),%a4@-
   2cdde:	2929 2929      	movel %a1@(10537),%a4@-
   2cde2:	2929 2929      	movel %a1@(10537),%a4@-
   2cde6:	2929 2929      	movel %a1@(10537),%a4@-
   2cdea:	2929 2929      	movel %a1@(10537),%a4@-
   2cdee:	2929 2929      	movel %a1@(10537),%a4@-
   2cdf2:	2929 2929      	movel %a1@(10537),%a4@-
   2cdf6:	2929 2929      	movel %a1@(10537),%a4@-
   2cdfa:	2929 2929      	movel %a1@(10537),%a4@-
   2cdfe:	2929 2929      	movel %a1@(10537),%a4@-
   2ce02:	2929 2929      	movel %a1@(10537),%a4@-
   2ce06:	2929 2929      	movel %a1@(10537),%a4@-
   2ce0a:	2929 2929      	movel %a1@(10537),%a4@-
   2ce0e:	2929 2929      	movel %a1@(10537),%a4@-
   2ce12:	2929 2929      	movel %a1@(10537),%a4@-
   2ce16:	2929 2929      	movel %a1@(10537),%a4@-
   2ce1a:	2929 2929      	movel %a1@(10537),%a4@-
   2ce1e:	2929 2929      	movel %a1@(10537),%a4@-
   2ce22:	2929 2929      	movel %a1@(10537),%a4@-
   2ce26:	2929 2929      	movel %a1@(10537),%a4@-
   2ce2a:	2929 2929      	movel %a1@(10537),%a4@-
   2ce2e:	2929 2929      	movel %a1@(10537),%a4@-
   2ce32:	2929 2929      	movel %a1@(10537),%a4@-
   2ce36:	2f2f 2d2d      	movel %sp@(11565),%sp@-
   2ce3a:	2d2d 2d2d      	movel %a5@(11565),%fp@-
   2ce3e:	2d2d 2d2d      	movel %a5@(11565),%fp@-
   2ce42:	2d2d 2d2d      	movel %a5@(11565),%fp@-
   2ce46:	2d2d 2d2d      	movel %a5@(11565),%fp@-
   2ce4a:	2d2d 2d2d      	movel %a5@(11565),%fp@-
   2ce4e:	2d2d 1717      	movel %a5@(5911),%fp@-
   2ce52:	2d17           	movel %sp@,%fp@-
   2ce54:	172d 2d17      	moveb %a5@(11543),%a3@-
   2ce58:	172d 2d2d      	moveb %a5@(11565),%a3@-
   2ce5c:	006c 6c6c 6c6c 	oriw #27756,%a4@(27756)
   2ce62:	6c29           	bges 2ce8d <picData+0xce39>
   2ce64:	2d2d 2d2d      	movel %a5@(11565),%fp@-
   2ce68:	2d2d 2d2d      	movel %a5@(11565),%fp@-
   2ce6c:	2d2d 2d2d      	movel %a5@(11565),%fp@-
   2ce70:	1717           	moveb %sp@,%a3@-
   2ce72:	172d 2d17      	moveb %a5@(11543),%a3@-
   2ce76:	172d 2d17      	moveb %a5@(11543),%a3@-
   2ce7a:	172d 1717      	moveb %a5@(5911),%a3@-
   2ce7e:	2d2d 1717      	movel %a5@(5911),%fp@-
   2ce82:	2d2d 006c      	movel %a5@(108),%fp@-
   2ce86:	6c6c           	bges 2cef4 <picData+0xcea0>
   2ce88:	6c6c           	bges 2cef6 <picData+0xcea2>
   2ce8a:	6c29           	bges 2ceb5 <picData+0xce61>
   2ce8c:	2d2d 2d2d      	movel %a5@(11565),%fp@-
   2ce90:	2d2d 2d2d      	movel %a5@(11565),%fp@-
   2ce94:	2d2d 2d2d      	movel %a5@(11565),%fp@-
   2ce98:	1717           	moveb %sp@,%a3@-
   2ce9a:	172d 2d17      	moveb %a5@(11543),%a3@-
   2ce9e:	172d 2d17      	moveb %a5@(11543),%a3@-
   2cea2:	172d 1717      	moveb %a5@(5911),%a3@-
   2cea6:	2d2d 1717      	movel %a5@(5911),%fp@-
   2ceaa:	2d2d 006c      	movel %a5@(108),%fp@-
   2ceae:	6c6c           	bges 2cf1c <picData+0xcec8>
   2ceb0:	6c6c           	bges 2cf1e <picData+0xceca>
   2ceb2:	6c29           	bges 2cedd <picData+0xce89>
   2ceb4:	2d2d 2d2d      	movel %a5@(11565),%fp@-
   2ceb8:	0c29 2929 2929 	cmpib #41,%a1@(10537)
   2cebe:	2929 2929      	movel %a1@(10537),%a4@-
   2cec2:	2929 2929      	movel %a1@(10537),%a4@-
   2cec6:	2929 2929      	movel %a1@(10537),%a4@-
   2ceca:	2929 2929      	movel %a1@(10537),%a4@-
   2cece:	2929 2929      	movel %a1@(10537),%a4@-
   2ced2:	2929 2929      	movel %a1@(10537),%a4@-
   2ced6:	2929 2929      	movel %a1@(10537),%a4@-
   2ceda:	2929 2929      	movel %a1@(10537),%a4@-
   2cede:	2929 2929      	movel %a1@(10537),%a4@-
   2cee2:	2929 2929      	movel %a1@(10537),%a4@-
   2cee6:	2929 2929      	movel %a1@(10537),%a4@-
   2ceea:	2929 2929      	movel %a1@(10537),%a4@-
   2ceee:	2929 2929      	movel %a1@(10537),%a4@-
   2cef2:	2929 2929      	movel %a1@(10537),%a4@-
   2cef6:	2929 2929      	movel %a1@(10537),%a4@-
   2cefa:	2929 2929      	movel %a1@(10537),%a4@-
   2cefe:	2929 2929      	movel %a1@(10537),%a4@-
   2cf02:	2929 2929      	movel %a1@(10537),%a4@-
   2cf06:	2929 2929      	movel %a1@(10537),%a4@-
   2cf0a:	2929 2929      	movel %a1@(10537),%a4@-
   2cf0e:	2929 2929      	movel %a1@(10537),%a4@-
   2cf12:	2929 2929      	movel %a1@(10537),%a4@-
   2cf16:	2929 2929      	movel %a1@(10537),%a4@-
   2cf1a:	2929 2929      	movel %a1@(10537),%a4@-
   2cf1e:	2929 2929      	movel %a1@(10537),%a4@-
   2cf22:	2929 2929      	movel %a1@(10537),%a4@-
   2cf26:	2929 2929      	movel %a1@(10537),%a4@-
   2cf2a:	2929 2929      	movel %a1@(10537),%a4@-
   2cf2e:	2929 2929      	movel %a1@(10537),%a4@-
   2cf32:	2929 2929      	movel %a1@(10537),%a4@-
   2cf36:	2929 2929      	movel %a1@(10537),%a4@-
   2cf3a:	2929 2929      	movel %a1@(10537),%a4@-
   2cf3e:	2929 2929      	movel %a1@(10537),%a4@-
   2cf42:	2929 2929      	movel %a1@(10537),%a4@-
   2cf46:	2929 2929      	movel %a1@(10537),%a4@-
   2cf4a:	2929 2929      	movel %a1@(10537),%a4@-
   2cf4e:	2929 2929      	movel %a1@(10537),%a4@-
   2cf52:	2929 2929      	movel %a1@(10537),%a4@-
   2cf56:	2929 2929      	movel %a1@(10537),%a4@-
   2cf5a:	2929 2929      	movel %a1@(10537),%a4@-
   2cf5e:	2929 2929      	movel %a1@(10537),%a4@-
   2cf62:	2929 2929      	movel %a1@(10537),%a4@-
   2cf66:	2929 2929      	movel %a1@(10537),%a4@-
   2cf6a:	2929 2929      	movel %a1@(10537),%a4@-
   2cf6e:	2929 2929      	movel %a1@(10537),%a4@-
   2cf72:	2929 2929      	movel %a1@(10537),%a4@-
   2cf76:	2f2f 2d2d      	movel %sp@(11565),%sp@-
   2cf7a:	2d2d 2d2d      	movel %a5@(11565),%fp@-
   2cf7e:	2d2d 2d2d      	movel %a5@(11565),%fp@-
   2cf82:	2d2d 2d2d      	movel %a5@(11565),%fp@-
   2cf86:	2d2d 2d2d      	movel %a5@(11565),%fp@-
   2cf8a:	2d2d 2d2d      	movel %a5@(11565),%fp@-
   2cf8e:	1717           	moveb %sp@,%a3@-
   2cf90:	172d 2d2d      	moveb %a5@(11565),%a3@-
   2cf94:	2d2d 2d17      	movel %a5@(11543),%fp@-
   2cf98:	172d 2d2d      	moveb %a5@(11565),%a3@-
   2cf9c:	006c 6c6c 6c6c 	oriw #27756,%a4@(27756)
   2cfa2:	6c27           	bges 2cfcb <picData+0xcf77>
   2cfa4:	2d2d 2d2d      	movel %a5@(11565),%fp@-
   2cfa8:	2d2d 2d2d      	movel %a5@(11565),%fp@-
   2cfac:	2d2d 2d2d      	movel %a5@(11565),%fp@-
   2cfb0:	2d17           	movel %sp@,%fp@-
   2cfb2:	172d 2d17      	moveb %a5@(11543),%a3@-
   2cfb6:	172d 2d17      	moveb %a5@(11543),%a3@-
   2cfba:	172d 1717      	moveb %a5@(5911),%a3@-
   2cfbe:	2d2d 1717      	movel %a5@(5911),%fp@-
   2cfc2:	2d2d 006c      	movel %a5@(108),%fp@-
   2cfc6:	6c6c           	bges 2d034 <picData+0xcfe0>
   2cfc8:	6c6c           	bges 2d036 <picData+0xcfe2>
   2cfca:	6c27           	bges 2cff3 <picData+0xcf9f>
   2cfcc:	2d2d 2d2d      	movel %a5@(11565),%fp@-
   2cfd0:	2d2d 2d2d      	movel %a5@(11565),%fp@-
   2cfd4:	2d2d 2d2d      	movel %a5@(11565),%fp@-
   2cfd8:	2d17           	movel %sp@,%fp@-
   2cfda:	172d 2d17      	moveb %a5@(11543),%a3@-
   2cfde:	172d 2d17      	moveb %a5@(11543),%a3@-
   2cfe2:	172d 1717      	moveb %a5@(5911),%a3@-
   2cfe6:	2d2d 1717      	movel %a5@(5911),%fp@-
   2cfea:	2d2d 006c      	movel %a5@(108),%fp@-
   2cfee:	6c6c           	bges 2d05c <picData+0xd008>
   2cff0:	6c6c           	bges 2d05e <picData+0xd00a>
   2cff2:	6c27           	bges 2d01b <picData+0xcfc7>
   2cff4:	2d2d 2d2d      	movel %a5@(11565),%fp@-
   2cff8:	0c29 2929 2929 	cmpib #41,%a1@(10537)
   2cffe:	2929 2929      	movel %a1@(10537),%a4@-
   2d002:	2929 2929      	movel %a1@(10537),%a4@-
   2d006:	2929 2929      	movel %a1@(10537),%a4@-
   2d00a:	2929 2929      	movel %a1@(10537),%a4@-
   2d00e:	2929 2929      	movel %a1@(10537),%a4@-
   2d012:	2929 2929      	movel %a1@(10537),%a4@-
   2d016:	2929 2929      	movel %a1@(10537),%a4@-
   2d01a:	2929 2929      	movel %a1@(10537),%a4@-
   2d01e:	2929 2929      	movel %a1@(10537),%a4@-
   2d022:	2929 2929      	movel %a1@(10537),%a4@-
   2d026:	2929 2929      	movel %a1@(10537),%a4@-
   2d02a:	2929 2929      	movel %a1@(10537),%a4@-
   2d02e:	2929 2929      	movel %a1@(10537),%a4@-
   2d032:	2929 2929      	movel %a1@(10537),%a4@-
   2d036:	2929 2929      	movel %a1@(10537),%a4@-
   2d03a:	2929 2929      	movel %a1@(10537),%a4@-
   2d03e:	2929 2929      	movel %a1@(10537),%a4@-
   2d042:	2929 2929      	movel %a1@(10537),%a4@-
   2d046:	2929 2929      	movel %a1@(10537),%a4@-
   2d04a:	2929 2929      	movel %a1@(10537),%a4@-
   2d04e:	2929 2929      	movel %a1@(10537),%a4@-
   2d052:	2929 2929      	movel %a1@(10537),%a4@-
   2d056:	2929 2929      	movel %a1@(10537),%a4@-
   2d05a:	2929 2929      	movel %a1@(10537),%a4@-
   2d05e:	2929 2929      	movel %a1@(10537),%a4@-
   2d062:	2929 2929      	movel %a1@(10537),%a4@-
   2d066:	2929 2929      	movel %a1@(10537),%a4@-
   2d06a:	2929 2929      	movel %a1@(10537),%a4@-
   2d06e:	2929 2929      	movel %a1@(10537),%a4@-
   2d072:	2929 2929      	movel %a1@(10537),%a4@-
   2d076:	2929 2929      	movel %a1@(10537),%a4@-
   2d07a:	2929 2929      	movel %a1@(10537),%a4@-
   2d07e:	2929 2929      	movel %a1@(10537),%a4@-
   2d082:	2929 2929      	movel %a1@(10537),%a4@-
   2d086:	2929 2929      	movel %a1@(10537),%a4@-
   2d08a:	2929 2929      	movel %a1@(10537),%a4@-
   2d08e:	2929 2929      	movel %a1@(10537),%a4@-
   2d092:	2929 2929      	movel %a1@(10537),%a4@-
   2d096:	2929 2929      	movel %a1@(10537),%a4@-
   2d09a:	2929 2929      	movel %a1@(10537),%a4@-
   2d09e:	2929 2929      	movel %a1@(10537),%a4@-
   2d0a2:	2929 2929      	movel %a1@(10537),%a4@-
   2d0a6:	2929 2929      	movel %a1@(10537),%a4@-
   2d0aa:	2929 2929      	movel %a1@(10537),%a4@-
   2d0ae:	2929 2929      	movel %a1@(10537),%a4@-
   2d0b2:	2929 2929      	movel %a1@(10537),%a4@-
   2d0b6:	2f2f 2d2d      	movel %sp@(11565),%sp@-
   2d0ba:	2d2d 2d2d      	movel %a5@(11565),%fp@-
   2d0be:	2d2d 2d2d      	movel %a5@(11565),%fp@-
   2d0c2:	2d2d 2d2d      	movel %a5@(11565),%fp@-
   2d0c6:	2d2d 2d2d      	movel %a5@(11565),%fp@-
   2d0ca:	2d2d 2d2d      	movel %a5@(11565),%fp@-
   2d0ce:	2d2d 1717      	movel %a5@(5911),%fp@-
   2d0d2:	2d2d 1717      	movel %a5@(5911),%fp@-
   2d0d6:	1717           	moveb %sp@,%a3@-
   2d0d8:	2d2d 2d2d      	movel %a5@(11565),%fp@-
   2d0dc:	006c 6c6c 6c6c 	oriw #27756,%a4@(27756)
   2d0e2:	6c27           	bges 2d10b <picData+0xd0b7>
   2d0e4:	2d2d 2d2d      	movel %a5@(11565),%fp@-
   2d0e8:	2d2d 2d2d      	movel %a5@(11565),%fp@-
   2d0ec:	2d2d 2d2d      	movel %a5@(11565),%fp@-
   2d0f0:	2d17           	movel %sp@,%fp@-
   2d0f2:	172d 2d17      	moveb %a5@(11543),%a3@-
   2d0f6:	172d 2d17      	moveb %a5@(11543),%a3@-
   2d0fa:	172d 1717      	moveb %a5@(5911),%a3@-
   2d0fe:	2d2d 1717      	movel %a5@(5911),%fp@-
   2d102:	2d2d 006c      	movel %a5@(108),%fp@-
   2d106:	6c6c           	bges 2d174 <picData+0xd120>
   2d108:	6c6c           	bges 2d176 <picData+0xd122>
   2d10a:	6c27           	bges 2d133 <picData+0xd0df>
   2d10c:	2d2d 2d2d      	movel %a5@(11565),%fp@-
   2d110:	2d2d 2d2d      	movel %a5@(11565),%fp@-
   2d114:	2d2d 2d2d      	movel %a5@(11565),%fp@-
   2d118:	2d17           	movel %sp@,%fp@-
   2d11a:	172d 2d17      	moveb %a5@(11543),%a3@-
   2d11e:	172d 2d17      	moveb %a5@(11543),%a3@-
   2d122:	172d 1717      	moveb %a5@(5911),%a3@-
   2d126:	2d2d 1717      	movel %a5@(5911),%fp@-
   2d12a:	2d2d 006c      	movel %a5@(108),%fp@-
   2d12e:	6c6c           	bges 2d19c <picData+0xd148>
   2d130:	6c6c           	bges 2d19e <picData+0xd14a>
   2d132:	6c27           	bges 2d15b <picData+0xd107>
   2d134:	2d2d 2d2d      	movel %a5@(11565),%fp@-
   2d138:	0c29 2929 2929 	cmpib #41,%a1@(10537)
   2d13e:	2929 2929      	movel %a1@(10537),%a4@-
   2d142:	2929 2929      	movel %a1@(10537),%a4@-
   2d146:	2929 2929      	movel %a1@(10537),%a4@-
   2d14a:	2929 2929      	movel %a1@(10537),%a4@-
   2d14e:	2929 2929      	movel %a1@(10537),%a4@-
   2d152:	2929 2929      	movel %a1@(10537),%a4@-
   2d156:	2929 2929      	movel %a1@(10537),%a4@-
   2d15a:	2929 2929      	movel %a1@(10537),%a4@-
   2d15e:	2929 2929      	movel %a1@(10537),%a4@-
   2d162:	2929 2929      	movel %a1@(10537),%a4@-
   2d166:	2929 2929      	movel %a1@(10537),%a4@-
   2d16a:	2929 2929      	movel %a1@(10537),%a4@-
   2d16e:	2929 2929      	movel %a1@(10537),%a4@-
   2d172:	2929 2929      	movel %a1@(10537),%a4@-
   2d176:	2929 2929      	movel %a1@(10537),%a4@-
   2d17a:	2929 2929      	movel %a1@(10537),%a4@-
   2d17e:	2929 2929      	movel %a1@(10537),%a4@-
   2d182:	2929 2929      	movel %a1@(10537),%a4@-
   2d186:	2929 2929      	movel %a1@(10537),%a4@-
   2d18a:	2929 2929      	movel %a1@(10537),%a4@-
   2d18e:	2929 2929      	movel %a1@(10537),%a4@-
   2d192:	2929 2929      	movel %a1@(10537),%a4@-
   2d196:	2929 2929      	movel %a1@(10537),%a4@-
   2d19a:	2929 2929      	movel %a1@(10537),%a4@-
   2d19e:	2929 2929      	movel %a1@(10537),%a4@-
   2d1a2:	2929 2929      	movel %a1@(10537),%a4@-
   2d1a6:	2929 2929      	movel %a1@(10537),%a4@-
   2d1aa:	2929 2929      	movel %a1@(10537),%a4@-
   2d1ae:	2929 2929      	movel %a1@(10537),%a4@-
   2d1b2:	2929 2929      	movel %a1@(10537),%a4@-
   2d1b6:	2929 2929      	movel %a1@(10537),%a4@-
   2d1ba:	2929 2929      	movel %a1@(10537),%a4@-
   2d1be:	2929 2929      	movel %a1@(10537),%a4@-
   2d1c2:	2929 2929      	movel %a1@(10537),%a4@-
   2d1c6:	2929 2929      	movel %a1@(10537),%a4@-
   2d1ca:	2929 2929      	movel %a1@(10537),%a4@-
   2d1ce:	2929 2929      	movel %a1@(10537),%a4@-
   2d1d2:	2929 2929      	movel %a1@(10537),%a4@-
   2d1d6:	2929 2929      	movel %a1@(10537),%a4@-
   2d1da:	2929 2929      	movel %a1@(10537),%a4@-
   2d1de:	2929 2929      	movel %a1@(10537),%a4@-
   2d1e2:	2929 2929      	movel %a1@(10537),%a4@-
   2d1e6:	2929 2929      	movel %a1@(10537),%a4@-
   2d1ea:	2929 2929      	movel %a1@(10537),%a4@-
   2d1ee:	2929 2929      	movel %a1@(10537),%a4@-
   2d1f2:	2929 2929      	movel %a1@(10537),%a4@-
   2d1f6:	2f2f 2d2d      	movel %sp@(11565),%sp@-
   2d1fa:	2d2d 2d2d      	movel %a5@(11565),%fp@-
   2d1fe:	2d2d 2d2d      	movel %a5@(11565),%fp@-
   2d202:	2d2d 2d2d      	movel %a5@(11565),%fp@-
   2d206:	2d2d 2d2d      	movel %a5@(11565),%fp@-
   2d20a:	2d2d 2d2d      	movel %a5@(11565),%fp@-
   2d20e:	2d2d 1717      	movel %a5@(5911),%fp@-
   2d212:	2d17           	movel %sp@,%fp@-
   2d214:	172d 2d2d      	moveb %a5@(11565),%a3@-
   2d218:	2d2d 2d2d      	movel %a5@(11565),%fp@-
   2d21c:	2f6c 6c6c 6c6c 	movel %a4@(27756),%sp@(27756)
   2d222:	6c27           	bges 2d24b <picData+0xd1f7>
   2d224:	2d2d 2d2d      	movel %a5@(11565),%fp@-
   2d228:	2d2d 2d2d      	movel %a5@(11565),%fp@-
   2d22c:	2d2d 2d2d      	movel %a5@(11565),%fp@-
   2d230:	2d17           	movel %sp@,%fp@-
   2d232:	172d 2d17      	moveb %a5@(11543),%a3@-
   2d236:	172d 2d17      	moveb %a5@(11543),%a3@-
   2d23a:	172d 1717      	moveb %a5@(5911),%a3@-
   2d23e:	2d2d 1717      	movel %a5@(5911),%fp@-
   2d242:	2d2d 2f6c      	movel %a5@(12140),%fp@-
   2d246:	6c6c           	bges 2d2b4 <picData+0xd260>
   2d248:	6c6c           	bges 2d2b6 <picData+0xd262>
   2d24a:	6c27           	bges 2d273 <picData+0xd21f>
   2d24c:	2d2d 2d2d      	movel %a5@(11565),%fp@-
   2d250:	2d2d 2d2d      	movel %a5@(11565),%fp@-
   2d254:	2d2d 2d2d      	movel %a5@(11565),%fp@-
   2d258:	2d17           	movel %sp@,%fp@-
   2d25a:	172d 2d17      	moveb %a5@(11543),%a3@-
   2d25e:	172d 2d17      	moveb %a5@(11543),%a3@-
   2d262:	172d 1717      	moveb %a5@(5911),%a3@-
   2d266:	2d2d 1717      	movel %a5@(5911),%fp@-
   2d26a:	2d2d 2f6c      	movel %a5@(12140),%fp@-
   2d26e:	6c6c           	bges 2d2dc <picData+0xd288>
   2d270:	6c6c           	bges 2d2de <picData+0xd28a>
   2d272:	6c27           	bges 2d29b <picData+0xd247>
   2d274:	2d2d 2d2d      	movel %a5@(11565),%fp@-
   2d278:	0c29 2929 2929 	cmpib #41,%a1@(10537)
   2d27e:	2929 2929      	movel %a1@(10537),%a4@-
   2d282:	2929 2929      	movel %a1@(10537),%a4@-
   2d286:	2929 2f2f      	movel %a1@(12079),%a4@-
   2d28a:	2f2f 2f2f      	movel %sp@(12079),%sp@-
   2d28e:	2f2f 2f2f      	movel %sp@(12079),%sp@-
   2d292:	2f2f 2f2f      	movel %sp@(12079),%sp@-
   2d296:	2f2f 2f2f      	movel %sp@(12079),%sp@-
   2d29a:	2f2f 2f2f      	movel %sp@(12079),%sp@-
   2d29e:	2f2f 2f2f      	movel %sp@(12079),%sp@-
   2d2a2:	2f2f 2f2f      	movel %sp@(12079),%sp@-
   2d2a6:	2f2f 2f2f      	movel %sp@(12079),%sp@-
   2d2aa:	2f2f 2f2f      	movel %sp@(12079),%sp@-
   2d2ae:	2f2f 2f2f      	movel %sp@(12079),%sp@-
   2d2b2:	2f2f 2f2f      	movel %sp@(12079),%sp@-
   2d2b6:	2f2f 2f2f      	movel %sp@(12079),%sp@-
   2d2ba:	2f2f 2f2f      	movel %sp@(12079),%sp@-
   2d2be:	2f2f 2f2f      	movel %sp@(12079),%sp@-
   2d2c2:	2f2f 2f2f      	movel %sp@(12079),%sp@-
   2d2c6:	2f2f 2f2f      	movel %sp@(12079),%sp@-
   2d2ca:	2f2f 2f2f      	movel %sp@(12079),%sp@-
   2d2ce:	2f2f 2f2f      	movel %sp@(12079),%sp@-
   2d2d2:	2f2f 2f2f      	movel %sp@(12079),%sp@-
   2d2d6:	2f2f 2f2f      	movel %sp@(12079),%sp@-
   2d2da:	2f2f 2f2f      	movel %sp@(12079),%sp@-
   2d2de:	2f2f 2f2f      	movel %sp@(12079),%sp@-
   2d2e2:	2e2e 2e2e      	movel %fp@(11822),%d7
   2d2e6:	2e2e 2e2e      	movel %fp@(11822),%d7
   2d2ea:	2e2e 2e2e      	movel %fp@(11822),%d7
   2d2ee:	2e2e 2e2e      	movel %fp@(11822),%d7
   2d2f2:	2e2e 2e2e      	movel %fp@(11822),%d7
   2d2f6:	2e2e 2e2e      	movel %fp@(11822),%d7
   2d2fa:	2e2e 2e2e      	movel %fp@(11822),%d7
   2d2fe:	2e2e 2e2e      	movel %fp@(11822),%d7
   2d302:	2e2e 2e2e      	movel %fp@(11822),%d7
   2d306:	2e2e 2e2e      	movel %fp@(11822),%d7
   2d30a:	2d2d 2d2d      	movel %a5@(11565),%fp@-
   2d30e:	2d2d 2d2d      	movel %a5@(11565),%fp@-
   2d312:	2d2d 2d2d      	movel %a5@(11565),%fp@-
   2d316:	2d2d 2d2d      	movel %a5@(11565),%fp@-
   2d31a:	2d2c 2c2c      	movel %a4@(11308),%fp@-
   2d31e:	2c2c 2c26      	movel %a4@(11302),%d6
   2d322:	2929 2929      	movel %a1@(10537),%a4@-
   2d326:	2929 2929      	movel %a1@(10537),%a4@-
   2d32a:	2929 2929      	movel %a1@(10537),%a4@-
   2d32e:	2929 2929      	movel %a1@(10537),%a4@-
   2d332:	2929 2929      	movel %a1@(10537),%a4@-
   2d336:	2f2f 2d2d      	movel %sp@(11565),%sp@-
   2d33a:	2d2d 2d2d      	movel %a5@(11565),%fp@-
   2d33e:	2d2d 2d2d      	movel %a5@(11565),%fp@-
   2d342:	2d2d 2d2d      	movel %a5@(11565),%fp@-
   2d346:	2d2d 2d2d      	movel %a5@(11565),%fp@-
   2d34a:	2d2d 1717      	movel %a5@(5911),%fp@-
   2d34e:	1717           	moveb %sp@,%a3@-
   2d350:	172d 2d17      	moveb %a5@(11543),%a3@-
   2d354:	1717           	moveb %sp@,%a3@-
   2d356:	1717           	moveb %sp@,%a3@-
   2d358:	172d 2d2d      	moveb %a5@(11565),%a3@-
   2d35c:	2f6c 6c6c 6c6c 	movel %a4@(27756),%sp@(27756)
   2d362:	6c25           	bges 2d389 <picData+0xd335>
   2d364:	2d2d 2d2d      	movel %a5@(11565),%fp@-
   2d368:	2d2d 2d2d      	movel %a5@(11565),%fp@-
   2d36c:	2d2d 2d2d      	movel %a5@(11565),%fp@-
   2d370:	1717           	moveb %sp@,%a3@-
   2d372:	1717           	moveb %sp@,%a3@-
   2d374:	2d2d 1717      	movel %a5@(5911),%fp@-
   2d378:	1717           	moveb %sp@,%a3@-
   2d37a:	2d2d 2d17      	movel %a5@(11543),%fp@-
   2d37e:	1717           	moveb %sp@,%a3@-
   2d380:	172d 2d2d      	moveb %a5@(11565),%a3@-
   2d384:	2f6c 6c6c 6c6c 	movel %a4@(27756),%sp@(27756)
   2d38a:	6c25           	bges 2d3b1 <picData+0xd35d>
   2d38c:	2d2d 2d2d      	movel %a5@(11565),%fp@-
   2d390:	2d2d 2d2d      	movel %a5@(11565),%fp@-
   2d394:	2d2d 2d2d      	movel %a5@(11565),%fp@-
   2d398:	1717           	moveb %sp@,%a3@-
   2d39a:	1717           	moveb %sp@,%a3@-
   2d39c:	2d2d 1717      	movel %a5@(5911),%fp@-
   2d3a0:	1717           	moveb %sp@,%a3@-
   2d3a2:	2d2d 2d17      	movel %a5@(11543),%fp@-
   2d3a6:	1717           	moveb %sp@,%a3@-
   2d3a8:	172d 2d2d      	moveb %a5@(11565),%a3@-
   2d3ac:	2f6c 6c6c 6c6c 	movel %a4@(27756),%sp@(27756)
   2d3b2:	6c25           	bges 2d3d9 <picData+0xd385>
   2d3b4:	2d2d 2d2d      	movel %a5@(11565),%fp@-
   2d3b8:	0c29 2929 2929 	cmpib #41,%a1@(10537)
   2d3be:	2929 2929      	movel %a1@(10537),%a4@-
   2d3c2:	2929 2929      	movel %a1@(10537),%a4@-
   2d3c6:	2929 2f2f      	movel %a1@(12079),%a4@-
   2d3ca:	2f2f 2f2f      	movel %sp@(12079),%sp@-
   2d3ce:	2f2f 2f2f      	movel %sp@(12079),%sp@-
   2d3d2:	2f2f 2f2f      	movel %sp@(12079),%sp@-
   2d3d6:	2f2f 2f2f      	movel %sp@(12079),%sp@-
   2d3da:	2f2f 2f2f      	movel %sp@(12079),%sp@-
   2d3de:	2f2f 2f2f      	movel %sp@(12079),%sp@-
   2d3e2:	2f2f 2f2f      	movel %sp@(12079),%sp@-
   2d3e6:	2f2f 2f2f      	movel %sp@(12079),%sp@-
   2d3ea:	2f2f 2f2f      	movel %sp@(12079),%sp@-
   2d3ee:	2f2f 2f2f      	movel %sp@(12079),%sp@-
   2d3f2:	2f2f 2f2f      	movel %sp@(12079),%sp@-
   2d3f6:	2f2f 2f2f      	movel %sp@(12079),%sp@-
   2d3fa:	2f2f 2f2f      	movel %sp@(12079),%sp@-
   2d3fe:	2f2f 2f2f      	movel %sp@(12079),%sp@-
   2d402:	2f2f 2f2f      	movel %sp@(12079),%sp@-
   2d406:	2f2f 2f2f      	movel %sp@(12079),%sp@-
   2d40a:	2f2f 2f2f      	movel %sp@(12079),%sp@-
   2d40e:	2f2f 2f2f      	movel %sp@(12079),%sp@-
   2d412:	2f2f 2f2f      	movel %sp@(12079),%sp@-
   2d416:	2f2f 2f2f      	movel %sp@(12079),%sp@-
   2d41a:	2f2f 2f2f      	movel %sp@(12079),%sp@-
   2d41e:	2f2f 2f2f      	movel %sp@(12079),%sp@-
   2d422:	2f2f 2f2f      	movel %sp@(12079),%sp@-
   2d426:	2f2f 2f2f      	movel %sp@(12079),%sp@-
   2d42a:	2f2f 2f2f      	movel %sp@(12079),%sp@-
   2d42e:	2f2f 2f2f      	movel %sp@(12079),%sp@-
   2d432:	2f2f 2f2f      	movel %sp@(12079),%sp@-
   2d436:	2f2f 2f2f      	movel %sp@(12079),%sp@-
   2d43a:	2f2f 2f2f      	movel %sp@(12079),%sp@-
   2d43e:	2f2f 2f2f      	movel %sp@(12079),%sp@-
   2d442:	2f2f 2f2f      	movel %sp@(12079),%sp@-
   2d446:	2f2f 2f2f      	movel %sp@(12079),%sp@-
   2d44a:	2f2f 2f2f      	movel %sp@(12079),%sp@-
   2d44e:	2f2f 2f2f      	movel %sp@(12079),%sp@-
   2d452:	2f2f 2f2f      	movel %sp@(12079),%sp@-
   2d456:	2f2f 2f2f      	movel %sp@(12079),%sp@-
   2d45a:	2f2f 2f2f      	movel %sp@(12079),%sp@-
   2d45e:	2f2f 2f23      	movel %sp@(12067),%sp@-
   2d462:	2929 2929      	movel %a1@(10537),%a4@-
   2d466:	2929 2929      	movel %a1@(10537),%a4@-
   2d46a:	2929 2929      	movel %a1@(10537),%a4@-
   2d46e:	2929 2929      	movel %a1@(10537),%a4@-
   2d472:	2929 2929      	movel %a1@(10537),%a4@-
   2d476:	2f2f 2d2d      	movel %sp@(11565),%sp@-
   2d47a:	2d2d 2d2d      	movel %a5@(11565),%fp@-
   2d47e:	2d2d 2d2d      	movel %a5@(11565),%fp@-
   2d482:	2d2d 2d2d      	movel %a5@(11565),%fp@-
   2d486:	2d2d 2d2d      	movel %a5@(11565),%fp@-
   2d48a:	2d2d 2d2d      	movel %a5@(11565),%fp@-
   2d48e:	2d2d 2d2d      	movel %a5@(11565),%fp@-
   2d492:	2d2d 2d2d      	movel %a5@(11565),%fp@-
   2d496:	2d2d 2d2d      	movel %a5@(11565),%fp@-
   2d49a:	2d2d 2b29      	movel %a5@(11049),%fp@-
   2d49e:	2727           	movel %sp@-,%a3@-
   2d4a0:	2727           	movel %sp@-,%a3@-
   2d4a2:	2522           	movel %a2@-,%a2@-
   2d4a4:	2d2d 2d2d      	movel %a5@(11565),%fp@-
   2d4a8:	2d2d 2d2d      	movel %a5@(11565),%fp@-
   2d4ac:	2d2d 2d2d      	movel %a5@(11565),%fp@-
   2d4b0:	2d2d 2d2d      	movel %a5@(11565),%fp@-
   2d4b4:	2d2d 2d2d      	movel %a5@(11565),%fp@-
   2d4b8:	2d2d 2d2d      	movel %a5@(11565),%fp@-
   2d4bc:	2d2d 2d2d      	movel %a5@(11565),%fp@-
   2d4c0:	2d2d 2d2d      	movel %a5@(11565),%fp@-
   2d4c4:	2b29 2727      	movel %a1@(10023),%a5@-
   2d4c8:	2727           	movel %sp@-,%a3@-
   2d4ca:	2522           	movel %a2@-,%a2@-
   2d4cc:	2d2d 2d2d      	movel %a5@(11565),%fp@-
   2d4d0:	2d2d 2d2d      	movel %a5@(11565),%fp@-
   2d4d4:	2d2d 2d2d      	movel %a5@(11565),%fp@-
   2d4d8:	2d2d 2d2d      	movel %a5@(11565),%fp@-
   2d4dc:	2d2d 2d2d      	movel %a5@(11565),%fp@-
   2d4e0:	2d2d 2d2d      	movel %a5@(11565),%fp@-
   2d4e4:	2d2d 2d2d      	movel %a5@(11565),%fp@-
   2d4e8:	2d2d 2d2d      	movel %a5@(11565),%fp@-
   2d4ec:	2b29 2727      	movel %a1@(10023),%a5@-
   2d4f0:	2727           	movel %sp@-,%a3@-
   2d4f2:	2522           	movel %a2@-,%a2@-
   2d4f4:	2d2d 2d2d      	movel %a5@(11565),%fp@-
   2d4f8:	0c29 2929 2929 	cmpib #41,%a1@(10537)
   2d4fe:	2929 2929      	movel %a1@(10537),%a4@-
   2d502:	2929 2929      	movel %a1@(10537),%a4@-
   2d506:	2929 2f2f      	movel %a1@(12079),%a4@-
   2d50a:	2d2d 2d2d      	movel %a5@(11565),%fp@-
   2d50e:	2d2d 2d2d      	movel %a5@(11565),%fp@-
   2d512:	2d2d 2d2d      	movel %a5@(11565),%fp@-
   2d516:	2d2d 2d2d      	movel %a5@(11565),%fp@-
   2d51a:	2d2d 2d2d      	movel %a5@(11565),%fp@-
   2d51e:	2d2d 2d2d      	movel %a5@(11565),%fp@-
   2d522:	2d2d 2d2d      	movel %a5@(11565),%fp@-
   2d526:	2d2d 2d2d      	movel %a5@(11565),%fp@-
   2d52a:	2d2d 2d2d      	movel %a5@(11565),%fp@-
   2d52e:	2d2d 2d2d      	movel %a5@(11565),%fp@-
   2d532:	2d2d 2d2d      	movel %a5@(11565),%fp@-
   2d536:	2d2d 2d2d      	movel %a5@(11565),%fp@-
   2d53a:	2d2d 2d2d      	movel %a5@(11565),%fp@-
   2d53e:	2d2d 2d2d      	movel %a5@(11565),%fp@-
   2d542:	2d2d 2d2d      	movel %a5@(11565),%fp@-
   2d546:	2d2d 2d2d      	movel %a5@(11565),%fp@-
   2d54a:	2d2d 2d2d      	movel %a5@(11565),%fp@-
   2d54e:	2d2d 2d2d      	movel %a5@(11565),%fp@-
   2d552:	2d2d 2d2d      	movel %a5@(11565),%fp@-
   2d556:	2d2d 2d2d      	movel %a5@(11565),%fp@-
   2d55a:	2d2d 2d2d      	movel %a5@(11565),%fp@-
   2d55e:	2d2d 2d2d      	movel %a5@(11565),%fp@-
   2d562:	2d2d 2d2d      	movel %a5@(11565),%fp@-
   2d566:	2d2d 2d2d      	movel %a5@(11565),%fp@-
   2d56a:	2d2d 2d2d      	movel %a5@(11565),%fp@-
   2d56e:	2d2d 2d2d      	movel %a5@(11565),%fp@-
   2d572:	2d2d 2d2d      	movel %a5@(11565),%fp@-
   2d576:	2d2d 2d2d      	movel %a5@(11565),%fp@-
   2d57a:	2d2d 2d2d      	movel %a5@(11565),%fp@-
   2d57e:	2d2d 2d2d      	movel %a5@(11565),%fp@-
   2d582:	2d2d 2d2d      	movel %a5@(11565),%fp@-
   2d586:	2d2d 2d2d      	movel %a5@(11565),%fp@-
   2d58a:	2d2d 2d2d      	movel %a5@(11565),%fp@-
   2d58e:	2d2d 2d2d      	movel %a5@(11565),%fp@-
   2d592:	2d2d 2d2d      	movel %a5@(11565),%fp@-
   2d596:	2d2d 2d2d      	movel %a5@(11565),%fp@-
   2d59a:	2d2d 2d2d      	movel %a5@(11565),%fp@-
   2d59e:	2d2d 2d20      	movel %a5@(11552),%fp@-
   2d5a2:	2929 2929      	movel %a1@(10537),%a4@-
   2d5a6:	2929 2929      	movel %a1@(10537),%a4@-
   2d5aa:	2929 2929      	movel %a1@(10537),%a4@-
   2d5ae:	2929 2929      	movel %a1@(10537),%a4@-
   2d5b2:	2929 2929      	movel %a1@(10537),%a4@-
   2d5b6:	2f2f 2d2d      	movel %sp@(11565),%sp@-
   2d5ba:	2d2d 2d2d      	movel %a5@(11565),%fp@-
   2d5be:	2d2d 2d2d      	movel %a5@(11565),%fp@-
   2d5c2:	2d2d 2d2d      	movel %a5@(11565),%fp@-
   2d5c6:	2d2d 2d2d      	movel %a5@(11565),%fp@-
   2d5ca:	2d2d 2d2d      	movel %a5@(11565),%fp@-
   2d5ce:	2d2d 2d2d      	movel %a5@(11565),%fp@-
   2d5d2:	2d2d 2d2d      	movel %a5@(11565),%fp@-
   2d5d6:	2d2d 2d2d      	movel %a5@(11565),%fp@-
   2d5da:	2d2d 2d2d      	movel %a5@(11565),%fp@-
   2d5de:	2d2d 2d2d      	movel %a5@(11565),%fp@-
   2d5e2:	2d2d 2d2d      	movel %a5@(11565),%fp@-
   2d5e6:	2d2d 2d2d      	movel %a5@(11565),%fp@-
   2d5ea:	2d2d 2d2d      	movel %a5@(11565),%fp@-
   2d5ee:	2d2d 2d2d      	movel %a5@(11565),%fp@-
   2d5f2:	2d2d 2d2d      	movel %a5@(11565),%fp@-
   2d5f6:	2d2d 2d2d      	movel %a5@(11565),%fp@-
   2d5fa:	2d2d 2d2d      	movel %a5@(11565),%fp@-
   2d5fe:	2d2d 2d2d      	movel %a5@(11565),%fp@-
   2d602:	2d2d 2d2d      	movel %a5@(11565),%fp@-
   2d606:	2d2d 2d2d      	movel %a5@(11565),%fp@-
   2d60a:	2d2d 2d2d      	movel %a5@(11565),%fp@-
   2d60e:	2d2d 2d2d      	movel %a5@(11565),%fp@-
   2d612:	2d2d 2d2d      	movel %a5@(11565),%fp@-
   2d616:	2d2d 2d2d      	movel %a5@(11565),%fp@-
   2d61a:	2d2d 2d2d      	movel %a5@(11565),%fp@-
   2d61e:	2d2d 2d2d      	movel %a5@(11565),%fp@-
   2d622:	2d2d 2d2d      	movel %a5@(11565),%fp@-
   2d626:	2d2d 2d2d      	movel %a5@(11565),%fp@-
   2d62a:	2d2d 2d2d      	movel %a5@(11565),%fp@-
   2d62e:	2d2d 2d2d      	movel %a5@(11565),%fp@-
   2d632:	2d2d 2d2d      	movel %a5@(11565),%fp@-
   2d636:	2d2d 0c29      	movel %a5@(3113),%fp@-
   2d63a:	2929 2929      	movel %a1@(10537),%a4@-
   2d63e:	2929 2929      	movel %a1@(10537),%a4@-
   2d642:	2929 2929      	movel %a1@(10537),%a4@-
   2d646:	2929 2f2f      	movel %a1@(12079),%a4@-
   2d64a:	2d2d 2d2d      	movel %a5@(11565),%fp@-
   2d64e:	2d2d 2d2d      	movel %a5@(11565),%fp@-
   2d652:	2d2d 2d2d      	movel %a5@(11565),%fp@-
   2d656:	2d2d 2d2d      	movel %a5@(11565),%fp@-
   2d65a:	2d2d 2d2d      	movel %a5@(11565),%fp@-
   2d65e:	2d2d 2d2d      	movel %a5@(11565),%fp@-
   2d662:	2d2d 2d2d      	movel %a5@(11565),%fp@-
   2d666:	2d2d 2d2d      	movel %a5@(11565),%fp@-
   2d66a:	2d2d 2d2d      	movel %a5@(11565),%fp@-
   2d66e:	2d2d 2d2d      	movel %a5@(11565),%fp@-
   2d672:	2d2d 2d2d      	movel %a5@(11565),%fp@-
   2d676:	2d2d 2d2d      	movel %a5@(11565),%fp@-
   2d67a:	2d2d 2d2d      	movel %a5@(11565),%fp@-
   2d67e:	2d2d 2d2d      	movel %a5@(11565),%fp@-
   2d682:	2d2d 2d2d      	movel %a5@(11565),%fp@-
   2d686:	2d2d 2d2d      	movel %a5@(11565),%fp@-
   2d68a:	2d2d 2d2d      	movel %a5@(11565),%fp@-
   2d68e:	2d2d 2d2d      	movel %a5@(11565),%fp@-
   2d692:	2d2d 2d2d      	movel %a5@(11565),%fp@-
   2d696:	2d2d 2d2d      	movel %a5@(11565),%fp@-
   2d69a:	2d2d 2d2d      	movel %a5@(11565),%fp@-
   2d69e:	2d2d 2d2d      	movel %a5@(11565),%fp@-
   2d6a2:	2d2d 2d2d      	movel %a5@(11565),%fp@-
   2d6a6:	2d2d 2d2d      	movel %a5@(11565),%fp@-
   2d6aa:	2d2d 2d2d      	movel %a5@(11565),%fp@-
   2d6ae:	2d2d 2d2d      	movel %a5@(11565),%fp@-
   2d6b2:	2d2d 2d2d      	movel %a5@(11565),%fp@-
   2d6b6:	2d2d 2d2d      	movel %a5@(11565),%fp@-
   2d6ba:	2d2d 2d2d      	movel %a5@(11565),%fp@-
   2d6be:	2d2d 2d2d      	movel %a5@(11565),%fp@-
   2d6c2:	2d2d 2d2d      	movel %a5@(11565),%fp@-
   2d6c6:	2d2d 2d2d      	movel %a5@(11565),%fp@-
   2d6ca:	2d2d 2d2d      	movel %a5@(11565),%fp@-
   2d6ce:	2d2d 2d2d      	movel %a5@(11565),%fp@-
   2d6d2:	2d2d 2d2d      	movel %a5@(11565),%fp@-
   2d6d6:	2d2d 2d2d      	movel %a5@(11565),%fp@-
   2d6da:	2d2d 2d2d      	movel %a5@(11565),%fp@-
   2d6de:	2d2d 2d36      	movel %a5@(11574),%fp@-
   2d6e2:	2929 2929      	movel %a1@(10537),%a4@-
   2d6e6:	2929 2929      	movel %a1@(10537),%a4@-
   2d6ea:	2929 2929      	movel %a1@(10537),%a4@-
   2d6ee:	2929 2929      	movel %a1@(10537),%a4@-
   2d6f2:	2929 2929      	movel %a1@(10537),%a4@-
   2d6f6:	2f2f 2d2d      	movel %sp@(11565),%sp@-
   2d6fa:	2d2d 2d2d      	movel %a5@(11565),%fp@-
   2d6fe:	2d2d 2d2d      	movel %a5@(11565),%fp@-
   2d702:	2d2d 2d2d      	movel %a5@(11565),%fp@-
   2d706:	2d2d 2d2d      	movel %a5@(11565),%fp@-
   2d70a:	2d2d 2d2d      	movel %a5@(11565),%fp@-
   2d70e:	2d2d 2d2d      	movel %a5@(11565),%fp@-
   2d712:	2d2d 2d2d      	movel %a5@(11565),%fp@-
   2d716:	2d2d 2d2d      	movel %a5@(11565),%fp@-
   2d71a:	2d2d 2d2d      	movel %a5@(11565),%fp@-
   2d71e:	2d2d 2d2d      	movel %a5@(11565),%fp@-
   2d722:	2d2d 2d2d      	movel %a5@(11565),%fp@-
   2d726:	2d2d 2d2d      	movel %a5@(11565),%fp@-
   2d72a:	2d2d 2d2d      	movel %a5@(11565),%fp@-
   2d72e:	2d2d 2d2d      	movel %a5@(11565),%fp@-
   2d732:	2d2d 2d2d      	movel %a5@(11565),%fp@-
   2d736:	2d2d 2d2d      	movel %a5@(11565),%fp@-
   2d73a:	2d2d 2d2d      	movel %a5@(11565),%fp@-
   2d73e:	2d2d 2d2d      	movel %a5@(11565),%fp@-
   2d742:	2d2d 2d2d      	movel %a5@(11565),%fp@-
   2d746:	2d2d 2d2d      	movel %a5@(11565),%fp@-
   2d74a:	2d2d 2d2d      	movel %a5@(11565),%fp@-
   2d74e:	2d2d 2d2d      	movel %a5@(11565),%fp@-
   2d752:	2d2d 2d2d      	movel %a5@(11565),%fp@-
   2d756:	2d2d 2d2d      	movel %a5@(11565),%fp@-
   2d75a:	2d2d 2d2d      	movel %a5@(11565),%fp@-
   2d75e:	2d2d 2d2d      	movel %a5@(11565),%fp@-
   2d762:	2d2d 2d2d      	movel %a5@(11565),%fp@-
   2d766:	2d2d 2d2d      	movel %a5@(11565),%fp@-
   2d76a:	2d2d 2d2d      	movel %a5@(11565),%fp@-
   2d76e:	2d2d 2d2d      	movel %a5@(11565),%fp@-
   2d772:	2d2d 2d2d      	movel %a5@(11565),%fp@-
   2d776:	2d2d 0c29      	movel %a5@(3113),%fp@-
   2d77a:	2929 2929      	movel %a1@(10537),%a4@-
   2d77e:	2929 2929      	movel %a1@(10537),%a4@-
   2d782:	2929 2929      	movel %a1@(10537),%a4@-
   2d786:	2929 2f2f      	movel %a1@(12079),%a4@-
   2d78a:	2d2d 2d2d      	movel %a5@(11565),%fp@-
   2d78e:	2d2d 2d2d      	movel %a5@(11565),%fp@-
   2d792:	2d2d 2d2d      	movel %a5@(11565),%fp@-
   2d796:	2d2d 2d2d      	movel %a5@(11565),%fp@-
   2d79a:	2d2d 2d2d      	movel %a5@(11565),%fp@-
   2d79e:	2d2d 2d2d      	movel %a5@(11565),%fp@-
   2d7a2:	2d2d 2d17      	movel %a5@(11543),%fp@-
   2d7a6:	1717           	moveb %sp@,%a3@-
   2d7a8:	1717           	moveb %sp@,%a3@-
   2d7aa:	1717           	moveb %sp@,%a3@-
   2d7ac:	2d2d 2d17      	movel %a5@(11543),%fp@-
   2d7b0:	1717           	moveb %sp@,%a3@-
   2d7b2:	1717           	moveb %sp@,%a3@-
   2d7b4:	1717           	moveb %sp@,%a3@-
   2d7b6:	2d2d 1717      	movel %a5@(5911),%fp@-
   2d7ba:	172d 2d2d      	moveb %a5@(11565),%a3@-
   2d7be:	1717           	moveb %sp@,%a3@-
   2d7c0:	172d 1717      	moveb %a5@(5911),%a3@-
   2d7c4:	172d 2d2d      	moveb %a5@(11565),%a3@-
   2d7c8:	1717           	moveb %sp@,%a3@-
   2d7ca:	172d 1717      	moveb %a5@(5911),%a3@-
   2d7ce:	1717           	moveb %sp@,%a3@-
   2d7d0:	1717           	moveb %sp@,%a3@-
   2d7d2:	1717           	moveb %sp@,%a3@-
   2d7d4:	2d2d 2d2d      	movel %a5@(11565),%fp@-
   2d7d8:	2d2d 2d2d      	movel %a5@(11565),%fp@-
   2d7dc:	1717           	moveb %sp@,%a3@-
   2d7de:	1717           	moveb %sp@,%a3@-
   2d7e0:	1717           	moveb %sp@,%a3@-
   2d7e2:	172d 2d2d      	moveb %a5@(11565),%a3@-
   2d7e6:	1717           	moveb %sp@,%a3@-
   2d7e8:	1717           	moveb %sp@,%a3@-
   2d7ea:	1717           	moveb %sp@,%a3@-
   2d7ec:	172d 2d17      	moveb %a5@(11543),%a3@-
   2d7f0:	1717           	moveb %sp@,%a3@-
   2d7f2:	2d2d 2d17      	movel %a5@(11543),%fp@-
   2d7f6:	1717           	moveb %sp@,%a3@-
   2d7f8:	2d17           	movel %sp@,%fp@-
   2d7fa:	1717           	moveb %sp@,%a3@-
   2d7fc:	1717           	moveb %sp@,%a3@-
   2d7fe:	1717           	moveb %sp@,%a3@-
   2d800:	172d 2d2d      	moveb %a5@(11565),%a3@-
   2d804:	1717           	moveb %sp@,%a3@-
   2d806:	1717           	moveb %sp@,%a3@-
   2d808:	1717           	moveb %sp@,%a3@-
   2d80a:	172d 2d17      	moveb %a5@(11543),%a3@-
   2d80e:	1717           	moveb %sp@,%a3@-
   2d810:	1717           	moveb %sp@,%a3@-
   2d812:	1717           	moveb %sp@,%a3@-
   2d814:	172d 2d2d      	moveb %a5@(11565),%a3@-
   2d818:	2d2d 2d2d      	movel %a5@(11565),%fp@-
   2d81c:	2d2d 2d2d      	movel %a5@(11565),%fp@-
   2d820:	2d36 2929 2929 	movel %fp@(00002929,%d2:l)@(00000000),%fp@-
   2d826:	2929 2929      	movel %a1@(10537),%a4@-
   2d82a:	2929 2929      	movel %a1@(10537),%a4@-
   2d82e:	2929 2929      	movel %a1@(10537),%a4@-
   2d832:	2929 2929      	movel %a1@(10537),%a4@-
   2d836:	2f2f 2d2d      	movel %sp@(11565),%sp@-
   2d83a:	2d2d 2d2d      	movel %a5@(11565),%fp@-
   2d83e:	2d2d 2d2d      	movel %a5@(11565),%fp@-
   2d842:	2d2d 142d      	movel %a5@(5165),%fp@-
   2d846:	2d2d 2d14      	movel %a5@(11540),%fp@-
   2d84a:	2d2d 1414      	movel %a5@(5140),%fp@-
   2d84e:	1414           	moveb %a4@,%d2
   2d850:	2d2d 1414      	movel %a5@(5140),%fp@-
   2d854:	2d14           	movel %a4@,%fp@-
   2d856:	142d 2d14      	moveb %a5@(11540),%d2
   2d85a:	142d 2d2d      	moveb %a5@(11565),%d2
   2d85e:	2d2d 2d2d      	movel %a5@(11565),%fp@-
   2d862:	2d2d 2d2d      	movel %a5@(11565),%fp@-
   2d866:	2d2d 2d2d      	movel %a5@(11565),%fp@-
   2d86a:	2d2d 2d14      	movel %a5@(11540),%fp@-
   2d86e:	1414           	moveb %a4@,%d2
   2d870:	1414           	moveb %a4@,%d2
   2d872:	142d 142d      	moveb %a5@(5165),%d2
   2d876:	2d2d 2d14      	movel %a5@(11540),%fp@-
   2d87a:	2d2d 1414      	movel %a5@(5140),%fp@-
   2d87e:	1414           	moveb %a4@,%d2
   2d880:	1414           	moveb %a4@,%d2
   2d882:	2d2d 2d2d      	movel %a5@(11565),%fp@-
   2d886:	2d2d 2d2d      	movel %a5@(11565),%fp@-
   2d88a:	2d2d 2d2d      	movel %a5@(11565),%fp@-
   2d88e:	2d2d 2d2d      	movel %a5@(11565),%fp@-
   2d892:	2d2d 2d14      	movel %a5@(11540),%fp@-
   2d896:	142d 2d14      	moveb %a5@(11540),%d2
   2d89a:	142d 142d      	moveb %a5@(5165),%d2
   2d89e:	2d2d 2d14      	movel %a5@(11540),%fp@-
   2d8a2:	2d2d 1414      	movel %a5@(5140),%fp@-
   2d8a6:	1414           	moveb %a4@,%d2
   2d8a8:	1414           	moveb %a4@,%d2
   2d8aa:	2d2d 2d2d      	movel %a5@(11565),%fp@-
   2d8ae:	2d2d 2d2d      	movel %a5@(11565),%fp@-
   2d8b2:	2d2d 2d2d      	movel %a5@(11565),%fp@-
   2d8b6:	2d2d 0c29      	movel %a5@(3113),%fp@-
   2d8ba:	2929 2929      	movel %a1@(10537),%a4@-
   2d8be:	2929 2929      	movel %a1@(10537),%a4@-
   2d8c2:	2929 2929      	movel %a1@(10537),%a4@-
   2d8c6:	2929 2f2f      	movel %a1@(12079),%a4@-
   2d8ca:	2d2d 3233      	movel %a5@(12851),%fp@-
   2d8ce:	3334 0c0c      	movew %a4@(0000000c,%d0:l:4),%a1@-
   2d8d2:	0c0c           	.short 0x0c0c
   2d8d4:	0c0c           	.short 0x0c0c
   2d8d6:	3535 3535 3636 	movew %a5@(36363636)@(00000000,%d3:w:4),%a2@-
   2d8dc:	3636 
   2d8de:	2023           	movel %a3@-,%d0
   2d8e0:	2f2d 2d2d      	movel %a5@(11565),%sp@-
   2d8e4:	1717           	moveb %sp@,%a3@-
   2d8e6:	1717           	moveb %sp@,%a3@-
   2d8e8:	1717           	moveb %sp@,%a3@-
   2d8ea:	1717           	moveb %sp@,%a3@-
   2d8ec:	172d 1717      	moveb %a5@(5911),%a3@-
   2d8f0:	1717           	moveb %sp@,%a3@-
   2d8f2:	1717           	moveb %sp@,%a3@-
   2d8f4:	1717           	moveb %sp@,%a3@-
   2d8f6:	172d 1717      	moveb %a5@(5911),%a3@-
   2d8fa:	172d 2d2d      	moveb %a5@(11565),%a3@-
   2d8fe:	1717           	moveb %sp@,%a3@-
   2d900:	172d 1717      	moveb %a5@(5911),%a3@-
   2d904:	1717           	moveb %sp@,%a3@-
   2d906:	2d2d 1717      	movel %a5@(5911),%fp@-
   2d90a:	172d 1717      	moveb %a5@(5911),%a3@-
   2d90e:	1717           	moveb %sp@,%a3@-
   2d910:	1717           	moveb %sp@,%a3@-
   2d912:	1717           	moveb %sp@,%a3@-
   2d914:	172d 2d2d      	moveb %a5@(11565),%a3@-
   2d918:	2d2d 2d17      	movel %a5@(11543),%fp@-
   2d91c:	1717           	moveb %sp@,%a3@-
   2d91e:	1717           	moveb %sp@,%a3@-
   2d920:	1717           	moveb %sp@,%a3@-
   2d922:	1717           	moveb %sp@,%a3@-
   2d924:	2d17           	movel %sp@,%fp@-
   2d926:	1717           	moveb %sp@,%a3@-
   2d928:	1717           	moveb %sp@,%a3@-
   2d92a:	1717           	moveb %sp@,%a3@-
   2d92c:	1717           	moveb %sp@,%a3@-
   2d92e:	2d17           	movel %sp@,%fp@-
   2d930:	1717           	moveb %sp@,%a3@-
   2d932:	2d2d 2d17      	movel %a5@(11543),%fp@-
   2d936:	1717           	moveb %sp@,%a3@-
   2d938:	2d17           	movel %sp@,%fp@-
   2d93a:	1717           	moveb %sp@,%a3@-
   2d93c:	1717           	moveb %sp@,%a3@-
   2d93e:	1717           	moveb %sp@,%a3@-
   2d940:	1717           	moveb %sp@,%a3@-
   2d942:	2d17           	movel %sp@,%fp@-
   2d944:	1717           	moveb %sp@,%a3@-
   2d946:	1717           	moveb %sp@,%a3@-
   2d948:	1717           	moveb %sp@,%a3@-
   2d94a:	1717           	moveb %sp@,%a3@-
   2d94c:	2d17           	movel %sp@,%fp@-
   2d94e:	1717           	moveb %sp@,%a3@-
   2d950:	1717           	moveb %sp@,%a3@-
   2d952:	1717           	moveb %sp@,%a3@-
   2d954:	172d 2d2d      	moveb %a5@(11565),%a3@-
   2d958:	2d2d 2d2d      	movel %a5@(11565),%fp@-
   2d95c:	2d2d 2d2d      	movel %a5@(11565),%fp@-
   2d960:	2d35 2929 2929 	movel %a5@(00002929,%d2:l)@(00000000),%fp@-
   2d966:	2929 2929      	movel %a1@(10537),%a4@-
   2d96a:	2929 2929      	movel %a1@(10537),%a4@-
   2d96e:	2929 2929      	movel %a1@(10537),%a4@-
   2d972:	2929 2929      	movel %a1@(10537),%a4@-
   2d976:	2f2f 2d2d      	movel %sp@(11565),%sp@-
   2d97a:	2d2d 2d2d      	movel %a5@(11565),%fp@-
   2d97e:	2d2d 2d2d      	movel %a5@(11565),%fp@-
   2d982:	2d2d 1414      	movel %a5@(5140),%fp@-
   2d986:	2d2d 1414      	movel %a5@(5140),%fp@-
   2d98a:	2d14           	movel %a4@,%fp@-
   2d98c:	142d 2d14      	moveb %a5@(11540),%d2
   2d990:	142d 1414      	moveb %a5@(5140),%d2
   2d994:	2d14           	movel %a4@,%fp@-
   2d996:	1414           	moveb %a4@,%d2
   2d998:	2d14           	movel %a4@,%fp@-
   2d99a:	142d 2d2d      	moveb %a5@(11565),%d2
   2d99e:	2d2d 2d2d      	movel %a5@(11565),%fp@-
   2d9a2:	2d2d 2d2d      	movel %a5@(11565),%fp@-
   2d9a6:	2d2d 2d2d      	movel %a5@(11565),%fp@-
   2d9aa:	2d2d 2d14      	movel %a5@(11540),%fp@-
   2d9ae:	142d 2d2d      	moveb %a5@(11565),%d2
   2d9b2:	2d2d 1414      	movel %a5@(5140),%fp@-
   2d9b6:	2d2d 1414      	movel %a5@(5140),%fp@-
   2d9ba:	2d14           	movel %a4@,%fp@-
   2d9bc:	142d 2d2d      	moveb %a5@(11565),%d2
   2d9c0:	2d2d 2d2d      	movel %a5@(11565),%fp@-
   2d9c4:	2d2d 2d2d      	movel %a5@(11565),%fp@-
   2d9c8:	2d2d 2d2d      	movel %a5@(11565),%fp@-
   2d9cc:	2d2d 2d2d      	movel %a5@(11565),%fp@-
   2d9d0:	2d2d 2d2d      	movel %a5@(11565),%fp@-
   2d9d4:	2d2d 1414      	movel %a5@(5140),%fp@-
   2d9d8:	1414           	moveb %a4@,%d2
   2d9da:	2d2d 1414      	movel %a5@(5140),%fp@-
   2d9de:	2d2d 1414      	movel %a5@(5140),%fp@-
   2d9e2:	2d14           	movel %a4@,%fp@-
   2d9e4:	142d 2d2d      	moveb %a5@(11565),%d2
   2d9e8:	2d2d 2d2d      	movel %a5@(11565),%fp@-
   2d9ec:	2d2d 2d2d      	movel %a5@(11565),%fp@-
   2d9f0:	2d2d 2d2d      	movel %a5@(11565),%fp@-
   2d9f4:	2d2d 2d2d      	movel %a5@(11565),%fp@-
   2d9f8:	0c29 2929 2929 	cmpib #41,%a1@(10537)
   2d9fe:	2929 2929      	movel %a1@(10537),%a4@-
   2da02:	2929 2929      	movel %a1@(10537),%a4@-
   2da06:	2929 2e2f      	movel %a1@(11823),%a4@-
   2da0a:	2d2d 3336      	movel %a5@(13110),%fp@-
   2da0e:	2225           	movel %a5@-,%d1
   2da10:	2727           	movel %sp@-,%a3@-
   2da12:	2828 2828      	movel %a0@(10280),%d4
   2da16:	2828 2828      	movel %a0@(10280),%d4
   2da1a:	2828 2828      	movel %a0@(10280),%d4
   2da1e:	282c 2f2d      	movel %a4@(12077),%d4
   2da22:	2d2d 1717      	movel %a5@(5911),%fp@-
   2da26:	172d 2d2d      	moveb %a5@(11565),%a3@-
   2da2a:	1717           	moveb %sp@,%a3@-
   2da2c:	172d 1717      	moveb %a5@(5911),%a3@-
   2da30:	172d 2d2d      	moveb %a5@(11565),%a3@-
   2da34:	1717           	moveb %sp@,%a3@-
   2da36:	172d 1717      	moveb %a5@(5911),%a3@-
   2da3a:	172d 2d2d      	moveb %a5@(11565),%a3@-
   2da3e:	1717           	moveb %sp@,%a3@-
   2da40:	172d 1717      	moveb %a5@(5911),%a3@-
   2da44:	1717           	moveb %sp@,%a3@-
   2da46:	172d 1717      	moveb %a5@(5911),%a3@-
   2da4a:	172d 1717      	moveb %a5@(5911),%a3@-
   2da4e:	172d 2d2d      	moveb %a5@(11565),%a3@-
   2da52:	1717           	moveb %sp@,%a3@-
   2da54:	172d 2d2d      	moveb %a5@(11565),%a3@-
   2da58:	2d2d 2d17      	movel %a5@(11543),%fp@-
   2da5c:	1717           	moveb %sp@,%a3@-
   2da5e:	2d2d 2d17      	movel %a5@(11543),%fp@-
   2da62:	1717           	moveb %sp@,%a3@-
   2da64:	2d17           	movel %sp@,%fp@-
   2da66:	1717           	moveb %sp@,%a3@-
   2da68:	2d2d 2d17      	movel %a5@(11543),%fp@-
   2da6c:	1717           	moveb %sp@,%a3@-
   2da6e:	2d17           	movel %sp@,%fp@-
   2da70:	1717           	moveb %sp@,%a3@-
   2da72:	2d2d 2d17      	movel %a5@(11543),%fp@-
   2da76:	1717           	moveb %sp@,%a3@-
   2da78:	2d17           	movel %sp@,%fp@-
   2da7a:	1717           	moveb %sp@,%a3@-
   2da7c:	2d2d 2d17      	movel %a5@(11543),%fp@-
   2da80:	1717           	moveb %sp@,%a3@-
   2da82:	2d17           	movel %sp@,%fp@-
   2da84:	1717           	moveb %sp@,%a3@-
   2da86:	2d2d 2d17      	movel %a5@(11543),%fp@-
   2da8a:	1717           	moveb %sp@,%a3@-
   2da8c:	2d17           	movel %sp@,%fp@-
   2da8e:	1717           	moveb %sp@,%a3@-
   2da90:	2d2d 2d2d      	movel %a5@(11565),%fp@-
   2da94:	2d2d 2d2d      	movel %a5@(11565),%fp@-
   2da98:	2d2d 2d2d      	movel %a5@(11565),%fp@-
   2da9c:	2d2d 2d2d      	movel %a5@(11565),%fp@-
   2daa0:	2d35 2929 2929 	movel %a5@(00002929,%d2:l)@(00000000),%fp@-
   2daa6:	2929 2929      	movel %a1@(10537),%a4@-
   2daaa:	2929 2929      	movel %a1@(10537),%a4@-
   2daae:	2929 2929      	movel %a1@(10537),%a4@-
   2dab2:	2929 2929      	movel %a1@(10537),%a4@-
   2dab6:	2f2f 2d2d      	movel %sp@(11565),%sp@-
   2daba:	2d2d 2d2d      	movel %a5@(11565),%fp@-
   2dabe:	2d2d 2d2d      	movel %a5@(11565),%fp@-
   2dac2:	2d2d 1414      	movel %a5@(5140),%fp@-
   2dac6:	1414           	moveb %a4@,%d2
   2dac8:	1414           	moveb %a4@,%d2
   2daca:	2d14           	movel %a4@,%fp@-
   2dacc:	1414           	moveb %a4@,%d2
   2dace:	1414           	moveb %a4@,%d2
   2dad0:	142d 1414      	moveb %a5@(5140),%d2
   2dad4:	2d14           	movel %a4@,%fp@-
   2dad6:	1414           	moveb %a4@,%d2
   2dad8:	1414           	moveb %a4@,%d2
   2dada:	142d 2d2d      	moveb %a5@(11565),%d2
   2dade:	2d2d 2d2d      	movel %a5@(11565),%fp@-
   2dae2:	2d2d 2d2d      	movel %a5@(11565),%fp@-
   2dae6:	2d2d 2d2d      	movel %a5@(11565),%fp@-
   2daea:	2d2d 2d14      	movel %a5@(11540),%fp@-
   2daee:	1414           	moveb %a4@,%d2
   2daf0:	1414           	moveb %a4@,%d2
   2daf2:	2d2d 1414      	movel %a5@(5140),%fp@-
   2daf6:	1414           	moveb %a4@,%d2
   2daf8:	1414           	moveb %a4@,%d2
   2dafa:	2d2d 1414      	movel %a5@(5140),%fp@-
   2dafe:	1414           	moveb %a4@,%d2
   2db00:	142d 2d2d      	moveb %a5@(11565),%d2
   2db04:	2d2d 2d2d      	movel %a5@(11565),%fp@-
   2db08:	2d2d 2d2d      	movel %a5@(11565),%fp@-
   2db0c:	2d2d 2d2d      	movel %a5@(11565),%fp@-
   2db10:	2d2d 2d2d      	movel %a5@(11565),%fp@-
   2db14:	2d2d 2d14      	movel %a5@(11540),%fp@-
   2db18:	142d 2d2d      	moveb %a5@(11565),%d2
   2db1c:	1414           	moveb %a4@,%d2
   2db1e:	1414           	moveb %a4@,%d2
   2db20:	1414           	moveb %a4@,%d2
   2db22:	2d2d 1414      	movel %a5@(5140),%fp@-
   2db26:	1414           	moveb %a4@,%d2
   2db28:	142d 2d2d      	moveb %a5@(11565),%d2
   2db2c:	2d2d 2d2d      	movel %a5@(11565),%fp@-
   2db30:	2d2d 2d2d      	movel %a5@(11565),%fp@-
   2db34:	2d2d 2d2d      	movel %a5@(11565),%fp@-
   2db38:	0c29 2929 2929 	cmpib #41,%a1@(10537)
   2db3e:	2929 2929      	movel %a1@(10537),%a4@-
   2db42:	2929 2929      	movel %a1@(10537),%a4@-
   2db46:	2929 2e2f      	movel %a1@(11823),%a4@-
   2db4a:	2d2d 3422      	movel %a5@(13346),%fp@-
   2db4e:	2500           	movel %d0,%a2@-
	...
   2db5c:	0028 282c 2f2d 	orib #44,%a0@(12077)
   2db62:	2d2d 1717      	movel %a5@(5911),%fp@-
   2db66:	172d 2d2d      	moveb %a5@(11565),%a3@-
   2db6a:	2d2d 2d2d      	movel %a5@(11565),%fp@-
   2db6e:	1717           	moveb %sp@,%a3@-
   2db70:	172d 2d2d      	moveb %a5@(11565),%a3@-
   2db74:	1717           	moveb %sp@,%a3@-
   2db76:	172d 1717      	moveb %a5@(5911),%a3@-
   2db7a:	172d 2d2d      	moveb %a5@(11565),%a3@-
   2db7e:	1717           	moveb %sp@,%a3@-
   2db80:	172d 1717      	moveb %a5@(5911),%a3@-
   2db84:	1717           	moveb %sp@,%a3@-
   2db86:	1717           	moveb %sp@,%a3@-
   2db88:	1717           	moveb %sp@,%a3@-
   2db8a:	172d 1717      	moveb %a5@(5911),%a3@-
   2db8e:	172d 2d2d      	moveb %a5@(11565),%a3@-
   2db92:	1717           	moveb %sp@,%a3@-
   2db94:	172d 2d2d      	moveb %a5@(11565),%a3@-
   2db98:	2d2d 2d17      	movel %a5@(11543),%fp@-
   2db9c:	1717           	moveb %sp@,%a3@-
   2db9e:	2d2d 2d2d      	movel %a5@(11565),%fp@-
   2dba2:	2d2d 2d17      	movel %a5@(11543),%fp@-
   2dba6:	1717           	moveb %sp@,%a3@-
   2dba8:	2d2d 2d17      	movel %a5@(11543),%fp@-
   2dbac:	1717           	moveb %sp@,%a3@-
   2dbae:	2d17           	movel %sp@,%fp@-
   2dbb0:	1717           	moveb %sp@,%a3@-
   2dbb2:	2d2d 2d17      	movel %a5@(11543),%fp@-
   2dbb6:	1717           	moveb %sp@,%a3@-
   2dbb8:	2d17           	movel %sp@,%fp@-
   2dbba:	1717           	moveb %sp@,%a3@-
   2dbbc:	2d2d 2d17      	movel %a5@(11543),%fp@-
   2dbc0:	1717           	moveb %sp@,%a3@-
   2dbc2:	2d17           	movel %sp@,%fp@-
   2dbc4:	1717           	moveb %sp@,%a3@-
   2dbc6:	2d2d 2d2d      	movel %a5@(11565),%fp@-
   2dbca:	2d2d 2d17      	movel %a5@(11543),%fp@-
   2dbce:	1717           	moveb %sp@,%a3@-
   2dbd0:	2d2d 2d2d      	movel %a5@(11565),%fp@-
   2dbd4:	2d2d 2d2d      	movel %a5@(11565),%fp@-
   2dbd8:	2d2d 2d2d      	movel %a5@(11565),%fp@-
   2dbdc:	2d2d 2d2d      	movel %a5@(11565),%fp@-
   2dbe0:	2d35 2929 2929 	movel %a5@(00002929,%d2:l)@(00000000),%fp@-
   2dbe6:	2929 2929      	movel %a1@(10537),%a4@-
   2dbea:	2929 2929      	movel %a1@(10537),%a4@-
   2dbee:	2929 2929      	movel %a1@(10537),%a4@-
   2dbf2:	2929 2929      	movel %a1@(10537),%a4@-
   2dbf6:	2f2f 2d2d      	movel %sp@(11565),%sp@-
   2dbfa:	2d2d 2d2d      	movel %a5@(11565),%fp@-
   2dbfe:	2d2d 2d2d      	movel %a5@(11565),%fp@-
   2dc02:	2d2d 1414      	movel %a5@(5140),%fp@-
   2dc06:	1414           	moveb %a4@,%d2
   2dc08:	1414           	moveb %a4@,%d2
   2dc0a:	2d14           	movel %a4@,%fp@-
   2dc0c:	142d 2d14      	moveb %a5@(11540),%d2
   2dc10:	142d 1414      	moveb %a5@(5140),%d2
   2dc14:	2d14           	movel %a4@,%fp@-
   2dc16:	142d 1414      	moveb %a5@(5140),%d2
   2dc1a:	142d 2d2d      	moveb %a5@(11565),%d2
   2dc1e:	2d2d 2d2d      	movel %a5@(11565),%fp@-
   2dc22:	2d2d 2d2d      	movel %a5@(11565),%fp@-
   2dc26:	2d2d 2d2d      	movel %a5@(11565),%fp@-
   2dc2a:	2d2d 2d14      	movel %a5@(11540),%fp@-
   2dc2e:	142d 2d2d      	moveb %a5@(11565),%d2
   2dc32:	2d2d 1414      	movel %a5@(5140),%fp@-
   2dc36:	1414           	moveb %a4@,%d2
   2dc38:	1414           	moveb %a4@,%d2
   2dc3a:	2d2d 2d2d      	movel %a5@(11565),%fp@-
   2dc3e:	2d2d 1414      	movel %a5@(5140),%fp@-
   2dc42:	2d2d 2d2d      	movel %a5@(11565),%fp@-
   2dc46:	2d2d 2d2d      	movel %a5@(11565),%fp@-
   2dc4a:	2d2d 2d2d      	movel %a5@(11565),%fp@-
   2dc4e:	2d2d 2d2d      	movel %a5@(11565),%fp@-
   2dc52:	2d2d 2d2d      	movel %a5@(11565),%fp@-
   2dc56:	1414           	moveb %a4@,%d2
   2dc58:	1414           	moveb %a4@,%d2
   2dc5a:	2d2d 1414      	movel %a5@(5140),%fp@-
   2dc5e:	1414           	moveb %a4@,%d2
   2dc60:	1414           	moveb %a4@,%d2
   2dc62:	2d2d 2d2d      	movel %a5@(11565),%fp@-
   2dc66:	2d2d 1414      	movel %a5@(5140),%fp@-
   2dc6a:	2d2d 2d2d      	movel %a5@(11565),%fp@-
   2dc6e:	2d2d 2d2d      	movel %a5@(11565),%fp@-
   2dc72:	2d2d 2d2d      	movel %a5@(11565),%fp@-
   2dc76:	2d2d 3429      	movel %a5@(13353),%fp@-
   2dc7a:	2929 2929      	movel %a1@(10537),%a4@-
   2dc7e:	2929 2929      	movel %a1@(10537),%a4@-
   2dc82:	2929 2929      	movel %a1@(10537),%a4@-
   2dc86:	2929 2e2f      	movel %a1@(11823),%a4@-
   2dc8a:	2d2d 3425      	movel %a5@(13349),%fp@-
   2dc8e:	2700           	movel %d0,%a3@-
   2dc90:	1f1f           	moveb %sp@+,%sp@-
   2dc92:	1f1f           	moveb %sp@+,%sp@-
   2dc94:	1f1f           	moveb %sp@+,%sp@-
   2dc96:	1f1f           	moveb %sp@+,%sp@-
   2dc98:	1f1f           	moveb %sp@+,%sp@-
   2dc9a:	1f1f           	moveb %sp@+,%sp@-
   2dc9c:	1f28 282d      	moveb %a0@(10285),%sp@-
   2dca0:	2f2d 2d2d      	movel %a5@(11565),%sp@-
   2dca4:	1717           	moveb %sp@,%a3@-
   2dca6:	1717           	moveb %sp@,%a3@-
   2dca8:	1717           	moveb %sp@,%a3@-
   2dcaa:	1717           	moveb %sp@,%a3@-
   2dcac:	2d2d 1717      	movel %a5@(5911),%fp@-
   2dcb0:	172d 2d2d      	moveb %a5@(11565),%a3@-
   2dcb4:	1717           	moveb %sp@,%a3@-
   2dcb6:	172d 1717      	moveb %a5@(5911),%a3@-
   2dcba:	172d 2d2d      	moveb %a5@(11565),%a3@-
   2dcbe:	1717           	moveb %sp@,%a3@-
   2dcc0:	172d 1717      	moveb %a5@(5911),%a3@-
   2dcc4:	172d 1717      	moveb %a5@(5911),%a3@-
   2dcc8:	1717           	moveb %sp@,%a3@-
   2dcca:	172d 1717      	moveb %a5@(5911),%a3@-
   2dcce:	172d 2d2d      	moveb %a5@(11565),%a3@-
   2dcd2:	1717           	moveb %sp@,%a3@-
   2dcd4:	172d 2d2d      	moveb %a5@(11565),%a3@-
   2dcd8:	2d2d 2d17      	movel %a5@(11543),%fp@-
   2dcdc:	1717           	moveb %sp@,%a3@-
   2dcde:	1717           	moveb %sp@,%a3@-
   2dce0:	1717           	moveb %sp@,%a3@-
   2dce2:	172d 2d17      	moveb %a5@(11543),%a3@-
   2dce6:	1717           	moveb %sp@,%a3@-
   2dce8:	2d2d 2d17      	movel %a5@(11543),%fp@-
   2dcec:	1717           	moveb %sp@,%a3@-
   2dcee:	2d17           	movel %sp@,%fp@-
   2dcf0:	1717           	moveb %sp@,%a3@-
   2dcf2:	2d2d 2d17      	movel %a5@(11543),%fp@-
   2dcf6:	1717           	moveb %sp@,%a3@-
   2dcf8:	2d17           	movel %sp@,%fp@-
   2dcfa:	1717           	moveb %sp@,%a3@-
   2dcfc:	1717           	moveb %sp@,%a3@-
   2dcfe:	1717           	moveb %sp@,%a3@-
   2dd00:	1717           	moveb %sp@,%a3@-
   2dd02:	2d17           	movel %sp@,%fp@-
   2dd04:	1717           	moveb %sp@,%a3@-
   2dd06:	2d2d 2d2d      	movel %a5@(11565),%fp@-
   2dd0a:	2d2d 2d17      	movel %a5@(11543),%fp@-
   2dd0e:	1717           	moveb %sp@,%a3@-
   2dd10:	1717           	moveb %sp@,%a3@-
   2dd12:	172d 2d2d      	moveb %a5@(11565),%a3@-
   2dd16:	2d2d 2d2d      	movel %a5@(11565),%fp@-
   2dd1a:	2d2d 2d2d      	movel %a5@(11565),%fp@-
   2dd1e:	2d2d 2d35      	movel %a5@(11573),%fp@-
   2dd22:	2929 2929      	movel %a1@(10537),%a4@-
   2dd26:	2929 2929      	movel %a1@(10537),%a4@-
   2dd2a:	2929 2929      	movel %a1@(10537),%a4@-
   2dd2e:	2929 2929      	movel %a1@(10537),%a4@-
   2dd32:	2929 2929      	movel %a1@(10537),%a4@-
   2dd36:	2f2f 2d2d      	movel %sp@(11565),%sp@-
   2dd3a:	2d2d 2d2d      	movel %a5@(11565),%fp@-
   2dd3e:	2d2d 2d2d      	movel %a5@(11565),%fp@-
   2dd42:	2d2d 1414      	movel %a5@(5140),%fp@-
   2dd46:	2d2d 1414      	movel %a5@(5140),%fp@-
   2dd4a:	2d14           	movel %a4@,%fp@-
   2dd4c:	142d 2d14      	moveb %a5@(11540),%d2
   2dd50:	142d 1414      	moveb %a5@(5140),%d2
   2dd54:	2d14           	movel %a4@,%fp@-
   2dd56:	142d 2d14      	moveb %a5@(11540),%d2
   2dd5a:	142d 2d2d      	moveb %a5@(11565),%d2
   2dd5e:	2d2d 2d2d      	movel %a5@(11565),%fp@-
   2dd62:	2d2d 2d2d      	movel %a5@(11565),%fp@-
   2dd66:	2d2d 2d2d      	movel %a5@(11565),%fp@-
   2dd6a:	2d2d 2d14      	movel %a5@(11540),%fp@-
   2dd6e:	1414           	moveb %a4@,%d2
   2dd70:	1414           	moveb %a4@,%d2
   2dd72:	142d 1414      	moveb %a5@(5140),%d2
   2dd76:	2d2d 1414      	movel %a5@(5140),%fp@-
   2dd7a:	2d14           	movel %a4@,%fp@-
   2dd7c:	1414           	moveb %a4@,%d2
   2dd7e:	1414           	moveb %a4@,%d2
   2dd80:	142d 2d2d      	moveb %a5@(11565),%d2
   2dd84:	2d2d 2d2d      	movel %a5@(11565),%fp@-
   2dd88:	2d2d 2d2d      	movel %a5@(11565),%fp@-
   2dd8c:	2d2d 2d2d      	movel %a5@(11565),%fp@-
   2dd90:	2d2d 2d2d      	movel %a5@(11565),%fp@-
   2dd94:	2d14           	movel %a4@,%fp@-
   2dd96:	142d 2d14      	moveb %a5@(11540),%d2
   2dd9a:	142d 1414      	moveb %a5@(5140),%d2
   2dd9e:	2d2d 1414      	movel %a5@(5140),%fp@-
   2dda2:	2d14           	movel %a4@,%fp@-
   2dda4:	1414           	moveb %a4@,%d2
   2dda6:	1414           	moveb %a4@,%d2
   2dda8:	142d 2d2d      	moveb %a5@(11565),%d2
   2ddac:	2d2d 2d2d      	movel %a5@(11565),%fp@-
   2ddb0:	2d2d 2d2d      	movel %a5@(11565),%fp@-
   2ddb4:	2d2d 2d2d      	movel %a5@(11565),%fp@-
   2ddb8:	3429 2929      	movew %a1@(10537),%d2
   2ddbc:	2929 2929      	movel %a1@(10537),%a4@-
   2ddc0:	2929 2929      	movel %a1@(10537),%a4@-
   2ddc4:	2929 2929      	movel %a1@(10537),%a4@-
   2ddc8:	2e2f 2d2d      	movel %sp@(11565),%d7
   2ddcc:	3527           	movew %sp@-,%a2@-
   2ddce:	2700           	movel %d0,%a3@-
   2ddd0:	1f1f           	moveb %sp@+,%sp@-
   2ddd2:	1f1f           	moveb %sp@+,%sp@-
   2ddd4:	1f1f           	moveb %sp@+,%sp@-
   2ddd6:	1f1f           	moveb %sp@+,%sp@-
   2ddd8:	1f1f           	moveb %sp@+,%sp@-
   2ddda:	1f1f           	moveb %sp@+,%sp@-
   2dddc:	1f28 282d      	moveb %a0@(10285),%sp@-
   2dde0:	2f2d 2d2d      	movel %a5@(11565),%sp@-
   2dde4:	2d17           	movel %sp@,%fp@-
   2dde6:	1717           	moveb %sp@,%a3@-
   2dde8:	1717           	moveb %sp@,%a3@-
   2ddea:	1717           	moveb %sp@,%a3@-
   2ddec:	172d 1717      	moveb %a5@(5911),%a3@-
   2ddf0:	172d 2d2d      	moveb %a5@(11565),%a3@-
   2ddf4:	1717           	moveb %sp@,%a3@-
   2ddf6:	172d 1717      	moveb %a5@(5911),%a3@-
   2ddfa:	172d 2d2d      	moveb %a5@(11565),%a3@-
   2ddfe:	1717           	moveb %sp@,%a3@-
   2de00:	172d 1717      	moveb %a5@(5911),%a3@-
   2de04:	172d 2d17      	moveb %a5@(11543),%a3@-
   2de08:	1717           	moveb %sp@,%a3@-
   2de0a:	172d 1717      	moveb %a5@(5911),%a3@-
   2de0e:	172d 2d2d      	moveb %a5@(11565),%a3@-
   2de12:	1717           	moveb %sp@,%a3@-
   2de14:	172d 2d2d      	moveb %a5@(11565),%a3@-
   2de18:	2d2d 2d2d      	movel %a5@(11565),%fp@-
   2de1c:	1717           	moveb %sp@,%a3@-
   2de1e:	1717           	moveb %sp@,%a3@-
   2de20:	1717           	moveb %sp@,%a3@-
   2de22:	1717           	moveb %sp@,%a3@-
   2de24:	2d17           	movel %sp@,%fp@-
   2de26:	1717           	moveb %sp@,%a3@-
   2de28:	2d2d 2d17      	movel %a5@(11543),%fp@-
   2de2c:	1717           	moveb %sp@,%a3@-
   2de2e:	2d17           	movel %sp@,%fp@-
   2de30:	1717           	moveb %sp@,%a3@-
   2de32:	2d2d 2d17      	movel %a5@(11543),%fp@-
   2de36:	1717           	moveb %sp@,%a3@-
   2de38:	2d17           	movel %sp@,%fp@-
   2de3a:	1717           	moveb %sp@,%a3@-
   2de3c:	1717           	moveb %sp@,%a3@-
   2de3e:	1717           	moveb %sp@,%a3@-
   2de40:	172d 2d17      	moveb %a5@(11543),%a3@-
   2de44:	1717           	moveb %sp@,%a3@-
   2de46:	2d2d 2d2d      	movel %a5@(11565),%fp@-
   2de4a:	2d2d 2d17      	movel %a5@(11543),%fp@-
   2de4e:	1717           	moveb %sp@,%a3@-
   2de50:	1717           	moveb %sp@,%a3@-
   2de52:	172d 2d2d      	moveb %a5@(11565),%a3@-
   2de56:	2d2d 2d2d      	movel %a5@(11565),%fp@-
   2de5a:	2d2d 2d2d      	movel %a5@(11565),%fp@-
   2de5e:	2d2d 2d0c      	movel %a5@(11532),%fp@-
   2de62:	2929 2929      	movel %a1@(10537),%a4@-
   2de66:	2929 2929      	movel %a1@(10537),%a4@-
   2de6a:	2929 2929      	movel %a1@(10537),%a4@-
   2de6e:	2929 2929      	movel %a1@(10537),%a4@-
   2de72:	2929 2929      	movel %a1@(10537),%a4@-
   2de76:	2f2f 2d2d      	movel %sp@(11565),%sp@-
   2de7a:	2d2d 2d2d      	movel %a5@(11565),%fp@-
   2de7e:	2d2d 2d2d      	movel %a5@(11565),%fp@-
   2de82:	2d2d 2d2d      	movel %a5@(11565),%fp@-
   2de86:	2d2d 2d2d      	movel %a5@(11565),%fp@-
   2de8a:	2d2d 2d2d      	movel %a5@(11565),%fp@-
   2de8e:	2d2d 2d2d      	movel %a5@(11565),%fp@-
   2de92:	2d2d 2d2d      	movel %a5@(11565),%fp@-
   2de96:	2d2d 2d2d      	movel %a5@(11565),%fp@-
   2de9a:	2d2d 2d2d      	movel %a5@(11565),%fp@-
   2de9e:	2d2d 2d2d      	movel %a5@(11565),%fp@-
   2dea2:	2d2d 2d2d      	movel %a5@(11565),%fp@-
   2dea6:	2d2d 2d2d      	movel %a5@(11565),%fp@-
   2deaa:	2d2d 2d2d      	movel %a5@(11565),%fp@-
   2deae:	2d2d 2d2d      	movel %a5@(11565),%fp@-
   2deb2:	2d2d 2d2d      	movel %a5@(11565),%fp@-
   2deb6:	2d2d 2d2d      	movel %a5@(11565),%fp@-
   2deba:	2d2d 2d2d      	movel %a5@(11565),%fp@-
   2debe:	2d2d 2d2d      	movel %a5@(11565),%fp@-
   2dec2:	2d2d 2d2d      	movel %a5@(11565),%fp@-
   2dec6:	2d2d 2d2d      	movel %a5@(11565),%fp@-
   2deca:	2d2d 2d2d      	movel %a5@(11565),%fp@-
   2dece:	2d2d 2d2d      	movel %a5@(11565),%fp@-
   2ded2:	2d2d 2d2d      	movel %a5@(11565),%fp@-
   2ded6:	2d2d 2d2d      	movel %a5@(11565),%fp@-
   2deda:	2d2d 2d2d      	movel %a5@(11565),%fp@-
   2dede:	2d2d 2d2d      	movel %a5@(11565),%fp@-
   2dee2:	2d2d 2d2d      	movel %a5@(11565),%fp@-
   2dee6:	2d2d 2d2d      	movel %a5@(11565),%fp@-
   2deea:	2d2d 2d2d      	movel %a5@(11565),%fp@-
   2deee:	2d2d 2d2d      	movel %a5@(11565),%fp@-
   2def2:	2d2d 2d2d      	movel %a5@(11565),%fp@-
   2def6:	2d2d 3429      	movel %a5@(13353),%fp@-
   2defa:	2929 2929      	movel %a1@(10537),%a4@-
   2defe:	2929 2929      	movel %a1@(10537),%a4@-
   2df02:	2929 2929      	movel %a1@(10537),%a4@-
   2df06:	2929 2e2f      	movel %a1@(11823),%a4@-
   2df0a:	2d2d 3627      	movel %a5@(13863),%fp@-
   2df0e:	2800           	movel %d0,%d4
   2df10:	1f1f           	moveb %sp@+,%sp@-
   2df12:	1f1f           	moveb %sp@+,%sp@-
   2df14:	1f1f           	moveb %sp@+,%sp@-
   2df16:	1f1f           	moveb %sp@+,%sp@-
   2df18:	1f1f           	moveb %sp@+,%sp@-
   2df1a:	1f1f           	moveb %sp@+,%sp@-
   2df1c:	1f28 282e      	moveb %a0@(10286),%sp@-
   2df20:	2f2d 2d2d      	movel %a5@(11565),%sp@-
   2df24:	2d2d 2d2d      	movel %a5@(11565),%fp@-
   2df28:	2d2d 1717      	movel %a5@(5911),%fp@-
   2df2c:	172d 1717      	moveb %a5@(5911),%a3@-
   2df30:	172d 2d2d      	moveb %a5@(11565),%a3@-
   2df34:	1717           	moveb %sp@,%a3@-
   2df36:	172d 1717      	moveb %a5@(5911),%a3@-
   2df3a:	172d 2d2d      	moveb %a5@(11565),%a3@-
   2df3e:	1717           	moveb %sp@,%a3@-
   2df40:	172d 1717      	moveb %a5@(5911),%a3@-
   2df44:	172d 2d2d      	moveb %a5@(11565),%a3@-
   2df48:	1717           	moveb %sp@,%a3@-
   2df4a:	172d 1717      	moveb %a5@(5911),%a3@-
   2df4e:	172d 2d2d      	moveb %a5@(11565),%a3@-
   2df52:	1717           	moveb %sp@,%a3@-
   2df54:	172d 2d2d      	moveb %a5@(11565),%a3@-
   2df58:	2d2d 2d2d      	movel %a5@(11565),%fp@-
   2df5c:	2d2d 2d2d      	movel %a5@(11565),%fp@-
   2df60:	2d17           	movel %sp@,%fp@-
   2df62:	1717           	moveb %sp@,%a3@-
   2df64:	2d17           	movel %sp@,%fp@-
   2df66:	1717           	moveb %sp@,%a3@-
   2df68:	2d2d 2d17      	movel %a5@(11543),%fp@-
   2df6c:	1717           	moveb %sp@,%a3@-
   2df6e:	2d17           	movel %sp@,%fp@-
   2df70:	1717           	moveb %sp@,%a3@-
   2df72:	2d2d 2d17      	movel %a5@(11543),%fp@-
   2df76:	1717           	moveb %sp@,%a3@-
   2df78:	2d17           	movel %sp@,%fp@-
   2df7a:	1717           	moveb %sp@,%a3@-
   2df7c:	1717           	moveb %sp@,%a3@-
   2df7e:	172d 2d2d      	moveb %a5@(11565),%a3@-
   2df82:	2d17           	movel %sp@,%fp@-
   2df84:	1717           	moveb %sp@,%a3@-
   2df86:	2d2d 2d2d      	movel %a5@(11565),%fp@-
   2df8a:	2d2d 2d17      	movel %a5@(11543),%fp@-
   2df8e:	1717           	moveb %sp@,%a3@-
   2df90:	2d2d 2d2d      	movel %a5@(11565),%fp@-
   2df94:	2d2d 2d2d      	movel %a5@(11565),%fp@-
   2df98:	2d2d 2d2d      	movel %a5@(11565),%fp@-
   2df9c:	2d2d 2d2d      	movel %a5@(11565),%fp@-
   2dfa0:	2d0c           	movel %a4,%fp@-
   2dfa2:	2929 2929      	movel %a1@(10537),%a4@-
   2dfa6:	2929 2929      	movel %a1@(10537),%a4@-
   2dfaa:	2929 2929      	movel %a1@(10537),%a4@-
   2dfae:	2929 2929      	movel %a1@(10537),%a4@-
   2dfb2:	2929 2929      	movel %a1@(10537),%a4@-
   2dfb6:	2f2f 2d2d      	movel %sp@(11565),%sp@-
   2dfba:	2d2d 2d2d      	movel %a5@(11565),%fp@-
   2dfbe:	2d2d 2d2d      	movel %a5@(11565),%fp@-
   2dfc2:	2d2d 2d2d      	movel %a5@(11565),%fp@-
   2dfc6:	2d2d 2d2d      	movel %a5@(11565),%fp@-
   2dfca:	2d2d 2d2d      	movel %a5@(11565),%fp@-
   2dfce:	2d2d 2d2d      	movel %a5@(11565),%fp@-
   2dfd2:	2d2d 2d2d      	movel %a5@(11565),%fp@-
   2dfd6:	2d2d 2d2d      	movel %a5@(11565),%fp@-
   2dfda:	2d2d 2d2d      	movel %a5@(11565),%fp@-
   2dfde:	2d2d 2d2d      	movel %a5@(11565),%fp@-
   2dfe2:	2d2d 2d2d      	movel %a5@(11565),%fp@-
   2dfe6:	2d2d 2d2d      	movel %a5@(11565),%fp@-
   2dfea:	2d2d 2d2d      	movel %a5@(11565),%fp@-
   2dfee:	2d2d 2d2d      	movel %a5@(11565),%fp@-
   2dff2:	2d2d 2d2d      	movel %a5@(11565),%fp@-
   2dff6:	2d2d 2d2d      	movel %a5@(11565),%fp@-
   2dffa:	2d2d 2d2d      	movel %a5@(11565),%fp@-
   2dffe:	2d2d 2d2d      	movel %a5@(11565),%fp@-
   2e002:	2d2d 2d2d      	movel %a5@(11565),%fp@-
   2e006:	2d2d 2d2d      	movel %a5@(11565),%fp@-
   2e00a:	2d2d 2d2d      	movel %a5@(11565),%fp@-
   2e00e:	2d2d 2d2d      	movel %a5@(11565),%fp@-
   2e012:	2d2d 2d2d      	movel %a5@(11565),%fp@-
   2e016:	2d2d 2d2d      	movel %a5@(11565),%fp@-
   2e01a:	2d2d 2d2d      	movel %a5@(11565),%fp@-
   2e01e:	2d2d 2d2d      	movel %a5@(11565),%fp@-
   2e022:	2d2d 2d2d      	movel %a5@(11565),%fp@-
   2e026:	2d2d 2d2d      	movel %a5@(11565),%fp@-
   2e02a:	2d2d 2d2d      	movel %a5@(11565),%fp@-
   2e02e:	2d2d 2d2d      	movel %a5@(11565),%fp@-
   2e032:	2d2d 2d2d      	movel %a5@(11565),%fp@-
   2e036:	2d2d 3429      	movel %a5@(13353),%fp@-
   2e03a:	2929 2929      	movel %a1@(10537),%a4@-
   2e03e:	2929 2929      	movel %a1@(10537),%a4@-
   2e042:	2929 2929      	movel %a1@(10537),%a4@-
   2e046:	2929 2d2f      	movel %a1@(11567),%a4@-
   2e04a:	2d2d 2028      	movel %a5@(8232),%fp@-
   2e04e:	2828 2828      	movel %a0@(10280),%d4
   2e052:	2828 2828      	movel %a0@(10280),%d4
   2e056:	2828 2828      	movel %a0@(10280),%d4
   2e05a:	2828 2828      	movel %a0@(10280),%d4
   2e05e:	282e 2f2d      	movel %fp@(12077),%d4
   2e062:	2d2d 1717      	movel %a5@(5911),%fp@-
   2e066:	172d 2d2d      	moveb %a5@(11565),%a3@-
   2e06a:	1717           	moveb %sp@,%a3@-
   2e06c:	172d 1717      	moveb %a5@(5911),%a3@-
   2e070:	172d 2d2d      	moveb %a5@(11565),%a3@-
   2e074:	1717           	moveb %sp@,%a3@-
   2e076:	172d 1717      	moveb %a5@(5911),%a3@-
   2e07a:	172d 2d2d      	moveb %a5@(11565),%a3@-
   2e07e:	1717           	moveb %sp@,%a3@-
   2e080:	172d 1717      	moveb %a5@(5911),%a3@-
   2e084:	172d 2d2d      	moveb %a5@(11565),%a3@-
   2e088:	1717           	moveb %sp@,%a3@-
   2e08a:	172d 1717      	moveb %a5@(5911),%a3@-
   2e08e:	172d 2d2d      	moveb %a5@(11565),%a3@-
   2e092:	1717           	moveb %sp@,%a3@-
   2e094:	172d 2d2d      	moveb %a5@(11565),%a3@-
   2e098:	2d2d 2d17      	movel %a5@(11543),%fp@-
   2e09c:	1717           	moveb %sp@,%a3@-
   2e09e:	2d2d 2d17      	movel %a5@(11543),%fp@-
   2e0a2:	1717           	moveb %sp@,%a3@-
   2e0a4:	2d17           	movel %sp@,%fp@-
   2e0a6:	1717           	moveb %sp@,%a3@-
   2e0a8:	2d2d 2d17      	movel %a5@(11543),%fp@-
   2e0ac:	1717           	moveb %sp@,%a3@-
   2e0ae:	2d17           	movel %sp@,%fp@-
   2e0b0:	1717           	moveb %sp@,%a3@-
   2e0b2:	2d2d 2d17      	movel %a5@(11543),%fp@-
   2e0b6:	1717           	moveb %sp@,%a3@-
   2e0b8:	2d17           	movel %sp@,%fp@-
   2e0ba:	1717           	moveb %sp@,%a3@-
   2e0bc:	1717           	moveb %sp@,%a3@-
   2e0be:	1717           	moveb %sp@,%a3@-
   2e0c0:	2d2d 2d17      	movel %a5@(11543),%fp@-
   2e0c4:	1717           	moveb %sp@,%a3@-
   2e0c6:	2d2d 2d17      	movel %a5@(11543),%fp@-
   2e0ca:	1717           	moveb %sp@,%a3@-
   2e0cc:	2d17           	movel %sp@,%fp@-
   2e0ce:	1717           	moveb %sp@,%a3@-
   2e0d0:	2d2d 2d2d      	movel %a5@(11565),%fp@-
   2e0d4:	2d2d 2d2d      	movel %a5@(11565),%fp@-
   2e0d8:	2d2d 2d2d      	movel %a5@(11565),%fp@-
   2e0dc:	2d2d 2d2d      	movel %a5@(11565),%fp@-
   2e0e0:	2d0c           	movel %a4,%fp@-
   2e0e2:	2929 2929      	movel %a1@(10537),%a4@-
   2e0e6:	2929 2929      	movel %a1@(10537),%a4@-
   2e0ea:	2929 2929      	movel %a1@(10537),%a4@-
   2e0ee:	2929 2929      	movel %a1@(10537),%a4@-
   2e0f2:	2929 2929      	movel %a1@(10537),%a4@-
   2e0f6:	2f2f 2d2d      	movel %sp@(11565),%sp@-
   2e0fa:	2d2d 2d2d      	movel %a5@(11565),%fp@-
   2e0fe:	2d2d 2d2d      	movel %a5@(11565),%fp@-
   2e102:	2d2d 2d2d      	movel %a5@(11565),%fp@-
   2e106:	2d2d 2d2d      	movel %a5@(11565),%fp@-
   2e10a:	2d2d 2d2d      	movel %a5@(11565),%fp@-
   2e10e:	2d2d 2d2d      	movel %a5@(11565),%fp@-
   2e112:	2d2d 2d2d      	movel %a5@(11565),%fp@-
   2e116:	2d2d 2d2d      	movel %a5@(11565),%fp@-
   2e11a:	2d2d 2d2d      	movel %a5@(11565),%fp@-
   2e11e:	2d2d 2d2d      	movel %a5@(11565),%fp@-
   2e122:	2d2d 2d2d      	movel %a5@(11565),%fp@-
   2e126:	2d2d 2d2d      	movel %a5@(11565),%fp@-
   2e12a:	2d2d 2d2d      	movel %a5@(11565),%fp@-
   2e12e:	2d2d 2d2d      	movel %a5@(11565),%fp@-
   2e132:	2d2d 2d2d      	movel %a5@(11565),%fp@-
   2e136:	2d2d 2d2d      	movel %a5@(11565),%fp@-
   2e13a:	2d2d 2d2d      	movel %a5@(11565),%fp@-
   2e13e:	2d2d 2d2d      	movel %a5@(11565),%fp@-
   2e142:	2d2d 2d2d      	movel %a5@(11565),%fp@-
   2e146:	2d2d 2d2d      	movel %a5@(11565),%fp@-
   2e14a:	2d2d 2d2d      	movel %a5@(11565),%fp@-
   2e14e:	2d2d 2d2d      	movel %a5@(11565),%fp@-
   2e152:	2d2d 2d2d      	movel %a5@(11565),%fp@-
   2e156:	2d2d 2d2d      	movel %a5@(11565),%fp@-
   2e15a:	2d2d 2d2d      	movel %a5@(11565),%fp@-
   2e15e:	2d2d 2d2d      	movel %a5@(11565),%fp@-
   2e162:	2d2d 2d2d      	movel %a5@(11565),%fp@-
   2e166:	2d2d 2d2d      	movel %a5@(11565),%fp@-
   2e16a:	2d2d 2d2d      	movel %a5@(11565),%fp@-
   2e16e:	2d2d 2d2d      	movel %a5@(11565),%fp@-
   2e172:	2d2d 2d2d      	movel %a5@(11565),%fp@-
   2e176:	2d2d 3429      	movel %a5@(13353),%fp@-
   2e17a:	2929 2929      	movel %a1@(10537),%a4@-
   2e17e:	2929 2929      	movel %a1@(10537),%a4@-
   2e182:	2929 2929      	movel %a1@(10537),%a4@-
   2e186:	2929 2d2f      	movel %a1@(11567),%a4@-
   2e18a:	2d2d 232a      	movel %a5@(9002),%fp@-
   2e18e:	2c2c 2d2d      	movel %a4@(11565),%d6
   2e192:	2d2e 2e2e      	movel %fp@(11822),%fp@-
   2e196:	2e2e 2e2f      	movel %fp@(11823),%d7
   2e19a:	2f2f 2f2f      	movel %sp@(12079),%sp@-
   2e19e:	2f2f 2f2d      	movel %sp@(12077),%sp@-
   2e1a2:	2d2d 1717      	movel %a5@(5911),%fp@-
   2e1a6:	1717           	moveb %sp@,%a3@-
   2e1a8:	1717           	moveb %sp@,%a3@-
   2e1aa:	1717           	moveb %sp@,%a3@-
   2e1ac:	172d 1717      	moveb %a5@(5911),%a3@-
   2e1b0:	1717           	moveb %sp@,%a3@-
   2e1b2:	1717           	moveb %sp@,%a3@-
   2e1b4:	1717           	moveb %sp@,%a3@-
   2e1b6:	172d 1717      	moveb %a5@(5911),%a3@-
   2e1ba:	1717           	moveb %sp@,%a3@-
   2e1bc:	1717           	moveb %sp@,%a3@-
   2e1be:	1717           	moveb %sp@,%a3@-
   2e1c0:	172d 1717      	moveb %a5@(5911),%a3@-
   2e1c4:	172d 2d2d      	moveb %a5@(11565),%a3@-
   2e1c8:	1717           	moveb %sp@,%a3@-
   2e1ca:	172d 1717      	moveb %a5@(5911),%a3@-
   2e1ce:	1717           	moveb %sp@,%a3@-
   2e1d0:	1717           	moveb %sp@,%a3@-
   2e1d2:	1717           	moveb %sp@,%a3@-
   2e1d4:	172d 2d2d      	moveb %a5@(11565),%a3@-
   2e1d8:	2d2d 2d17      	movel %a5@(11543),%fp@-
   2e1dc:	1717           	moveb %sp@,%a3@-
   2e1de:	1717           	moveb %sp@,%a3@-
   2e1e0:	1717           	moveb %sp@,%a3@-
   2e1e2:	1717           	moveb %sp@,%a3@-
   2e1e4:	2d17           	movel %sp@,%fp@-
   2e1e6:	1717           	moveb %sp@,%a3@-
   2e1e8:	1717           	moveb %sp@,%a3@-
   2e1ea:	1717           	moveb %sp@,%a3@-
   2e1ec:	1717           	moveb %sp@,%a3@-
   2e1ee:	2d17           	movel %sp@,%fp@-
   2e1f0:	1717           	moveb %sp@,%a3@-
   2e1f2:	1717           	moveb %sp@,%a3@-
   2e1f4:	1717           	moveb %sp@,%a3@-
   2e1f6:	1717           	moveb %sp@,%a3@-
   2e1f8:	2d17           	movel %sp@,%fp@-
   2e1fa:	1717           	moveb %sp@,%a3@-
   2e1fc:	2d17           	movel %sp@,%fp@-
   2e1fe:	1717           	moveb %sp@,%a3@-
   2e200:	172d 2d17      	moveb %a5@(11543),%a3@-
   2e204:	1717           	moveb %sp@,%a3@-
   2e206:	1717           	moveb %sp@,%a3@-
   2e208:	1717           	moveb %sp@,%a3@-
   2e20a:	1717           	moveb %sp@,%a3@-
   2e20c:	2d17           	movel %sp@,%fp@-
   2e20e:	1717           	moveb %sp@,%a3@-
   2e210:	1717           	moveb %sp@,%a3@-
   2e212:	1717           	moveb %sp@,%a3@-
   2e214:	172d 2d2d      	moveb %a5@(11565),%a3@-
   2e218:	2d2d 2d2d      	movel %a5@(11565),%fp@-
   2e21c:	2d2d 2d2d      	movel %a5@(11565),%fp@-
   2e220:	2d34 2929 2929 	movel %a4@(00002929,%d2:l)@(00000000),%fp@-
   2e226:	2929 2929      	movel %a1@(10537),%a4@-
   2e22a:	2929 2929      	movel %a1@(10537),%a4@-
   2e22e:	2929 2929      	movel %a1@(10537),%a4@-
   2e232:	2929 2929      	movel %a1@(10537),%a4@-
   2e236:	2f2f 2d2d      	movel %sp@(11565),%sp@-
   2e23a:	2d2d 2d2d      	movel %a5@(11565),%fp@-
   2e23e:	2d2d 2d2d      	movel %a5@(11565),%fp@-
   2e242:	2d2d 2d2d      	movel %a5@(11565),%fp@-
   2e246:	2d2d 2d2d      	movel %a5@(11565),%fp@-
   2e24a:	2d2d 2d2d      	movel %a5@(11565),%fp@-
   2e24e:	2d2d 2d2d      	movel %a5@(11565),%fp@-
   2e252:	2d2d 2d2d      	movel %a5@(11565),%fp@-
   2e256:	2d2d 2d2d      	movel %a5@(11565),%fp@-
   2e25a:	2d2d 2d2d      	movel %a5@(11565),%fp@-
   2e25e:	2d2d 2d2d      	movel %a5@(11565),%fp@-
   2e262:	2d2d 2d2d      	movel %a5@(11565),%fp@-
   2e266:	2d2d 2d2d      	movel %a5@(11565),%fp@-
   2e26a:	2d2d 2d2d      	movel %a5@(11565),%fp@-
   2e26e:	2d2d 2d2d      	movel %a5@(11565),%fp@-
   2e272:	2d2d 2d2d      	movel %a5@(11565),%fp@-
   2e276:	2d2d 2d2d      	movel %a5@(11565),%fp@-
   2e27a:	2d2d 2d2d      	movel %a5@(11565),%fp@-
   2e27e:	2d2d 2d2d      	movel %a5@(11565),%fp@-
   2e282:	2d2d 2d2d      	movel %a5@(11565),%fp@-
   2e286:	2d2d 2d2d      	movel %a5@(11565),%fp@-
   2e28a:	2d2d 2d2d      	movel %a5@(11565),%fp@-
   2e28e:	2d2d 2d2d      	movel %a5@(11565),%fp@-
   2e292:	2d2d 2d2d      	movel %a5@(11565),%fp@-
   2e296:	2d2d 2d2d      	movel %a5@(11565),%fp@-
   2e29a:	2d2d 2d2d      	movel %a5@(11565),%fp@-
   2e29e:	2d2d 2d2d      	movel %a5@(11565),%fp@-
   2e2a2:	2d2d 2d2d      	movel %a5@(11565),%fp@-
   2e2a6:	2d2d 2d2d      	movel %a5@(11565),%fp@-
   2e2aa:	2d2d 2d2d      	movel %a5@(11565),%fp@-
   2e2ae:	2d2d 2d2d      	movel %a5@(11565),%fp@-
   2e2b2:	2d2d 2d2d      	movel %a5@(11565),%fp@-
   2e2b6:	2d2d 3429      	movel %a5@(13353),%fp@-
   2e2ba:	2929 2929      	movel %a1@(10537),%a4@-
   2e2be:	2929 2929      	movel %a1@(10537),%a4@-
   2e2c2:	2929 2929      	movel %a1@(10537),%a4@-
   2e2c6:	2929 2c2f      	movel %a1@(11311),%a4@-
   2e2ca:	2d2d 2f2f      	movel %a5@(12079),%fp@-
   2e2ce:	2f2f 2f2f      	movel %sp@(12079),%sp@-
   2e2d2:	2f2f 2f2f      	movel %sp@(12079),%sp@-
   2e2d6:	2f2f 2f2f      	movel %sp@(12079),%sp@-
   2e2da:	2f2f 2f2f      	movel %sp@(12079),%sp@-
   2e2de:	2f2f 2f2d      	movel %sp@(12077),%sp@-
   2e2e2:	2d2d 2d17      	movel %a5@(11543),%fp@-
   2e2e6:	1717           	moveb %sp@,%a3@-
   2e2e8:	1717           	moveb %sp@,%a3@-
   2e2ea:	1717           	moveb %sp@,%a3@-
   2e2ec:	2d2d 2d17      	movel %a5@(11543),%fp@-
   2e2f0:	1717           	moveb %sp@,%a3@-
   2e2f2:	1717           	moveb %sp@,%a3@-
   2e2f4:	1717           	moveb %sp@,%a3@-
   2e2f6:	2d2d 2d17      	movel %a5@(11543),%fp@-
   2e2fa:	1717           	moveb %sp@,%a3@-
   2e2fc:	1717           	moveb %sp@,%a3@-
   2e2fe:	1717           	moveb %sp@,%a3@-
   2e300:	2d2d 1717      	movel %a5@(5911),%fp@-
   2e304:	172d 2d2d      	moveb %a5@(11565),%a3@-
   2e308:	1717           	moveb %sp@,%a3@-
   2e30a:	172d 1717      	moveb %a5@(5911),%a3@-
   2e30e:	1717           	moveb %sp@,%a3@-
   2e310:	1717           	moveb %sp@,%a3@-
   2e312:	1717           	moveb %sp@,%a3@-
   2e314:	2d2d 2d2d      	movel %a5@(11565),%fp@-
   2e318:	2d2d 2d2d      	movel %a5@(11565),%fp@-
   2e31c:	1717           	moveb %sp@,%a3@-
   2e31e:	1717           	moveb %sp@,%a3@-
   2e320:	1717           	moveb %sp@,%a3@-
   2e322:	172d 2d2d      	moveb %a5@(11565),%a3@-
   2e326:	1717           	moveb %sp@,%a3@-
   2e328:	1717           	moveb %sp@,%a3@-
   2e32a:	1717           	moveb %sp@,%a3@-
   2e32c:	172d 2d2d      	moveb %a5@(11565),%a3@-
   2e330:	1717           	moveb %sp@,%a3@-
   2e332:	1717           	moveb %sp@,%a3@-
   2e334:	1717           	moveb %sp@,%a3@-
   2e336:	172d 2d17      	moveb %a5@(11543),%a3@-
   2e33a:	1717           	moveb %sp@,%a3@-
   2e33c:	2d2d 1717      	movel %a5@(5911),%fp@-
   2e340:	1717           	moveb %sp@,%a3@-
   2e342:	2d2d 1717      	movel %a5@(5911),%fp@-
   2e346:	1717           	moveb %sp@,%a3@-
   2e348:	1717           	moveb %sp@,%a3@-
   2e34a:	172d 2d17      	moveb %a5@(11543),%a3@-
   2e34e:	1717           	moveb %sp@,%a3@-
   2e350:	1717           	moveb %sp@,%a3@-
   2e352:	1717           	moveb %sp@,%a3@-
   2e354:	172d 2d2d      	moveb %a5@(11565),%a3@-
   2e358:	2d2d 2d2d      	movel %a5@(11565),%fp@-
   2e35c:	2d2d 2d2d      	movel %a5@(11565),%fp@-
   2e360:	2d34 2929 2929 	movel %a4@(00002929,%d2:l)@(00000000),%fp@-
   2e366:	2929 2929      	movel %a1@(10537),%a4@-
   2e36a:	2929 2929      	movel %a1@(10537),%a4@-
   2e36e:	2929 2929      	movel %a1@(10537),%a4@-
   2e372:	2929 2929      	movel %a1@(10537),%a4@-
   2e376:	2f2f 2d2d      	movel %sp@(11565),%sp@-
   2e37a:	2d2d 2d2d      	movel %a5@(11565),%fp@-
   2e37e:	2d2d 2d2d      	movel %a5@(11565),%fp@-
   2e382:	2d2d 2d2d      	movel %a5@(11565),%fp@-
   2e386:	2d2d 2d2d      	movel %a5@(11565),%fp@-
   2e38a:	2d2d 2d2d      	movel %a5@(11565),%fp@-
   2e38e:	2d2d 2d2d      	movel %a5@(11565),%fp@-
   2e392:	2d2d 2d2d      	movel %a5@(11565),%fp@-
   2e396:	2d2d 2d2d      	movel %a5@(11565),%fp@-
   2e39a:	2d2d 2d2d      	movel %a5@(11565),%fp@-
   2e39e:	2d2d 2d2d      	movel %a5@(11565),%fp@-
   2e3a2:	2d2d 2d2d      	movel %a5@(11565),%fp@-
   2e3a6:	2d2d 2d2d      	movel %a5@(11565),%fp@-
   2e3aa:	2d2d 2d2d      	movel %a5@(11565),%fp@-
   2e3ae:	2d2d 2d2d      	movel %a5@(11565),%fp@-
   2e3b2:	2d2d 2d2d      	movel %a5@(11565),%fp@-
   2e3b6:	2d2d 2d2d      	movel %a5@(11565),%fp@-
   2e3ba:	2d2d 2d2d      	movel %a5@(11565),%fp@-
   2e3be:	2d2d 2d2d      	movel %a5@(11565),%fp@-
   2e3c2:	2d2d 2d2d      	movel %a5@(11565),%fp@-
   2e3c6:	2d2d 2d2d      	movel %a5@(11565),%fp@-
   2e3ca:	2d2d 2d2d      	movel %a5@(11565),%fp@-
   2e3ce:	2d2d 2d2d      	movel %a5@(11565),%fp@-
   2e3d2:	2d2d 2d2d      	movel %a5@(11565),%fp@-
   2e3d6:	2d2d 2d2d      	movel %a5@(11565),%fp@-
   2e3da:	2d2d 2d2d      	movel %a5@(11565),%fp@-
   2e3de:	2d2d 2d2d      	movel %a5@(11565),%fp@-
   2e3e2:	2d2d 2d2d      	movel %a5@(11565),%fp@-
   2e3e6:	2d2d 2d2d      	movel %a5@(11565),%fp@-
   2e3ea:	2d2d 2d2d      	movel %a5@(11565),%fp@-
   2e3ee:	2d2d 2d2d      	movel %a5@(11565),%fp@-
   2e3f2:	2d2d 2d2d      	movel %a5@(11565),%fp@-
   2e3f6:	2d2d 3429      	movel %a5@(13353),%fp@-
   2e3fa:	2929 2929      	movel %a1@(10537),%a4@-
   2e3fe:	2929 2929      	movel %a1@(10537),%a4@-
   2e402:	2929 2929      	movel %a1@(10537),%a4@-
   2e406:	2929 2c2f      	movel %a1@(11311),%a4@-
   2e40a:	2d2d 2d2d      	movel %a5@(11565),%fp@-
   2e40e:	2d2d 2d2d      	movel %a5@(11565),%fp@-
   2e412:	2d2d 2d2d      	movel %a5@(11565),%fp@-
   2e416:	2d2d 2d2d      	movel %a5@(11565),%fp@-
   2e41a:	2d2d 2d2d      	movel %a5@(11565),%fp@-
   2e41e:	2d2d 2d2d      	movel %a5@(11565),%fp@-
   2e422:	2d2d 2d2d      	movel %a5@(11565),%fp@-
   2e426:	2d2d 2d2d      	movel %a5@(11565),%fp@-
   2e42a:	2d2d 2d2d      	movel %a5@(11565),%fp@-
   2e42e:	2d2d 2d2d      	movel %a5@(11565),%fp@-
   2e432:	2d2d 2d2d      	movel %a5@(11565),%fp@-
   2e436:	2d2d 2d2d      	movel %a5@(11565),%fp@-
   2e43a:	2d2d 2d2d      	movel %a5@(11565),%fp@-
   2e43e:	2d2d 2d2d      	movel %a5@(11565),%fp@-
   2e442:	2d2d 2d2d      	movel %a5@(11565),%fp@-
   2e446:	2d2d 2d2d      	movel %a5@(11565),%fp@-
   2e44a:	2d2d 2d2d      	movel %a5@(11565),%fp@-
   2e44e:	2d2d 2d2d      	movel %a5@(11565),%fp@-
   2e452:	2d2d 2d2d      	movel %a5@(11565),%fp@-
   2e456:	2d2d 2d2d      	movel %a5@(11565),%fp@-
   2e45a:	2d2d 2d2d      	movel %a5@(11565),%fp@-
   2e45e:	2d2d 2d2d      	movel %a5@(11565),%fp@-
   2e462:	2d2d 2d2d      	movel %a5@(11565),%fp@-
   2e466:	2d2d 2d2d      	movel %a5@(11565),%fp@-
   2e46a:	2d2d 2d2d      	movel %a5@(11565),%fp@-
   2e46e:	2d2d 2d2d      	movel %a5@(11565),%fp@-
   2e472:	2d2d 2d2d      	movel %a5@(11565),%fp@-
   2e476:	2d2d 2d2d      	movel %a5@(11565),%fp@-
   2e47a:	2d2d 2d2d      	movel %a5@(11565),%fp@-
   2e47e:	2d2d 2d2d      	movel %a5@(11565),%fp@-
   2e482:	2d2d 2d2d      	movel %a5@(11565),%fp@-
   2e486:	2d2d 2d2d      	movel %a5@(11565),%fp@-
   2e48a:	2d2d 2d2d      	movel %a5@(11565),%fp@-
   2e48e:	2d2d 2d2d      	movel %a5@(11565),%fp@-
   2e492:	2d2d 2d2d      	movel %a5@(11565),%fp@-
   2e496:	2d2d 2d2d      	movel %a5@(11565),%fp@-
   2e49a:	2d2d 2d2d      	movel %a5@(11565),%fp@-
   2e49e:	2d2d 2d34      	movel %a5@(11572),%fp@-
   2e4a2:	2929 2929      	movel %a1@(10537),%a4@-
   2e4a6:	2929 2929      	movel %a1@(10537),%a4@-
   2e4aa:	2929 2929      	movel %a1@(10537),%a4@-
   2e4ae:	2929 2929      	movel %a1@(10537),%a4@-
   2e4b2:	2929 2929      	movel %a1@(10537),%a4@-
   2e4b6:	2f2f 2d2d      	movel %sp@(11565),%sp@-
   2e4ba:	2d2d 2d2d      	movel %a5@(11565),%fp@-
   2e4be:	2d2d 2d2d      	movel %a5@(11565),%fp@-
   2e4c2:	2d2d 2d2d      	movel %a5@(11565),%fp@-
   2e4c6:	2d2d 2d2d      	movel %a5@(11565),%fp@-
   2e4ca:	2d2d 2d2d      	movel %a5@(11565),%fp@-
   2e4ce:	2d2d 2d2d      	movel %a5@(11565),%fp@-
   2e4d2:	2d2d 2d2d      	movel %a5@(11565),%fp@-
   2e4d6:	2d2d 2d2d      	movel %a5@(11565),%fp@-
   2e4da:	2d2d 2d2d      	movel %a5@(11565),%fp@-
   2e4de:	2d2d 2d2d      	movel %a5@(11565),%fp@-
   2e4e2:	2d2d 2d2d      	movel %a5@(11565),%fp@-
   2e4e6:	2d2d 2d2d      	movel %a5@(11565),%fp@-
   2e4ea:	2d2d 2d2d      	movel %a5@(11565),%fp@-
   2e4ee:	2d2d 2d2d      	movel %a5@(11565),%fp@-
   2e4f2:	2d2d 2d2d      	movel %a5@(11565),%fp@-
   2e4f6:	2d2d 2d2d      	movel %a5@(11565),%fp@-
   2e4fa:	2d2d 2d2d      	movel %a5@(11565),%fp@-
   2e4fe:	2d2d 2d2d      	movel %a5@(11565),%fp@-
   2e502:	2d2d 2d2d      	movel %a5@(11565),%fp@-
   2e506:	2d2d 2d2d      	movel %a5@(11565),%fp@-
   2e50a:	2d2d 2d2d      	movel %a5@(11565),%fp@-
   2e50e:	2d2d 2d2d      	movel %a5@(11565),%fp@-
   2e512:	2d2d 2d2d      	movel %a5@(11565),%fp@-
   2e516:	2d2d 2d2d      	movel %a5@(11565),%fp@-
   2e51a:	2d2d 2d2d      	movel %a5@(11565),%fp@-
   2e51e:	2d2d 2d2d      	movel %a5@(11565),%fp@-
   2e522:	2d2d 2d2d      	movel %a5@(11565),%fp@-
   2e526:	2d2d 2d2d      	movel %a5@(11565),%fp@-
   2e52a:	2d2d 2d2d      	movel %a5@(11565),%fp@-
   2e52e:	2d2d 2d2d      	movel %a5@(11565),%fp@-
   2e532:	2d2d 2d2d      	movel %a5@(11565),%fp@-
   2e536:	2d2d 3329      	movel %a5@(13097),%fp@-
   2e53a:	2929 2929      	movel %a1@(10537),%a4@-
   2e53e:	2929 2929      	movel %a1@(10537),%a4@-
   2e542:	2929 2929      	movel %a1@(10537),%a4@-
   2e546:	2929 2c2f      	movel %a1@(11311),%a4@-
   2e54a:	2d2d 2d2d      	movel %a5@(11565),%fp@-
   2e54e:	2d2d 2d2d      	movel %a5@(11565),%fp@-
   2e552:	2d2d 2d2d      	movel %a5@(11565),%fp@-
   2e556:	2d2d 2d2d      	movel %a5@(11565),%fp@-
   2e55a:	2d2d 2d2d      	movel %a5@(11565),%fp@-
   2e55e:	2d2d 2d2d      	movel %a5@(11565),%fp@-
   2e562:	2d2d 2d2d      	movel %a5@(11565),%fp@-
   2e566:	2d2d 2d2d      	movel %a5@(11565),%fp@-
   2e56a:	2d2d 2d2d      	movel %a5@(11565),%fp@-
   2e56e:	2d2d 2d2d      	movel %a5@(11565),%fp@-
   2e572:	2d2d 2d2d      	movel %a5@(11565),%fp@-
   2e576:	2d2d 2d2d      	movel %a5@(11565),%fp@-
   2e57a:	2d2d 2d2d      	movel %a5@(11565),%fp@-
   2e57e:	2d2d 2d2d      	movel %a5@(11565),%fp@-
   2e582:	2d2d 2d2d      	movel %a5@(11565),%fp@-
   2e586:	2d2d 2d2d      	movel %a5@(11565),%fp@-
   2e58a:	2d2d 2d2d      	movel %a5@(11565),%fp@-
   2e58e:	2d2d 2d2d      	movel %a5@(11565),%fp@-
   2e592:	2d2d 2d2d      	movel %a5@(11565),%fp@-
   2e596:	2d2d 2d2d      	movel %a5@(11565),%fp@-
   2e59a:	2d2d 2d2d      	movel %a5@(11565),%fp@-
   2e59e:	2d2d 2d2d      	movel %a5@(11565),%fp@-
   2e5a2:	2d2d 2d2d      	movel %a5@(11565),%fp@-
   2e5a6:	2d2d 2d2d      	movel %a5@(11565),%fp@-
   2e5aa:	2d2d 2d2d      	movel %a5@(11565),%fp@-
   2e5ae:	2d2d 2d2d      	movel %a5@(11565),%fp@-
   2e5b2:	2d2d 2d2d      	movel %a5@(11565),%fp@-
   2e5b6:	2d2d 2d2d      	movel %a5@(11565),%fp@-
   2e5ba:	2d2d 2d2d      	movel %a5@(11565),%fp@-
   2e5be:	2d2d 2d2d      	movel %a5@(11565),%fp@-
   2e5c2:	2d2d 2d2d      	movel %a5@(11565),%fp@-
   2e5c6:	2d2d 2d2d      	movel %a5@(11565),%fp@-
   2e5ca:	2d2d 2d2d      	movel %a5@(11565),%fp@-
   2e5ce:	2d2d 2d2d      	movel %a5@(11565),%fp@-
   2e5d2:	2d2d 2d2d      	movel %a5@(11565),%fp@-
   2e5d6:	2d2d 2d2d      	movel %a5@(11565),%fp@-
   2e5da:	2d2d 2d2d      	movel %a5@(11565),%fp@-
   2e5de:	2d2d 2d33      	movel %a5@(11571),%fp@-
   2e5e2:	2929 2929      	movel %a1@(10537),%a4@-
   2e5e6:	2929 2929      	movel %a1@(10537),%a4@-
   2e5ea:	2929 2929      	movel %a1@(10537),%a4@-
   2e5ee:	2929 2929      	movel %a1@(10537),%a4@-
   2e5f2:	2929 2929      	movel %a1@(10537),%a4@-
   2e5f6:	2f2f 2d2d      	movel %sp@(11565),%sp@-
   2e5fa:	2d2d 2d2d      	movel %a5@(11565),%fp@-
   2e5fe:	2d2d 2d2d      	movel %a5@(11565),%fp@-
   2e602:	2d2d 2d2d      	movel %a5@(11565),%fp@-
   2e606:	2d2d 2d2d      	movel %a5@(11565),%fp@-
   2e60a:	2d2d 2d2d      	movel %a5@(11565),%fp@-
   2e60e:	2d2d 2d2d      	movel %a5@(11565),%fp@-
   2e612:	2d2d 2d2d      	movel %a5@(11565),%fp@-
   2e616:	2d2d 2d2d      	movel %a5@(11565),%fp@-
   2e61a:	2d2d 2d2d      	movel %a5@(11565),%fp@-
   2e61e:	2d2d 2d2d      	movel %a5@(11565),%fp@-
   2e622:	2d2d 2d2d      	movel %a5@(11565),%fp@-
   2e626:	2d2d 2d2d      	movel %a5@(11565),%fp@-
   2e62a:	2d2d 2d2d      	movel %a5@(11565),%fp@-
   2e62e:	2d2d 2d2d      	movel %a5@(11565),%fp@-
   2e632:	2d2d 2d2d      	movel %a5@(11565),%fp@-
   2e636:	2d2d 2d2d      	movel %a5@(11565),%fp@-
   2e63a:	2d2d 2d2d      	movel %a5@(11565),%fp@-
   2e63e:	2d2d 2d2d      	movel %a5@(11565),%fp@-
   2e642:	2d2d 2d2d      	movel %a5@(11565),%fp@-
   2e646:	2d2d 2d2d      	movel %a5@(11565),%fp@-
   2e64a:	2d2d 2d2d      	movel %a5@(11565),%fp@-
   2e64e:	2d2d 2d2d      	movel %a5@(11565),%fp@-
   2e652:	2d2d 2d2d      	movel %a5@(11565),%fp@-
   2e656:	2d2d 2d2d      	movel %a5@(11565),%fp@-
   2e65a:	2d2d 2d2d      	movel %a5@(11565),%fp@-
   2e65e:	2d2d 2d2d      	movel %a5@(11565),%fp@-
   2e662:	2d2d 2d2d      	movel %a5@(11565),%fp@-
   2e666:	2d2d 2d2d      	movel %a5@(11565),%fp@-
   2e66a:	2d2d 2d2d      	movel %a5@(11565),%fp@-
   2e66e:	2d2d 2d2d      	movel %a5@(11565),%fp@-
   2e672:	2d2d 2d2d      	movel %a5@(11565),%fp@-
   2e676:	2d2d 3329      	movel %a5@(13097),%fp@-
   2e67a:	2929 2929      	movel %a1@(10537),%a4@-
   2e67e:	2929 2929      	movel %a1@(10537),%a4@-
   2e682:	2929 2929      	movel %a1@(10537),%a4@-
   2e686:	2929 2c2f      	movel %a1@(11311),%a4@-
   2e68a:	2d2d 2d2d      	movel %a5@(11565),%fp@-
   2e68e:	2d2d 2d2d      	movel %a5@(11565),%fp@-
   2e692:	2d2d 2d2d      	movel %a5@(11565),%fp@-
   2e696:	2d2d 2d2d      	movel %a5@(11565),%fp@-
   2e69a:	2d2d 2d2d      	movel %a5@(11565),%fp@-
   2e69e:	2d2d 2d2d      	movel %a5@(11565),%fp@-
   2e6a2:	2d2d 2d2d      	movel %a5@(11565),%fp@-
   2e6a6:	2d2d 2d2d      	movel %a5@(11565),%fp@-
   2e6aa:	2d2d 2d2d      	movel %a5@(11565),%fp@-
   2e6ae:	2d2d 2d2d      	movel %a5@(11565),%fp@-
   2e6b2:	2d2d 2d2d      	movel %a5@(11565),%fp@-
   2e6b6:	2d2d 2d2d      	movel %a5@(11565),%fp@-
   2e6ba:	2d2d 2d2d      	movel %a5@(11565),%fp@-
   2e6be:	2d2d 2d2d      	movel %a5@(11565),%fp@-
   2e6c2:	2d2d 2d2d      	movel %a5@(11565),%fp@-
   2e6c6:	2d2d 2d2d      	movel %a5@(11565),%fp@-
   2e6ca:	2d2d 2d2d      	movel %a5@(11565),%fp@-
   2e6ce:	2d2d 2d2d      	movel %a5@(11565),%fp@-
   2e6d2:	2d2d 2d2d      	movel %a5@(11565),%fp@-
   2e6d6:	2d2d 2d2d      	movel %a5@(11565),%fp@-
   2e6da:	2d2d 2d2d      	movel %a5@(11565),%fp@-
   2e6de:	2d2d 2d2d      	movel %a5@(11565),%fp@-
   2e6e2:	2d2d 2d2d      	movel %a5@(11565),%fp@-
   2e6e6:	2d2d 2d2d      	movel %a5@(11565),%fp@-
   2e6ea:	2d2d 2d2d      	movel %a5@(11565),%fp@-
   2e6ee:	2d2d 2d2d      	movel %a5@(11565),%fp@-
   2e6f2:	2d2d 2d2d      	movel %a5@(11565),%fp@-
   2e6f6:	2d2d 2d2d      	movel %a5@(11565),%fp@-
   2e6fa:	2d2d 2d2d      	movel %a5@(11565),%fp@-
   2e6fe:	2d2d 2d2d      	movel %a5@(11565),%fp@-
   2e702:	2d2d 2d2d      	movel %a5@(11565),%fp@-
   2e706:	2d2d 2d2d      	movel %a5@(11565),%fp@-
   2e70a:	2d2d 2d2d      	movel %a5@(11565),%fp@-
   2e70e:	2d2d 2d2d      	movel %a5@(11565),%fp@-
   2e712:	2d2d 2d2d      	movel %a5@(11565),%fp@-
   2e716:	2d2d 2d2d      	movel %a5@(11565),%fp@-
   2e71a:	2d2d 2d2d      	movel %a5@(11565),%fp@-
   2e71e:	2d2d 2d33      	movel %a5@(11571),%fp@-
   2e722:	2929 2929      	movel %a1@(10537),%a4@-
   2e726:	2929 2929      	movel %a1@(10537),%a4@-
   2e72a:	2929 2929      	movel %a1@(10537),%a4@-
   2e72e:	2929 2929      	movel %a1@(10537),%a4@-
   2e732:	2929 2929      	movel %a1@(10537),%a4@-
   2e736:	2525           	movel %a5@-,%a2@-
   2e738:	2524           	movel %a4@-,%a2@-
   2e73a:	2424           	movel %a4@-,%d2
   2e73c:	2424           	movel %a4@-,%d2
   2e73e:	2424           	movel %a4@-,%d2
   2e740:	2323           	movel %a3@-,%a1@-
   2e742:	2323           	movel %a3@-,%a1@-
   2e744:	2323           	movel %a3@-,%a1@-
   2e746:	2323           	movel %a3@-,%a1@-
   2e748:	2322           	movel %a2@-,%a1@-
   2e74a:	2222           	movel %a2@-,%d1
   2e74c:	2222           	movel %a2@-,%d1
   2e74e:	2222           	movel %a2@-,%d1
   2e750:	2222           	movel %a2@-,%d1
   2e752:	2222           	movel %a2@-,%d1
   2e754:	2222           	movel %a2@-,%d1
   2e756:	2222           	movel %a2@-,%d1
   2e758:	2222           	movel %a2@-,%d1
   2e75a:	2222           	movel %a2@-,%d1
   2e75c:	2222           	movel %a2@-,%d1
   2e75e:	2222           	movel %a2@-,%d1
   2e760:	2222           	movel %a2@-,%d1
   2e762:	2222           	movel %a2@-,%d1
   2e764:	2222           	movel %a2@-,%d1
   2e766:	2222           	movel %a2@-,%d1
   2e768:	2020           	movel %a0@-,%d0
   2e76a:	2020           	movel %a0@-,%d0
   2e76c:	2020           	movel %a0@-,%d0
   2e76e:	2020           	movel %a0@-,%d0
   2e770:	2020           	movel %a0@-,%d0
   2e772:	2020           	movel %a0@-,%d0
   2e774:	2020           	movel %a0@-,%d0
   2e776:	2020           	movel %a0@-,%d0
   2e778:	2020           	movel %a0@-,%d0
   2e77a:	2020           	movel %a0@-,%d0
   2e77c:	2020           	movel %a0@-,%d0
   2e77e:	2020           	movel %a0@-,%d0
   2e780:	2020           	movel %a0@-,%d0
   2e782:	3636 3636      	movew %fp@(00000036,%d3:w:8),%d3
   2e786:	3636 3636      	movew %fp@(00000036,%d3:w:8),%d3
   2e78a:	3636 3636      	movew %fp@(00000036,%d3:w:8),%d3
   2e78e:	3636 3636      	movew %fp@(00000036,%d3:w:8),%d3
   2e792:	3636 3636      	movew %fp@(00000036,%d3:w:8),%d3
   2e796:	3636 3636      	movew %fp@(00000036,%d3:w:8),%d3
   2e79a:	3636 3636      	movew %fp@(00000036,%d3:w:8),%d3
   2e79e:	3535 3535 3535 	movew %a5@(35353535)@(00000000,%d3:w:4),%a2@-
   2e7a4:	3535 
   2e7a6:	3535 3535 3535 	movew %a5@(35353535)@(00000000,%d3:w:4),%a2@-
   2e7ac:	3535 
   2e7ae:	3434 3434      	movew %a4@(00000034,%d3:w:4),%d2
   2e7b2:	3434 3434      	movew %a4@(00000034,%d3:w:4),%d2
   2e7b6:	3333 3229      	movew %a3@(00000029,%d3:w:2),%a1@-
   2e7ba:	2929 2929      	movel %a1@(10537),%a4@-
   2e7be:	2929 2929      	movel %a1@(10537),%a4@-
   2e7c2:	2929 2929      	movel %a1@(10537),%a4@-
   2e7c6:	2929 2824      	movel %a1@(10276),%a4@-
   2e7ca:	2324           	movel %a4@-,%a1@-
   2e7cc:	2424           	movel %a4@-,%d2
   2e7ce:	2424           	movel %a4@-,%d2
   2e7d0:	2424           	movel %a4@-,%d2
   2e7d2:	2424           	movel %a4@-,%d2
   2e7d4:	2424           	movel %a4@-,%d2
   2e7d6:	2423           	movel %a3@-,%d2
   2e7d8:	2323           	movel %a3@-,%a1@-
   2e7da:	2323           	movel %a3@-,%a1@-
   2e7dc:	2323           	movel %a3@-,%a1@-
   2e7de:	2323           	movel %a3@-,%a1@-
   2e7e0:	2323           	movel %a3@-,%a1@-
   2e7e2:	2222           	movel %a2@-,%d1
   2e7e4:	2222           	movel %a2@-,%d1
   2e7e6:	2222           	movel %a2@-,%d1
   2e7e8:	2222           	movel %a2@-,%d1
   2e7ea:	2222           	movel %a2@-,%d1
   2e7ec:	2222           	movel %a2@-,%d1
   2e7ee:	2222           	movel %a2@-,%d1
   2e7f0:	2222           	movel %a2@-,%d1
   2e7f2:	2222           	movel %a2@-,%d1
   2e7f4:	2222           	movel %a2@-,%d1
   2e7f6:	2222           	movel %a2@-,%d1
   2e7f8:	2121           	movel %a1@-,%a0@-
   2e7fa:	2121           	movel %a1@-,%a0@-
   2e7fc:	2121           	movel %a1@-,%a0@-
   2e7fe:	2121           	movel %a1@-,%a0@-
   2e800:	2121           	movel %a1@-,%a0@-
   2e802:	2121           	movel %a1@-,%a0@-
   2e804:	2121           	movel %a1@-,%a0@-
   2e806:	2121           	movel %a1@-,%a0@-
   2e808:	2121           	movel %a1@-,%a0@-
   2e80a:	2121           	movel %a1@-,%a0@-
   2e80c:	2121           	movel %a1@-,%a0@-
   2e80e:	2121           	movel %a1@-,%a0@-
   2e810:	2121           	movel %a1@-,%a0@-
   2e812:	2121           	movel %a1@-,%a0@-
   2e814:	2121           	movel %a1@-,%a0@-
   2e816:	2121           	movel %a1@-,%a0@-
   2e818:	2121           	movel %a1@-,%a0@-
   2e81a:	2121           	movel %a1@-,%a0@-
   2e81c:	2121           	movel %a1@-,%a0@-
   2e81e:	2121           	movel %a1@-,%a0@-
   2e820:	2121           	movel %a1@-,%a0@-
   2e822:	2121           	movel %a1@-,%a0@-
   2e824:	2121           	movel %a1@-,%a0@-
   2e826:	2121           	movel %a1@-,%a0@-
   2e828:	2121           	movel %a1@-,%a0@-
   2e82a:	2121           	movel %a1@-,%a0@-
   2e82c:	3737 3737 3737 	movew %sp@(37373737)@(37373737,%d3:w:8),%a3@-
   2e832:	3737 3737 3737 
   2e838:	3736 3636      	movew %fp@(00000036,%d3:w:8),%a3@-
   2e83c:	3636 3636      	movew %fp@(00000036,%d3:w:8),%d3
   2e840:	3636 3635      	movew %fp@(00000035,%d3:w:8),%d3
   2e844:	3535 3535 3535 	movew %a5@(35353535)@(00000000,%d3:w:4),%a2@-
   2e84a:	3535 
   2e84c:	3535 3535 350c 	movew %a5@(350c0c34)@(00000000,%d3:w:4),%a2@-
   2e852:	0c34 
   2e854:	3434 3434      	movew %a4@(00000034,%d3:w:4),%d2
   2e858:	3434 3434      	movew %a4@(00000034,%d3:w:4),%d2
   2e85c:	3434 3433      	movew %a4@(00000033,%d3:w:4),%d2
   2e860:	3332 2929 2929 	movew %a2@(00002929,%d2:l)@(00000000),%a1@-
   2e866:	2929 2929      	movel %a1@(10537),%a4@-
   2e86a:	2929 2929      	movel %a1@(10537),%a4@-
   2e86e:	2929 2929      	movel %a1@(10537),%a4@-
   2e872:	2929 2929      	movel %a1@(10537),%a4@-
   2e876:	2929 2929      	movel %a1@(10537),%a4@-
   2e87a:	2929 2929      	movel %a1@(10537),%a4@-
   2e87e:	2929 2929      	movel %a1@(10537),%a4@-
   2e882:	2929 2929      	movel %a1@(10537),%a4@-
   2e886:	2929 2929      	movel %a1@(10537),%a4@-
   2e88a:	2929 2929      	movel %a1@(10537),%a4@-
   2e88e:	2929 2929      	movel %a1@(10537),%a4@-
   2e892:	2929 2929      	movel %a1@(10537),%a4@-
   2e896:	2929 2929      	movel %a1@(10537),%a4@-
   2e89a:	2929 2929      	movel %a1@(10537),%a4@-
   2e89e:	2929 2929      	movel %a1@(10537),%a4@-
   2e8a2:	2929 2929      	movel %a1@(10537),%a4@-
   2e8a6:	2929 2929      	movel %a1@(10537),%a4@-
   2e8aa:	2929 2929      	movel %a1@(10537),%a4@-
   2e8ae:	2929 2929      	movel %a1@(10537),%a4@-
   2e8b2:	2929 2929      	movel %a1@(10537),%a4@-
   2e8b6:	2929 2929      	movel %a1@(10537),%a4@-
   2e8ba:	2929 2929      	movel %a1@(10537),%a4@-
   2e8be:	2929 2929      	movel %a1@(10537),%a4@-
   2e8c2:	2929 2929      	movel %a1@(10537),%a4@-
   2e8c6:	2929 2929      	movel %a1@(10537),%a4@-
   2e8ca:	2929 2929      	movel %a1@(10537),%a4@-
   2e8ce:	2929 2929      	movel %a1@(10537),%a4@-
   2e8d2:	2929 2929      	movel %a1@(10537),%a4@-
   2e8d6:	2929 2929      	movel %a1@(10537),%a4@-
   2e8da:	2929 2929      	movel %a1@(10537),%a4@-
   2e8de:	2929 2929      	movel %a1@(10537),%a4@-
   2e8e2:	2929 2929      	movel %a1@(10537),%a4@-
   2e8e6:	2929 2929      	movel %a1@(10537),%a4@-
   2e8ea:	2929 2929      	movel %a1@(10537),%a4@-
   2e8ee:	2929 2929      	movel %a1@(10537),%a4@-
   2e8f2:	2929 2929      	movel %a1@(10537),%a4@-
   2e8f6:	2929 2929      	movel %a1@(10537),%a4@-
   2e8fa:	2929 2929      	movel %a1@(10537),%a4@-
   2e8fe:	2929 2929      	movel %a1@(10537),%a4@-
   2e902:	2929 2929      	movel %a1@(10537),%a4@-
   2e906:	2929 2929      	movel %a1@(10537),%a4@-
   2e90a:	2929 2929      	movel %a1@(10537),%a4@-
   2e90e:	2929 2929      	movel %a1@(10537),%a4@-
   2e912:	2929 2929      	movel %a1@(10537),%a4@-
   2e916:	2929 2929      	movel %a1@(10537),%a4@-
   2e91a:	2929 2929      	movel %a1@(10537),%a4@-
   2e91e:	2929 2929      	movel %a1@(10537),%a4@-
   2e922:	2929 2929      	movel %a1@(10537),%a4@-
   2e926:	2929 2929      	movel %a1@(10537),%a4@-
   2e92a:	2929 2929      	movel %a1@(10537),%a4@-
   2e92e:	2929 2929      	movel %a1@(10537),%a4@-
   2e932:	2929 2929      	movel %a1@(10537),%a4@-
   2e936:	2929 2929      	movel %a1@(10537),%a4@-
   2e93a:	2929 2929      	movel %a1@(10537),%a4@-
   2e93e:	2929 2929      	movel %a1@(10537),%a4@-
   2e942:	2929 2929      	movel %a1@(10537),%a4@-
   2e946:	2929 2929      	movel %a1@(10537),%a4@-
   2e94a:	2929 2929      	movel %a1@(10537),%a4@-
   2e94e:	2929 2929      	movel %a1@(10537),%a4@-
   2e952:	2929 2929      	movel %a1@(10537),%a4@-
   2e956:	2929 2929      	movel %a1@(10537),%a4@-
   2e95a:	2929 2929      	movel %a1@(10537),%a4@-
   2e95e:	2929 2929      	movel %a1@(10537),%a4@-
   2e962:	2929 2929      	movel %a1@(10537),%a4@-
   2e966:	2929 2929      	movel %a1@(10537),%a4@-
   2e96a:	2929 2929      	movel %a1@(10537),%a4@-
   2e96e:	2929 2929      	movel %a1@(10537),%a4@-
   2e972:	2929 2929      	movel %a1@(10537),%a4@-
   2e976:	2929 2929      	movel %a1@(10537),%a4@-
   2e97a:	2929 2929      	movel %a1@(10537),%a4@-
   2e97e:	2929 2929      	movel %a1@(10537),%a4@-
   2e982:	2929 2929      	movel %a1@(10537),%a4@-
   2e986:	2929 2929      	movel %a1@(10537),%a4@-
   2e98a:	2929 2929      	movel %a1@(10537),%a4@-
   2e98e:	2929 2929      	movel %a1@(10537),%a4@-
   2e992:	2929 2929      	movel %a1@(10537),%a4@-
   2e996:	2929 2929      	movel %a1@(10537),%a4@-
   2e99a:	2929 2929      	movel %a1@(10537),%a4@-
   2e99e:	2929 2929      	movel %a1@(10537),%a4@-
   2e9a2:	2929 2929      	movel %a1@(10537),%a4@-
   2e9a6:	2929 2929      	movel %a1@(10537),%a4@-
   2e9aa:	2929 2929      	movel %a1@(10537),%a4@-
   2e9ae:	2929 2929      	movel %a1@(10537),%a4@-
   2e9b2:	2929 2929      	movel %a1@(10537),%a4@-
   2e9b6:	2929 2929      	movel %a1@(10537),%a4@-
   2e9ba:	2929 2929      	movel %a1@(10537),%a4@-
   2e9be:	2929 2929      	movel %a1@(10537),%a4@-
   2e9c2:	2929 2929      	movel %a1@(10537),%a4@-
   2e9c6:	2929 2929      	movel %a1@(10537),%a4@-
   2e9ca:	2929 2929      	movel %a1@(10537),%a4@-
   2e9ce:	2929 2929      	movel %a1@(10537),%a4@-
   2e9d2:	2929 2929      	movel %a1@(10537),%a4@-
   2e9d6:	2929 2929      	movel %a1@(10537),%a4@-
   2e9da:	2929 2929      	movel %a1@(10537),%a4@-
   2e9de:	2929 2929      	movel %a1@(10537),%a4@-
   2e9e2:	2929 2929      	movel %a1@(10537),%a4@-
   2e9e6:	2929 2929      	movel %a1@(10537),%a4@-
   2e9ea:	2929 2929      	movel %a1@(10537),%a4@-
   2e9ee:	2929 2929      	movel %a1@(10537),%a4@-
   2e9f2:	2929 2929      	movel %a1@(10537),%a4@-
   2e9f6:	2929 2929      	movel %a1@(10537),%a4@-
   2e9fa:	2929 2929      	movel %a1@(10537),%a4@-
   2e9fe:	2929 2929      	movel %a1@(10537),%a4@-
   2ea02:	2929 2929      	movel %a1@(10537),%a4@-
   2ea06:	2929 2929      	movel %a1@(10537),%a4@-
   2ea0a:	2929 2929      	movel %a1@(10537),%a4@-
   2ea0e:	2929 2929      	movel %a1@(10537),%a4@-
   2ea12:	2929 2929      	movel %a1@(10537),%a4@-
   2ea16:	2929 2929      	movel %a1@(10537),%a4@-
   2ea1a:	2929 2929      	movel %a1@(10537),%a4@-
   2ea1e:	2929 2929      	movel %a1@(10537),%a4@-
   2ea22:	2929 2929      	movel %a1@(10537),%a4@-
   2ea26:	2929 2929      	movel %a1@(10537),%a4@-
   2ea2a:	2929 2929      	movel %a1@(10537),%a4@-
   2ea2e:	2929 2929      	movel %a1@(10537),%a4@-
   2ea32:	2929 2929      	movel %a1@(10537),%a4@-
   2ea36:	2929 2929      	movel %a1@(10537),%a4@-
   2ea3a:	2929 2929      	movel %a1@(10537),%a4@-
   2ea3e:	2929 2929      	movel %a1@(10537),%a4@-
   2ea42:	2929 2929      	movel %a1@(10537),%a4@-
   2ea46:	2929 2929      	movel %a1@(10537),%a4@-
   2ea4a:	2929 2929      	movel %a1@(10537),%a4@-
   2ea4e:	2929 2929      	movel %a1@(10537),%a4@-
   2ea52:	2929 2929      	movel %a1@(10537),%a4@-
   2ea56:	2929 2929      	movel %a1@(10537),%a4@-
   2ea5a:	2929 2929      	movel %a1@(10537),%a4@-
   2ea5e:	2929 2929      	movel %a1@(10537),%a4@-
   2ea62:	2929 2929      	movel %a1@(10537),%a4@-
   2ea66:	2929 2929      	movel %a1@(10537),%a4@-
   2ea6a:	2929 2929      	movel %a1@(10537),%a4@-
   2ea6e:	2929 2929      	movel %a1@(10537),%a4@-
   2ea72:	2929 2929      	movel %a1@(10537),%a4@-
   2ea76:	2929 2929      	movel %a1@(10537),%a4@-
   2ea7a:	2929 2929      	movel %a1@(10537),%a4@-
   2ea7e:	2929 2929      	movel %a1@(10537),%a4@-
   2ea82:	2929 2929      	movel %a1@(10537),%a4@-
   2ea86:	2929 2929      	movel %a1@(10537),%a4@-
   2ea8a:	2929 2929      	movel %a1@(10537),%a4@-
   2ea8e:	2929 2929      	movel %a1@(10537),%a4@-
   2ea92:	2929 2929      	movel %a1@(10537),%a4@-
   2ea96:	2929 2929      	movel %a1@(10537),%a4@-
   2ea9a:	2929 2929      	movel %a1@(10537),%a4@-
   2ea9e:	2929 2929      	movel %a1@(10537),%a4@-
   2eaa2:	2929 2929      	movel %a1@(10537),%a4@-
   2eaa6:	2929 2929      	movel %a1@(10537),%a4@-
   2eaaa:	2929 2929      	movel %a1@(10537),%a4@-
   2eaae:	2929 2929      	movel %a1@(10537),%a4@-
   2eab2:	2929 2929      	movel %a1@(10537),%a4@-
   2eab6:	2929 2929      	movel %a1@(10537),%a4@-
   2eaba:	2929 2929      	movel %a1@(10537),%a4@-
   2eabe:	2929 2929      	movel %a1@(10537),%a4@-
   2eac2:	2929 2929      	movel %a1@(10537),%a4@-
   2eac6:	2929 2929      	movel %a1@(10537),%a4@-
   2eaca:	2929 2929      	movel %a1@(10537),%a4@-
   2eace:	2929 2929      	movel %a1@(10537),%a4@-
   2ead2:	2929 2929      	movel %a1@(10537),%a4@-
   2ead6:	2929 2929      	movel %a1@(10537),%a4@-
   2eada:	2929 2929      	movel %a1@(10537),%a4@-
   2eade:	2929 2929      	movel %a1@(10537),%a4@-
   2eae2:	2929 2929      	movel %a1@(10537),%a4@-
   2eae6:	2929 2929      	movel %a1@(10537),%a4@-
   2eaea:	2929 2929      	movel %a1@(10537),%a4@-
   2eaee:	2929 2929      	movel %a1@(10537),%a4@-
   2eaf2:	2929 2929      	movel %a1@(10537),%a4@-
   2eaf6:	2929 2929      	movel %a1@(10537),%a4@-
   2eafa:	2929 2929      	movel %a1@(10537),%a4@-
   2eafe:	2929 2929      	movel %a1@(10537),%a4@-
   2eb02:	2929 2929      	movel %a1@(10537),%a4@-
   2eb06:	2929 2929      	movel %a1@(10537),%a4@-
   2eb0a:	2929 2929      	movel %a1@(10537),%a4@-
   2eb0e:	2929 2929      	movel %a1@(10537),%a4@-
   2eb12:	2929 2929      	movel %a1@(10537),%a4@-
   2eb16:	2929 2929      	movel %a1@(10537),%a4@-
   2eb1a:	2929 2929      	movel %a1@(10537),%a4@-
   2eb1e:	2929 2929      	movel %a1@(10537),%a4@-
   2eb22:	2929 2929      	movel %a1@(10537),%a4@-
   2eb26:	2929 2929      	movel %a1@(10537),%a4@-
   2eb2a:	2929 2929      	movel %a1@(10537),%a4@-
   2eb2e:	2929 2929      	movel %a1@(10537),%a4@-
   2eb32:	2929 2929      	movel %a1@(10537),%a4@-
   2eb36:	2929 2929      	movel %a1@(10537),%a4@-
   2eb3a:	2929 2929      	movel %a1@(10537),%a4@-
   2eb3e:	2929 2929      	movel %a1@(10537),%a4@-
   2eb42:	2929 2929      	movel %a1@(10537),%a4@-
   2eb46:	2929 2929      	movel %a1@(10537),%a4@-
   2eb4a:	2929 2929      	movel %a1@(10537),%a4@-
   2eb4e:	2929 2929      	movel %a1@(10537),%a4@-
   2eb52:	2929 2929      	movel %a1@(10537),%a4@-
   2eb56:	2929 2929      	movel %a1@(10537),%a4@-
   2eb5a:	2929 2929      	movel %a1@(10537),%a4@-
   2eb5e:	2929 2929      	movel %a1@(10537),%a4@-
   2eb62:	2929 2929      	movel %a1@(10537),%a4@-
   2eb66:	2929 2929      	movel %a1@(10537),%a4@-
   2eb6a:	2929 2929      	movel %a1@(10537),%a4@-
   2eb6e:	2929 2929      	movel %a1@(10537),%a4@-
   2eb72:	2929 2929      	movel %a1@(10537),%a4@-
   2eb76:	2929 2929      	movel %a1@(10537),%a4@-
   2eb7a:	2929 2929      	movel %a1@(10537),%a4@-
   2eb7e:	2929 2929      	movel %a1@(10537),%a4@-
   2eb82:	2929 2929      	movel %a1@(10537),%a4@-
   2eb86:	2929 2929      	movel %a1@(10537),%a4@-
   2eb8a:	2929 2929      	movel %a1@(10537),%a4@-
   2eb8e:	2929 2929      	movel %a1@(10537),%a4@-
   2eb92:	2929 2929      	movel %a1@(10537),%a4@-
   2eb96:	2929 2929      	movel %a1@(10537),%a4@-
   2eb9a:	2929 2929      	movel %a1@(10537),%a4@-
   2eb9e:	2929 2929      	movel %a1@(10537),%a4@-
   2eba2:	2929 2929      	movel %a1@(10537),%a4@-
   2eba6:	2929 2929      	movel %a1@(10537),%a4@-
   2ebaa:	2929 2929      	movel %a1@(10537),%a4@-
   2ebae:	2929 2929      	movel %a1@(10537),%a4@-
   2ebb2:	2929 2929      	movel %a1@(10537),%a4@-
   2ebb6:	2929 2929      	movel %a1@(10537),%a4@-
   2ebba:	2929 2929      	movel %a1@(10537),%a4@-
   2ebbe:	2929 2929      	movel %a1@(10537),%a4@-
   2ebc2:	2929 2929      	movel %a1@(10537),%a4@-
   2ebc6:	2929 2929      	movel %a1@(10537),%a4@-
   2ebca:	2929 2929      	movel %a1@(10537),%a4@-
   2ebce:	2929 2929      	movel %a1@(10537),%a4@-
   2ebd2:	2929 2929      	movel %a1@(10537),%a4@-
   2ebd6:	2929 2929      	movel %a1@(10537),%a4@-
   2ebda:	2929 2929      	movel %a1@(10537),%a4@-
   2ebde:	2929 2929      	movel %a1@(10537),%a4@-
   2ebe2:	2929 2929      	movel %a1@(10537),%a4@-
   2ebe6:	2929 2929      	movel %a1@(10537),%a4@-
   2ebea:	2929 2929      	movel %a1@(10537),%a4@-
   2ebee:	2929 2929      	movel %a1@(10537),%a4@-
   2ebf2:	2929 2929      	movel %a1@(10537),%a4@-
   2ebf6:	2929 2929      	movel %a1@(10537),%a4@-
   2ebfa:	2929 2929      	movel %a1@(10537),%a4@-
   2ebfe:	2929 2929      	movel %a1@(10537),%a4@-
   2ec02:	2929 2929      	movel %a1@(10537),%a4@-
   2ec06:	2929 2929      	movel %a1@(10537),%a4@-
   2ec0a:	2929 2929      	movel %a1@(10537),%a4@-
   2ec0e:	2929 2929      	movel %a1@(10537),%a4@-
   2ec12:	2929 2929      	movel %a1@(10537),%a4@-
   2ec16:	2929 2929      	movel %a1@(10537),%a4@-
   2ec1a:	2929 2929      	movel %a1@(10537),%a4@-
   2ec1e:	2929 2929      	movel %a1@(10537),%a4@-
   2ec22:	2929 2929      	movel %a1@(10537),%a4@-
   2ec26:	2929 2929      	movel %a1@(10537),%a4@-
   2ec2a:	2929 2929      	movel %a1@(10537),%a4@-
   2ec2e:	2929 2929      	movel %a1@(10537),%a4@-
   2ec32:	2929 2929      	movel %a1@(10537),%a4@-
   2ec36:	2929 2929      	movel %a1@(10537),%a4@-
   2ec3a:	2929 2929      	movel %a1@(10537),%a4@-
   2ec3e:	2929 2929      	movel %a1@(10537),%a4@-
   2ec42:	2929 2929      	movel %a1@(10537),%a4@-
   2ec46:	2929 2929      	movel %a1@(10537),%a4@-
   2ec4a:	2929 2929      	movel %a1@(10537),%a4@-
   2ec4e:	2929 2929      	movel %a1@(10537),%a4@-
   2ec52:	2929 2929      	movel %a1@(10537),%a4@-
   2ec56:	2929 2929      	movel %a1@(10537),%a4@-
   2ec5a:	2929 2929      	movel %a1@(10537),%a4@-
   2ec5e:	2929 2929      	movel %a1@(10537),%a4@-
   2ec62:	2929 2929      	movel %a1@(10537),%a4@-
   2ec66:	2929 2929      	movel %a1@(10537),%a4@-
   2ec6a:	2929 2929      	movel %a1@(10537),%a4@-
   2ec6e:	2929 2929      	movel %a1@(10537),%a4@-
   2ec72:	2929 2929      	movel %a1@(10537),%a4@-
   2ec76:	2929 2929      	movel %a1@(10537),%a4@-
   2ec7a:	2929 2929      	movel %a1@(10537),%a4@-
   2ec7e:	2929 2929      	movel %a1@(10537),%a4@-
   2ec82:	2929 2929      	movel %a1@(10537),%a4@-
   2ec86:	2929 2929      	movel %a1@(10537),%a4@-
   2ec8a:	2929 2929      	movel %a1@(10537),%a4@-
   2ec8e:	2929 2929      	movel %a1@(10537),%a4@-
   2ec92:	2929 2929      	movel %a1@(10537),%a4@-
   2ec96:	2929 2929      	movel %a1@(10537),%a4@-
   2ec9a:	2929 2929      	movel %a1@(10537),%a4@-
   2ec9e:	2929 2929      	movel %a1@(10537),%a4@-
   2eca2:	2929 2929      	movel %a1@(10537),%a4@-
   2eca6:	2929 2929      	movel %a1@(10537),%a4@-
   2ecaa:	2929 2929      	movel %a1@(10537),%a4@-
   2ecae:	2929 2929      	movel %a1@(10537),%a4@-
   2ecb2:	2929 2929      	movel %a1@(10537),%a4@-
   2ecb6:	2929 2929      	movel %a1@(10537),%a4@-
   2ecba:	2929 2929      	movel %a1@(10537),%a4@-
   2ecbe:	2929 2929      	movel %a1@(10537),%a4@-
   2ecc2:	2929 2929      	movel %a1@(10537),%a4@-
   2ecc6:	2929 2929      	movel %a1@(10537),%a4@-
   2ecca:	2929 2929      	movel %a1@(10537),%a4@-
   2ecce:	2929 2929      	movel %a1@(10537),%a4@-
   2ecd2:	2929 2929      	movel %a1@(10537),%a4@-
   2ecd6:	2929 2929      	movel %a1@(10537),%a4@-
   2ecda:	2929 2929      	movel %a1@(10537),%a4@-
   2ecde:	2929 2929      	movel %a1@(10537),%a4@-
   2ece2:	2929 2929      	movel %a1@(10537),%a4@-
   2ece6:	2929 2929      	movel %a1@(10537),%a4@-
   2ecea:	2929 2929      	movel %a1@(10537),%a4@-
   2ecee:	2929 2929      	movel %a1@(10537),%a4@-
   2ecf2:	2929 2929      	movel %a1@(10537),%a4@-
   2ecf6:	2929 2929      	movel %a1@(10537),%a4@-
   2ecfa:	2929 2929      	movel %a1@(10537),%a4@-
   2ecfe:	2929 2929      	movel %a1@(10537),%a4@-
   2ed02:	2929 2929      	movel %a1@(10537),%a4@-
   2ed06:	2929 2929      	movel %a1@(10537),%a4@-
   2ed0a:	2929 2929      	movel %a1@(10537),%a4@-
   2ed0e:	2929 2929      	movel %a1@(10537),%a4@-
   2ed12:	2929 2929      	movel %a1@(10537),%a4@-
   2ed16:	2929 2929      	movel %a1@(10537),%a4@-
   2ed1a:	2929 2929      	movel %a1@(10537),%a4@-
   2ed1e:	2929 2929      	movel %a1@(10537),%a4@-
   2ed22:	2929 2929      	movel %a1@(10537),%a4@-
   2ed26:	2929 2929      	movel %a1@(10537),%a4@-
   2ed2a:	2929 2929      	movel %a1@(10537),%a4@-
   2ed2e:	2929 2929      	movel %a1@(10537),%a4@-
   2ed32:	2929 2929      	movel %a1@(10537),%a4@-
   2ed36:	2929 2929      	movel %a1@(10537),%a4@-
   2ed3a:	2929 2929      	movel %a1@(10537),%a4@-
   2ed3e:	2929 2929      	movel %a1@(10537),%a4@-
   2ed42:	2929 2929      	movel %a1@(10537),%a4@-
   2ed46:	2929 2929      	movel %a1@(10537),%a4@-
   2ed4a:	2929 2929      	movel %a1@(10537),%a4@-
   2ed4e:	2929 2929      	movel %a1@(10537),%a4@-
   2ed52:	2929 2929      	movel %a1@(10537),%a4@-
   2ed56:	2929 2929      	movel %a1@(10537),%a4@-
   2ed5a:	2929 2929      	movel %a1@(10537),%a4@-
   2ed5e:	2929 2929      	movel %a1@(10537),%a4@-
   2ed62:	2929 2929      	movel %a1@(10537),%a4@-
   2ed66:	2929 2929      	movel %a1@(10537),%a4@-
   2ed6a:	2929 2929      	movel %a1@(10537),%a4@-
   2ed6e:	2929 2929      	movel %a1@(10537),%a4@-
   2ed72:	2929 2929      	movel %a1@(10537),%a4@-
   2ed76:	2929 2929      	movel %a1@(10537),%a4@-
   2ed7a:	2929 2929      	movel %a1@(10537),%a4@-
   2ed7e:	2929 2929      	movel %a1@(10537),%a4@-
   2ed82:	2929 2929      	movel %a1@(10537),%a4@-
   2ed86:	2929 2929      	movel %a1@(10537),%a4@-
   2ed8a:	2929 2929      	movel %a1@(10537),%a4@-
   2ed8e:	2929 2929      	movel %a1@(10537),%a4@-
   2ed92:	2929 2929      	movel %a1@(10537),%a4@-
   2ed96:	2929 2929      	movel %a1@(10537),%a4@-
   2ed9a:	2929 2929      	movel %a1@(10537),%a4@-
   2ed9e:	2929 2929      	movel %a1@(10537),%a4@-
   2eda2:	2929 2929      	movel %a1@(10537),%a4@-
   2eda6:	2929 2929      	movel %a1@(10537),%a4@-
   2edaa:	2929 2929      	movel %a1@(10537),%a4@-
   2edae:	2929 2929      	movel %a1@(10537),%a4@-
   2edb2:	2929 2929      	movel %a1@(10537),%a4@-
   2edb6:	2929 2929      	movel %a1@(10537),%a4@-
   2edba:	2929 2929      	movel %a1@(10537),%a4@-
   2edbe:	2929 2929      	movel %a1@(10537),%a4@-
   2edc2:	2929 2929      	movel %a1@(10537),%a4@-
   2edc6:	2929 2929      	movel %a1@(10537),%a4@-
   2edca:	2929 2929      	movel %a1@(10537),%a4@-
   2edce:	2929 2929      	movel %a1@(10537),%a4@-
   2edd2:	2929 2929      	movel %a1@(10537),%a4@-
   2edd6:	2929 2929      	movel %a1@(10537),%a4@-
   2edda:	2929 2929      	movel %a1@(10537),%a4@-
   2edde:	2929 2929      	movel %a1@(10537),%a4@-
   2ede2:	2929 2929      	movel %a1@(10537),%a4@-
   2ede6:	2929 2929      	movel %a1@(10537),%a4@-
   2edea:	2929 2929      	movel %a1@(10537),%a4@-
   2edee:	2929 2929      	movel %a1@(10537),%a4@-
   2edf2:	2929 2929      	movel %a1@(10537),%a4@-
   2edf6:	2929 2929      	movel %a1@(10537),%a4@-
   2edfa:	2929 2929      	movel %a1@(10537),%a4@-
   2edfe:	2929 2929      	movel %a1@(10537),%a4@-
   2ee02:	2929 2929      	movel %a1@(10537),%a4@-
   2ee06:	2929 2929      	movel %a1@(10537),%a4@-
   2ee0a:	2929 2929      	movel %a1@(10537),%a4@-
   2ee0e:	2929 2929      	movel %a1@(10537),%a4@-
   2ee12:	2929 2929      	movel %a1@(10537),%a4@-
   2ee16:	2929 2929      	movel %a1@(10537),%a4@-
   2ee1a:	2929 2929      	movel %a1@(10537),%a4@-
   2ee1e:	2929 2929      	movel %a1@(10537),%a4@-
   2ee22:	2929 2929      	movel %a1@(10537),%a4@-
   2ee26:	2929 2929      	movel %a1@(10537),%a4@-
   2ee2a:	2929 2929      	movel %a1@(10537),%a4@-
   2ee2e:	2929 2929      	movel %a1@(10537),%a4@-
   2ee32:	2929 2929      	movel %a1@(10537),%a4@-
   2ee36:	2929 2929      	movel %a1@(10537),%a4@-
   2ee3a:	2929 2929      	movel %a1@(10537),%a4@-
   2ee3e:	2929 2929      	movel %a1@(10537),%a4@-
   2ee42:	2929 2929      	movel %a1@(10537),%a4@-
   2ee46:	2929 2929      	movel %a1@(10537),%a4@-
   2ee4a:	2929 2929      	movel %a1@(10537),%a4@-
   2ee4e:	2929 2929      	movel %a1@(10537),%a4@-
   2ee52:	2929 2929      	movel %a1@(10537),%a4@-
   2ee56:	2929 2929      	movel %a1@(10537),%a4@-
   2ee5a:	2929 2929      	movel %a1@(10537),%a4@-
   2ee5e:	2929 2929      	movel %a1@(10537),%a4@-
   2ee62:	2929 2929      	movel %a1@(10537),%a4@-
   2ee66:	2929 2929      	movel %a1@(10537),%a4@-
   2ee6a:	2929 2929      	movel %a1@(10537),%a4@-
   2ee6e:	2929 2929      	movel %a1@(10537),%a4@-
   2ee72:	2929 2929      	movel %a1@(10537),%a4@-
   2ee76:	2929 2929      	movel %a1@(10537),%a4@-
   2ee7a:	2929 2929      	movel %a1@(10537),%a4@-
   2ee7e:	2929 2929      	movel %a1@(10537),%a4@-
   2ee82:	2929 2929      	movel %a1@(10537),%a4@-
   2ee86:	2929 2929      	movel %a1@(10537),%a4@-
   2ee8a:	2929 2929      	movel %a1@(10537),%a4@-
   2ee8e:	2929 2929      	movel %a1@(10537),%a4@-
   2ee92:	2929 2929      	movel %a1@(10537),%a4@-
   2ee96:	2929 2929      	movel %a1@(10537),%a4@-
   2ee9a:	2929 2929      	movel %a1@(10537),%a4@-
   2ee9e:	2929 2929      	movel %a1@(10537),%a4@-
   2eea2:	2929 2929      	movel %a1@(10537),%a4@-
   2eea6:	2929 2929      	movel %a1@(10537),%a4@-
   2eeaa:	2929 2929      	movel %a1@(10537),%a4@-
   2eeae:	2929 2929      	movel %a1@(10537),%a4@-
   2eeb2:	2929 2929      	movel %a1@(10537),%a4@-
   2eeb6:	2929 2929      	movel %a1@(10537),%a4@-
   2eeba:	2929 2929      	movel %a1@(10537),%a4@-
   2eebe:	2929 2929      	movel %a1@(10537),%a4@-
   2eec2:	2929 2929      	movel %a1@(10537),%a4@-
   2eec6:	2929 2929      	movel %a1@(10537),%a4@-
   2eeca:	2929 2929      	movel %a1@(10537),%a4@-
   2eece:	2929 2929      	movel %a1@(10537),%a4@-
   2eed2:	2929 2929      	movel %a1@(10537),%a4@-
   2eed6:	2929 2929      	movel %a1@(10537),%a4@-
   2eeda:	2929 2929      	movel %a1@(10537),%a4@-
   2eede:	2929 2929      	movel %a1@(10537),%a4@-
   2eee2:	2929 2929      	movel %a1@(10537),%a4@-
   2eee6:	2929 2929      	movel %a1@(10537),%a4@-
   2eeea:	2929 2929      	movel %a1@(10537),%a4@-
   2eeee:	2929 2929      	movel %a1@(10537),%a4@-
   2eef2:	2929 2929      	movel %a1@(10537),%a4@-
   2eef6:	2929 2929      	movel %a1@(10537),%a4@-
   2eefa:	2929 2929      	movel %a1@(10537),%a4@-
   2eefe:	2929 2929      	movel %a1@(10537),%a4@-
   2ef02:	2929 2929      	movel %a1@(10537),%a4@-
   2ef06:	2929 2929      	movel %a1@(10537),%a4@-
   2ef0a:	2929 2929      	movel %a1@(10537),%a4@-
   2ef0e:	2929 2929      	movel %a1@(10537),%a4@-
   2ef12:	2929 2929      	movel %a1@(10537),%a4@-
   2ef16:	2929 2929      	movel %a1@(10537),%a4@-
   2ef1a:	2929 2929      	movel %a1@(10537),%a4@-
   2ef1e:	2929 2929      	movel %a1@(10537),%a4@-
   2ef22:	2929 2929      	movel %a1@(10537),%a4@-
   2ef26:	290e           	movel %fp,%a4@-
   2ef28:	0e0e           	.short 0x0e0e
   2ef2a:	0e0e           	.short 0x0e0e
   2ef2c:	2929 2929      	movel %a1@(10537),%a4@-
   2ef30:	2929 2929      	movel %a1@(10537),%a4@-
   2ef34:	2929 2929      	movel %a1@(10537),%a4@-
   2ef38:	2929 2929      	movel %a1@(10537),%a4@-
   2ef3c:	2929 2929      	movel %a1@(10537),%a4@-
   2ef40:	2929 2929      	movel %a1@(10537),%a4@-
   2ef44:	2929 2929      	movel %a1@(10537),%a4@-
   2ef48:	2929 2929      	movel %a1@(10537),%a4@-
   2ef4c:	2929 2929      	movel %a1@(10537),%a4@-
   2ef50:	2929 2929      	movel %a1@(10537),%a4@-
   2ef54:	2929 2929      	movel %a1@(10537),%a4@-
   2ef58:	2929 290e      	movel %a1@(10510),%a4@-
   2ef5c:	0e29           	.short 0x0e29
   2ef5e:	2929 2929      	movel %a1@(10537),%a4@-
   2ef62:	2929 2929      	movel %a1@(10537),%a4@-
   2ef66:	2929 2929      	movel %a1@(10537),%a4@-
   2ef6a:	2929 2929      	movel %a1@(10537),%a4@-
   2ef6e:	2929 2929      	movel %a1@(10537),%a4@-
   2ef72:	2929 2929      	movel %a1@(10537),%a4@-
   2ef76:	2929 2929      	movel %a1@(10537),%a4@-
   2ef7a:	2929 2929      	movel %a1@(10537),%a4@-
   2ef7e:	2929 2929      	movel %a1@(10537),%a4@-
   2ef82:	2929 2929      	movel %a1@(10537),%a4@-
   2ef86:	2929 2929      	movel %a1@(10537),%a4@-
   2ef8a:	2929 2929      	movel %a1@(10537),%a4@-
   2ef8e:	2929 2929      	movel %a1@(10537),%a4@-
   2ef92:	2929 2929      	movel %a1@(10537),%a4@-
   2ef96:	2929 2929      	movel %a1@(10537),%a4@-
   2ef9a:	2929 2929      	movel %a1@(10537),%a4@-
   2ef9e:	2929 2929      	movel %a1@(10537),%a4@-
   2efa2:	2929 2929      	movel %a1@(10537),%a4@-
   2efa6:	2929 2929      	movel %a1@(10537),%a4@-
   2efaa:	2929 2929      	movel %a1@(10537),%a4@-
   2efae:	2929 2929      	movel %a1@(10537),%a4@-
   2efb2:	2929 2929      	movel %a1@(10537),%a4@-
   2efb6:	2929 2929      	movel %a1@(10537),%a4@-
   2efba:	2929 2929      	movel %a1@(10537),%a4@-
   2efbe:	2929 2929      	movel %a1@(10537),%a4@-
   2efc2:	2929 2929      	movel %a1@(10537),%a4@-
   2efc6:	2929 2929      	movel %a1@(10537),%a4@-
   2efca:	2929 2929      	movel %a1@(10537),%a4@-
   2efce:	2929 2929      	movel %a1@(10537),%a4@-
   2efd2:	2929 2929      	movel %a1@(10537),%a4@-
   2efd6:	2929 2929      	movel %a1@(10537),%a4@-
   2efda:	2929 2929      	movel %a1@(10537),%a4@-
   2efde:	2929 2929      	movel %a1@(10537),%a4@-
   2efe2:	2929 2929      	movel %a1@(10537),%a4@-
   2efe6:	2929 2929      	movel %a1@(10537),%a4@-
   2efea:	2929 2929      	movel %a1@(10537),%a4@-
   2efee:	2929 2929      	movel %a1@(10537),%a4@-
   2eff2:	2929 2929      	movel %a1@(10537),%a4@-
   2eff6:	2929 2929      	movel %a1@(10537),%a4@-
   2effa:	2929 2929      	movel %a1@(10537),%a4@-
   2effe:	2929 2929      	movel %a1@(10537),%a4@-
   2f002:	2929 2929      	movel %a1@(10537),%a4@-
   2f006:	2929 2929      	movel %a1@(10537),%a4@-
   2f00a:	2929 2929      	movel %a1@(10537),%a4@-
   2f00e:	2929 2929      	movel %a1@(10537),%a4@-
   2f012:	2929 2929      	movel %a1@(10537),%a4@-
   2f016:	2929 2929      	movel %a1@(10537),%a4@-
   2f01a:	2929 2929      	movel %a1@(10537),%a4@-
   2f01e:	2929 2929      	movel %a1@(10537),%a4@-
   2f022:	2929 2929      	movel %a1@(10537),%a4@-
   2f026:	2929 2929      	movel %a1@(10537),%a4@-
   2f02a:	2929 2929      	movel %a1@(10537),%a4@-
   2f02e:	2929 2929      	movel %a1@(10537),%a4@-
   2f032:	2929 2929      	movel %a1@(10537),%a4@-
   2f036:	2929 2929      	movel %a1@(10537),%a4@-
   2f03a:	2929 2929      	movel %a1@(10537),%a4@-
   2f03e:	2929 2929      	movel %a1@(10537),%a4@-
   2f042:	2929 2929      	movel %a1@(10537),%a4@-
   2f046:	2929 2929      	movel %a1@(10537),%a4@-
   2f04a:	2929 2929      	movel %a1@(10537),%a4@-
   2f04e:	2929 2929      	movel %a1@(10537),%a4@-
   2f052:	2929 2929      	movel %a1@(10537),%a4@-
   2f056:	2929 2929      	movel %a1@(10537),%a4@-
   2f05a:	2929 2929      	movel %a1@(10537),%a4@-
   2f05e:	2929 2929      	movel %a1@(10537),%a4@-
   2f062:	2929 2929      	movel %a1@(10537),%a4@-
   2f066:	290e           	movel %fp,%a4@-
   2f068:	0e29           	.short 0x0e29
   2f06a:	290e           	movel %fp,%a4@-
   2f06c:	0e29           	.short 0x0e29
   2f06e:	2929 2929      	movel %a1@(10537),%a4@-
   2f072:	2929 2929      	movel %a1@(10537),%a4@-
   2f076:	2929 2929      	movel %a1@(10537),%a4@-
   2f07a:	2929 2929      	movel %a1@(10537),%a4@-
   2f07e:	2929 2929      	movel %a1@(10537),%a4@-
   2f082:	2929 2929      	movel %a1@(10537),%a4@-
   2f086:	2929 2929      	movel %a1@(10537),%a4@-
   2f08a:	2929 2929      	movel %a1@(10537),%a4@-
   2f08e:	2929 2929      	movel %a1@(10537),%a4@-
   2f092:	2929 2929      	movel %a1@(10537),%a4@-
   2f096:	2929 2929      	movel %a1@(10537),%a4@-
   2f09a:	290e           	movel %fp,%a4@-
   2f09c:	0e29           	.short 0x0e29
   2f09e:	2929 2929      	movel %a1@(10537),%a4@-
   2f0a2:	2929 2929      	movel %a1@(10537),%a4@-
   2f0a6:	2929 2929      	movel %a1@(10537),%a4@-
   2f0aa:	2929 2929      	movel %a1@(10537),%a4@-
   2f0ae:	2929 2929      	movel %a1@(10537),%a4@-
   2f0b2:	2929 2929      	movel %a1@(10537),%a4@-
   2f0b6:	2929 2929      	movel %a1@(10537),%a4@-
   2f0ba:	2929 2929      	movel %a1@(10537),%a4@-
   2f0be:	2929 2929      	movel %a1@(10537),%a4@-
   2f0c2:	2929 2929      	movel %a1@(10537),%a4@-
   2f0c6:	2929 2929      	movel %a1@(10537),%a4@-
   2f0ca:	2929 2929      	movel %a1@(10537),%a4@-
   2f0ce:	2929 2929      	movel %a1@(10537),%a4@-
   2f0d2:	2929 2929      	movel %a1@(10537),%a4@-
   2f0d6:	2929 2929      	movel %a1@(10537),%a4@-
   2f0da:	2929 2929      	movel %a1@(10537),%a4@-
   2f0de:	2929 2929      	movel %a1@(10537),%a4@-
   2f0e2:	2929 2929      	movel %a1@(10537),%a4@-
   2f0e6:	2929 2929      	movel %a1@(10537),%a4@-
   2f0ea:	2929 2929      	movel %a1@(10537),%a4@-
   2f0ee:	2929 2929      	movel %a1@(10537),%a4@-
   2f0f2:	2929 2929      	movel %a1@(10537),%a4@-
   2f0f6:	2929 2929      	movel %a1@(10537),%a4@-
   2f0fa:	2929 2929      	movel %a1@(10537),%a4@-
   2f0fe:	2929 2929      	movel %a1@(10537),%a4@-
   2f102:	2929 2929      	movel %a1@(10537),%a4@-
   2f106:	2929 2929      	movel %a1@(10537),%a4@-
   2f10a:	2929 2929      	movel %a1@(10537),%a4@-
   2f10e:	2929 2929      	movel %a1@(10537),%a4@-
   2f112:	2929 2929      	movel %a1@(10537),%a4@-
   2f116:	2929 2929      	movel %a1@(10537),%a4@-
   2f11a:	2929 2929      	movel %a1@(10537),%a4@-
   2f11e:	2929 2929      	movel %a1@(10537),%a4@-
   2f122:	2929 2929      	movel %a1@(10537),%a4@-
   2f126:	2929 2929      	movel %a1@(10537),%a4@-
   2f12a:	2929 2929      	movel %a1@(10537),%a4@-
   2f12e:	2929 2929      	movel %a1@(10537),%a4@-
   2f132:	2929 2929      	movel %a1@(10537),%a4@-
   2f136:	2929 2929      	movel %a1@(10537),%a4@-
   2f13a:	2929 2929      	movel %a1@(10537),%a4@-
   2f13e:	2929 2929      	movel %a1@(10537),%a4@-
   2f142:	2929 2929      	movel %a1@(10537),%a4@-
   2f146:	2929 2929      	movel %a1@(10537),%a4@-
   2f14a:	2929 2929      	movel %a1@(10537),%a4@-
   2f14e:	2929 2929      	movel %a1@(10537),%a4@-
   2f152:	2929 2929      	movel %a1@(10537),%a4@-
   2f156:	2929 2929      	movel %a1@(10537),%a4@-
   2f15a:	2929 2929      	movel %a1@(10537),%a4@-
   2f15e:	2929 2929      	movel %a1@(10537),%a4@-
   2f162:	2929 2929      	movel %a1@(10537),%a4@-
   2f166:	2929 2929      	movel %a1@(10537),%a4@-
   2f16a:	2929 2929      	movel %a1@(10537),%a4@-
   2f16e:	2929 2929      	movel %a1@(10537),%a4@-
   2f172:	2929 2929      	movel %a1@(10537),%a4@-
   2f176:	2929 2929      	movel %a1@(10537),%a4@-
   2f17a:	2929 2929      	movel %a1@(10537),%a4@-
   2f17e:	2929 2929      	movel %a1@(10537),%a4@-
   2f182:	2929 2929      	movel %a1@(10537),%a4@-
   2f186:	2929 2929      	movel %a1@(10537),%a4@-
   2f18a:	2929 2929      	movel %a1@(10537),%a4@-
   2f18e:	2929 2929      	movel %a1@(10537),%a4@-
   2f192:	2929 2929      	movel %a1@(10537),%a4@-
   2f196:	2929 2929      	movel %a1@(10537),%a4@-
   2f19a:	2929 2929      	movel %a1@(10537),%a4@-
   2f19e:	2929 2929      	movel %a1@(10537),%a4@-
   2f1a2:	2929 2929      	movel %a1@(10537),%a4@-
   2f1a6:	290e           	movel %fp,%a4@-
   2f1a8:	0e29           	.short 0x0e29
   2f1aa:	290e           	movel %fp,%a4@-
   2f1ac:	0e29           	.short 0x0e29
   2f1ae:	0e0e           	.short 0x0e0e
   2f1b0:	290e           	movel %fp,%a4@-
   2f1b2:	0e0e           	.short 0x0e0e
   2f1b4:	2929 0e0e      	movel %a1@(3598),%a4@-
   2f1b8:	0e0e           	.short 0x0e0e
   2f1ba:	2929 290e      	movel %a1@(10510),%a4@-
   2f1be:	0e0e           	.short 0x0e0e
   2f1c0:	0e0e           	.short 0x0e0e
   2f1c2:	2929 0e0e      	movel %a1@(3598),%a4@-
   2f1c6:	0e0e           	.short 0x0e0e
   2f1c8:	0e29           	.short 0x0e29
   2f1ca:	2929 2929      	movel %a1@(10537),%a4@-
   2f1ce:	2929 0e0e      	movel %a1@(3598),%a4@-
   2f1d2:	0e0e           	.short 0x0e0e
   2f1d4:	2929 2929      	movel %a1@(10537),%a4@-
   2f1d8:	2929 290e      	movel %a1@(10510),%a4@-
   2f1dc:	0e29           	.short 0x0e29
   2f1de:	290e           	movel %fp,%a4@-
   2f1e0:	0e29           	.short 0x0e29
   2f1e2:	290e           	movel %fp,%a4@-
   2f1e4:	0e0e           	.short 0x0e0e
   2f1e6:	0e29           	.short 0x0e29
   2f1e8:	290e           	movel %fp,%a4@-
   2f1ea:	0e29           	.short 0x0e29
   2f1ec:	290e           	movel %fp,%a4@-
   2f1ee:	0e29           	.short 0x0e29
   2f1f0:	2929 2929      	movel %a1@(10537),%a4@-
   2f1f4:	2929 2929      	movel %a1@(10537),%a4@-
   2f1f8:	2929 2929      	movel %a1@(10537),%a4@-
   2f1fc:	2929 2929      	movel %a1@(10537),%a4@-
   2f200:	2929 2929      	movel %a1@(10537),%a4@-
   2f204:	2929 2929      	movel %a1@(10537),%a4@-
   2f208:	2929 2929      	movel %a1@(10537),%a4@-
   2f20c:	2929 2929      	movel %a1@(10537),%a4@-
   2f210:	2929 2929      	movel %a1@(10537),%a4@-
   2f214:	2929 2929      	movel %a1@(10537),%a4@-
   2f218:	2929 2929      	movel %a1@(10537),%a4@-
   2f21c:	2929 2929      	movel %a1@(10537),%a4@-
   2f220:	2929 2929      	movel %a1@(10537),%a4@-
   2f224:	2929 2929      	movel %a1@(10537),%a4@-
   2f228:	2929 2929      	movel %a1@(10537),%a4@-
   2f22c:	2929 2929      	movel %a1@(10537),%a4@-
   2f230:	2929 2929      	movel %a1@(10537),%a4@-
   2f234:	2929 2929      	movel %a1@(10537),%a4@-
   2f238:	2929 2929      	movel %a1@(10537),%a4@-
   2f23c:	2929 2929      	movel %a1@(10537),%a4@-
   2f240:	2929 2929      	movel %a1@(10537),%a4@-
   2f244:	2929 2929      	movel %a1@(10537),%a4@-
   2f248:	2929 2929      	movel %a1@(10537),%a4@-
   2f24c:	2929 2929      	movel %a1@(10537),%a4@-
   2f250:	2929 2929      	movel %a1@(10537),%a4@-
   2f254:	2929 2929      	movel %a1@(10537),%a4@-
   2f258:	2929 2929      	movel %a1@(10537),%a4@-
   2f25c:	2929 292a      	movel %a1@(10538),%a4@-
   2f260:	2c29 2929      	movel %a1@(10537),%d6
   2f264:	292a 2c29      	movel %a2@(11305),%a4@-
   2f268:	2929 2929      	movel %a1@(10537),%a4@-
   2f26c:	2929 2929      	movel %a1@(10537),%a4@-
   2f270:	2929 2929      	movel %a1@(10537),%a4@-
   2f274:	2929 2929      	movel %a1@(10537),%a4@-
   2f278:	2929 2929      	movel %a1@(10537),%a4@-
   2f27c:	2929 2929      	movel %a1@(10537),%a4@-
   2f280:	2929 2929      	movel %a1@(10537),%a4@-
   2f284:	2929 2929      	movel %a1@(10537),%a4@-
   2f288:	2929 2929      	movel %a1@(10537),%a4@-
   2f28c:	2929 2929      	movel %a1@(10537),%a4@-
   2f290:	2929 2929      	movel %a1@(10537),%a4@-
   2f294:	2929 2929      	movel %a1@(10537),%a4@-
   2f298:	2929 2929      	movel %a1@(10537),%a4@-
   2f29c:	2929 2929      	movel %a1@(10537),%a4@-
   2f2a0:	2929 2929      	movel %a1@(10537),%a4@-
   2f2a4:	2929 2929      	movel %a1@(10537),%a4@-
   2f2a8:	2929 2929      	movel %a1@(10537),%a4@-
   2f2ac:	2929 2929      	movel %a1@(10537),%a4@-
   2f2b0:	2929 2929      	movel %a1@(10537),%a4@-
   2f2b4:	2929 2929      	movel %a1@(10537),%a4@-
   2f2b8:	2929 2929      	movel %a1@(10537),%a4@-
   2f2bc:	2929 2929      	movel %a1@(10537),%a4@-
   2f2c0:	2929 2929      	movel %a1@(10537),%a4@-
   2f2c4:	2929 2929      	movel %a1@(10537),%a4@-
   2f2c8:	2929 2929      	movel %a1@(10537),%a4@-
   2f2cc:	2929 2929      	movel %a1@(10537),%a4@-
   2f2d0:	2929 2929      	movel %a1@(10537),%a4@-
   2f2d4:	2929 2929      	movel %a1@(10537),%a4@-
   2f2d8:	2929 2929      	movel %a1@(10537),%a4@-
   2f2dc:	2929 2929      	movel %a1@(10537),%a4@-
   2f2e0:	2929 2929      	movel %a1@(10537),%a4@-
   2f2e4:	2929 290e      	movel %a1@(10510),%a4@-
   2f2e8:	0e0e           	.short 0x0e0e
   2f2ea:	0e0e           	.short 0x0e0e
   2f2ec:	2929 0e0e      	movel %a1@(3598),%a4@-
   2f2f0:	0e29           	.short 0x0e29
   2f2f2:	2929 290e      	movel %a1@(10510),%a4@-
   2f2f6:	0e29           	.short 0x0e29
   2f2f8:	290e           	movel %fp,%a4@-
   2f2fa:	0e29           	.short 0x0e29
   2f2fc:	0e0e           	.short 0x0e0e
   2f2fe:	2929 2929      	movel %a1@(10537),%a4@-
   2f302:	290e           	movel %fp,%a4@-
   2f304:	0e29           	.short 0x0e29
   2f306:	2929 2929      	movel %a1@(10537),%a4@-
   2f30a:	2929 2929      	movel %a1@(10537),%a4@-
   2f30e:	2929 2929      	movel %a1@(10537),%a4@-
   2f312:	290e           	movel %fp,%a4@-
   2f314:	0e29           	.short 0x0e29
   2f316:	2929 2929      	movel %a1@(10537),%a4@-
   2f31a:	290e           	movel %fp,%a4@-
   2f31c:	0e29           	.short 0x0e29
   2f31e:	0e0e           	.short 0x0e0e
   2f320:	2929 0e0e      	movel %a1@(3598),%a4@-
   2f324:	2929 0e0e      	movel %a1@(3598),%a4@-
   2f328:	290e           	movel %fp,%a4@-
   2f32a:	0e29           	.short 0x0e29
   2f32c:	290e           	movel %fp,%a4@-
   2f32e:	0e29           	.short 0x0e29
   2f330:	2929 2929      	movel %a1@(10537),%a4@-
   2f334:	2929 2929      	movel %a1@(10537),%a4@-
   2f338:	2929 2929      	movel %a1@(10537),%a4@-
   2f33c:	2929 2929      	movel %a1@(10537),%a4@-
   2f340:	2929 2929      	movel %a1@(10537),%a4@-
   2f344:	2929 2929      	movel %a1@(10537),%a4@-
   2f348:	2929 2929      	movel %a1@(10537),%a4@-
   2f34c:	2929 2929      	movel %a1@(10537),%a4@-
   2f350:	2929 2929      	movel %a1@(10537),%a4@-
   2f354:	2929 2929      	movel %a1@(10537),%a4@-
   2f358:	2929 2929      	movel %a1@(10537),%a4@-
   2f35c:	2929 2929      	movel %a1@(10537),%a4@-
   2f360:	2929 2929      	movel %a1@(10537),%a4@-
   2f364:	2929 2929      	movel %a1@(10537),%a4@-
   2f368:	2929 2929      	movel %a1@(10537),%a4@-
   2f36c:	2929 2929      	movel %a1@(10537),%a4@-
   2f370:	2929 2929      	movel %a1@(10537),%a4@-
   2f374:	2929 2929      	movel %a1@(10537),%a4@-
   2f378:	2929 2929      	movel %a1@(10537),%a4@-
   2f37c:	2929 2929      	movel %a1@(10537),%a4@-
   2f380:	2929 2929      	movel %a1@(10537),%a4@-
   2f384:	2929 2929      	movel %a1@(10537),%a4@-
   2f388:	2929 2929      	movel %a1@(10537),%a4@-
   2f38c:	2929 2929      	movel %a1@(10537),%a4@-
   2f390:	2929 2929      	movel %a1@(10537),%a4@-
   2f394:	2929 2929      	movel %a1@(10537),%a4@-
   2f398:	2929 2929      	movel %a1@(10537),%a4@-
   2f39c:	2929 292c      	movel %a1@(10540),%a4@-
   2f3a0:	2c29 2929      	movel %a1@(10537),%d6
   2f3a4:	292c 2c29      	movel %a4@(11305),%a4@-
   2f3a8:	2929 2929      	movel %a1@(10537),%a4@-
   2f3ac:	2929 2929      	movel %a1@(10537),%a4@-
   2f3b0:	2929 2929      	movel %a1@(10537),%a4@-
   2f3b4:	2929 2929      	movel %a1@(10537),%a4@-
   2f3b8:	2929 2929      	movel %a1@(10537),%a4@-
   2f3bc:	2929 2929      	movel %a1@(10537),%a4@-
   2f3c0:	2929 2929      	movel %a1@(10537),%a4@-
   2f3c4:	2929 2929      	movel %a1@(10537),%a4@-
   2f3c8:	2929 2929      	movel %a1@(10537),%a4@-
   2f3cc:	2929 2929      	movel %a1@(10537),%a4@-
   2f3d0:	2929 2929      	movel %a1@(10537),%a4@-
   2f3d4:	2929 2929      	movel %a1@(10537),%a4@-
   2f3d8:	2929 2929      	movel %a1@(10537),%a4@-
   2f3dc:	2929 2929      	movel %a1@(10537),%a4@-
   2f3e0:	2929 2929      	movel %a1@(10537),%a4@-
   2f3e4:	2929 2929      	movel %a1@(10537),%a4@-
   2f3e8:	2929 2929      	movel %a1@(10537),%a4@-
   2f3ec:	2929 2929      	movel %a1@(10537),%a4@-
   2f3f0:	2929 2929      	movel %a1@(10537),%a4@-
   2f3f4:	2929 2929      	movel %a1@(10537),%a4@-
   2f3f8:	2929 2929      	movel %a1@(10537),%a4@-
   2f3fc:	2929 2929      	movel %a1@(10537),%a4@-
   2f400:	2929 2929      	movel %a1@(10537),%a4@-
   2f404:	2929 2929      	movel %a1@(10537),%a4@-
   2f408:	2929 2929      	movel %a1@(10537),%a4@-
   2f40c:	2929 2929      	movel %a1@(10537),%a4@-
   2f410:	2929 2929      	movel %a1@(10537),%a4@-
   2f414:	2929 2929      	movel %a1@(10537),%a4@-
   2f418:	2929 2929      	movel %a1@(10537),%a4@-
   2f41c:	2929 2929      	movel %a1@(10537),%a4@-
   2f420:	2929 2929      	movel %a1@(10537),%a4@-
   2f424:	2929 290e      	movel %a1@(10510),%a4@-
   2f428:	0e29           	.short 0x0e29
   2f42a:	2929 2929      	movel %a1@(10537),%a4@-
   2f42e:	0e0e           	.short 0x0e0e
   2f430:	2929 2929      	movel %a1@(10537),%a4@-
   2f434:	290e           	movel %fp,%a4@-
   2f436:	0e0e           	.short 0x0e0e
   2f438:	0e0e           	.short 0x0e0e
   2f43a:	0e29           	.short 0x0e29
   2f43c:	290e           	movel %fp,%a4@-
   2f43e:	0e0e           	.short 0x0e0e
   2f440:	0e29           	.short 0x0e29
   2f442:	2929 0e0e      	movel %a1@(3598),%a4@-
   2f446:	0e0e           	.short 0x0e0e
   2f448:	2929 2929      	movel %a1@(10537),%a4@-
   2f44c:	2929 2929      	movel %a1@(10537),%a4@-
   2f450:	0e0e           	.short 0x0e0e
   2f452:	0e0e           	.short 0x0e0e
   2f454:	0e29           	.short 0x0e29
   2f456:	2929 2929      	movel %a1@(10537),%a4@-
   2f45a:	290e           	movel %fp,%a4@-
   2f45c:	0e0e           	.short 0x0e0e
   2f45e:	0e29           	.short 0x0e29
   2f460:	2929 0e0e      	movel %a1@(3598),%a4@-
   2f464:	0e0e           	.short 0x0e0e
   2f466:	0e0e           	.short 0x0e0e
   2f468:	290e           	movel %fp,%a4@-
   2f46a:	0e29           	.short 0x0e29
   2f46c:	290e           	movel %fp,%a4@-
   2f46e:	0e29           	.short 0x0e29
   2f470:	2929 2929      	movel %a1@(10537),%a4@-
   2f474:	2929 2929      	movel %a1@(10537),%a4@-
   2f478:	2929 2929      	movel %a1@(10537),%a4@-
   2f47c:	2929 2929      	movel %a1@(10537),%a4@-
   2f480:	2929 2929      	movel %a1@(10537),%a4@-
   2f484:	2929 2929      	movel %a1@(10537),%a4@-
   2f488:	2929 2929      	movel %a1@(10537),%a4@-
   2f48c:	2929 2929      	movel %a1@(10537),%a4@-
   2f490:	2929 2929      	movel %a1@(10537),%a4@-
   2f494:	2929 2929      	movel %a1@(10537),%a4@-
   2f498:	2929 2929      	movel %a1@(10537),%a4@-
   2f49c:	2929 2929      	movel %a1@(10537),%a4@-
   2f4a0:	2929 2929      	movel %a1@(10537),%a4@-
   2f4a4:	2929 2929      	movel %a1@(10537),%a4@-
   2f4a8:	2929 2929      	movel %a1@(10537),%a4@-
   2f4ac:	2929 2929      	movel %a1@(10537),%a4@-
   2f4b0:	2929 2929      	movel %a1@(10537),%a4@-
   2f4b4:	2929 2929      	movel %a1@(10537),%a4@-
   2f4b8:	2929 2929      	movel %a1@(10537),%a4@-
   2f4bc:	2929 2929      	movel %a1@(10537),%a4@-
   2f4c0:	2929 2929      	movel %a1@(10537),%a4@-
   2f4c4:	2929 2929      	movel %a1@(10537),%a4@-
   2f4c8:	2929 2929      	movel %a1@(10537),%a4@-
   2f4cc:	2929 2929      	movel %a1@(10537),%a4@-
   2f4d0:	2929 2929      	movel %a1@(10537),%a4@-
   2f4d4:	2929 2929      	movel %a1@(10537),%a4@-
   2f4d8:	292c 2929      	movel %a4@(10537),%a4@-
   2f4dc:	292c 2929      	movel %a4@(10537),%a4@-
   2f4e0:	2c29 2929      	movel %a1@(10537),%d6
   2f4e4:	2929 2c29      	movel %a1@(11305),%a4@-
   2f4e8:	2929 2929      	movel %a1@(10537),%a4@-
   2f4ec:	2929 2929      	movel %a1@(10537),%a4@-
   2f4f0:	2929 2929      	movel %a1@(10537),%a4@-
   2f4f4:	2929 2929      	movel %a1@(10537),%a4@-
   2f4f8:	2929 2929      	movel %a1@(10537),%a4@-
   2f4fc:	2929 2929      	movel %a1@(10537),%a4@-
   2f500:	2929 2929      	movel %a1@(10537),%a4@-
   2f504:	2929 2929      	movel %a1@(10537),%a4@-
   2f508:	2929 2929      	movel %a1@(10537),%a4@-
   2f50c:	2929 2929      	movel %a1@(10537),%a4@-
   2f510:	2929 2929      	movel %a1@(10537),%a4@-
   2f514:	2929 2929      	movel %a1@(10537),%a4@-
   2f518:	2929 2929      	movel %a1@(10537),%a4@-
   2f51c:	2929 2929      	movel %a1@(10537),%a4@-
   2f520:	2929 2929      	movel %a1@(10537),%a4@-
   2f524:	2929 2929      	movel %a1@(10537),%a4@-
   2f528:	2929 2929      	movel %a1@(10537),%a4@-
   2f52c:	2929 2929      	movel %a1@(10537),%a4@-
   2f530:	2929 2929      	movel %a1@(10537),%a4@-
   2f534:	2929 2929      	movel %a1@(10537),%a4@-
   2f538:	2929 2929      	movel %a1@(10537),%a4@-
   2f53c:	2929 2929      	movel %a1@(10537),%a4@-
   2f540:	2929 2929      	movel %a1@(10537),%a4@-
   2f544:	2929 2929      	movel %a1@(10537),%a4@-
   2f548:	2929 2929      	movel %a1@(10537),%a4@-
   2f54c:	2929 2929      	movel %a1@(10537),%a4@-
   2f550:	2929 2929      	movel %a1@(10537),%a4@-
   2f554:	2929 2929      	movel %a1@(10537),%a4@-
   2f558:	2929 2929      	movel %a1@(10537),%a4@-
   2f55c:	2929 2929      	movel %a1@(10537),%a4@-
   2f560:	2929 2929      	movel %a1@(10537),%a4@-
   2f564:	2929 290e      	movel %a1@(10510),%a4@-
   2f568:	0e29           	.short 0x0e29
   2f56a:	2929 2929      	movel %a1@(10537),%a4@-
   2f56e:	0e0e           	.short 0x0e0e
   2f570:	2929 2929      	movel %a1@(10537),%a4@-
   2f574:	290e           	movel %fp,%a4@-
   2f576:	0e29           	.short 0x0e29
   2f578:	2929 2929      	movel %a1@(10537),%a4@-
   2f57c:	2929 2929      	movel %a1@(10537),%a4@-
   2f580:	0e0e           	.short 0x0e0e
   2f582:	2929 2929      	movel %a1@(10537),%a4@-
   2f586:	290e           	movel %fp,%a4@-
   2f588:	0e29           	.short 0x0e29
   2f58a:	2929 2929      	movel %a1@(10537),%a4@-
   2f58e:	290e           	movel %fp,%a4@-
   2f590:	0e29           	.short 0x0e29
   2f592:	290e           	movel %fp,%a4@-
   2f594:	0e29           	.short 0x0e29
   2f596:	2929 2929      	movel %a1@(10537),%a4@-
   2f59a:	290e           	movel %fp,%a4@-
   2f59c:	0e29           	.short 0x0e29
   2f59e:	0e0e           	.short 0x0e0e
   2f5a0:	2929 0e0e      	movel %a1@(3598),%a4@-
   2f5a4:	2929 2929      	movel %a1@(10537),%a4@-
   2f5a8:	2929 0e0e      	movel %a1@(3598),%a4@-
   2f5ac:	0e0e           	.short 0x0e0e
   2f5ae:	0e29           	.short 0x0e29
   2f5b0:	2929 2929      	movel %a1@(10537),%a4@-
   2f5b4:	2929 2929      	movel %a1@(10537),%a4@-
   2f5b8:	2929 2929      	movel %a1@(10537),%a4@-
   2f5bc:	2929 2929      	movel %a1@(10537),%a4@-
   2f5c0:	2929 2929      	movel %a1@(10537),%a4@-
   2f5c4:	2929 2929      	movel %a1@(10537),%a4@-
   2f5c8:	2929 2929      	movel %a1@(10537),%a4@-
   2f5cc:	2929 2929      	movel %a1@(10537),%a4@-
   2f5d0:	2929 2929      	movel %a1@(10537),%a4@-
   2f5d4:	2929 2929      	movel %a1@(10537),%a4@-
   2f5d8:	2929 2929      	movel %a1@(10537),%a4@-
   2f5dc:	2929 2929      	movel %a1@(10537),%a4@-
   2f5e0:	2929 2929      	movel %a1@(10537),%a4@-
   2f5e4:	2929 2929      	movel %a1@(10537),%a4@-
   2f5e8:	2929 2929      	movel %a1@(10537),%a4@-
   2f5ec:	2929 2929      	movel %a1@(10537),%a4@-
   2f5f0:	2929 2929      	movel %a1@(10537),%a4@-
   2f5f4:	2929 2929      	movel %a1@(10537),%a4@-
   2f5f8:	2929 2929      	movel %a1@(10537),%a4@-
   2f5fc:	2929 2929      	movel %a1@(10537),%a4@-
   2f600:	2929 2929      	movel %a1@(10537),%a4@-
   2f604:	2929 2929      	movel %a1@(10537),%a4@-
   2f608:	2929 2929      	movel %a1@(10537),%a4@-
   2f60c:	2929 2929      	movel %a1@(10537),%a4@-
   2f610:	2929 2929      	movel %a1@(10537),%a4@-
   2f614:	2929 2929      	movel %a1@(10537),%a4@-
   2f618:	292c 2929      	movel %a4@(10537),%a4@-
   2f61c:	292c 2929      	movel %a4@(10537),%a4@-
   2f620:	2c29 2929      	movel %a1@(10537),%d6
   2f624:	2929 2c29      	movel %a1@(11305),%a4@-
   2f628:	2929 2929      	movel %a1@(10537),%a4@-
   2f62c:	2929 2929      	movel %a1@(10537),%a4@-
   2f630:	2929 2929      	movel %a1@(10537),%a4@-
   2f634:	2929 2929      	movel %a1@(10537),%a4@-
   2f638:	2929 2929      	movel %a1@(10537),%a4@-
   2f63c:	2929 2929      	movel %a1@(10537),%a4@-
   2f640:	2929 2929      	movel %a1@(10537),%a4@-
   2f644:	2929 2929      	movel %a1@(10537),%a4@-
   2f648:	2929 2929      	movel %a1@(10537),%a4@-
   2f64c:	2929 2929      	movel %a1@(10537),%a4@-
   2f650:	2929 2929      	movel %a1@(10537),%a4@-
   2f654:	2929 2929      	movel %a1@(10537),%a4@-
   2f658:	2929 2929      	movel %a1@(10537),%a4@-
   2f65c:	2929 2929      	movel %a1@(10537),%a4@-
   2f660:	2929 2929      	movel %a1@(10537),%a4@-
   2f664:	2929 2929      	movel %a1@(10537),%a4@-
   2f668:	2929 2929      	movel %a1@(10537),%a4@-
   2f66c:	2929 2929      	movel %a1@(10537),%a4@-
   2f670:	2929 2929      	movel %a1@(10537),%a4@-
   2f674:	2929 2929      	movel %a1@(10537),%a4@-
   2f678:	2929 2929      	movel %a1@(10537),%a4@-
   2f67c:	2929 2929      	movel %a1@(10537),%a4@-
   2f680:	2929 2929      	movel %a1@(10537),%a4@-
   2f684:	2929 2929      	movel %a1@(10537),%a4@-
   2f688:	2929 2929      	movel %a1@(10537),%a4@-
   2f68c:	2929 2929      	movel %a1@(10537),%a4@-
   2f690:	2929 2929      	movel %a1@(10537),%a4@-
   2f694:	2929 2929      	movel %a1@(10537),%a4@-
   2f698:	2929 2929      	movel %a1@(10537),%a4@-
   2f69c:	2929 2929      	movel %a1@(10537),%a4@-
   2f6a0:	2929 2929      	movel %a1@(10537),%a4@-
   2f6a4:	2929 290e      	movel %a1@(10510),%a4@-
   2f6a8:	0e29           	.short 0x0e29
   2f6aa:	2929 2929      	movel %a1@(10537),%a4@-
   2f6ae:	0e0e           	.short 0x0e0e
   2f6b0:	2929 2929      	movel %a1@(10537),%a4@-
   2f6b4:	2929 0e0e      	movel %a1@(3598),%a4@-
   2f6b8:	0e0e           	.short 0x0e0e
   2f6ba:	0e29           	.short 0x0e29
   2f6bc:	0e0e           	.short 0x0e0e
   2f6be:	0e0e           	.short 0x0e0e
   2f6c0:	0e29           	.short 0x0e29
   2f6c2:	290e           	movel %fp,%a4@-
   2f6c4:	0e0e           	.short 0x0e0e
   2f6c6:	0e0e           	.short 0x0e0e
   2f6c8:	2929 2929      	movel %a1@(10537),%a4@-
   2f6cc:	2929 2929      	movel %a1@(10537),%a4@-
   2f6d0:	0e0e           	.short 0x0e0e
   2f6d2:	0e0e           	.short 0x0e0e
   2f6d4:	0e29           	.short 0x0e29
   2f6d6:	2929 2929      	movel %a1@(10537),%a4@-
   2f6da:	290e           	movel %fp,%a4@-
   2f6dc:	0e29           	.short 0x0e29
   2f6de:	290e           	movel %fp,%a4@-
   2f6e0:	0e29           	.short 0x0e29
   2f6e2:	290e           	movel %fp,%a4@-
   2f6e4:	0e0e           	.short 0x0e0e
   2f6e6:	0e0e           	.short 0x0e0e
   2f6e8:	2929 2929      	movel %a1@(10537),%a4@-
   2f6ec:	290e           	movel %fp,%a4@-
   2f6ee:	0e29           	.short 0x0e29
   2f6f0:	2929 2929      	movel %a1@(10537),%a4@-
   2f6f4:	2929 2929      	movel %a1@(10537),%a4@-
   2f6f8:	2929 2929      	movel %a1@(10537),%a4@-
   2f6fc:	2929 2929      	movel %a1@(10537),%a4@-
   2f700:	2929 2929      	movel %a1@(10537),%a4@-
   2f704:	2929 2929      	movel %a1@(10537),%a4@-
   2f708:	2929 2929      	movel %a1@(10537),%a4@-
   2f70c:	2929 2929      	movel %a1@(10537),%a4@-
   2f710:	2929 2929      	movel %a1@(10537),%a4@-
   2f714:	2929 2929      	movel %a1@(10537),%a4@-
   2f718:	2929 2929      	movel %a1@(10537),%a4@-
   2f71c:	2929 2929      	movel %a1@(10537),%a4@-
   2f720:	2929 2929      	movel %a1@(10537),%a4@-
   2f724:	2929 2929      	movel %a1@(10537),%a4@-
   2f728:	2929 2929      	movel %a1@(10537),%a4@-
   2f72c:	2929 2929      	movel %a1@(10537),%a4@-
   2f730:	2929 2929      	movel %a1@(10537),%a4@-
   2f734:	2929 2929      	movel %a1@(10537),%a4@-
   2f738:	2929 2929      	movel %a1@(10537),%a4@-
   2f73c:	2929 2929      	movel %a1@(10537),%a4@-
   2f740:	2929 2929      	movel %a1@(10537),%a4@-
   2f744:	2929 2929      	movel %a1@(10537),%a4@-
   2f748:	2929 2929      	movel %a1@(10537),%a4@-
   2f74c:	2929 2929      	movel %a1@(10537),%a4@-
   2f750:	2929 2929      	movel %a1@(10537),%a4@-
   2f754:	2929 2929      	movel %a1@(10537),%a4@-
   2f758:	292c 2a29      	movel %a4@(10793),%a4@-
   2f75c:	2a2c 2929      	movel %a4@(10537),%d5
   2f760:	2c29 2929      	movel %a1@(10537),%d6
   2f764:	2929 2c29      	movel %a1@(11305),%a4@-
   2f768:	2929 2929      	movel %a1@(10537),%a4@-
   2f76c:	2929 2929      	movel %a1@(10537),%a4@-
   2f770:	2929 2929      	movel %a1@(10537),%a4@-
   2f774:	2929 2929      	movel %a1@(10537),%a4@-
   2f778:	2929 2929      	movel %a1@(10537),%a4@-
   2f77c:	2929 2929      	movel %a1@(10537),%a4@-
   2f780:	2929 2929      	movel %a1@(10537),%a4@-
   2f784:	2929 2929      	movel %a1@(10537),%a4@-
   2f788:	2929 2929      	movel %a1@(10537),%a4@-
   2f78c:	2929 2929      	movel %a1@(10537),%a4@-
   2f790:	2929 2929      	movel %a1@(10537),%a4@-
   2f794:	2929 2929      	movel %a1@(10537),%a4@-
   2f798:	2929 2929      	movel %a1@(10537),%a4@-
   2f79c:	2929 2929      	movel %a1@(10537),%a4@-
   2f7a0:	2929 2929      	movel %a1@(10537),%a4@-
   2f7a4:	2929 2929      	movel %a1@(10537),%a4@-
   2f7a8:	2929 2929      	movel %a1@(10537),%a4@-
   2f7ac:	2929 2929      	movel %a1@(10537),%a4@-
   2f7b0:	2929 2929      	movel %a1@(10537),%a4@-
   2f7b4:	2929 2929      	movel %a1@(10537),%a4@-
   2f7b8:	2929 2929      	movel %a1@(10537),%a4@-
   2f7bc:	2929 2929      	movel %a1@(10537),%a4@-
   2f7c0:	2929 2929      	movel %a1@(10537),%a4@-
   2f7c4:	2929 2929      	movel %a1@(10537),%a4@-
   2f7c8:	2929 2929      	movel %a1@(10537),%a4@-
   2f7cc:	2929 2929      	movel %a1@(10537),%a4@-
   2f7d0:	2929 2929      	movel %a1@(10537),%a4@-
   2f7d4:	2929 2929      	movel %a1@(10537),%a4@-
   2f7d8:	2929 2929      	movel %a1@(10537),%a4@-
   2f7dc:	2929 2929      	movel %a1@(10537),%a4@-
   2f7e0:	2929 2929      	movel %a1@(10537),%a4@-
   2f7e4:	2929 2929      	movel %a1@(10537),%a4@-
   2f7e8:	2929 2929      	movel %a1@(10537),%a4@-
   2f7ec:	2929 2929      	movel %a1@(10537),%a4@-
   2f7f0:	2929 2929      	movel %a1@(10537),%a4@-
   2f7f4:	2929 2929      	movel %a1@(10537),%a4@-
   2f7f8:	2929 2929      	movel %a1@(10537),%a4@-
   2f7fc:	2929 2929      	movel %a1@(10537),%a4@-
   2f800:	2929 2929      	movel %a1@(10537),%a4@-
   2f804:	2929 2929      	movel %a1@(10537),%a4@-
   2f808:	2929 2929      	movel %a1@(10537),%a4@-
   2f80c:	2929 2929      	movel %a1@(10537),%a4@-
   2f810:	2929 2929      	movel %a1@(10537),%a4@-
   2f814:	2929 2929      	movel %a1@(10537),%a4@-
   2f818:	2929 2929      	movel %a1@(10537),%a4@-
   2f81c:	2929 2929      	movel %a1@(10537),%a4@-
   2f820:	2929 2929      	movel %a1@(10537),%a4@-
   2f824:	2929 2929      	movel %a1@(10537),%a4@-
   2f828:	290e           	movel %fp,%a4@-
   2f82a:	0e0e           	.short 0x0e0e
   2f82c:	0e0e           	.short 0x0e0e
   2f82e:	2929 2929      	movel %a1@(10537),%a4@-
   2f832:	2929 2929      	movel %a1@(10537),%a4@-
   2f836:	2929 2929      	movel %a1@(10537),%a4@-
   2f83a:	2929 2929      	movel %a1@(10537),%a4@-
   2f83e:	2929 2929      	movel %a1@(10537),%a4@-
   2f842:	2929 2929      	movel %a1@(10537),%a4@-
   2f846:	2929 2929      	movel %a1@(10537),%a4@-
   2f84a:	2929 2929      	movel %a1@(10537),%a4@-
   2f84e:	2929 2929      	movel %a1@(10537),%a4@-
   2f852:	2929 2929      	movel %a1@(10537),%a4@-
   2f856:	2929 2929      	movel %a1@(10537),%a4@-
   2f85a:	2929 2929      	movel %a1@(10537),%a4@-
   2f85e:	2929 2929      	movel %a1@(10537),%a4@-
   2f862:	2929 2929      	movel %a1@(10537),%a4@-
   2f866:	2929 2929      	movel %a1@(10537),%a4@-
   2f86a:	2929 2929      	movel %a1@(10537),%a4@-
   2f86e:	2929 2929      	movel %a1@(10537),%a4@-
   2f872:	2929 2929      	movel %a1@(10537),%a4@-
   2f876:	2929 2929      	movel %a1@(10537),%a4@-
   2f87a:	2929 2929      	movel %a1@(10537),%a4@-
   2f87e:	2929 2929      	movel %a1@(10537),%a4@-
   2f882:	2929 2929      	movel %a1@(10537),%a4@-
   2f886:	2929 2929      	movel %a1@(10537),%a4@-
   2f88a:	2929 2929      	movel %a1@(10537),%a4@-
   2f88e:	2929 2929      	movel %a1@(10537),%a4@-
   2f892:	2929 2929      	movel %a1@(10537),%a4@-
   2f896:	2929 292a      	movel %a1@(10538),%a4@-
   2f89a:	2c2a 2c2a      	movel %a2@(11306),%d6
   2f89e:	2929 2c29      	movel %a1@(11305),%a4@-
   2f8a2:	2929 2929      	movel %a1@(10537),%a4@-
   2f8a6:	2c29 2929      	movel %a1@(10537),%d6
   2f8aa:	2929 2929      	movel %a1@(10537),%a4@-
   2f8ae:	2929 2929      	movel %a1@(10537),%a4@-
   2f8b2:	2929 2929      	movel %a1@(10537),%a4@-
   2f8b6:	2929 2929      	movel %a1@(10537),%a4@-
   2f8ba:	2929 2929      	movel %a1@(10537),%a4@-
   2f8be:	2929 2929      	movel %a1@(10537),%a4@-
   2f8c2:	2929 2929      	movel %a1@(10537),%a4@-
   2f8c6:	2929 2929      	movel %a1@(10537),%a4@-
   2f8ca:	2929 2929      	movel %a1@(10537),%a4@-
   2f8ce:	2929 2929      	movel %a1@(10537),%a4@-
   2f8d2:	2929 2929      	movel %a1@(10537),%a4@-
   2f8d6:	2929 2929      	movel %a1@(10537),%a4@-
   2f8da:	2929 2929      	movel %a1@(10537),%a4@-
   2f8de:	2929 2929      	movel %a1@(10537),%a4@-
   2f8e2:	2929 2929      	movel %a1@(10537),%a4@-
   2f8e6:	2929 2929      	movel %a1@(10537),%a4@-
   2f8ea:	2929 2929      	movel %a1@(10537),%a4@-
   2f8ee:	2929 2929      	movel %a1@(10537),%a4@-
   2f8f2:	2929 2929      	movel %a1@(10537),%a4@-
   2f8f6:	2929 2929      	movel %a1@(10537),%a4@-
   2f8fa:	2929 2929      	movel %a1@(10537),%a4@-
   2f8fe:	2929 2929      	movel %a1@(10537),%a4@-
   2f902:	2929 2929      	movel %a1@(10537),%a4@-
   2f906:	2929 2929      	movel %a1@(10537),%a4@-
   2f90a:	2929 2929      	movel %a1@(10537),%a4@-
   2f90e:	2929 2929      	movel %a1@(10537),%a4@-
   2f912:	2929 2929      	movel %a1@(10537),%a4@-
   2f916:	2929 2929      	movel %a1@(10537),%a4@-
   2f91a:	2929 2929      	movel %a1@(10537),%a4@-
   2f91e:	2929 2929      	movel %a1@(10537),%a4@-
   2f922:	2929 2929      	movel %a1@(10537),%a4@-
   2f926:	2929 2929      	movel %a1@(10537),%a4@-
   2f92a:	2929 2929      	movel %a1@(10537),%a4@-
   2f92e:	2929 2929      	movel %a1@(10537),%a4@-
   2f932:	2929 2929      	movel %a1@(10537),%a4@-
   2f936:	2929 2929      	movel %a1@(10537),%a4@-
   2f93a:	2929 2929      	movel %a1@(10537),%a4@-
   2f93e:	2929 2929      	movel %a1@(10537),%a4@-
   2f942:	2929 2929      	movel %a1@(10537),%a4@-
   2f946:	2929 2929      	movel %a1@(10537),%a4@-
   2f94a:	2929 2929      	movel %a1@(10537),%a4@-
   2f94e:	2929 2929      	movel %a1@(10537),%a4@-
   2f952:	2929 2929      	movel %a1@(10537),%a4@-
   2f956:	2929 2929      	movel %a1@(10537),%a4@-
   2f95a:	2929 2929      	movel %a1@(10537),%a4@-
   2f95e:	2929 2929      	movel %a1@(10537),%a4@-
   2f962:	2929 2929      	movel %a1@(10537),%a4@-
   2f966:	2929 2929      	movel %a1@(10537),%a4@-
   2f96a:	2929 2929      	movel %a1@(10537),%a4@-
   2f96e:	2929 2929      	movel %a1@(10537),%a4@-
   2f972:	2929 2929      	movel %a1@(10537),%a4@-
   2f976:	2929 2929      	movel %a1@(10537),%a4@-
   2f97a:	2929 2929      	movel %a1@(10537),%a4@-
   2f97e:	2929 2929      	movel %a1@(10537),%a4@-
   2f982:	2929 2929      	movel %a1@(10537),%a4@-
   2f986:	2929 2929      	movel %a1@(10537),%a4@-
   2f98a:	2929 2929      	movel %a1@(10537),%a4@-
   2f98e:	2929 2929      	movel %a1@(10537),%a4@-
   2f992:	2929 2929      	movel %a1@(10537),%a4@-
   2f996:	2929 2929      	movel %a1@(10537),%a4@-
   2f99a:	2929 2929      	movel %a1@(10537),%a4@-
   2f99e:	2929 2929      	movel %a1@(10537),%a4@-
   2f9a2:	2929 2929      	movel %a1@(10537),%a4@-
   2f9a6:	2929 2929      	movel %a1@(10537),%a4@-
   2f9aa:	2929 2929      	movel %a1@(10537),%a4@-
   2f9ae:	2929 2929      	movel %a1@(10537),%a4@-
   2f9b2:	2929 2929      	movel %a1@(10537),%a4@-
   2f9b6:	2929 2929      	movel %a1@(10537),%a4@-
   2f9ba:	2929 2929      	movel %a1@(10537),%a4@-
   2f9be:	2929 2929      	movel %a1@(10537),%a4@-
   2f9c2:	2929 2929      	movel %a1@(10537),%a4@-
   2f9c6:	2929 2929      	movel %a1@(10537),%a4@-
   2f9ca:	2929 2929      	movel %a1@(10537),%a4@-
   2f9ce:	2929 2929      	movel %a1@(10537),%a4@-
   2f9d2:	2929 2929      	movel %a1@(10537),%a4@-
   2f9d6:	2929 2929      	movel %a1@(10537),%a4@-
   2f9da:	2a2c 2a29      	movel %a4@(10793),%d5
   2f9de:	292c 2c2c      	movel %a4@(11308),%a4@-
   2f9e2:	292c 292c      	movel %a4@(10540),%a4@-
   2f9e6:	2c2c 2929      	movel %a4@(10537),%d6
   2f9ea:	2929 2929      	movel %a1@(10537),%a4@-
   2f9ee:	2929 2929      	movel %a1@(10537),%a4@-
   2f9f2:	2929 2929      	movel %a1@(10537),%a4@-
   2f9f6:	2929 2929      	movel %a1@(10537),%a4@-
   2f9fa:	2929 2929      	movel %a1@(10537),%a4@-
   2f9fe:	2929 2929      	movel %a1@(10537),%a4@-
   2fa02:	2929 2929      	movel %a1@(10537),%a4@-
   2fa06:	2929 2929      	movel %a1@(10537),%a4@-
   2fa0a:	2929 2929      	movel %a1@(10537),%a4@-
   2fa0e:	2929 2929      	movel %a1@(10537),%a4@-
   2fa12:	2929 2929      	movel %a1@(10537),%a4@-
   2fa16:	2929 2929      	movel %a1@(10537),%a4@-
   2fa1a:	2929 2929      	movel %a1@(10537),%a4@-
   2fa1e:	2929 2929      	movel %a1@(10537),%a4@-
   2fa22:	2929 2929      	movel %a1@(10537),%a4@-
   2fa26:	2929 2929      	movel %a1@(10537),%a4@-
   2fa2a:	2929 2929      	movel %a1@(10537),%a4@-
   2fa2e:	2929 2929      	movel %a1@(10537),%a4@-
   2fa32:	2929 2929      	movel %a1@(10537),%a4@-
   2fa36:	2929 2929      	movel %a1@(10537),%a4@-
   2fa3a:	2929 2929      	movel %a1@(10537),%a4@-
   2fa3e:	2929 2929      	movel %a1@(10537),%a4@-
   2fa42:	2929 2929      	movel %a1@(10537),%a4@-
   2fa46:	2929 2929      	movel %a1@(10537),%a4@-
   2fa4a:	2929 2929      	movel %a1@(10537),%a4@-
   2fa4e:	2929 2929      	movel %a1@(10537),%a4@-
   2fa52:	2929 2929      	movel %a1@(10537),%a4@-
   2fa56:	2929 2929      	movel %a1@(10537),%a4@-
   2fa5a:	2929 2929      	movel %a1@(10537),%a4@-
   2fa5e:	2929 2929      	movel %a1@(10537),%a4@-
   2fa62:	2929 2929      	movel %a1@(10537),%a4@-
   2fa66:	2929 2929      	movel %a1@(10537),%a4@-
   2fa6a:	2929 2929      	movel %a1@(10537),%a4@-
   2fa6e:	2929 2929      	movel %a1@(10537),%a4@-
   2fa72:	2929 2929      	movel %a1@(10537),%a4@-
   2fa76:	2929 2929      	movel %a1@(10537),%a4@-
   2fa7a:	2929 2929      	movel %a1@(10537),%a4@-
   2fa7e:	2929 2929      	movel %a1@(10537),%a4@-
   2fa82:	2929 2929      	movel %a1@(10537),%a4@-
   2fa86:	2929 2929      	movel %a1@(10537),%a4@-
   2fa8a:	2929 2929      	movel %a1@(10537),%a4@-
   2fa8e:	2929 2929      	movel %a1@(10537),%a4@-
   2fa92:	2929 2929      	movel %a1@(10537),%a4@-
   2fa96:	2929 2929      	movel %a1@(10537),%a4@-
   2fa9a:	2929 2929      	movel %a1@(10537),%a4@-
   2fa9e:	2929 2929      	movel %a1@(10537),%a4@-
   2faa2:	2929 2929      	movel %a1@(10537),%a4@-
   2faa6:	2929 2929      	movel %a1@(10537),%a4@-
   2faaa:	2929 2929      	movel %a1@(10537),%a4@-
   2faae:	2929 2929      	movel %a1@(10537),%a4@-
   2fab2:	2929 2929      	movel %a1@(10537),%a4@-
   2fab6:	2929 2929      	movel %a1@(10537),%a4@-
   2faba:	2929 2929      	movel %a1@(10537),%a4@-
   2fabe:	2929 2929      	movel %a1@(10537),%a4@-
   2fac2:	2929 2929      	movel %a1@(10537),%a4@-
   2fac6:	2929 2929      	movel %a1@(10537),%a4@-
   2faca:	2929 2929      	movel %a1@(10537),%a4@-
   2face:	2929 2929      	movel %a1@(10537),%a4@-
   2fad2:	2929 2929      	movel %a1@(10537),%a4@-
   2fad6:	2929 2929      	movel %a1@(10537),%a4@-
   2fada:	2929 2929      	movel %a1@(10537),%a4@-
   2fade:	2929 2929      	movel %a1@(10537),%a4@-
   2fae2:	2929 2929      	movel %a1@(10537),%a4@-
   2fae6:	2929 2929      	movel %a1@(10537),%a4@-
   2faea:	2929 2929      	movel %a1@(10537),%a4@-
   2faee:	2929 2929      	movel %a1@(10537),%a4@-
   2faf2:	2929 2929      	movel %a1@(10537),%a4@-
   2faf6:	2929 2929      	movel %a1@(10537),%a4@-
   2fafa:	2929 2929      	movel %a1@(10537),%a4@-
   2fafe:	2929 2929      	movel %a1@(10537),%a4@-
   2fb02:	2929 2929      	movel %a1@(10537),%a4@-
   2fb06:	2929 2929      	movel %a1@(10537),%a4@-
   2fb0a:	2929 2929      	movel %a1@(10537),%a4@-
   2fb0e:	2929 2929      	movel %a1@(10537),%a4@-
   2fb12:	2929 2929      	movel %a1@(10537),%a4@-
   2fb16:	2929 2929      	movel %a1@(10537),%a4@-
   2fb1a:	2929 2929      	movel %a1@(10537),%a4@-
   2fb1e:	2929 2929      	movel %a1@(10537),%a4@-
   2fb22:	2929 2929      	movel %a1@(10537),%a4@-
   2fb26:	2929 2929      	movel %a1@(10537),%a4@-
   2fb2a:	2929 2929      	movel %a1@(10537),%a4@-
   2fb2e:	2929 2929      	movel %a1@(10537),%a4@-
   2fb32:	2929 2929      	movel %a1@(10537),%a4@-
   2fb36:	2929 2929      	movel %a1@(10537),%a4@-
   2fb3a:	2929 2929      	movel %a1@(10537),%a4@-
   2fb3e:	2929 2929      	movel %a1@(10537),%a4@-
   2fb42:	2929 2929      	movel %a1@(10537),%a4@-
   2fb46:	2929 2929      	movel %a1@(10537),%a4@-
   2fb4a:	2929 2929      	movel %a1@(10537),%a4@-
   2fb4e:	2929 2929      	movel %a1@(10537),%a4@-
   2fb52:	2929 2929      	movel %a1@(10537),%a4@-
   2fb56:	2929 2929      	movel %a1@(10537),%a4@-
   2fb5a:	2929 2929      	movel %a1@(10537),%a4@-
   2fb5e:	2929 2929      	movel %a1@(10537),%a4@-
   2fb62:	2929 2929      	movel %a1@(10537),%a4@-
   2fb66:	2929 2929      	movel %a1@(10537),%a4@-
   2fb6a:	2929 2929      	movel %a1@(10537),%a4@-
   2fb6e:	2929 2929      	movel %a1@(10537),%a4@-
   2fb72:	2929 2929      	movel %a1@(10537),%a4@-
   2fb76:	2929 2929      	movel %a1@(10537),%a4@-
   2fb7a:	2929 2929      	movel %a1@(10537),%a4@-
   2fb7e:	2929 2929      	movel %a1@(10537),%a4@-
   2fb82:	2929 2929      	movel %a1@(10537),%a4@-
   2fb86:	2929 2929      	movel %a1@(10537),%a4@-
   2fb8a:	2929 2929      	movel %a1@(10537),%a4@-
   2fb8e:	2929 2929      	movel %a1@(10537),%a4@-
   2fb92:	2929 2929      	movel %a1@(10537),%a4@-
   2fb96:	2929 2929      	movel %a1@(10537),%a4@-
   2fb9a:	2929 2929      	movel %a1@(10537),%a4@-
   2fb9e:	2929 2929      	movel %a1@(10537),%a4@-
   2fba2:	2929 2929      	movel %a1@(10537),%a4@-
   2fba6:	2929 2929      	movel %a1@(10537),%a4@-
   2fbaa:	2929 2929      	movel %a1@(10537),%a4@-
   2fbae:	2929 2929      	movel %a1@(10537),%a4@-
   2fbb2:	2929 2929      	movel %a1@(10537),%a4@-
   2fbb6:	2929 2929      	movel %a1@(10537),%a4@-
   2fbba:	2929 2929      	movel %a1@(10537),%a4@-
   2fbbe:	2929 2929      	movel %a1@(10537),%a4@-
   2fbc2:	2929 2929      	movel %a1@(10537),%a4@-
   2fbc6:	2929 2929      	movel %a1@(10537),%a4@-
   2fbca:	2929 2929      	movel %a1@(10537),%a4@-
   2fbce:	2929 2929      	movel %a1@(10537),%a4@-
   2fbd2:	2929 2929      	movel %a1@(10537),%a4@-
   2fbd6:	2929 2929      	movel %a1@(10537),%a4@-
   2fbda:	2929 2929      	movel %a1@(10537),%a4@-
   2fbde:	2929 2929      	movel %a1@(10537),%a4@-
   2fbe2:	2929 2929      	movel %a1@(10537),%a4@-
   2fbe6:	2929 2929      	movel %a1@(10537),%a4@-
   2fbea:	2929 2929      	movel %a1@(10537),%a4@-
   2fbee:	2929 2929      	movel %a1@(10537),%a4@-
   2fbf2:	2929 2929      	movel %a1@(10537),%a4@-
   2fbf6:	2929 2929      	movel %a1@(10537),%a4@-
   2fbfa:	2929 2929      	movel %a1@(10537),%a4@-
   2fbfe:	2929 2929      	movel %a1@(10537),%a4@-
   2fc02:	2929 2929      	movel %a1@(10537),%a4@-
   2fc06:	2929 2929      	movel %a1@(10537),%a4@-
   2fc0a:	2929 2929      	movel %a1@(10537),%a4@-
   2fc0e:	2929 2929      	movel %a1@(10537),%a4@-
   2fc12:	2929 2929      	movel %a1@(10537),%a4@-
   2fc16:	2929 2929      	movel %a1@(10537),%a4@-
   2fc1a:	2929 2929      	movel %a1@(10537),%a4@-
   2fc1e:	2929 2929      	movel %a1@(10537),%a4@-
   2fc22:	2929 2929      	movel %a1@(10537),%a4@-
   2fc26:	2929 2929      	movel %a1@(10537),%a4@-
   2fc2a:	2929 2929      	movel %a1@(10537),%a4@-
   2fc2e:	2929 2929      	movel %a1@(10537),%a4@-
   2fc32:	2929 2929      	movel %a1@(10537),%a4@-
   2fc36:	2929 2929      	movel %a1@(10537),%a4@-
   2fc3a:	2929 2929      	movel %a1@(10537),%a4@-
   2fc3e:	2929 2929      	movel %a1@(10537),%a4@-
   2fc42:	2929 2929      	movel %a1@(10537),%a4@-
   2fc46:	2929 2929      	movel %a1@(10537),%a4@-
   2fc4a:	2929 2929      	movel %a1@(10537),%a4@-
   2fc4e:	2929 2929      	movel %a1@(10537),%a4@-
   2fc52:	2929 2929      	movel %a1@(10537),%a4@-
   2fc56:	2929 2929      	movel %a1@(10537),%a4@-
   2fc5a:	2929 2929      	movel %a1@(10537),%a4@-
   2fc5e:	2929 2929      	movel %a1@(10537),%a4@-
   2fc62:	2929 2929      	movel %a1@(10537),%a4@-
   2fc66:	2929 2929      	movel %a1@(10537),%a4@-
   2fc6a:	2929 23fc      	movel %a1@(9212),%a4@-

0002fc6c <main>:
   2fc6c:	23fc 0100 0000 	movel #16777216,1001008 <interface>
   2fc72:	0100 1008 
   2fc76:	2079 0100 1008 	moveal 1001008 <interface>,%a0
   2fc7c:	2068 001c      	moveal %a0@(28),%a0
   2fc80:	2068 0004      	moveal %a0@(4),%a0
   2fc84:	4879 0002 0054 	pea 20054 <picData>
   2fc8a:	4e90           	jsr %a0@
   2fc8c:	588f           	addql #4,%sp
   2fc8e:	207c 0d80 0004 	moveal #226492420,%a0
   2fc94:	227c 0d80 0004 	moveal #226492420,%a1
   2fc9a:	1011           	moveb %a1@,%d0
   2fc9c:	0000 ff80      	orib #-128,%d0
   2fca0:	1080           	moveb %d0,%a0@
   2fca2:	207c 0d80 000c 	moveal #226492428,%a0
   2fca8:	4210           	clrb %a0@
   2fcaa:	60fe           	bras 2fcaa <main+0x3e>

0002fcac <strcpy_s>:
   2fcac:	2f02           	movel %d2,%sp@-
   2fcae:	206f 0008      	moveal %sp@(8),%a0
   2fcb2:	222f 000c      	movel %sp@(12),%d1
   2fcb6:	226f 0010      	moveal %sp@(16),%a1
   2fcba:	b0fc 0000      	cmpaw #0,%a0
   2fcbe:	6728           	beqs 2fce8 <strcpy_s+0x3c>
   2fcc0:	4a81           	tstl %d1
   2fcc2:	6724           	beqs 2fce8 <strcpy_s+0x3c>
   2fcc4:	b2fc 0000      	cmpaw #0,%a1
   2fcc8:	6704           	beqs 2fcce <strcpy_s+0x22>
   2fcca:	7000           	moveq #0,%d0
   2fccc:	6010           	bras 2fcde <strcpy_s+0x32>
   2fcce:	4210           	clrb %a0@
   2fcd0:	6016           	bras 2fce8 <strcpy_s+0x3c>
   2fcd2:	1431 0800      	moveb %a1@(00000000,%d0:l),%d2
   2fcd6:	1182 0800      	moveb %d2,%a0@(00000000,%d0:l)
   2fcda:	6710           	beqs 2fcec <strcpy_s+0x40>
   2fcdc:	5280           	addql #1,%d0
   2fcde:	b280           	cmpl %d0,%d1
   2fce0:	6ef0           	bgts 2fcd2 <strcpy_s+0x26>
   2fce2:	4210           	clrb %a0@
   2fce4:	7002           	moveq #2,%d0
   2fce6:	6006           	bras 2fcee <strcpy_s+0x42>
   2fce8:	7001           	moveq #1,%d0
   2fcea:	6002           	bras 2fcee <strcpy_s+0x42>
   2fcec:	7000           	moveq #0,%d0
   2fcee:	241f           	movel %sp@+,%d2
   2fcf0:	4e75           	rts

0002fcf2 <strcat_s>:
   2fcf2:	48e7 3030      	moveml %d2-%d3/%a2-%a3,%sp@-
   2fcf6:	206f 0014      	moveal %sp@(20),%a0
   2fcfa:	222f 0018      	movel %sp@(24),%d1
   2fcfe:	246f 001c      	moveal %sp@(28),%a2
   2fd02:	b0fc 0000      	cmpaw #0,%a0
   2fd06:	6742           	beqs 2fd4a <strcat_s+0x58>
   2fd08:	4a81           	tstl %d1
   2fd0a:	673e           	beqs 2fd4a <strcat_s+0x58>
   2fd0c:	b4fc 0000      	cmpaw #0,%a2
   2fd10:	6704           	beqs 2fd16 <strcat_s+0x24>
   2fd12:	7000           	moveq #0,%d0
   2fd14:	600c           	bras 2fd22 <strcat_s+0x30>
   2fd16:	4210           	clrb %a0@
   2fd18:	6030           	bras 2fd4a <strcat_s+0x58>
   2fd1a:	4a30 0800      	tstb %a0@(00000000,%d0:l)
   2fd1e:	6708           	beqs 2fd28 <strcat_s+0x36>
   2fd20:	5280           	addql #1,%d0
   2fd22:	b280           	cmpl %d0,%d1
   2fd24:	6ef4           	bgts 2fd1a <strcat_s+0x28>
   2fd26:	601c           	bras 2fd44 <strcat_s+0x52>
   2fd28:	2601           	movel %d1,%d3
   2fd2a:	9680           	subl %d0,%d3
   2fd2c:	93c9           	subal %a1,%a1
   2fd2e:	47f0 0800      	lea %a0@(00000000,%d0:l),%a3
   2fd32:	b689           	cmpl %a1,%d3
   2fd34:	67ea           	beqs 2fd20 <strcat_s+0x2e>
   2fd36:	1432 9800      	moveb %a2@(00000000,%a1:l),%d2
   2fd3a:	1782 9800      	moveb %d2,%a3@(00000000,%a1:l)
   2fd3e:	670e           	beqs 2fd4e <strcat_s+0x5c>
   2fd40:	5289           	addql #1,%a1
   2fd42:	60ee           	bras 2fd32 <strcat_s+0x40>
   2fd44:	4210           	clrb %a0@
   2fd46:	7002           	moveq #2,%d0
   2fd48:	6006           	bras 2fd50 <strcat_s+0x5e>
   2fd4a:	7001           	moveq #1,%d0
   2fd4c:	6002           	bras 2fd50 <strcat_s+0x5e>
   2fd4e:	7000           	moveq #0,%d0
   2fd50:	4cdf 0c0c      	moveml %sp@+,%d2-%d3/%a2-%a3
   2fd54:	4e75           	rts

0002fd56 <strnlen_s>:
   2fd56:	206f 0004      	moveal %sp@(4),%a0
   2fd5a:	7000           	moveq #0,%d0
   2fd5c:	b0fc 0000      	cmpaw #0,%a0
   2fd60:	6712           	beqs 2fd74 <strnlen_s+0x1e>
   2fd62:	b0af 0008      	cmpl %sp@(8),%d0
   2fd66:	6c0c           	bges 2fd74 <strnlen_s+0x1e>
   2fd68:	4a30 0800      	tstb %a0@(00000000,%d0:l)
   2fd6c:	6704           	beqs 2fd72 <strnlen_s+0x1c>
   2fd6e:	5280           	addql #1,%d0
   2fd70:	60f0           	bras 2fd62 <strnlen_s+0xc>
   2fd72:	4e75           	rts
   2fd74:	4e75           	rts

0002fd76 <strkitten_s>:
   2fd76:	48e7 3020      	moveml %d2-%d3/%a2,%sp@-
   2fd7a:	246f 0010      	moveal %sp@(16),%a2
   2fd7e:	242f 0014      	movel %sp@(20),%d2
   2fd82:	262f 0018      	movel %sp@(24),%d3
   2fd86:	b4fc 0000      	cmpaw #0,%a2
   2fd8a:	672c           	beqs 2fdb8 <strkitten_s+0x42>
   2fd8c:	4a82           	tstl %d2
   2fd8e:	6728           	beqs 2fdb8 <strkitten_s+0x42>
   2fd90:	4a03           	tstb %d3
   2fd92:	6604           	bnes 2fd98 <strkitten_s+0x22>
   2fd94:	4212           	clrb %a2@
   2fd96:	6020           	bras 2fdb8 <strkitten_s+0x42>
   2fd98:	2f02           	movel %d2,%sp@-
   2fd9a:	2f0a           	movel %a2,%sp@-
   2fd9c:	4eba ffb8      	jsr %pc@(2fd56 <strnlen_s>)
   2fda0:	508f           	addql #8,%sp
   2fda2:	b082           	cmpl %d2,%d0
   2fda4:	6c0c           	bges 2fdb2 <strkitten_s+0x3c>
   2fda6:	1583 0800      	moveb %d3,%a2@(00000000,%d0:l)
   2fdaa:	4232 0801      	clrb %a2@(00000001,%d0:l)
   2fdae:	7000           	moveq #0,%d0
   2fdb0:	6008           	bras 2fdba <strkitten_s+0x44>
   2fdb2:	4212           	clrb %a2@
   2fdb4:	7002           	moveq #2,%d0
   2fdb6:	6002           	bras 2fdba <strkitten_s+0x44>
   2fdb8:	7001           	moveq #1,%d0
   2fdba:	4cdf 040c      	moveml %sp@+,%d2-%d3/%a2
   2fdbe:	4e75           	rts

0002fdc0 <memcpy>:
   2fdc0:	202f 0004      	movel %sp@(4),%d0
   2fdc4:	206f 0008      	moveal %sp@(8),%a0
   2fdc8:	7200           	moveq #0,%d1
   2fdca:	b2af 000c      	cmpl %sp@(12),%d1
   2fdce:	670c           	beqs 2fddc <memcpy+0x1c>
   2fdd0:	2240           	moveal %d0,%a1
   2fdd2:	13b0 1800 1800 	moveb %a0@(00000000,%d1:l),%a1@(00000000,%d1:l)
   2fdd8:	5281           	addql #1,%d1
   2fdda:	60ee           	bras 2fdca <memcpy+0xa>
   2fddc:	4e75           	rts

0002fdde <memset>:
   2fdde:	202f 0004      	movel %sp@(4),%d0
   2fde2:	2200           	movel %d0,%d1
   2fde4:	d2af 000c      	addl %sp@(12),%d1
   2fde8:	2040           	moveal %d0,%a0
   2fdea:	b288           	cmpl %a0,%d1
   2fdec:	6706           	beqs 2fdf4 <memset+0x16>
   2fdee:	10ef 000b      	moveb %sp@(11),%a0@+
   2fdf2:	60f6           	bras 2fdea <memset+0xc>
   2fdf4:	4e75           	rts

0002fdf6 <memcmp>:
   2fdf6:	2f0a           	movel %a2,%sp@-
   2fdf8:	226f 0008      	moveal %sp@(8),%a1
   2fdfc:	7200           	moveq #0,%d1
   2fdfe:	7000           	moveq #0,%d0
   2fe00:	b2af 0010      	cmpl %sp@(16),%d1
   2fe04:	671e           	beqs 2fe24 <memcmp+0x2e>
   2fe06:	4a80           	tstl %d0
   2fe08:	661a           	bnes 2fe24 <memcmp+0x2e>
   2fe0a:	1031 1800      	moveb %a1@(00000000,%d1:l),%d0
   2fe0e:	4880           	extw %d0
   2fe10:	3040           	moveaw %d0,%a0
   2fe12:	246f 000c      	moveal %sp@(12),%a2
   2fe16:	1032 1800      	moveb %a2@(00000000,%d1:l),%d0
   2fe1a:	4880           	extw %d0
   2fe1c:	90c0           	subaw %d0,%a0
   2fe1e:	2008           	movel %a0,%d0
   2fe20:	5281           	addql #1,%d1
   2fe22:	60dc           	bras 2fe00 <memcmp+0xa>
   2fe24:	245f           	moveal %sp@+,%a2
   2fe26:	4e75           	rts

0002fe28 <sbrk>:
   2fe28:	222f 0004      	movel %sp@(4),%d1
   2fe2c:	6608           	bnes 2fe36 <sbrk+0xe>
   2fe2e:	2039 0100 1000 	movel 1001000 <heap>,%d0
   2fe34:	4e75           	rts
   2fe36:	4ab9 0100 1000 	tstl 1001000 <heap>
   2fe3c:	660a           	bnes 2fe48 <sbrk+0x20>
   2fe3e:	23fc 0300 0000 	movel #50331648,1001000 <heap>
   2fe44:	0100 1000 
   2fe48:	2039 0100 1000 	movel 1001000 <heap>,%d0
   2fe4e:	d280           	addl %d0,%d1
   2fe50:	0c81 03ff ffff 	cmpil #67108863,%d1
   2fe56:	6206           	bhis 2fe5e <sbrk+0x36>
   2fe58:	23c1 0100 1000 	movel %d1,1001000 <heap>
   2fe5e:	4e75           	rts

0002fe60 <brk>:
   2fe60:	2039 0100 1000 	movel 1001000 <heap>,%d0
   2fe66:	23ef 0004 0100 	movel %sp@(4),1001000 <heap>
   2fe6c:	1000 
   2fe6e:	4e75           	rts

0002fe70 <malloc_find_free_block>:
   2fe70:	226f 0004      	moveal %sp@(4),%a1
   2fe74:	202f 0008      	movel %sp@(8),%d0
   2fe78:	2079 0100 1004 	moveal 1001004 <_edata>,%a0
   2fe7e:	b0fc 0000      	cmpaw #0,%a0
   2fe82:	6712           	beqs 2fe96 <malloc_find_free_block+0x26>
   2fe84:	4aa8 0008      	tstl %a0@(8)
   2fe88:	6608           	bnes 2fe92 <malloc_find_free_block+0x22>
   2fe8a:	2288           	movel %a0,%a1@
   2fe8c:	2068 0004      	moveal %a0@(4),%a0
   2fe90:	60ec           	bras 2fe7e <malloc_find_free_block+0xe>
   2fe92:	b090           	cmpl %a0@,%d0
   2fe94:	6ef4           	bgts 2fe8a <malloc_find_free_block+0x1a>
   2fe96:	2008           	movel %a0,%d0
   2fe98:	4e75           	rts

0002fe9a <malloc_request_space>:
   2fe9a:	48e7 0038      	moveml %a2-%a4,%sp@-
   2fe9e:	286f 0010      	moveal %sp@(16),%a4
   2fea2:	266f 0014      	moveal %sp@(20),%a3
   2fea6:	2479 0100 1000 	moveal 1001000 <heap>,%a2
   2feac:	486b 000c      	pea %a3@(12)
   2feb0:	4eba ff76      	jsr %pc@(2fe28 <sbrk>)
   2feb4:	588f           	addql #4,%sp
   2feb6:	72ff           	moveq #-1,%d1
   2feb8:	b280           	cmpl %d0,%d1
   2feba:	6718           	beqs 2fed4 <malloc_request_space+0x3a>
   2febc:	b8fc 0000      	cmpaw #0,%a4
   2fec0:	6704           	beqs 2fec6 <malloc_request_space+0x2c>
   2fec2:	294a 0004      	movel %a2,%a4@(4)
   2fec6:	248b           	movel %a3,%a2@
   2fec8:	42aa 0004      	clrl %a2@(4)
   2fecc:	42aa 0008      	clrl %a2@(8)
   2fed0:	200a           	movel %a2,%d0
   2fed2:	6002           	bras 2fed6 <malloc_request_space+0x3c>
   2fed4:	7000           	moveq #0,%d0
   2fed6:	4cdf 1c00      	moveml %sp@+,%a2-%a4
   2feda:	4e75           	rts

0002fedc <malloc>:
   2fedc:	598f           	subql #4,%sp
   2fede:	2f0e           	movel %fp,%sp@-
   2fee0:	2f02           	movel %d2,%sp@-
   2fee2:	242f 0010      	movel %sp@(16),%d2
   2fee6:	5382           	subql #1,%d2
   2fee8:	70fc           	moveq #-4,%d0
   2feea:	c480           	andl %d0,%d2
   2feec:	5882           	addql #4,%d2
   2feee:	6604           	bnes 2fef4 <malloc+0x18>
   2fef0:	7000           	moveq #0,%d0
   2fef2:	6062           	bras 2ff56 <malloc+0x7a>
   2fef4:	2039 0100 1004 	movel 1001004 <_edata>,%d0
   2fefa:	662a           	bnes 2ff26 <malloc+0x4a>
   2fefc:	23fc 0300 0000 	movel #50331648,1001004 <_edata>
   2ff02:	0100 1004 
   2ff06:	23fc 0300 0000 	movel #50331648,1001000 <heap>
   2ff0c:	0100 1000 
   2ff10:	2f02           	movel %d2,%sp@-
   2ff12:	42a7           	clrl %sp@-
   2ff14:	4eba ff84      	jsr %pc@(2fe9a <malloc_request_space>)
   2ff18:	508f           	addql #8,%sp
   2ff1a:	4a80           	tstl %d0
   2ff1c:	67d2           	beqs 2fef0 <malloc+0x14>
   2ff1e:	23c0 0100 1004 	movel %d0,1001004 <_edata>
   2ff24:	602c           	bras 2ff52 <malloc+0x76>
   2ff26:	4def 000c      	lea %sp@(12),%fp
   2ff2a:	2d00           	movel %d0,%fp@-
   2ff2c:	2f02           	movel %d2,%sp@-
   2ff2e:	2f0e           	movel %fp,%sp@-
   2ff30:	4eba ff3e      	jsr %pc@(2fe70 <malloc_find_free_block>)
   2ff34:	508f           	addql #8,%sp
   2ff36:	4a80           	tstl %d0
   2ff38:	6612           	bnes 2ff4c <malloc+0x70>
   2ff3a:	2f02           	movel %d2,%sp@-
   2ff3c:	2f2f 000c      	movel %sp@(12),%sp@-
   2ff40:	4eba ff58      	jsr %pc@(2fe9a <malloc_request_space>)
   2ff44:	508f           	addql #8,%sp
   2ff46:	4a80           	tstl %d0
   2ff48:	6608           	bnes 2ff52 <malloc+0x76>
   2ff4a:	600a           	bras 2ff56 <malloc+0x7a>
   2ff4c:	2040           	moveal %d0,%a0
   2ff4e:	42a8 0008      	clrl %a0@(8)
   2ff52:	720c           	moveq #12,%d1
   2ff54:	d081           	addl %d1,%d0
   2ff56:	241f           	movel %sp@+,%d2
   2ff58:	2c5f           	moveal %sp@+,%fp
   2ff5a:	588f           	addql #4,%sp
   2ff5c:	4e75           	rts

0002ff5e <malloc_get_block_ptr>:
   2ff5e:	70f4           	moveq #-12,%d0
   2ff60:	d0af 0004      	addl %sp@(4),%d0
   2ff64:	4e75           	rts

0002ff66 <free>:
   2ff66:	206f 0004      	moveal %sp@(4),%a0
   2ff6a:	b0fc 0000      	cmpaw #0,%a0
   2ff6e:	6706           	beqs 2ff76 <free+0x10>
   2ff70:	7001           	moveq #1,%d0
   2ff72:	2140 fffc      	movel %d0,%a0@(-4)
   2ff76:	4e75           	rts

0002ff78 <realloc>:
   2ff78:	48e7 3020      	moveml %d2-%d3/%a2,%sp@-
   2ff7c:	246f 0010      	moveal %sp@(16),%a2
   2ff80:	202f 0014      	movel %sp@(20),%d0
   2ff84:	b4fc 0000      	cmpaw #0,%a2
   2ff88:	660c           	bnes 2ff96 <realloc+0x1e>
   2ff8a:	2f40 0010      	movel %d0,%sp@(16)
   2ff8e:	4cdf 040c      	moveml %sp@+,%d2-%d3/%a2
   2ff92:	6000 ff48      	braw 2fedc <malloc>
   2ff96:	262a fff4      	movel %a2@(-12),%d3
   2ff9a:	b680           	cmpl %d0,%d3
   2ff9c:	6c24           	bges 2ffc2 <realloc+0x4a>
   2ff9e:	2f00           	movel %d0,%sp@-
   2ffa0:	4eba ff3a      	jsr %pc@(2fedc <malloc>)
   2ffa4:	2400           	movel %d0,%d2
   2ffa6:	588f           	addql #4,%sp
   2ffa8:	671c           	beqs 2ffc6 <realloc+0x4e>
   2ffaa:	2f03           	movel %d3,%sp@-
   2ffac:	2f0a           	movel %a2,%sp@-
   2ffae:	2f00           	movel %d0,%sp@-
   2ffb0:	4eba fe0e      	jsr %pc@(2fdc0 <memcpy>)
   2ffb4:	2f0a           	movel %a2,%sp@-
   2ffb6:	4eba ffae      	jsr %pc@(2ff66 <free>)
   2ffba:	4fef 0010      	lea %sp@(16),%sp
   2ffbe:	2002           	movel %d2,%d0
   2ffc0:	6006           	bras 2ffc8 <realloc+0x50>
   2ffc2:	200a           	movel %a2,%d0
   2ffc4:	6002           	bras 2ffc8 <realloc+0x50>
   2ffc6:	7000           	moveq #0,%d0
   2ffc8:	4cdf 040c      	moveml %sp@+,%d2-%d3/%a2
   2ffcc:	4e75           	rts

0002ffce <calloc>:
   2ffce:	2f03           	movel %d3,%sp@-
   2ffd0:	2f02           	movel %d2,%sp@-
   2ffd2:	2f2f 0010      	movel %sp@(16),%sp@-
   2ffd6:	2f2f 0010      	movel %sp@(16),%sp@-
   2ffda:	4eb9 0003 0004 	jsr 30004 <__mulsi3>
   2ffe0:	508f           	addql #8,%sp
   2ffe2:	2600           	movel %d0,%d3
   2ffe4:	2f00           	movel %d0,%sp@-
   2ffe6:	4eba fef4      	jsr %pc@(2fedc <malloc>)
   2ffea:	2400           	movel %d0,%d2
   2ffec:	2f03           	movel %d3,%sp@-
   2ffee:	42a7           	clrl %sp@-
   2fff0:	2f00           	movel %d0,%sp@-
   2fff2:	4eba fdea      	jsr %pc@(2fdde <memset>)
   2fff6:	4fef 0010      	lea %sp@(16),%sp
   2fffa:	2002           	movel %d2,%d0
   2fffc:	241f           	movel %sp@+,%d2
   2fffe:	261f           	movel %sp@+,%d3
   30000:	4e75           	rts
	...

00030004 <__mulsi3>:
   30004:	302f 0004      	movew %sp@(4),%d0
   30008:	c0ef 000a      	muluw %sp@(10),%d0
   3000c:	322f 0006      	movew %sp@(6),%d1
   30010:	c2ef 0008      	muluw %sp@(8),%d1
   30014:	d041           	addw %d1,%d0
   30016:	4840           	swap %d0
   30018:	4240           	clrw %d0
   3001a:	322f 0006      	movew %sp@(6),%d1
   3001e:	c2ef 000a      	muluw %sp@(10),%d1
   30022:	d081           	addl %d1,%d0
   30024:	4e75           	rts
	...

00030028 <__CTOR_LIST__>:
	...

00030030 <__CTOR_END__>:
	...

00030038 <__DTOR_END__>:
   30038:	4e56 0000      	linkw %fp,#0
   3003c:	4e5e           	unlk %fp
   3003e:	4e75           	rts

00030040 <__FINI_SECTION__>:
   30040:	4e56 0000      	linkw %fp,#0
   30044:	4e5e           	unlk %fp
   30046:	4e75           	rts
